
TransistorTester.elf:     file format elf32-avr

Sections:
Idx Name          Size      VMA       LMA       File off  Algn
  0 .data         00000002  00800100  00002e6a  00002f1e  2**0
                  CONTENTS, ALLOC, LOAD, DATA
  1 .text         00002e6a  00000000  00000000  000000b4  2**1
                  CONTENTS, ALLOC, LOAD, READONLY, CODE
  2 .bss          00000068  00800102  00800102  00002f20  2**0
                  ALLOC
  3 .eeprom       00000203  00810000  00810000  00002f20  2**0
                  CONTENTS, ALLOC, LOAD, READONLY, DATA
  4 .stab         00000dbc  00000000  00000000  00003124  2**2
                  CONTENTS, READONLY, DEBUGGING
  5 .stabstr      000001d2  00000000  00000000  00003ee0  2**0
                  CONTENTS, READONLY, DEBUGGING
  6 .debug_aranges 00000040  00000000  00000000  000040b2  2**0
                  CONTENTS, READONLY, DEBUGGING
  7 .debug_pubnames 000005a5  00000000  00000000  000040f2  2**0
                  CONTENTS, READONLY, DEBUGGING
  8 .debug_info   000019d3  00000000  00000000  00004697  2**0
                  CONTENTS, READONLY, DEBUGGING
  9 .debug_abbrev 00000364  00000000  00000000  0000606a  2**0
                  CONTENTS, READONLY, DEBUGGING
 10 .debug_line   00002801  00000000  00000000  000063ce  2**0
                  CONTENTS, READONLY, DEBUGGING
 11 .debug_frame  000001a0  00000000  00000000  00008bd0  2**2
                  CONTENTS, READONLY, DEBUGGING
 12 .debug_str    000006bf  00000000  00000000  00008d70  2**0
                  CONTENTS, READONLY, DEBUGGING
 13 .debug_loc    00001140  00000000  00000000  0000942f  2**0
                  CONTENTS, READONLY, DEBUGGING
 14 .debug_pubtypes 00000090  00000000  00000000  0000a56f  2**0
                  CONTENTS, READONLY, DEBUGGING

Disassembly of section .text:

00000000 <__vectors>:
       0:	0c 94 34 00 	jmp	0x68	; 0x68 <__ctors_end>
       4:	0c 94 51 00 	jmp	0xa2	; 0xa2 <__bad_interrupt>
       8:	0c 94 51 00 	jmp	0xa2	; 0xa2 <__bad_interrupt>
       c:	0c 94 51 00 	jmp	0xa2	; 0xa2 <__bad_interrupt>
      10:	0c 94 51 00 	jmp	0xa2	; 0xa2 <__bad_interrupt>
      14:	0c 94 51 00 	jmp	0xa2	; 0xa2 <__bad_interrupt>
      18:	0c 94 51 00 	jmp	0xa2	; 0xa2 <__bad_interrupt>
      1c:	0c 94 51 00 	jmp	0xa2	; 0xa2 <__bad_interrupt>
      20:	0c 94 51 00 	jmp	0xa2	; 0xa2 <__bad_interrupt>
      24:	0c 94 51 00 	jmp	0xa2	; 0xa2 <__bad_interrupt>
      28:	0c 94 51 00 	jmp	0xa2	; 0xa2 <__bad_interrupt>
      2c:	0c 94 51 00 	jmp	0xa2	; 0xa2 <__bad_interrupt>
      30:	0c 94 51 00 	jmp	0xa2	; 0xa2 <__bad_interrupt>
      34:	0c 94 51 00 	jmp	0xa2	; 0xa2 <__bad_interrupt>
      38:	0c 94 51 00 	jmp	0xa2	; 0xa2 <__bad_interrupt>
      3c:	0c 94 51 00 	jmp	0xa2	; 0xa2 <__bad_interrupt>
      40:	0c 94 51 00 	jmp	0xa2	; 0xa2 <__bad_interrupt>
      44:	0c 94 51 00 	jmp	0xa2	; 0xa2 <__bad_interrupt>
      48:	0c 94 51 00 	jmp	0xa2	; 0xa2 <__bad_interrupt>
      4c:	0c 94 51 00 	jmp	0xa2	; 0xa2 <__bad_interrupt>
      50:	0c 94 51 00 	jmp	0xa2	; 0xa2 <__bad_interrupt>
      54:	0c 94 51 00 	jmp	0xa2	; 0xa2 <__bad_interrupt>
      58:	0c 94 51 00 	jmp	0xa2	; 0xa2 <__bad_interrupt>
      5c:	0c 94 51 00 	jmp	0xa2	; 0xa2 <__bad_interrupt>
      60:	0c 94 51 00 	jmp	0xa2	; 0xa2 <__bad_interrupt>
      64:	0c 94 51 00 	jmp	0xa2	; 0xa2 <__bad_interrupt>

00000068 <__ctors_end>:
      68:	11 24       	eor	r1, r1
      6a:	1f be       	out	0x3f, r1	; 63
      6c:	cf ef       	ldi	r28, 0xFF	; 255
      6e:	d8 e0       	ldi	r29, 0x08	; 8
      70:	de bf       	out	0x3e, r29	; 62
      72:	cd bf       	out	0x3d, r28	; 61

00000074 <__do_copy_data>:
      74:	11 e0       	ldi	r17, 0x01	; 1
      76:	a0 e0       	ldi	r26, 0x00	; 0
      78:	b1 e0       	ldi	r27, 0x01	; 1
      7a:	ea e6       	ldi	r30, 0x6A	; 106
      7c:	fe e2       	ldi	r31, 0x2E	; 46
      7e:	02 c0       	rjmp	.+4      	; 0x84 <__do_copy_data+0x10>
      80:	05 90       	lpm	r0, Z+
      82:	0d 92       	st	X+, r0
      84:	a2 30       	cpi	r26, 0x02	; 2
      86:	b1 07       	cpc	r27, r17
      88:	d9 f7       	brne	.-10     	; 0x80 <__do_copy_data+0xc>

0000008a <__do_clear_bss>:
      8a:	11 e0       	ldi	r17, 0x01	; 1
      8c:	a2 e0       	ldi	r26, 0x02	; 2
      8e:	b1 e0       	ldi	r27, 0x01	; 1
      90:	01 c0       	rjmp	.+2      	; 0x94 <.do_clear_bss_start>

00000092 <.do_clear_bss_loop>:
      92:	1d 92       	st	X+, r1

00000094 <.do_clear_bss_start>:
      94:	aa 36       	cpi	r26, 0x6A	; 106
      96:	b1 07       	cpc	r27, r17
      98:	e1 f7       	brne	.-8      	; 0x92 <.do_clear_bss_loop>
      9a:	0e 94 c9 10 	call	0x2192	; 0x2192 <main>
      9e:	0c 94 33 17 	jmp	0x2e66	; 0x2e66 <_exit>

000000a2 <__bad_interrupt>:
      a2:	0c 94 00 00 	jmp	0	; 0x0 <__vectors>

000000a6 <lcd_enable>:
  LCD_PORT &= 0xF0;
}

// genertes the Enable-Puls
void lcd_enable(void) {
   LCD_PORT |= (1<<LCD_EN1);
      a6:	5d 9a       	sbi	0x0b, 5	; 11
   wait10us();			// short break 
      a8:	0e 94 b0 15 	call	0x2b60	; 0x2b60 <wait10us>
   // if problems occure, set the wait time to the value of datasheet of your display
   // http://www.mikrocontroller.net/topic/80900
   LCD_PORT &= ~(1<<LCD_EN1);
      ac:	5d 98       	cbi	0x0b, 5	; 11
}
      ae:	08 95       	ret

000000b0 <lcd_send>:
	}
#endif
}

//output to  LCD; 4-Bit-Modus
void lcd_send(unsigned char data) {
      b0:	df 93       	push	r29
      b2:	cf 93       	push	r28
      b4:	0f 92       	push	r0
      b6:	cd b7       	in	r28, 0x3d	; 61
      b8:	de b7       	in	r29, 0x3e	; 62
   // set upper Nibble
  LCD_PORT = (LCD_PORT & 0xF0) | ((data >> 4) & 0x0F);
      ba:	2b b1       	in	r18, 0x0b	; 11
      bc:	98 2f       	mov	r25, r24
      be:	92 95       	swap	r25
      c0:	9f 70       	andi	r25, 0x0F	; 15
      c2:	20 7f       	andi	r18, 0xF0	; 240
      c4:	92 2b       	or	r25, r18
      c6:	9b b9       	out	0x0b, r25	; 11
#if F_CPU < 2000000
  _delay_us(5);
#else
  wait5us();
      c8:	89 83       	std	Y+1, r24	; 0x01
      ca:	0e 94 b1 15 	call	0x2b62	; 0x2b62 <wait5us>
#endif
  lcd_enable();
      ce:	0e 94 53 00 	call	0xa6	; 0xa6 <lcd_enable>
   // set lower Nibble 
  LCD_PORT = (LCD_PORT & 0xF0) | (data & 0x0F);
      d2:	9b b1       	in	r25, 0x0b	; 11
      d4:	89 81       	ldd	r24, Y+1	; 0x01
      d6:	8f 70       	andi	r24, 0x0F	; 15
      d8:	90 7f       	andi	r25, 0xF0	; 240
      da:	89 2b       	or	r24, r25
      dc:	8b b9       	out	0x0b, r24	; 11
#if F_CPU < 2000000
  _delay_us(5);
#else
  wait5us();
      de:	0e 94 b1 15 	call	0x2b62	; 0x2b62 <wait5us>
#endif
  lcd_enable();
      e2:	0e 94 53 00 	call	0xa6	; 0xa6 <lcd_enable>
  wait50us();
      e6:	0e 94 ac 15 	call	0x2b58	; 0x2b58 <wait50us>
  LCD_PORT &= 0xF0;
      ea:	8b b1       	in	r24, 0x0b	; 11
      ec:	80 7f       	andi	r24, 0xF0	; 240
      ee:	8b b9       	out	0x0b, r24	; 11
}
      f0:	0f 90       	pop	r0
      f2:	cf 91       	pop	r28
      f4:	df 91       	pop	r29
      f6:	08 95       	ret

000000f8 <lcd_command>:
}
 
// sends a command to the LCD
 
void lcd_command(unsigned char temp1) {
	LCD_PORT &= ~(1<<LCD_RS);        // set RS to 0 
      f8:	5c 98       	cbi	0x0b, 4	; 11
	lcd_send(temp1);
      fa:	0e 94 58 00 	call	0xb0	; 0xb0 <lcd_send>
#ifdef WITH_UART
	if((temp1 == 0x80) || (temp1 == 0xC0)) {
		uart_newline();
	}
#endif
}
      fe:	08 95       	ret

00000100 <lcd_data>:
void lcd_testpin(unsigned char temp) {
   lcd_data(temp + '1');
}
// sends data byte to the LCD 
void lcd_data(unsigned char temp1) {
 LCD_PORT |= (1<<LCD_RS);        // set RS to 1 
     100:	5c 9a       	sbi	0x0b, 4	; 11
 lcd_send(temp1);
     102:	0e 94 58 00 	call	0xb0	; 0xb0 <lcd_send>
    	break;
    default:
    	uart_putc(temp1);
 }
#endif
}
     106:	08 95       	ret

00000108 <lcd_testpin>:
 

// sends numeric character (Pin Number) to the LCD 
// from binary 0 we send ASCII 1 ....
void lcd_testpin(unsigned char temp) {
   lcd_data(temp + '1');
     108:	8f 5c       	subi	r24, 0xCF	; 207
     10a:	0e 94 80 00 	call	0x100	; 0x100 <lcd_data>
}
     10e:	08 95       	ret

00000110 <lcd_clear>:
}
 
// send the command to clear the display 
 
void lcd_clear(void) {
   lcd_command(CLEAR_DISPLAY);
     110:	81 e0       	ldi	r24, 0x01	; 1
     112:	0e 94 7c 00 	call	0xf8	; 0xf8 <lcd_command>
   wait5ms();
     116:	0e 94 a2 15 	call	0x2b44	; 0x2b44 <wait5ms>
#ifdef WITH_UART
   uart_newline();
#endif
}
     11a:	08 95       	ret

0000011c <lcd_init>:
 
// Initialise: 
// Mustt be called first .
 
void lcd_init(void) {
   LCD_DDR = LCD_DDR | 0x0F | (1<<LCD_RS) | (1<<LCD_EN1);   // switch Port to output
     11c:	8a b1       	in	r24, 0x0a	; 10
     11e:	8f 63       	ori	r24, 0x3F	; 63
     120:	8a b9       	out	0x0a, r24	; 10
   // to initialise, send 3 times
          wait30ms();
     122:	0e 94 9f 15 	call	0x2b3e	; 0x2b3e <wait30ms>
   LCD_PORT = (LCD_PORT & 0xF0 & ~(1<<LCD_RS)) | 0x03;
     126:	8b b1       	in	r24, 0x0b	; 11
     128:	80 7e       	andi	r24, 0xE0	; 224
     12a:	83 60       	ori	r24, 0x03	; 3
     12c:	8b b9       	out	0x0b, r24	; 11
   lcd_enable();
     12e:	0e 94 53 00 	call	0xa6	; 0xa6 <lcd_enable>

   wait5ms();
     132:	0e 94 a2 15 	call	0x2b44	; 0x2b44 <wait5ms>
   lcd_enable();
     136:	0e 94 53 00 	call	0xa6	; 0xa6 <lcd_enable>

   wait1ms();
     13a:	0e 94 a6 15 	call	0x2b4c	; 0x2b4c <wait1ms>
   lcd_enable();
     13e:	0e 94 53 00 	call	0xa6	; 0xa6 <lcd_enable>
   wait1ms();
     142:	0e 94 a6 15 	call	0x2b4c	; 0x2b4c <wait1ms>
   LCD_PORT = (LCD_PORT & 0xF0 & ~(1<<LCD_RS)) | 0x02;
     146:	8b b1       	in	r24, 0x0b	; 11
     148:	80 7e       	andi	r24, 0xE0	; 224
     14a:	82 60       	ori	r24, 0x02	; 2
     14c:	8b b9       	out	0x0b, r24	; 11
   wait1ms();
     14e:	0e 94 a6 15 	call	0x2b4c	; 0x2b4c <wait1ms>
   lcd_enable();
     152:	0e 94 53 00 	call	0xa6	; 0xa6 <lcd_enable>
   wait1ms();
     156:	0e 94 a6 15 	call	0x2b4c	; 0x2b4c <wait1ms>

   // 4Bit / 2 rows / 5x7
   lcd_command(CMD_SetIFOptions | 0x08);
     15a:	88 e2       	ldi	r24, 0x28	; 40
     15c:	0e 94 7c 00 	call	0xf8	; 0xf8 <lcd_command>

   // Display on / Cursor off / no Blinking
   lcd_command(CMD_SetDisplayAndCursor | 0x04);
     160:	8c e0       	ldi	r24, 0x0C	; 12
     162:	0e 94 7c 00 	call	0xf8	; 0xf8 <lcd_command>

   // increment / no Scroll    
   lcd_command(CMD_SetEntryMode | 0x02);	
     166:	86 e0       	ldi	r24, 0x06	; 6
     168:	0e 94 7c 00 	call	0xf8	; 0xf8 <lcd_command>
   lcd_clear();
     16c:	0e 94 88 00 	call	0x110	; 0x110 <lcd_clear>
}
     170:	08 95       	ret

00000172 <lcd_string>:
#endif
 
 
// writes a string to the LCD 
 
void lcd_string(char *data) {
     172:	ef 92       	push	r14
     174:	ff 92       	push	r15
     176:	cf 93       	push	r28
     178:	df 93       	push	r29
     17a:	e8 2e       	mov	r14, r24
     17c:	e7 01       	movw	r28, r14
     17e:	7e 01       	movw	r14, r28
     180:	f9 2e       	mov	r15, r25
     182:	e7 01       	movw	r28, r14
    while(*data) {
     184:	02 c0       	rjmp	.+4      	; 0x18a <lcd_string+0x18>
        lcd_data(*data);
     186:	0e 94 80 00 	call	0x100	; 0x100 <lcd_data>
 
 
// writes a string to the LCD 
 
void lcd_string(char *data) {
    while(*data) {
     18a:	89 91       	ld	r24, Y+
     18c:	88 23       	and	r24, r24
     18e:	d9 f7       	brne	.-10     	; 0x186 <lcd_string+0x14>
        lcd_data(*data);
        data++;
    }
}
     190:	df 91       	pop	r29
     192:	cf 91       	pop	r28
     194:	ff 90       	pop	r15
     196:	ef 90       	pop	r14
     198:	08 95       	ret

0000019a <lcd_pgm_string>:

#ifdef WITH_SELFTEST
//Load string from PGM  and send to LCD 
void lcd_pgm_string(const unsigned char *data) {
     19a:	cf 93       	push	r28
     19c:	df 93       	push	r29
     19e:	ec 01       	movw	r28, r24
   unsigned char cc;
   while(1) {
      cc = pgm_read_byte(data);
     1a0:	fe 01       	movw	r30, r28
     1a2:	84 91       	lpm	r24, Z+
      if((cc==0) || (cc==128)) {
     1a4:	88 23       	and	r24, r24
     1a6:	31 f0       	breq	.+12     	; 0x1b4 <lcd_pgm_string+0x1a>
     1a8:	80 38       	cpi	r24, 0x80	; 128
     1aa:	21 f0       	breq	.+8      	; 0x1b4 <lcd_pgm_string+0x1a>
         return;
      }
      lcd_data(cc);
     1ac:	0e 94 80 00 	call	0x100	; 0x100 <lcd_data>
      data++;
     1b0:	21 96       	adiw	r28, 0x01	; 1
   }
     1b2:	f6 cf       	rjmp	.-20     	; 0x1a0 <lcd_pgm_string+0x6>
}
     1b4:	df 91       	pop	r29
     1b6:	cf 91       	pop	r28
     1b8:	08 95       	ret

000001ba <lcd_fix_string>:
#endif

//Load string from PGM or EEprom and send to LCD 
void lcd_fix_string(const unsigned char *data) {
     1ba:	cf 93       	push	r28
     1bc:	df 93       	push	r29
     1be:	ec 01       	movw	r28, r24
   unsigned char cc;
   while(1) {
      cc = MEM_read_byte(data);
     1c0:	ce 01       	movw	r24, r28
     1c2:	0e 94 f2 16 	call	0x2de4	; 0x2de4 <__eerd_byte_m328p>
      if((cc==0) || (cc==128)) {
     1c6:	88 23       	and	r24, r24
     1c8:	31 f0       	breq	.+12     	; 0x1d6 <lcd_fix_string+0x1c>
     1ca:	80 38       	cpi	r24, 0x80	; 128
     1cc:	21 f0       	breq	.+8      	; 0x1d6 <lcd_fix_string+0x1c>
         return;
      }
      lcd_data(cc);
     1ce:	0e 94 80 00 	call	0x100	; 0x100 <lcd_data>
      data++;
     1d2:	21 96       	adiw	r28, 0x01	; 1
   }
     1d4:	f5 cf       	rjmp	.-22     	; 0x1c0 <lcd_fix_string+0x6>
}
     1d6:	df 91       	pop	r29
     1d8:	cf 91       	pop	r28
     1da:	08 95       	ret

000001dc <lcd_fix_customchar>:

// load custom character from PGM or EEprom and send to LCD
void lcd_fix_customchar(const unsigned char *chardata) {	
     1dc:	0f 93       	push	r16
     1de:	1f 93       	push	r17
     1e0:	cf 93       	push	r28
     1e2:	df 93       	push	r29
     1e4:	8c 01       	movw	r16, r24
     1e6:	c0 e0       	ldi	r28, 0x00	; 0
     1e8:	d0 e0       	ldi	r29, 0x00	; 0
    for(uint8_t i=0;i<8;i++) {
        lcd_data(MEM_read_byte(chardata));
     1ea:	c8 01       	movw	r24, r16
     1ec:	8c 0f       	add	r24, r28
     1ee:	9d 1f       	adc	r25, r29
     1f0:	0e 94 f2 16 	call	0x2de4	; 0x2de4 <__eerd_byte_m328p>
     1f4:	0e 94 80 00 	call	0x100	; 0x100 <lcd_data>
     1f8:	21 96       	adiw	r28, 0x01	; 1
   }
}

// load custom character from PGM or EEprom and send to LCD
void lcd_fix_customchar(const unsigned char *chardata) {	
    for(uint8_t i=0;i<8;i++) {
     1fa:	c8 30       	cpi	r28, 0x08	; 8
     1fc:	d1 05       	cpc	r29, r1
     1fe:	a9 f7       	brne	.-22     	; 0x1ea <lcd_fix_customchar+0xe>
        lcd_data(MEM_read_byte(chardata));
        chardata++;
    }
}
     200:	df 91       	pop	r29
     202:	cf 91       	pop	r28
     204:	1f 91       	pop	r17
     206:	0f 91       	pop	r16
     208:	08 95       	ret

0000020a <ChargePin10ms>:
#endif

//******************************************************************
#include "CheckPins.c"

void ChargePin10ms(uint8_t PinToCharge, uint8_t ChargeDirection) {
     20a:	df 93       	push	r29
     20c:	cf 93       	push	r28
     20e:	0f 92       	push	r0
     210:	cd b7       	in	r28, 0x3d	; 61
     212:	de b7       	in	r29, 0x3e	; 62
   //Will be used by discharge of MOSFET Gates or to load big capacities.
   //Parameters:
   //PinToCharge: specifies the pin as mask for R-Port
   //ChargeDirection: 0 = switch to GND (N-Kanal-FET), 1= switch to VCC(P-Kanal-FET)

   if(ChargeDirection&1) {
     214:	60 ff       	sbrs	r22, 0
     216:	03 c0       	rjmp	.+6      	; 0x21e <ChargePin10ms+0x14>
      R_PORT |= PinToCharge;	//R_PORT to 1 (VCC) 
     218:	95 b1       	in	r25, 0x05	; 5
     21a:	98 2b       	or	r25, r24
     21c:	04 c0       	rjmp	.+8      	; 0x226 <ChargePin10ms+0x1c>
   } else {
      R_PORT &= ~PinToCharge; // or 0 (GND)
     21e:	25 b1       	in	r18, 0x05	; 5
     220:	98 2f       	mov	r25, r24
     222:	90 95       	com	r25
     224:	92 23       	and	r25, r18
     226:	95 b9       	out	0x05, r25	; 5
   }
   R_DDR |= PinToCharge;		//switch Pin to output, across R to GND or VCC
     228:	94 b1       	in	r25, 0x04	; 4
     22a:	98 2b       	or	r25, r24
     22c:	94 b9       	out	0x04, r25	; 4
   wait10ms();
     22e:	89 83       	std	Y+1, r24	; 0x01
     230:	0e 94 a1 15 	call	0x2b42	; 0x2b42 <wait10ms>
   // switch back Input, no current
   R_DDR &= ~PinToCharge;	// switch back to input
     234:	94 b1       	in	r25, 0x04	; 4
     236:	89 81       	ldd	r24, Y+1	; 0x01
     238:	80 95       	com	r24
     23a:	98 23       	and	r25, r24
     23c:	94 b9       	out	0x04, r25	; 4
   R_PORT &= ~PinToCharge;	// no Pull up
     23e:	95 b1       	in	r25, 0x05	; 5
     240:	98 23       	and	r25, r24
     242:	95 b9       	out	0x05, r25	; 5
}
     244:	0f 90       	pop	r0
     246:	cf 91       	pop	r28
     248:	df 91       	pop	r29
     24a:	08 95       	ret

0000024c <CheckPins>:
//******************************************************************
void CheckPins(uint8_t HighPin, uint8_t LowPin, uint8_t TristatePin)
  {
     24c:	2f 92       	push	r2
     24e:	3f 92       	push	r3
     250:	4f 92       	push	r4
     252:	5f 92       	push	r5
     254:	6f 92       	push	r6
     256:	7f 92       	push	r7
     258:	8f 92       	push	r8
     25a:	9f 92       	push	r9
     25c:	af 92       	push	r10
     25e:	bf 92       	push	r11
     260:	cf 92       	push	r12
     262:	df 92       	push	r13
     264:	ef 92       	push	r14
     266:	ff 92       	push	r15
     268:	0f 93       	push	r16
     26a:	1f 93       	push	r17
     26c:	df 93       	push	r29
     26e:	cf 93       	push	r28
     270:	cd b7       	in	r28, 0x3d	; 61
     272:	de b7       	in	r29, 0x3e	; 62
     274:	68 97       	sbiw	r28, 0x18	; 24
     276:	0f b6       	in	r0, 0x3f	; 63
     278:	f8 94       	cli
     27a:	de bf       	out	0x3e, r29	; 62
     27c:	0f be       	out	0x3f, r0	; 63
     27e:	cd bf       	out	0x3d, r28	; 61
     280:	18 2f       	mov	r17, r24
     282:	06 2f       	mov	r16, r22
     284:	49 83       	std	Y+1, r20	; 0x01
  /*
    switch HighPin directls to VCC 
    switch R_L port for LowPin to GND 
    TristatePin remains switched to input , no action required 
  */
  wdt_reset();
     286:	a8 95       	wdr
#ifdef AUTO_CAL
  uint16_t resis680pl;
  uint16_t resis680mi;
  resis680pl = eeprom_read_word(&R680pl);
     288:	8e ee       	ldi	r24, 0xEE	; 238
     28a:	91 e0       	ldi	r25, 0x01	; 1
     28c:	0e 94 fa 16 	call	0x2df4	; 0x2df4 <__eerd_word_m328p>
     290:	98 8b       	std	Y+16, r25	; 0x10
     292:	8f 87       	std	Y+15, r24	; 0x0f
  resis680mi = eeprom_read_word(&R680mi);
     294:	80 ef       	ldi	r24, 0xF0	; 240
     296:	91 e0       	ldi	r25, 0x01	; 1
     298:	0e 94 fa 16 	call	0x2df4	; 0x2df4 <__eerd_word_m328p>
     29c:	9a 8b       	std	Y+18, r25	; 0x12
     29e:	89 8b       	std	Y+17, r24	; 0x11
  #define RR680MI resis680mi
#else
  #define RR680PL (R_L_VAL + PIN_RP)
  #define RR680MI (R_L_VAL + PIN_RM)
#endif
  LoPinRL = MEM_read_byte(&PinRLtab[LowPin]);		// intruction for LowPin R_L
     2a0:	a0 2e       	mov	r10, r16
     2a2:	bb 24       	eor	r11, r11
     2a4:	c5 01       	movw	r24, r10
     2a6:	88 51       	subi	r24, 0x18	; 24
     2a8:	9e 4f       	sbci	r25, 0xFE	; 254
     2aa:	0e 94 f2 16 	call	0x2de4	; 0x2de4 <__eerd_byte_m328p>
     2ae:	8b 83       	std	Y+3, r24	; 0x03
  LoPinRH = LoPinRL + LoPinRL;				// intruction for LowPin R_H
  TriPinRL = MEM_read_byte(&PinRLtab[TristatePin]);	// intruction for TristatePin R_L
     2b0:	29 81       	ldd	r18, Y+1	; 0x01
     2b2:	82 2f       	mov	r24, r18
     2b4:	90 e0       	ldi	r25, 0x00	; 0
     2b6:	88 51       	subi	r24, 0x18	; 24
     2b8:	9e 4f       	sbci	r25, 0xFE	; 254
     2ba:	0e 94 f2 16 	call	0x2de4	; 0x2de4 <__eerd_byte_m328p>
     2be:	8a 83       	std	Y+2, r24	; 0x02
  TriPinRH = TriPinRL + TriPinRL;			// intruction for TristatePin R_H
     2c0:	d8 2e       	mov	r13, r24
     2c2:	dd 0c       	add	r13, r13
  HiPinRL = MEM_read_byte(&PinRLtab[HighPin]);		// intruction for HighPin R_L
     2c4:	e1 2e       	mov	r14, r17
     2c6:	ff 24       	eor	r15, r15
     2c8:	c7 01       	movw	r24, r14
     2ca:	88 51       	subi	r24, 0x18	; 24
     2cc:	9e 4f       	sbci	r25, 0xFE	; 254
     2ce:	0e 94 f2 16 	call	0x2de4	; 0x2de4 <__eerd_byte_m328p>
     2d2:	c8 2e       	mov	r12, r24
  HiPinRH = HiPinRL + HiPinRL;				// intruction for HighPin R_H
     2d4:	38 2f       	mov	r19, r24
     2d6:	33 0f       	add	r19, r19
     2d8:	3a 87       	std	Y+10, r19	; 0x0a

  HiADCp = MEM_read_byte(&PinADCtab[HighPin]);		// intruction for ADC High-Pin 
     2da:	c7 01       	movw	r24, r14
     2dc:	85 51       	subi	r24, 0x15	; 21
     2de:	9e 4f       	sbci	r25, 0xFE	; 254
     2e0:	0e 94 f2 16 	call	0x2de4	; 0x2de4 <__eerd_byte_m328p>
     2e4:	8c 83       	std	Y+4, r24	; 0x04
  LoADCp = MEM_read_byte(&PinADCtab[LowPin]);		// intruction for ADC Low-Pin
     2e6:	c5 01       	movw	r24, r10
     2e8:	85 51       	subi	r24, 0x15	; 21
     2ea:	9e 4f       	sbci	r25, 0xFE	; 254
     2ec:	0e 94 f2 16 	call	0x2de4	; 0x2de4 <__eerd_byte_m328p>
     2f0:	8f 83       	std	Y+7, r24	; 0x07
  HiADCp |= TXD_VAL;
  LoADCm = LoADCp | TXD_MSK;
  LoADCp |= TXD_VAL;

  //setting of Pins 
  R_PORT = 0;				//resistor-Port outputs to 0
     2f2:	15 b8       	out	0x05, r1	; 5
  R_DDR = LoPinRL;			//Low-Pin to output and across R_L to GND
     2f4:	8b 81       	ldd	r24, Y+3	; 0x03
     2f6:	84 b9       	out	0x04, r24	; 4
  ADC_DDR = HiADCm;		//High-Pin to output
     2f8:	9c 81       	ldd	r25, Y+4	; 0x04
     2fa:	97 b9       	out	0x07, r25	; 7
  ADC_PORT = HiADCp;		//High-Pin fix to Vcc
     2fc:	98 b9       	out	0x08, r25	; 8
  //for some MOSFET the gate (TristatePin) must be discharged
  ChargePin10ms(TriPinRL,0);		//discharge for N-Kanal
     2fe:	8a 81       	ldd	r24, Y+2	; 0x02
     300:	60 e0       	ldi	r22, 0x00	; 0
     302:	0e 94 05 01 	call	0x20a	; 0x20a <ChargePin10ms>
  adc.lp_otr = W5msReadADC(LowPin);	//read voltage of Low-Pin 
     306:	80 2f       	mov	r24, r16
     308:	0e 94 bd 15 	call	0x2b7a	; 0x2b7a <W5msReadADC>
     30c:	9c 87       	std	Y+12, r25	; 0x0c
     30e:	8b 87       	std	Y+11, r24	; 0x0b
  if(adc.lp_otr >= 977) {		//no current now? 
     310:	a3 e0       	ldi	r26, 0x03	; 3
     312:	81 3d       	cpi	r24, 0xD1	; 209
     314:	9a 07       	cpc	r25, r26
     316:	48 f0       	brcs	.+18     	; 0x32a <CheckPins+0xde>
     ChargePin10ms(TriPinRL,1);	 	//else: discharge for P-channel (Gate to VCC)
     318:	8a 81       	ldd	r24, Y+2	; 0x02
     31a:	61 e0       	ldi	r22, 0x01	; 1
     31c:	0e 94 05 01 	call	0x20a	; 0x20a <ChargePin10ms>
     adc.lp_otr = ReadADC(LowPin);	//read voltage of Low-Pin again
     320:	80 2f       	mov	r24, r16
     322:	0e 94 bf 15 	call	0x2b7e	; 0x2b7e <ReadADC>
     326:	9c 87       	std	Y+12, r25	; 0x0c
     328:	8b 87       	std	Y+11, r24	; 0x0b
  lcd_line2();
  lcd_clear_line();
  lcd_line2();
#endif

  if(adc.lp_otr > 92) {  //there is some current without TristatePin current 
     32a:	eb 85       	ldd	r30, Y+11	; 0x0b
     32c:	fc 85       	ldd	r31, Y+12	; 0x0c
     32e:	ed 35       	cpi	r30, 0x5D	; 93
     330:	f1 05       	cpc	r31, r1
     332:	08 f4       	brcc	.+2      	; 0x336 <CheckPins+0xea>
     334:	a6 c0       	rjmp	.+332    	; 0x482 <CheckPins+0x236>
     lcd_testpin(HighPin);
     lcd_data(' ');
     wait1s();
#endif
     //Test if N-JFET or if self-conducting N-MOSFET
     R_DDR = LoPinRL | TriPinRH;	//switch R_H for Tristate-Pin (probably Gate) to GND
     336:	8b 81       	ldd	r24, Y+3	; 0x03
     338:	8d 29       	or	r24, r13
     33a:	84 b9       	out	0x04, r24	; 4
     adc.lp1 = W20msReadADC(LowPin);	//measure voltage at the assumed Source 
     33c:	80 2f       	mov	r24, r16
     33e:	0e 94 b9 15 	call	0x2b72	; 0x2b72 <W20msReadADC>
     342:	5c 01       	movw	r10, r24
     adc.tp1 = ReadADC(TristatePin);	// measure Gate voltage
     344:	89 81       	ldd	r24, Y+1	; 0x01
     346:	0e 94 bf 15 	call	0x2b7e	; 0x2b7e <ReadADC>
     34a:	7c 01       	movw	r14, r24
     R_PORT = TriPinRH;			//switch R_H for Tristate-Pin (probably Gate) to VCC
     34c:	d5 b8       	out	0x05, r13	; 5
     adc.lp2 = W20msReadADC(LowPin);	//measure voltage at the assumed Source again
     34e:	80 2f       	mov	r24, r16
     350:	0e 94 b9 15 	call	0x2b72	; 0x2b72 <W20msReadADC>
     //If it is a self-conducting MOSFET or JFET, then must be: adc.lp2 > adc.lp1 
     if(adc.lp2>(adc.lp1+488)) {
     354:	95 01       	movw	r18, r10
     356:	28 51       	subi	r18, 0x18	; 24
     358:	3e 4f       	sbci	r19, 0xFE	; 254
     35a:	28 17       	cp	r18, r24
     35c:	39 07       	cpc	r19, r25
     35e:	08 f0       	brcs	.+2      	; 0x362 <CheckPins+0x116>
     360:	3f c0       	rjmp	.+126    	; 0x3e0 <CheckPins+0x194>
        //measure voltage at the  Gate, differ between MOSFET and JFET
        ADC_PORT = TXD_VAL;
     362:	18 b8       	out	0x08, r1	; 8
        ADC_DDR = LoADCm;	//Low-Pin fix to GND
     364:	ff 81       	ldd	r31, Y+7	; 0x07
     366:	f7 b9       	out	0x07, r31	; 7
        R_DDR = TriPinRH | HiPinRL;	//High-Pin to output
     368:	8d 2d       	mov	r24, r13
     36a:	8c 29       	or	r24, r12
     36c:	84 b9       	out	0x04, r24	; 4
        R_PORT = TriPinRH | HiPinRL;	//switch R_L for High-Pin to VCC
     36e:	85 b9       	out	0x05, r24	; 5
        adc.lp2 = W20msReadADC(TristatePin); //read voltage of assumed Gate 
     370:	89 81       	ldd	r24, Y+1	; 0x01
     372:	0e 94 b9 15 	call	0x2b72	; 0x2b72 <W20msReadADC>
        if(adc.lp2>3911) {  //MOSFET
     376:	2f e0       	ldi	r18, 0x0F	; 15
     378:	88 34       	cpi	r24, 0x48	; 72
     37a:	92 07       	cpc	r25, r18
     37c:	28 f0       	brcs	.+10     	; 0x388 <CheckPins+0x13c>
           PartFound = PART_FET;	//N-Kanal-MOSFET
     37e:	83 e0       	ldi	r24, 0x03	; 3
     380:	80 93 07 01 	sts	0x0107, r24
           PartMode = PART_MODE_N_D_MOS; //Depletion-MOSFET
     384:	84 e0       	ldi	r24, 0x04	; 4
     386:	04 c0       	rjmp	.+8      	; 0x390 <CheckPins+0x144>
        } else {  //JFET (pn-passage between Gate and Source is conducting )
           PartFound = PART_FET;	//N-Kanal-JFET
     388:	83 e0       	ldi	r24, 0x03	; 3
     38a:	80 93 07 01 	sts	0x0107, r24
           PartMode = PART_MODE_N_JFET;
     38e:	86 e0       	ldi	r24, 0x06	; 6
     390:	80 93 06 01 	sts	0x0106, r24
        }
//      if ((PartReady == 0) || (adc.lp1 > trans.uBE[0])) 
//      there is no way to find out the right Source / Drain
        trans.uBE[0] = adc.lp1;
     394:	b0 92 38 01 	sts	0x0138, r11
     398:	a0 92 37 01 	sts	0x0137, r10
        gthvoltage = adc.lp1 - adc.tp1;	//voltage GS (Source - Gate)
     39c:	c5 01       	movw	r24, r10
     39e:	8e 19       	sub	r24, r14
     3a0:	9f 09       	sbc	r25, r15
     3a2:	90 93 44 01 	sts	0x0144, r25
     3a6:	80 93 43 01 	sts	0x0143, r24
        trans.uBE[1] = (unsigned int)(((unsigned long)adc.lp1 * 100) / RR680MI);
     3aa:	b5 01       	movw	r22, r10
     3ac:	80 e0       	ldi	r24, 0x00	; 0
     3ae:	90 e0       	ldi	r25, 0x00	; 0
     3b0:	24 e6       	ldi	r18, 0x64	; 100
     3b2:	30 e0       	ldi	r19, 0x00	; 0
     3b4:	40 e0       	ldi	r20, 0x00	; 0
     3b6:	50 e0       	ldi	r21, 0x00	; 0
     3b8:	0e 94 2c 16 	call	0x2c58	; 0x2c58 <__mulsi3>
     3bc:	a9 89       	ldd	r26, Y+17	; 0x11
     3be:	ba 89       	ldd	r27, Y+18	; 0x12
     3c0:	9d 01       	movw	r18, r26
     3c2:	40 e0       	ldi	r20, 0x00	; 0
     3c4:	50 e0       	ldi	r21, 0x00	; 0
     3c6:	0e 94 7e 16 	call	0x2cfc	; 0x2cfc <__udivmodsi4>
     3ca:	30 93 3a 01 	sts	0x013A, r19
     3ce:	20 93 39 01 	sts	0x0139, r18
        trans.b = TristatePin;		//save Pin numbers found for this FET
     3d2:	b9 81       	ldd	r27, Y+1	; 0x01
     3d4:	b0 93 3b 01 	sts	0x013B, r27
        trans.c = HighPin;
     3d8:	10 93 3c 01 	sts	0x013C, r17
        trans.e = LowPin;
     3dc:	00 93 3d 01 	sts	0x013D, r16
     }

     ADC_PORT = TXD_VAL;		// direct outputs to GND
     3e0:	18 b8       	out	0x08, r1	; 8

     //Test, if P-JFET or if self-conducting P-MOSFET
     ADC_DDR = LoADCm;		//switch Low-Pin (assumed Drain) direct to GND,
     3e2:	ef 81       	ldd	r30, Y+7	; 0x07
     3e4:	e7 b9       	out	0x07, r30	; 7
				//R_H for Tristate-Pin (assumed Gate) is already switched to VCC
     R_DDR = TriPinRH | HiPinRL;	//High-Pin to output
     3e6:	8d 2d       	mov	r24, r13
     3e8:	8c 29       	or	r24, r12
     3ea:	84 b9       	out	0x04, r24	; 4
     R_PORT = TriPinRH | HiPinRL;	//High-Pin across R_L to Vcc
     3ec:	85 b9       	out	0x05, r24	; 5
     adc.hp1 = W20msReadADC(HighPin);	//measure voltage at assumed Source 
     3ee:	81 2f       	mov	r24, r17
     3f0:	0e 94 b9 15 	call	0x2b72	; 0x2b72 <W20msReadADC>
     3f4:	5c 01       	movw	r10, r24
     adc.tp1 = ReadADC(TristatePin);	// measure Gate voltage
     3f6:	89 81       	ldd	r24, Y+1	; 0x01
     3f8:	0e 94 bf 15 	call	0x2b7e	; 0x2b7e <ReadADC>
     3fc:	7c 01       	movw	r14, r24
     R_PORT = HiPinRL;			//switch R_H for Tristate-Pin (assumed Gate) to GND
     3fe:	c5 b8       	out	0x05, r12	; 5
     adc.hp2 = W20msReadADC(HighPin);	//read voltage at assumed Source again
     400:	81 2f       	mov	r24, r17
     402:	0e 94 b9 15 	call	0x2b72	; 0x2b72 <W20msReadADC>
     //if it is a self-conducting P_MOSFET or P-JFET , then must be:  adc.hp1 > adc.hp2 
     if(adc.hp1>(adc.hp2+488)) {
     406:	88 51       	subi	r24, 0x18	; 24
     408:	9e 4f       	sbci	r25, 0xFE	; 254
     40a:	8a 15       	cp	r24, r10
     40c:	9b 05       	cpc	r25, r11
     40e:	c8 f5       	brcc	.+114    	; 0x482 <CheckPins+0x236>
        //read voltage at the Gate , to differ between MOSFET and JFET
        ADC_PORT = HiADCp;	//switch High-Pin directly to VCC
     410:	fc 81       	ldd	r31, Y+4	; 0x04
     412:	f8 b9       	out	0x08, r31	; 8
        ADC_DDR = HiADCm;	//switch High-Pin to output
     414:	f7 b9       	out	0x07, r31	; 7
        adc.tp2 = W20msReadADC(TristatePin); //read voltage at the assumed Gate 
     416:	89 81       	ldd	r24, Y+1	; 0x01
     418:	0e 94 b9 15 	call	0x2b72	; 0x2b72 <W20msReadADC>
        if(adc.tp2<977) { 		//MOSFET
     41c:	23 e0       	ldi	r18, 0x03	; 3
     41e:	81 3d       	cpi	r24, 0xD1	; 209
     420:	92 07       	cpc	r25, r18
     422:	28 f4       	brcc	.+10     	; 0x42e <CheckPins+0x1e2>
           PartFound = PART_FET;	//P-Kanal-MOSFET
     424:	83 e0       	ldi	r24, 0x03	; 3
     426:	80 93 07 01 	sts	0x0107, r24
           PartMode = PART_MODE_P_D_MOS; //Depletion-MOSFET
     42a:	85 e0       	ldi	r24, 0x05	; 5
     42c:	04 c0       	rjmp	.+8      	; 0x436 <CheckPins+0x1ea>
        } else { 			//JFET (pn-passage between Gate and Source is conducting)
           PartFound = PART_FET;	//P-Kanal-JFET
     42e:	83 e0       	ldi	r24, 0x03	; 3
     430:	80 93 07 01 	sts	0x0107, r24
           PartMode = PART_MODE_P_JFET;
     434:	87 e0       	ldi	r24, 0x07	; 7
     436:	80 93 06 01 	sts	0x0106, r24
        }
        gthvoltage = adc.tp1 - adc.hp1;		//voltage GS (Gate - Source)
     43a:	ea 18       	sub	r14, r10
     43c:	fb 08       	sbc	r15, r11
     43e:	f0 92 44 01 	sts	0x0144, r15
     442:	e0 92 43 01 	sts	0x0143, r14
        trans.uBE[1] = (unsigned int)(((unsigned long)(U_VCC - adc.hp1) * 100) / RR680PL);
     446:	64 e7       	ldi	r22, 0x74	; 116
     448:	73 e1       	ldi	r23, 0x13	; 19
     44a:	6a 19       	sub	r22, r10
     44c:	7b 09       	sbc	r23, r11
     44e:	80 e0       	ldi	r24, 0x00	; 0
     450:	90 e0       	ldi	r25, 0x00	; 0
     452:	24 e6       	ldi	r18, 0x64	; 100
     454:	30 e0       	ldi	r19, 0x00	; 0
     456:	40 e0       	ldi	r20, 0x00	; 0
     458:	50 e0       	ldi	r21, 0x00	; 0
     45a:	0e 94 2c 16 	call	0x2c58	; 0x2c58 <__mulsi3>
     45e:	af 85       	ldd	r26, Y+15	; 0x0f
     460:	b8 89       	ldd	r27, Y+16	; 0x10
     462:	9d 01       	movw	r18, r26
     464:	40 e0       	ldi	r20, 0x00	; 0
     466:	50 e0       	ldi	r21, 0x00	; 0
     468:	0e 94 7e 16 	call	0x2cfc	; 0x2cfc <__udivmodsi4>
     46c:	30 93 3a 01 	sts	0x013A, r19
     470:	20 93 39 01 	sts	0x0139, r18
        trans.b = TristatePin;		//save Pin numbers found for this FET
     474:	b9 81       	ldd	r27, Y+1	; 0x01
     476:	b0 93 3b 01 	sts	0x013B, r27
        trans.c = LowPin;
     47a:	00 93 3c 01 	sts	0x013C, r16
        trans.e = HighPin;
     47e:	10 93 3d 01 	sts	0x013D, r17
  } // end component has current without TristatePin signal


#ifdef COMMON_COLLECTOR
  // Test circuit with common collector (Emitter follower) PNP
  ADC_PORT = TXD_VAL;
     482:	18 b8       	out	0x08, r1	; 8
  ADC_DDR = LoADCm;			// Collector direct to GND
     484:	ef 81       	ldd	r30, Y+7	; 0x07
     486:	e7 b9       	out	0x07, r30	; 7
  R_PORT = HiPinRL;			// switch R_L port for HighPin (Emitter) to VCC
     488:	c5 b8       	out	0x05, r12	; 5
  R_DDR = TriPinRL | HiPinRL;		// Base resistor  R_L to GND
     48a:	fa 81       	ldd	r31, Y+2	; 0x02
     48c:	fc 29       	or	r31, r12
     48e:	fd 83       	std	Y+5, r31	; 0x05
     490:	f4 b9       	out	0x04, r31	; 4
  adc.hp1 = U_VCC - W5msReadADC(HighPin);	// voltage at the Emitter resistor
     492:	81 2f       	mov	r24, r17
     494:	0e 94 bd 15 	call	0x2b7a	; 0x2b7a <W5msReadADC>
     498:	7c 01       	movw	r14, r24
  adc.tp1 = ReadADC(TristatePin);	// voltage at the base resistor
     49a:	89 81       	ldd	r24, Y+1	; 0x01
     49c:	0e 94 bf 15 	call	0x2b7e	; 0x2b7e <ReadADC>
     4a0:	2c 01       	movw	r4, r24

  if (adc.tp1 < 10) {
     4a2:	8a 30       	cpi	r24, 0x0A	; 10
     4a4:	91 05       	cpc	r25, r1
     4a6:	a0 f5       	brcc	.+104    	; 0x510 <CheckPins+0x2c4>
     R_DDR =  TriPinRH | HiPinRL;	// Tripin=RH-
     4a8:	8d 2d       	mov	r24, r13
     4aa:	8c 29       	or	r24, r12
     4ac:	84 b9       	out	0x04, r24	; 4
     adc.hp1 = U_VCC - W5msReadADC(HighPin);
     4ae:	81 2f       	mov	r24, r17
     4b0:	0e 94 bd 15 	call	0x2b7a	; 0x2b7a <W5msReadADC>
     4b4:	a4 e7       	ldi	r26, 0x74	; 116
     4b6:	b3 e1       	ldi	r27, 0x13	; 19
     4b8:	a8 1b       	sub	r26, r24
     4ba:	b9 0b       	sbc	r27, r25
     4bc:	b8 8f       	std	Y+24, r27	; 0x18
     4be:	af 8b       	std	Y+23, r26	; 0x17
     adc.tp1 = ReadADC(TristatePin);	// voltage at base resistor 
     4c0:	89 81       	ldd	r24, Y+1	; 0x01
     4c2:	0e 94 bf 15 	call	0x2b7e	; 0x2b7e <ReadADC>
     4c6:	2c 01       	movw	r4, r24
       lcd_data('T');
       lcd_string(utoa(adc.tp1,outval,10));
       lcd_data(' ');
#endif
 #ifdef LONG_HFE
     c_hfe = ((unsigned long)adc.hp1 * (unsigned long)(((unsigned long)R_H_VAL * 100) / 
     4c8:	ef 89       	ldd	r30, Y+23	; 0x17
     4ca:	f8 8d       	ldd	r31, Y+24	; 0x18
     4cc:	4f 01       	movw	r8, r30
     4ce:	aa 24       	eor	r10, r10
     4d0:	bb 24       	eor	r11, r11
     4d2:	8f 85       	ldd	r24, Y+15	; 0x0f
     4d4:	98 89       	ldd	r25, Y+16	; 0x10
     4d6:	9c 01       	movw	r18, r24
     4d8:	40 e0       	ldi	r20, 0x00	; 0
     4da:	50 e0       	ldi	r21, 0x00	; 0
     4dc:	60 e6       	ldi	r22, 0x60	; 96
     4de:	77 eb       	ldi	r23, 0xB7	; 183
     4e0:	87 e4       	ldi	r24, 0x47	; 71
     4e2:	90 e0       	ldi	r25, 0x00	; 0
     4e4:	0e 94 7e 16 	call	0x2cfc	; 0x2cfc <__udivmodsi4>
     4e8:	c5 01       	movw	r24, r10
     4ea:	b4 01       	movw	r22, r8
     4ec:	0e 94 2c 16 	call	0x2c58	; 0x2c58 <__mulsi3>
              (unsigned int)RR680PL)) / (unsigned int)adc.tp1;	
     4f0:	92 01       	movw	r18, r4
     4f2:	40 e0       	ldi	r20, 0x00	; 0
     4f4:	50 e0       	ldi	r21, 0x00	; 0
       lcd_data('T');
       lcd_string(utoa(adc.tp1,outval,10));
       lcd_data(' ');
#endif
 #ifdef LONG_HFE
     c_hfe = ((unsigned long)adc.hp1 * (unsigned long)(((unsigned long)R_H_VAL * 100) / 
     4f6:	0e 94 7e 16 	call	0x2cfc	; 0x2cfc <__udivmodsi4>
     4fa:	39 01       	movw	r6, r18
     4fc:	4a 01       	movw	r8, r20
              (unsigned int)RR680PL)) / (unsigned int)adc.tp1;	
     if (c_hfe > 65535) {
     4fe:	20 30       	cpi	r18, 0x00	; 0
     500:	90 e0       	ldi	r25, 0x00	; 0
     502:	39 07       	cpc	r19, r25
     504:	91 e0       	ldi	r25, 0x01	; 1
     506:	49 07       	cpc	r20, r25
     508:	90 e0       	ldi	r25, 0x00	; 0
     50a:	59 07       	cpc	r21, r25
     50c:	88 f4       	brcc	.+34     	; 0x530 <CheckPins+0x2e4>
     50e:	16 c0       	rjmp	.+44     	; 0x53c <CheckPins+0x2f0>
  // Test circuit with common collector (Emitter follower) PNP
  ADC_PORT = TXD_VAL;
  ADC_DDR = LoADCm;			// Collector direct to GND
  R_PORT = HiPinRL;			// switch R_L port for HighPin (Emitter) to VCC
  R_DDR = TriPinRL | HiPinRL;		// Base resistor  R_L to GND
  adc.hp1 = U_VCC - W5msReadADC(HighPin);	// voltage at the Emitter resistor
     510:	a4 e7       	ldi	r26, 0x74	; 116
     512:	b3 e1       	ldi	r27, 0x13	; 19
     514:	ae 19       	sub	r26, r14
     516:	bf 09       	sbc	r27, r15
     518:	b8 8f       	std	Y+24, r27	; 0x18
     51a:	af 8b       	std	Y+23, r26	; 0x17
     }
 #else
     c_hfe = ((adc.hp1 / ((RR680PL+500)/1000)) * (R_H_VAL/500)) / (adc.tp2/500);
 #endif
  } else {
     c_hfe = (unsigned long)((adc.hp1 - adc.tp1) / adc.tp1);
     51c:	cd 01       	movw	r24, r26
     51e:	84 19       	sub	r24, r4
     520:	95 09       	sbc	r25, r5
     522:	b2 01       	movw	r22, r4
     524:	0e 94 57 16 	call	0x2cae	; 0x2cae <__udivmodhi4>
     528:	3b 01       	movw	r6, r22
     52a:	88 24       	eor	r8, r8
     52c:	99 24       	eor	r9, r9
     52e:	06 c0       	rjmp	.+12     	; 0x53c <CheckPins+0x2f0>
#endif
 #ifdef LONG_HFE
     c_hfe = ((unsigned long)adc.hp1 * (unsigned long)(((unsigned long)R_H_VAL * 100) / 
              (unsigned int)RR680PL)) / (unsigned int)adc.tp1;	
     if (c_hfe > 65535) {
        c_hfe = 65535;
     530:	7f ef       	ldi	r23, 0xFF	; 255
     532:	67 2e       	mov	r6, r23
     534:	7f ef       	ldi	r23, 0xFF	; 255
     536:	77 2e       	mov	r7, r23
     538:	81 2c       	mov	r8, r1
     53a:	91 2c       	mov	r9, r1
     c_hfe = (unsigned long)((adc.hp1 - adc.tp1) / adc.tp1);
  }
#endif

  //set Pins again for circuit with common Emitter PNP
  R_DDR = LoPinRL;		//switch R_L port for Low-Pin to output (GND)
     53c:	bb 81       	ldd	r27, Y+3	; 0x03
     53e:	b4 b9       	out	0x04, r27	; 4
  R_PORT = 0;			//switch all resistor ports to GND
     540:	15 b8       	out	0x05, r1	; 5
  ADC_DDR = HiADCm;		//switch High-Pin to output
     542:	ec 81       	ldd	r30, Y+4	; 0x04
     544:	e7 b9       	out	0x07, r30	; 7
  ADC_PORT = HiADCp;		//switch High-Pin to VCC
     546:	e8 b9       	out	0x08, r30	; 8
  wait5ms();
     548:	0e 94 a2 15 	call	0x2b44	; 0x2b44 <wait5ms>
  
  if(adc.lp_otr < 977) {
     54c:	2b 85       	ldd	r18, Y+11	; 0x0b
     54e:	3c 85       	ldd	r19, Y+12	; 0x0c
     550:	83 e0       	ldi	r24, 0x03	; 3
     552:	21 3d       	cpi	r18, 0xD1	; 209
     554:	38 07       	cpc	r19, r24
     556:	08 f0       	brcs	.+2      	; 0x55a <CheckPins+0x30e>
     558:	89 c2       	rjmp	.+1298   	; 0xa6c <__stack+0x16d>
     lcd_testpin(HighPin);
     lcd_data(' ');
     wait1s();
#endif
     //Test to PNP
     R_DDR = LoPinRL | TriPinRL;	//switch R_L port for Tristate-Pin to output (GND), for Test of PNP
     55a:	9a 81       	ldd	r25, Y+2	; 0x02
     55c:	ab 81       	ldd	r26, Y+3	; 0x03
     55e:	9a 2b       	or	r25, r26
     560:	98 87       	std	Y+8, r25	; 0x08
     562:	94 b9       	out	0x04, r25	; 4
     adc.lp1 = W5msReadADC(LowPin);	//measure voltage at LowPin
     564:	80 2f       	mov	r24, r16
     566:	0e 94 bd 15 	call	0x2b7a	; 0x2b7a <W5msReadADC>
     if(adc.lp1 > 3422) {
     56a:	bd e0       	ldi	r27, 0x0D	; 13
     56c:	8f 35       	cpi	r24, 0x5F	; 95
     56e:	9b 07       	cpc	r25, r27
     570:	08 f4       	brcc	.+2      	; 0x574 <CheckPins+0x328>
     572:	d4 c0       	rjmp	.+424    	; 0x71c <CheckPins+0x4d0>
        //component has current => PNP-Transistor or equivalent
        //compute current amplification factor in both directions
        R_DDR = LoPinRL | TriPinRH;	//switch R_H port for Tristate-Pin (Base) to output (GND)
     574:	eb 81       	ldd	r30, Y+3	; 0x03
     576:	ed 29       	or	r30, r13
     578:	ed 87       	std	Y+13, r30	; 0x0d
     57a:	e4 b9       	out	0x04, r30	; 4

        adc.lp1 = W5msReadADC(LowPin);	//measure voltage at LowPin (assumed Collector)
     57c:	80 2f       	mov	r24, r16
     57e:	0e 94 bd 15 	call	0x2b7a	; 0x2b7a <W5msReadADC>
     582:	1c 01       	movw	r2, r24
        adc.tp2 = ReadADC(TristatePin);	//measure voltage at TristatePin (Base) 
     584:	89 81       	ldd	r24, Y+1	; 0x01
     586:	0e 94 bf 15 	call	0x2b7e	; 0x2b7e <ReadADC>
     58a:	5c 01       	movw	r10, r24
        //check, if Test is done before 
        if((PartFound == PART_TRANSISTOR) || (PartFound == PART_FET)) {
     58c:	80 91 07 01 	lds	r24, 0x0107
     590:	82 50       	subi	r24, 0x02	; 2
     592:	82 30       	cpi	r24, 0x02	; 2
     594:	18 f4       	brcc	.+6      	; 0x59c <CheckPins+0x350>
           PartReady = 1;
     596:	81 e0       	ldi	r24, 0x01	; 1
     598:	80 93 04 01 	sts	0x0104, r24
        }
        trans.uBE[PartReady] = ReadADC(HighPin) - adc.tp2;	// Base Emitter Voltage
     59c:	e0 90 04 01 	lds	r14, 0x0104
     5a0:	ff 24       	eor	r15, r15
     5a2:	81 2f       	mov	r24, r17
     5a4:	0e 94 bf 15 	call	0x2b7e	; 0x2b7e <ReadADC>
     5a8:	f7 01       	movw	r30, r14
     5aa:	ee 0f       	add	r30, r30
     5ac:	ff 1f       	adc	r31, r31
     5ae:	e9 5c       	subi	r30, 0xC9	; 201
     5b0:	fe 4f       	sbci	r31, 0xFE	; 254
     5b2:	8a 19       	sub	r24, r10
     5b4:	9b 09       	sbc	r25, r11
     5b6:	91 83       	std	Z+1, r25	; 0x01
     5b8:	80 83       	st	Z, r24

        //compute current amplification factor for circuit with common Emitter
        //hFE = B = Collector current / Base current
        if(adc.tp2 < 53) {
     5ba:	f5 e3       	ldi	r31, 0x35	; 53
     5bc:	af 16       	cp	r10, r31
     5be:	b1 04       	cpc	r11, r1
     5c0:	18 f4       	brcc	.+6      	; 0x5c8 <CheckPins+0x37c>
#if DebugOut == 5
           lcd_data('<');
           lcd_data('5');
           lcd_data('3');
#endif
           adc.tp2 = 53;
     5c2:	55 e3       	ldi	r21, 0x35	; 53
     5c4:	a5 2e       	mov	r10, r21
     5c6:	b1 2c       	mov	r11, r1
        }

 #ifdef LONG_HFE
        trans.hfe[PartReady] = ((unsigned int)adc.lp1 * (unsigned long)(((unsigned long)R_H_VAL * 100) / 
     5c8:	e0 90 04 01 	lds	r14, 0x0104
     5cc:	ff 24       	eor	r15, r15
     5ce:	c1 01       	movw	r24, r2
     5d0:	a0 e0       	ldi	r26, 0x00	; 0
     5d2:	b0 e0       	ldi	r27, 0x00	; 0
     5d4:	8b 8b       	std	Y+19, r24	; 0x13
     5d6:	9c 8b       	std	Y+20, r25	; 0x14
     5d8:	ad 8b       	std	Y+21, r26	; 0x15
     5da:	be 8b       	std	Y+22, r27	; 0x16
     5dc:	a9 89       	ldd	r26, Y+17	; 0x11
     5de:	ba 89       	ldd	r27, Y+18	; 0x12
     5e0:	9d 01       	movw	r18, r26
     5e2:	40 e0       	ldi	r20, 0x00	; 0
     5e4:	50 e0       	ldi	r21, 0x00	; 0
     5e6:	60 e6       	ldi	r22, 0x60	; 96
     5e8:	77 eb       	ldi	r23, 0xB7	; 183
     5ea:	87 e4       	ldi	r24, 0x47	; 71
     5ec:	90 e0       	ldi	r25, 0x00	; 0
     5ee:	0e 94 7e 16 	call	0x2cfc	; 0x2cfc <__udivmodsi4>
     5f2:	6b 89       	ldd	r22, Y+19	; 0x13
     5f4:	7c 89       	ldd	r23, Y+20	; 0x14
     5f6:	8d 89       	ldd	r24, Y+21	; 0x15
     5f8:	9e 89       	ldd	r25, Y+22	; 0x16
     5fa:	0e 94 2c 16 	call	0x2c58	; 0x2c58 <__mulsi3>
                 (unsigned int)RR680MI)) / (unsigned int)adc.tp2;	
     5fe:	95 01       	movw	r18, r10
     600:	40 e0       	ldi	r20, 0x00	; 0
     602:	50 e0       	ldi	r21, 0x00	; 0
     604:	0e 94 7e 16 	call	0x2cfc	; 0x2cfc <__udivmodsi4>
#endif
           adc.tp2 = 53;
        }

 #ifdef LONG_HFE
        trans.hfe[PartReady] = ((unsigned int)adc.lp1 * (unsigned long)(((unsigned long)R_H_VAL * 100) / 
     608:	f7 01       	movw	r30, r14
     60a:	ee 0f       	add	r30, r30
     60c:	ff 1f       	adc	r31, r31
     60e:	ed 5c       	subi	r30, 0xCD	; 205
     610:	fe 4f       	sbci	r31, 0xFE	; 254
     612:	31 83       	std	Z+1, r19	; 0x01
     614:	20 83       	st	Z, r18
        trans.hfe[PartReady] = ((adc.lp1 / ((RR680MI+500)/1000)) * (R_H_VAL/500)) / (adc.tp2/500);
 #endif
#ifdef COMMON_COLLECTOR
        //current amplification factor for common  Collector (Emitter follower)
        // c_hFE = (Emitter current - Base current) / Base current
        if (c_hfe > trans.hfe[PartReady]) {
     616:	40 e0       	ldi	r20, 0x00	; 0
     618:	50 e0       	ldi	r21, 0x00	; 0
     61a:	26 15       	cp	r18, r6
     61c:	37 05       	cpc	r19, r7
     61e:	48 05       	cpc	r20, r8
     620:	59 05       	cpc	r21, r9
     622:	90 f4       	brcc	.+36     	; 0x648 <CheckPins+0x3fc>
           trans.hfe[PartReady] = (unsigned int)c_hfe;
     624:	71 82       	std	Z+1, r7	; 0x01
     626:	60 82       	st	Z, r6
           trans.uBE[PartReady] = U_VCC - adc.hp1 - adc.tp1;	// Base Emitter Voltage common collector
     628:	f7 01       	movw	r30, r14
     62a:	ee 0f       	add	r30, r30
     62c:	ff 1f       	adc	r31, r31
     62e:	e9 5c       	subi	r30, 0xC9	; 201
     630:	fe 4f       	sbci	r31, 0xFE	; 254
     632:	8f 89       	ldd	r24, Y+23	; 0x17
     634:	98 8d       	ldd	r25, Y+24	; 0x18
     636:	90 95       	com	r25
     638:	81 95       	neg	r24
     63a:	9f 4f       	sbci	r25, 0xFF	; 255
     63c:	84 19       	sub	r24, r4
     63e:	95 09       	sbc	r25, r5
     640:	8c 58       	subi	r24, 0x8C	; 140
     642:	9c 4e       	sbci	r25, 0xEC	; 236
     644:	91 83       	std	Z+1, r25	; 0x01
     646:	80 83       	st	Z, r24
        }
#endif

 
        if(PartFound != PART_THYRISTOR) {
     648:	80 91 07 01 	lds	r24, 0x0107
     64c:	85 30       	cpi	r24, 0x05	; 5
     64e:	09 f4       	brne	.+2      	; 0x652 <CheckPins+0x406>
     650:	65 c0       	rjmp	.+202    	; 0x71c <CheckPins+0x4d0>
           if(adc.tp2 > 977) {
     652:	b2 ed       	ldi	r27, 0xD2	; 210
     654:	ab 16       	cp	r10, r27
     656:	b3 e0       	ldi	r27, 0x03	; 3
     658:	bb 06       	cpc	r11, r27
     65a:	30 f0       	brcs	.+12     	; 0x668 <CheckPins+0x41c>
              //PNP-Transistor is found (Base voltage moves to VCC)
              PartFound = PART_TRANSISTOR;
     65c:	82 e0       	ldi	r24, 0x02	; 2
     65e:	80 93 07 01 	sts	0x0107, r24
              PartMode = PART_MODE_PNP;
     662:	80 93 06 01 	sts	0x0106, r24
     666:	53 c0       	rjmp	.+166    	; 0x70e <CheckPins+0x4c2>
           } else {
              if((adc.lp_otr < 97) && (adc.lp1 > 2000)) {
     668:	eb 85       	ldd	r30, Y+11	; 0x0b
     66a:	fc 85       	ldd	r31, Y+12	; 0x0c
     66c:	e1 36       	cpi	r30, 0x61	; 97
     66e:	f1 05       	cpc	r31, r1
     670:	08 f0       	brcs	.+2      	; 0x674 <CheckPins+0x428>
     672:	4d c0       	rjmp	.+154    	; 0x70e <CheckPins+0x4c2>
     674:	f1 ed       	ldi	r31, 0xD1	; 209
     676:	2f 16       	cp	r2, r31
     678:	f7 e0       	ldi	r31, 0x07	; 7
     67a:	3f 06       	cpc	r3, r31
     67c:	08 f4       	brcc	.+2      	; 0x680 <CheckPins+0x434>
     67e:	47 c0       	rjmp	.+142    	; 0x70e <CheckPins+0x4c2>
                 //is flow voltage low enough in the closed  state?
                 //(since D-Mode-FET would be by mistake detected as E-Mode )
        	 PartFound = PART_FET;		//P-Kanal-MOSFET if found (Basis/Gate moves not to VCC)
     680:	83 e0       	ldi	r24, 0x03	; 3
     682:	80 93 07 01 	sts	0x0107, r24
        	 PartMode = PART_MODE_P_E_MOS;
     686:	80 93 06 01 	sts	0x0106, r24
                 PinMSK = LoADCm & 7;
     68a:	af 80       	ldd	r10, Y+7	; 0x07
     68c:	27 e0       	ldi	r18, 0x07	; 7
     68e:	a2 22       	and	r10, r18
        	 //measure the Gate threshold voltage
        	 ADMUX = TristatePin | (1<<REFS0);	// switch to TristatePin, Ref. VCC
     690:	89 81       	ldd	r24, Y+1	; 0x01
     692:	80 64       	ori	r24, 0x40	; 64
     694:	80 93 7c 00 	sts	0x007C, r24
        	 gthvoltage = 1;		// round up ((1*4)/9)
     698:	81 e0       	ldi	r24, 0x01	; 1
     69a:	90 e0       	ldi	r25, 0x00	; 0
     69c:	90 93 44 01 	sts	0x0144, r25
     6a0:	80 93 43 01 	sts	0x0143, r24
     6a4:	8b e0       	ldi	r24, 0x0B	; 11
     6a6:	e8 2e       	mov	r14, r24
        	 for(ii=0;ii<11;ii++) {
        	    wdt_reset();
     6a8:	a8 95       	wdr
        	    ChargePin10ms(TriPinRL,1);
     6aa:	8a 81       	ldd	r24, Y+2	; 0x02
     6ac:	61 e0       	ldi	r22, 0x01	; 1
     6ae:	0e 94 05 01 	call	0x20a	; 0x20a <ChargePin10ms>
                    R_DDR = LoPinRL | TriPinRH;	//switch R_H for Tristate-Pin (Basis) to GND
     6b2:	3d 85       	ldd	r19, Y+13	; 0x0d
     6b4:	34 b9       	out	0x04, r19	; 4
        	    while (!(ADC_PIN&PinMSK));  // Wait, until the MOSFET switches and Drain moves to VCC
     6b6:	86 b1       	in	r24, 0x06	; 6
     6b8:	8a 21       	and	r24, r10
     6ba:	e9 f3       	breq	.-6      	; 0x6b6 <CheckPins+0x46a>
        	    R_DDR = LoPinRL;
     6bc:	8b 81       	ldd	r24, Y+3	; 0x03
     6be:	84 b9       	out	0x04, r24	; 4
        	    ADCSRA |= (1<<ADSC);	// Start Conversion
     6c0:	80 91 7a 00 	lds	r24, 0x007A
     6c4:	80 64       	ori	r24, 0x40	; 64
     6c6:	80 93 7a 00 	sts	0x007A, r24
        	    while (ADCSRA&(1<<ADSC));	// wait
     6ca:	80 91 7a 00 	lds	r24, 0x007A
     6ce:	86 fd       	sbrc	r24, 6
     6d0:	fc cf       	rjmp	.-8      	; 0x6ca <CheckPins+0x47e>
      		    gthvoltage += (1023 - ADCW); // Add Tristatepin-Voltage
     6d2:	20 91 78 00 	lds	r18, 0x0078
     6d6:	30 91 79 00 	lds	r19, 0x0079
     6da:	80 91 43 01 	lds	r24, 0x0143
     6de:	90 91 44 01 	lds	r25, 0x0144
     6e2:	81 50       	subi	r24, 0x01	; 1
     6e4:	9c 4f       	sbci	r25, 0xFC	; 252
     6e6:	82 1b       	sub	r24, r18
     6e8:	93 0b       	sbc	r25, r19
     6ea:	90 93 44 01 	sts	0x0144, r25
     6ee:	80 93 43 01 	sts	0x0143, r24
     6f2:	ea 94       	dec	r14
        	 PartMode = PART_MODE_P_E_MOS;
                 PinMSK = LoADCm & 7;
        	 //measure the Gate threshold voltage
        	 ADMUX = TristatePin | (1<<REFS0);	// switch to TristatePin, Ref. VCC
        	 gthvoltage = 1;		// round up ((1*4)/9)
        	 for(ii=0;ii<11;ii++) {
     6f4:	c9 f6       	brne	.-78     	; 0x6a8 <CheckPins+0x45c>
        	    R_DDR = LoPinRL;
        	    ADCSRA |= (1<<ADSC);	// Start Conversion
        	    while (ADCSRA&(1<<ADSC));	// wait
      		    gthvoltage += (1023 - ADCW); // Add Tristatepin-Voltage
                 }
                 gthvoltage *= 4;		// is equal to 44*ADCW
     6f6:	88 0f       	add	r24, r24
     6f8:	99 1f       	adc	r25, r25
     6fa:	88 0f       	add	r24, r24
     6fc:	99 1f       	adc	r25, r25
                 gthvoltage /= 9;		// gives resolution in mV
     6fe:	69 e0       	ldi	r22, 0x09	; 9
     700:	70 e0       	ldi	r23, 0x00	; 0
     702:	0e 94 57 16 	call	0x2cae	; 0x2cae <__udivmodhi4>
     706:	70 93 44 01 	sts	0x0144, r23
     70a:	60 93 43 01 	sts	0x0143, r22
              }
           }
           trans.b = TristatePin;
     70e:	99 81       	ldd	r25, Y+1	; 0x01
     710:	90 93 3b 01 	sts	0x013B, r25
           trans.c = LowPin;
     714:	00 93 3c 01 	sts	0x013C, r16
           trans.e = HighPin;
     718:	10 93 3d 01 	sts	0x013D, r17
        }  // end if PartFound != PART_THYRISTOR
    } // end component has current => PNP

#ifdef COMMON_COLLECTOR
    // Low-Pin=RL- HighPin=VCC
    R_DDR = LoPinRL | TriPinRL;
     71c:	a8 85       	ldd	r26, Y+8	; 0x08
     71e:	a4 b9       	out	0x04, r26	; 4
    R_PORT = TriPinRL;			// TriPin=RL+  NPN with common Collector
     720:	ba 81       	ldd	r27, Y+2	; 0x02
     722:	b5 b9       	out	0x05, r27	; 5
    adc.lp1 = W5msReadADC(LowPin);	// voltage at Emitter resistor
     724:	80 2f       	mov	r24, r16
     726:	0e 94 bd 15 	call	0x2b7a	; 0x2b7a <W5msReadADC>
     72a:	99 87       	std	Y+9, r25	; 0x09
     72c:	88 87       	std	Y+8, r24	; 0x08
    adc.tp1 = U_VCC - ReadADC(TristatePin);	// voltage at Base resistor
     72e:	89 81       	ldd	r24, Y+1	; 0x01
     730:	0e 94 bf 15 	call	0x2b7e	; 0x2b7e <ReadADC>
     734:	a4 e7       	ldi	r26, 0x74	; 116
     736:	ea 2e       	mov	r14, r26
     738:	a3 e1       	ldi	r26, 0x13	; 19
     73a:	fa 2e       	mov	r15, r26
     73c:	17 01       	movw	r2, r14
     73e:	28 1a       	sub	r2, r24
     740:	39 0a       	sbc	r3, r25
    if (adc.tp1 < 10) {
     742:	ea e0       	ldi	r30, 0x0A	; 10
     744:	2e 16       	cp	r2, r30
     746:	31 04       	cpc	r3, r1
     748:	98 f5       	brcc	.+102    	; 0x7b0 <CheckPins+0x564>
       R_DDR = LoPinRL | TriPinRH;
     74a:	8b 81       	ldd	r24, Y+3	; 0x03
     74c:	8d 29       	or	r24, r13
     74e:	84 b9       	out	0x04, r24	; 4
       R_PORT = TriPinRH;		// Tripin=RH+
     750:	d5 b8       	out	0x05, r13	; 5
       adc.lp1 = W5msReadADC(LowPin);
     752:	80 2f       	mov	r24, r16
     754:	0e 94 bd 15 	call	0x2b7a	; 0x2b7a <W5msReadADC>
     758:	99 87       	std	Y+9, r25	; 0x09
     75a:	88 87       	std	Y+8, r24	; 0x08
       adc.tp1 = U_VCC - ReadADC(TristatePin);	// voltage at Base resistor
     75c:	89 81       	ldd	r24, Y+1	; 0x01
     75e:	0e 94 bf 15 	call	0x2b7e	; 0x2b7e <ReadADC>
     762:	17 01       	movw	r2, r14
     764:	28 1a       	sub	r2, r24
     766:	39 0a       	sbc	r3, r25
 #ifdef LONG_HFE
       c_hfe = ((unsigned long)adc.lp1 * (unsigned long)(((unsigned long)R_H_VAL * 100) / 
     768:	28 85       	ldd	r18, Y+8	; 0x08
     76a:	39 85       	ldd	r19, Y+9	; 0x09
     76c:	49 01       	movw	r8, r18
     76e:	aa 24       	eor	r10, r10
     770:	bb 24       	eor	r11, r11
     772:	89 89       	ldd	r24, Y+17	; 0x11
     774:	9a 89       	ldd	r25, Y+18	; 0x12
     776:	9c 01       	movw	r18, r24
     778:	40 e0       	ldi	r20, 0x00	; 0
     77a:	50 e0       	ldi	r21, 0x00	; 0
     77c:	60 e6       	ldi	r22, 0x60	; 96
     77e:	77 eb       	ldi	r23, 0xB7	; 183
     780:	87 e4       	ldi	r24, 0x47	; 71
     782:	90 e0       	ldi	r25, 0x00	; 0
     784:	0e 94 7e 16 	call	0x2cfc	; 0x2cfc <__udivmodsi4>
     788:	c5 01       	movw	r24, r10
     78a:	b4 01       	movw	r22, r8
     78c:	0e 94 2c 16 	call	0x2c58	; 0x2c58 <__mulsi3>
              (unsigned int)RR680MI)) / (unsigned int)adc.tp1;	
     790:	91 01       	movw	r18, r2
     792:	40 e0       	ldi	r20, 0x00	; 0
     794:	50 e0       	ldi	r21, 0x00	; 0
       R_DDR = LoPinRL | TriPinRH;
       R_PORT = TriPinRH;		// Tripin=RH+
       adc.lp1 = W5msReadADC(LowPin);
       adc.tp1 = U_VCC - ReadADC(TristatePin);	// voltage at Base resistor
 #ifdef LONG_HFE
       c_hfe = ((unsigned long)adc.lp1 * (unsigned long)(((unsigned long)R_H_VAL * 100) / 
     796:	0e 94 7e 16 	call	0x2cfc	; 0x2cfc <__udivmodsi4>
     79a:	49 01       	movw	r8, r18
     79c:	5a 01       	movw	r10, r20
              (unsigned int)RR680MI)) / (unsigned int)adc.tp1;	
       if (c_hfe > 65535) {
     79e:	20 30       	cpi	r18, 0x00	; 0
     7a0:	90 e0       	ldi	r25, 0x00	; 0
     7a2:	39 07       	cpc	r19, r25
     7a4:	91 e0       	ldi	r25, 0x01	; 1
     7a6:	49 07       	cpc	r20, r25
     7a8:	90 e0       	ldi	r25, 0x00	; 0
     7aa:	59 07       	cpc	r21, r25
     7ac:	60 f4       	brcc	.+24     	; 0x7c6 <CheckPins+0x57a>
     7ae:	11 c0       	rjmp	.+34     	; 0x7d2 <CheckPins+0x586>
       }
 #else
       c_hfe = ((adc.lp1 / ((RR680MI+500)/1000)) * (R_H_VAL/500)) / (adc.tp2/500);
 #endif
    } else {
       c_hfe = (adc.lp1 - adc.tp1) / adc.tp1;
     7b0:	88 85       	ldd	r24, Y+8	; 0x08
     7b2:	99 85       	ldd	r25, Y+9	; 0x09
     7b4:	82 19       	sub	r24, r2
     7b6:	93 09       	sbc	r25, r3
     7b8:	b1 01       	movw	r22, r2
     7ba:	0e 94 57 16 	call	0x2cae	; 0x2cae <__udivmodhi4>
     7be:	4b 01       	movw	r8, r22
     7c0:	aa 24       	eor	r10, r10
     7c2:	bb 24       	eor	r11, r11
     7c4:	06 c0       	rjmp	.+12     	; 0x7d2 <CheckPins+0x586>
       adc.tp1 = U_VCC - ReadADC(TristatePin);	// voltage at Base resistor
 #ifdef LONG_HFE
       c_hfe = ((unsigned long)adc.lp1 * (unsigned long)(((unsigned long)R_H_VAL * 100) / 
              (unsigned int)RR680MI)) / (unsigned int)adc.tp1;	
       if (c_hfe > 65535) {
          c_hfe = 65535;
     7c6:	ff ef       	ldi	r31, 0xFF	; 255
     7c8:	8f 2e       	mov	r8, r31
     7ca:	ff ef       	ldi	r31, 0xFF	; 255
     7cc:	9f 2e       	mov	r9, r31
     7ce:	a1 2c       	mov	r10, r1
     7d0:	b1 2c       	mov	r11, r1
       lcd_string(utoa(adc.tp1,outval,10));
       wait1s();
#endif
#endif
    //Tristate (can be Base) to VCC, Test if NPN
    ADC_DDR = LoADCm;		//Low-Pin to output 0V
     7d2:	af 81       	ldd	r26, Y+7	; 0x07
     7d4:	a7 b9       	out	0x07, r26	; 7
    ADC_PORT = TXD_VAL;			//switch Low-Pin to GND
     7d6:	18 b8       	out	0x08, r1	; 8
    R_DDR = TriPinRL | HiPinRL;		//RL port for High-Pin and Tristate-Pin to output
     7d8:	bd 81       	ldd	r27, Y+5	; 0x05
     7da:	b4 b9       	out	0x04, r27	; 4
    R_PORT = TriPinRL | HiPinRL;	//RL port for High-Pin and Tristate-Pin to Vcc
     7dc:	b5 b9       	out	0x05, r27	; 5
    adc.hp1 = W5msReadADC(HighPin);	//measure voltage at High-Pin  (Collector)
     7de:	81 2f       	mov	r24, r17
     7e0:	0e 94 bd 15 	call	0x2b7a	; 0x2b7a <W5msReadADC>
    if(adc.hp1 < 1600) {
     7e4:	e6 e0       	ldi	r30, 0x06	; 6
     7e6:	80 34       	cpi	r24, 0x40	; 64
     7e8:	9e 07       	cpc	r25, r30
     7ea:	08 f0       	brcs	.+2      	; 0x7ee <CheckPins+0x5a2>
     7ec:	3c c1       	rjmp	.+632    	; 0xa66 <__stack+0x167>
       lcd_data('N');
       lcd_testpin(HighPin);
       lcd_data(' ');
       wait1s();
#endif
       if(PartReady==1) {
     7ee:	80 91 04 01 	lds	r24, 0x0104
     7f2:	81 30       	cpi	r24, 0x01	; 1
     7f4:	09 f4       	brne	.+2      	; 0x7f8 <CheckPins+0x5ac>
     7f6:	a2 c1       	rjmp	.+836    	; 0xb3c <__stack+0x23d>
          goto widmes;
       }

       //Test auf Thyristor:
       //Gate discharge
       ChargePin10ms(TriPinRL,0);	//Tristate-Pin (Gate) across R_L 10ms to GND
     7f8:	8a 81       	ldd	r24, Y+2	; 0x02
     7fa:	60 e0       	ldi	r22, 0x00	; 0
     7fc:	0e 94 05 01 	call	0x20a	; 0x20a <ChargePin10ms>
       adc.hp3 = W5msReadADC(HighPin);	//read voltage at High-Pin (probably Anode) again
     800:	81 2f       	mov	r24, r17
     802:	0e 94 bd 15 	call	0x2b7a	; 0x2b7a <W5msReadADC>
     806:	7c 01       	movw	r14, r24
					//current should still flow, if not,
					// no Thyristor or holding current to low 
		 	
       R_PORT = 0;			//switch R_L for High-Pin (probably Anode) to GND (turn off)
     808:	15 b8       	out	0x05, r1	; 5
       wait5ms();
     80a:	0e 94 a2 15 	call	0x2b44	; 0x2b44 <wait5ms>
       R_PORT = HiPinRL;		//switch R_L for High-Pin (probably Anode) again to VCC
     80e:	c5 b8       	out	0x05, r12	; 5
       adc.hp2 = W5msReadADC(HighPin);	//measure voltage at the High-Pin (probably Anode) again
     810:	81 2f       	mov	r24, r17
     812:	0e 94 bd 15 	call	0x2b7a	; 0x2b7a <W5msReadADC>
       if((adc.hp3 < 1600) && (adc.hp2 > 4400)) {
     816:	f0 e4       	ldi	r31, 0x40	; 64
     818:	ef 16       	cp	r14, r31
     81a:	f6 e0       	ldi	r31, 0x06	; 6
     81c:	ff 06       	cpc	r15, r31
     81e:	08 f0       	brcs	.+2      	; 0x822 <CheckPins+0x5d6>
     820:	42 c0       	rjmp	.+132    	; 0x8a6 <CheckPins+0x65a>
     822:	21 e1       	ldi	r18, 0x11	; 17
     824:	81 33       	cpi	r24, 0x31	; 49
     826:	92 07       	cpc	r25, r18
     828:	f0 f1       	brcs	.+124    	; 0x8a6 <CheckPins+0x65a>
          //if the holding current was switched off the thyristor must be switched off too. 
          //if Thyristor was still swiched on, if gate was switched off => Thyristor
          PartFound = PART_THYRISTOR;
     82a:	85 e0       	ldi	r24, 0x05	; 5
     82c:	80 93 07 01 	sts	0x0107, r24
          //Test if Triac
          R_DDR = 0;
     830:	14 b8       	out	0x04, r1	; 4
          R_PORT = 0;
     832:	15 b8       	out	0x05, r1	; 5
          ADC_PORT = LoADCp;	//Low-Pin fix to VCC
     834:	3f 81       	ldd	r19, Y+7	; 0x07
     836:	38 b9       	out	0x08, r19	; 8
          wait5ms();
     838:	0e 94 a2 15 	call	0x2b44	; 0x2b44 <wait5ms>
          R_DDR = HiPinRL;		//switch R_L port HighPin to output (GND)
     83c:	c4 b8       	out	0x04, r12	; 4
          if(W5msReadADC(HighPin) > 244) {
     83e:	81 2f       	mov	r24, r17
     840:	0e 94 bd 15 	call	0x2b7a	; 0x2b7a <W5msReadADC>
     844:	85 3f       	cpi	r24, 0xF5	; 245
     846:	91 05       	cpc	r25, r1
     848:	08 f0       	brcs	.+2      	; 0x84c <CheckPins+0x600>
     84a:	06 c1       	rjmp	.+524    	; 0xa58 <__stack+0x159>
             goto savenresult;		//measure voltage at the  High-Pin (probably A2); if too high:
                                	//component has current => kein Triac
          }
          R_DDR = HiPinRL | TriPinRL;	//switch R_L port for TristatePin (Gate) to output (GND) => Triac should be triggered 
     84c:	8d 81       	ldd	r24, Y+5	; 0x05
     84e:	84 b9       	out	0x04, r24	; 4
          if(W5msReadADC(TristatePin) < 977) {
     850:	89 81       	ldd	r24, Y+1	; 0x01
     852:	0e 94 bd 15 	call	0x2b7a	; 0x2b7a <W5msReadADC>
     856:	a3 e0       	ldi	r26, 0x03	; 3
     858:	81 3d       	cpi	r24, 0xD1	; 209
     85a:	9a 07       	cpc	r25, r26
     85c:	08 f4       	brcc	.+2      	; 0x860 <CheckPins+0x614>
     85e:	fc c0       	rjmp	.+504    	; 0xa58 <__stack+0x159>
             goto savenresult; 		//measure voltage at the Tristate-Pin (probably Gate) ;
                              		// if to low, abort 
          }
          if(ReadADC(HighPin) < 733) {
     860:	81 2f       	mov	r24, r17
     862:	0e 94 bf 15 	call	0x2b7e	; 0x2b7e <ReadADC>
     866:	b2 e0       	ldi	r27, 0x02	; 2
     868:	8d 3d       	cpi	r24, 0xDD	; 221
     86a:	9b 07       	cpc	r25, r27
     86c:	08 f4       	brcc	.+2      	; 0x870 <CheckPins+0x624>
     86e:	f4 c0       	rjmp	.+488    	; 0xa58 <__stack+0x159>
             goto savenresult; 		//component has no current => no Triac => abort
          }
          R_DDR = HiPinRL;		//TristatePin (Gate) to input 
     870:	c4 b8       	out	0x04, r12	; 4
          if(W5msReadADC(HighPin) < 733) {
     872:	81 2f       	mov	r24, r17
     874:	0e 94 bd 15 	call	0x2b7a	; 0x2b7a <W5msReadADC>
     878:	e2 e0       	ldi	r30, 0x02	; 2
     87a:	8d 3d       	cpi	r24, 0xDD	; 221
     87c:	9e 07       	cpc	r25, r30
     87e:	08 f4       	brcc	.+2      	; 0x882 <CheckPins+0x636>
     880:	eb c0       	rjmp	.+470    	; 0xa58 <__stack+0x159>
             goto savenresult; 		//component has no current without base current => no Triac => abort
          }
          R_PORT = HiPinRL;		//switch R_L port for HighPin to VCC => switch off holding current 
     882:	c5 b8       	out	0x05, r12	; 5
          wait5ms();
     884:	0e 94 a2 15 	call	0x2b44	; 0x2b44 <wait5ms>
          R_PORT = 0;			//switch R_L port for HighPin again to GND; Triac should now switched off
     888:	15 b8       	out	0x05, r1	; 5
          if(W5msReadADC(HighPin) > 244) {
     88a:	81 2f       	mov	r24, r17
     88c:	0e 94 bd 15 	call	0x2b7a	; 0x2b7a <W5msReadADC>
     890:	85 3f       	cpi	r24, 0xF5	; 245
     892:	91 05       	cpc	r25, r1
     894:	08 f0       	brcs	.+2      	; 0x898 <CheckPins+0x64c>
     896:	e0 c0       	rjmp	.+448    	; 0xa58 <__stack+0x159>
             goto savenresult;		//measure voltage at the High-Pin (probably A2) ;
                                	//if to high, component is not switched off => no Triac, abort
         }
         PartFound = PART_TRIAC;
     898:	84 e0       	ldi	r24, 0x04	; 4
     89a:	80 93 07 01 	sts	0x0107, r24
         PartReady = 1;
     89e:	81 e0       	ldi	r24, 0x01	; 1
     8a0:	80 93 04 01 	sts	0x0104, r24
         goto savenresult;
     8a4:	d9 c0       	rjmp	.+434    	; 0xa58 <__stack+0x159>
        }
      //Test if NPN Transistor or MOSFET
      // ADC_DDR = LoADCm;	//Low-Pin to output 0V
      R_DDR = HiPinRL | TriPinRH;	//R_H port of Tristate-Pin (Basis) to output
     8a6:	dc 28       	or	r13, r12
     8a8:	d4 b8       	out	0x04, r13	; 4
      R_PORT = HiPinRL | TriPinRH;	//R_H port of Tristate-Pin (Basis) to VCC
     8aa:	d5 b8       	out	0x05, r13	; 5
      wait50ms();
     8ac:	0e 94 9d 15 	call	0x2b3a	; 0x2b3a <wait50ms>
      adc.hp2 = U_VCC - ReadADC(HighPin);	//measure the voltage at the collector resistor 
     8b0:	81 2f       	mov	r24, r17
     8b2:	0e 94 bf 15 	call	0x2b7e	; 0x2b7e <ReadADC>
     8b6:	e4 e7       	ldi	r30, 0x74	; 116
     8b8:	ee 2e       	mov	r14, r30
     8ba:	e3 e1       	ldi	r30, 0x13	; 19
     8bc:	fe 2e       	mov	r15, r30
     8be:	97 01       	movw	r18, r14
     8c0:	28 1b       	sub	r18, r24
     8c2:	39 0b       	sbc	r19, r25
     8c4:	3e 87       	std	Y+14, r19	; 0x0e
     8c6:	2d 87       	std	Y+13, r18	; 0x0d
      adc.tp2 = U_VCC - ReadADC(TristatePin);	//measure the voltage at the base resistor 
     8c8:	89 81       	ldd	r24, Y+1	; 0x01
     8ca:	0e 94 bf 15 	call	0x2b7e	; 0x2b7e <ReadADC>
     8ce:	3c 01       	movw	r6, r24
     8d0:	c7 01       	movw	r24, r14
     8d2:	86 19       	sub	r24, r6
     8d4:	97 09       	sbc	r25, r7
     8d6:	9e 83       	std	Y+6, r25	; 0x06
     8d8:	8d 83       	std	Y+5, r24	; 0x05
       lcd_data(' ');
       lcd_data('T');
       lcd_data('P');
       lcd_string(utoa(adc.tp2,outval,10));
#endif
      if((PartFound == PART_TRANSISTOR) || (PartFound == PART_FET)) {
     8da:	80 91 07 01 	lds	r24, 0x0107
     8de:	82 50       	subi	r24, 0x02	; 2
     8e0:	82 30       	cpi	r24, 0x02	; 2
     8e2:	18 f4       	brcc	.+6      	; 0x8ea <CheckPins+0x69e>
         PartReady = 1;	//check, if test is already done once
     8e4:	81 e0       	ldi	r24, 0x01	; 1
     8e6:	80 93 04 01 	sts	0x0104, r24
      }
      trans.uBE[PartReady] = U_VCC - adc.tp2 - ReadADC(LowPin);
     8ea:	e0 90 04 01 	lds	r14, 0x0104
     8ee:	ff 24       	eor	r15, r15
     8f0:	80 2f       	mov	r24, r16
     8f2:	0e 94 bf 15 	call	0x2b7e	; 0x2b7e <ReadADC>
     8f6:	f7 01       	movw	r30, r14
     8f8:	ee 0f       	add	r30, r30
     8fa:	ff 1f       	adc	r31, r31
     8fc:	e9 5c       	subi	r30, 0xC9	; 201
     8fe:	fe 4f       	sbci	r31, 0xFE	; 254
     900:	68 1a       	sub	r6, r24
     902:	79 0a       	sbc	r7, r25
     904:	71 82       	std	Z+1, r7	; 0x01
     906:	60 82       	st	Z, r6

      //compute current amplification factor for common Emitter
      //hFE = B = Collector current / Base current
      if(adc.tp2 < 53) {
     908:	ad 81       	ldd	r26, Y+5	; 0x05
     90a:	be 81       	ldd	r27, Y+6	; 0x06
     90c:	a5 33       	cpi	r26, 0x35	; 53
     90e:	b1 05       	cpc	r27, r1
     910:	20 f4       	brcc	.+8      	; 0x91a <__stack+0x1b>
#if DebugOut == 5
         lcd_data('<');
         lcd_data('5');
         lcd_data('3');
#endif
         adc.tp2 = 53;
     912:	e5 e3       	ldi	r30, 0x35	; 53
     914:	f0 e0       	ldi	r31, 0x00	; 0
     916:	fe 83       	std	Y+6, r31	; 0x06
     918:	ed 83       	std	Y+5, r30	; 0x05
      }

#ifdef LONG_HFE
      trans.hfe[PartReady] = ((unsigned int)adc.hp2 * (unsigned long)(((unsigned long)R_H_VAL * 100) / 
     91a:	80 91 04 01 	lds	r24, 0x0104
     91e:	e8 2e       	mov	r14, r24
     920:	ff 24       	eor	r15, r15
     922:	2d 85       	ldd	r18, Y+13	; 0x0d
     924:	3e 85       	ldd	r19, Y+14	; 0x0e
     926:	29 01       	movw	r4, r18
     928:	66 24       	eor	r6, r6
     92a:	77 24       	eor	r7, r7
     92c:	8f 85       	ldd	r24, Y+15	; 0x0f
     92e:	98 89       	ldd	r25, Y+16	; 0x10
     930:	9c 01       	movw	r18, r24
     932:	40 e0       	ldi	r20, 0x00	; 0
     934:	50 e0       	ldi	r21, 0x00	; 0
     936:	60 e6       	ldi	r22, 0x60	; 96
     938:	77 eb       	ldi	r23, 0xB7	; 183
     93a:	87 e4       	ldi	r24, 0x47	; 71
     93c:	90 e0       	ldi	r25, 0x00	; 0
     93e:	0e 94 7e 16 	call	0x2cfc	; 0x2cfc <__udivmodsi4>
     942:	c3 01       	movw	r24, r6
     944:	b2 01       	movw	r22, r4
     946:	0e 94 2c 16 	call	0x2c58	; 0x2c58 <__mulsi3>
              (unsigned int)RR680PL)) / (unsigned int)adc.tp2;	
     94a:	ad 81       	ldd	r26, Y+5	; 0x05
     94c:	be 81       	ldd	r27, Y+6	; 0x06
     94e:	9d 01       	movw	r18, r26
     950:	40 e0       	ldi	r20, 0x00	; 0
     952:	50 e0       	ldi	r21, 0x00	; 0
     954:	0e 94 7e 16 	call	0x2cfc	; 0x2cfc <__udivmodsi4>
#endif
         adc.tp2 = 53;
      }

#ifdef LONG_HFE
      trans.hfe[PartReady] = ((unsigned int)adc.hp2 * (unsigned long)(((unsigned long)R_H_VAL * 100) / 
     958:	f7 01       	movw	r30, r14
     95a:	ee 0f       	add	r30, r30
     95c:	ff 1f       	adc	r31, r31
     95e:	ed 5c       	subi	r30, 0xCD	; 205
     960:	fe 4f       	sbci	r31, 0xFE	; 254
     962:	31 83       	std	Z+1, r19	; 0x01
     964:	20 83       	st	Z, r18
      trans.hfe[PartReady] = ((adc.hp2 / ((RR680PL+500)/1000)) * (R_H_VAL/500)) / (adc.tp2/500);
#endif
#ifdef COMMON_COLLECTOR
       //compare current amplification factor for common Collector (Emitter follower)
       // hFE = (Emitterstrom - Basisstrom) / Basisstrom
       if (c_hfe >  trans.hfe[PartReady]) {
     966:	40 e0       	ldi	r20, 0x00	; 0
     968:	50 e0       	ldi	r21, 0x00	; 0
     96a:	28 15       	cp	r18, r8
     96c:	39 05       	cpc	r19, r9
     96e:	4a 05       	cpc	r20, r10
     970:	5b 05       	cpc	r21, r11
     972:	98 f4       	brcc	.+38     	; 0x99a <__stack+0x9b>
          trans.hfe[PartReady] = (unsigned int)c_hfe;
     974:	91 82       	std	Z+1, r9	; 0x01
     976:	80 82       	st	Z, r8
          trans.uBE[PartReady] = U_VCC - adc.lp1 - adc.tp1;
     978:	d7 01       	movw	r26, r14
     97a:	aa 0f       	add	r26, r26
     97c:	bb 1f       	adc	r27, r27
     97e:	a9 5c       	subi	r26, 0xC9	; 201
     980:	be 4f       	sbci	r27, 0xFE	; 254
     982:	88 85       	ldd	r24, Y+8	; 0x08
     984:	99 85       	ldd	r25, Y+9	; 0x09
     986:	90 95       	com	r25
     988:	81 95       	neg	r24
     98a:	9f 4f       	sbci	r25, 0xFF	; 255
     98c:	82 19       	sub	r24, r2
     98e:	93 09       	sbc	r25, r3
     990:	8c 58       	subi	r24, 0x8C	; 140
     992:	9c 4e       	sbci	r25, 0xEC	; 236
     994:	11 96       	adiw	r26, 0x01	; 1
     996:	9c 93       	st	X, r25
     998:	8e 93       	st	-X, r24
       }
#endif

      if(adc.tp2 > 2557) {		// Basis-voltage R_H is low enough
     99a:	ed 81       	ldd	r30, Y+5	; 0x05
     99c:	fe 81       	ldd	r31, Y+6	; 0x06
     99e:	29 e0       	ldi	r18, 0x09	; 9
     9a0:	ee 3f       	cpi	r30, 0xFE	; 254
     9a2:	f2 07       	cpc	r31, r18
     9a4:	38 f0       	brcs	.+14     	; 0x9b4 <__stack+0xb5>
         PartFound = PART_TRANSISTOR;	//NPN-Transistor is found (Base is near GND)
     9a6:	82 e0       	ldi	r24, 0x02	; 2
     9a8:	80 93 07 01 	sts	0x0107, r24
         PartMode = PART_MODE_NPN;
     9ac:	81 e0       	ldi	r24, 0x01	; 1
     9ae:	80 93 06 01 	sts	0x0106, r24
     9b2:	52 c0       	rjmp	.+164    	; 0xa58 <__stack+0x159>
      } else { // Basis has low current
         if((adc.lp_otr < 97) && (adc.hp2 > 3400)) {
     9b4:	8b 85       	ldd	r24, Y+11	; 0x0b
     9b6:	9c 85       	ldd	r25, Y+12	; 0x0c
     9b8:	81 36       	cpi	r24, 0x61	; 97
     9ba:	91 05       	cpc	r25, r1
     9bc:	08 f0       	brcs	.+2      	; 0x9c0 <__stack+0xc1>
     9be:	4c c0       	rjmp	.+152    	; 0xa58 <__stack+0x159>
     9c0:	ad 85       	ldd	r26, Y+13	; 0x0d
     9c2:	be 85       	ldd	r27, Y+14	; 0x0e
     9c4:	ed e0       	ldi	r30, 0x0D	; 13
     9c6:	a9 34       	cpi	r26, 0x49	; 73
     9c8:	be 07       	cpc	r27, r30
     9ca:	08 f4       	brcc	.+2      	; 0x9ce <__stack+0xcf>
     9cc:	45 c0       	rjmp	.+138    	; 0xa58 <__stack+0x159>
            //if flow voltage in switched off mode low enough?
            //(since D-Mode-FET will be detected in error as E-Mode )
            PartFound = PART_FET;	//N-Kanal-MOSFET is found (Basis/Gate will Not be pulled down)
     9ce:	83 e0       	ldi	r24, 0x03	; 3
     9d0:	80 93 07 01 	sts	0x0107, r24
            PartMode = PART_MODE_N_E_MOS;
     9d4:	82 e0       	ldi	r24, 0x02	; 2
     9d6:	80 93 06 01 	sts	0x0106, r24
            lcd_line3();
            lcd_data('N');
            lcd_data('F');
            wait1s();
#endif
            PinMSK = HiADCm & 7;
     9da:	ac 80       	ldd	r10, Y+4	; 0x04
     9dc:	f7 e0       	ldi	r31, 0x07	; 7
     9de:	af 22       	and	r10, r31
            // measure Threshold voltage of Gate
            ADMUX = TristatePin | (1<<REFS0);	// measure TristatePin, Ref. VCC
     9e0:	89 81       	ldd	r24, Y+1	; 0x01
     9e2:	80 64       	ori	r24, 0x40	; 64
     9e4:	80 93 7c 00 	sts	0x007C, r24
            gthvoltage = 1;			// round up ((1*4)/9)
     9e8:	81 e0       	ldi	r24, 0x01	; 1
     9ea:	90 e0       	ldi	r25, 0x00	; 0
     9ec:	90 93 44 01 	sts	0x0144, r25
     9f0:	80 93 43 01 	sts	0x0143, r24
     9f4:	4b e0       	ldi	r20, 0x0B	; 11
     9f6:	e4 2e       	mov	r14, r20
            for(ii=0;ii<11;ii++) {
            	wdt_reset();
     9f8:	a8 95       	wdr
            	ChargePin10ms(TriPinRL,0);	// discharge Gate 10ms with RL 
     9fa:	8a 81       	ldd	r24, Y+2	; 0x02
     9fc:	60 e0       	ldi	r22, 0x00	; 0
     9fe:	0e 94 05 01 	call	0x20a	; 0x20a <ChargePin10ms>
                R_DDR = HiPinRL | TriPinRH;	// slowly charge Gate 
     a02:	d4 b8       	out	0x04, r13	; 4
                R_PORT = HiPinRL | TriPinRH;
     a04:	d5 b8       	out	0x05, r13	; 5
            	while ((ADC_PIN&PinMSK));  // Wait, until the MOSFET switch and Drain moved to low 
     a06:	86 b1       	in	r24, 0x06	; 6
     a08:	8a 21       	and	r24, r10
     a0a:	e9 f7       	brne	.-6      	; 0xa06 <__stack+0x107>
                R_DDR = HiPinRL;
     a0c:	c4 b8       	out	0x04, r12	; 4
            	ADCSRA |= (1<<ADSC);		// start ADC conversion
     a0e:	80 91 7a 00 	lds	r24, 0x007A
     a12:	80 64       	ori	r24, 0x40	; 64
     a14:	80 93 7a 00 	sts	0x007A, r24
            	while (ADCSRA&(1<<ADSC));	// wait until ADC finished
     a18:	80 91 7a 00 	lds	r24, 0x007A
     a1c:	86 fd       	sbrc	r24, 6
     a1e:	fc cf       	rjmp	.-8      	; 0xa18 <__stack+0x119>
            	gthvoltage += ADCW;		// add result of ADC
     a20:	80 91 78 00 	lds	r24, 0x0078
     a24:	90 91 79 00 	lds	r25, 0x0079
     a28:	20 91 43 01 	lds	r18, 0x0143
     a2c:	30 91 44 01 	lds	r19, 0x0144
     a30:	82 0f       	add	r24, r18
     a32:	93 1f       	adc	r25, r19
     a34:	90 93 44 01 	sts	0x0144, r25
     a38:	80 93 43 01 	sts	0x0143, r24
     a3c:	ea 94       	dec	r14
#endif
            PinMSK = HiADCm & 7;
            // measure Threshold voltage of Gate
            ADMUX = TristatePin | (1<<REFS0);	// measure TristatePin, Ref. VCC
            gthvoltage = 1;			// round up ((1*4)/9)
            for(ii=0;ii<11;ii++) {
     a3e:	e1 f6       	brne	.-72     	; 0x9f8 <__stack+0xf9>
            	gthvoltage += ADCW;		// add result of ADC
#if DebugOut == 5
                lcd_data('.');
#endif
            }
            gthvoltage *= 4;	//is equal to 44 * ADCW
     a40:	88 0f       	add	r24, r24
     a42:	99 1f       	adc	r25, r25
     a44:	88 0f       	add	r24, r24
     a46:	99 1f       	adc	r25, r25
            gthvoltage /= 9;	//scale to mV
     a48:	69 e0       	ldi	r22, 0x09	; 9
     a4a:	70 e0       	ldi	r23, 0x00	; 0
     a4c:	0e 94 57 16 	call	0x2cae	; 0x2cae <__udivmodhi4>
     a50:	70 93 44 01 	sts	0x0144, r23
     a54:	60 93 43 01 	sts	0x0143, r22
         }
      }
savenresult:
      trans.b = TristatePin;	// save Pin-constellation
     a58:	29 81       	ldd	r18, Y+1	; 0x01
     a5a:	20 93 3b 01 	sts	0x013B, r18
      trans.c = HighPin;
     a5e:	10 93 3c 01 	sts	0x013C, r17
      trans.e = LowPin;
     a62:	00 93 3d 01 	sts	0x013D, r16
   } // end component conduct => npn
   ADC_DDR = TXD_MSK;		// switch all ADC-Ports to input
     a66:	17 b8       	out	0x07, r1	; 7
   ADC_PORT = TXD_VAL;		// switch all ADC-Ports to 0 (no Pull up)
     a68:	18 b8       	out	0x08, r1	; 8
   //Fertig
   //end das component has no connection between HighPin and LowPin
   goto widmes;
     a6a:	68 c0       	rjmp	.+208    	; 0xb3c <__stack+0x23d>
  }
  // component has current
  //Test if Diode
  ADC_PORT = TXD_VAL;
     a6c:	18 b8       	out	0x08, r1	; 8
  ADC_DDR = LoADCm;	//Low-Pin fix to GND
     a6e:	3f 81       	ldd	r19, Y+7	; 0x07
     a70:	37 b9       	out	0x07, r19	; 7
  R_DDR = HiPinRL;		//switch R_L port for High-Pin to output (VCC)
     a72:	c4 b8       	out	0x04, r12	; 4
  R_PORT = HiPinRL;
     a74:	c5 b8       	out	0x05, r12	; 5
  ChargePin10ms(TriPinRL,1);	//discharge of P-Kanal-MOSFET gate
     a76:	8a 81       	ldd	r24, Y+2	; 0x02
     a78:	61 e0       	ldi	r22, 0x01	; 1
     a7a:	0e 94 05 01 	call	0x20a	; 0x20a <ChargePin10ms>
  adc.lp_otr = W5msReadADC(HighPin) - ReadADC(LowPin);
     a7e:	81 2f       	mov	r24, r17
     a80:	0e 94 bd 15 	call	0x2b7a	; 0x2b7a <W5msReadADC>
     a84:	4c 01       	movw	r8, r24
     a86:	80 2f       	mov	r24, r16
     a88:	0e 94 bf 15 	call	0x2b7e	; 0x2b7e <ReadADC>
     a8c:	88 1a       	sub	r8, r24
     a8e:	99 0a       	sbc	r9, r25
  R_DDR = HiPinRH;		//switch R_H port for High-Pin output (VCC)
     a90:	8a 85       	ldd	r24, Y+10	; 0x0a
     a92:	84 b9       	out	0x04, r24	; 4
  R_PORT = HiPinRH;
     a94:	85 b9       	out	0x05, r24	; 5
  adc.hp2 = W5msReadADC(HighPin); 		// M--|<--HP--R_H--VCC
     a96:	81 2f       	mov	r24, r17
     a98:	0e 94 bd 15 	call	0x2b7a	; 0x2b7a <W5msReadADC>
     a9c:	5c 01       	movw	r10, r24

  R_DDR = HiPinRL;		//switch R_L port for High-Pin to output (VCC)
     a9e:	c4 b8       	out	0x04, r12	; 4
  R_PORT = HiPinRL;
     aa0:	c5 b8       	out	0x05, r12	; 5
  ChargePin10ms(TriPinRL,0);	//discharge for N-Kanal-MOSFET gate
     aa2:	8a 81       	ldd	r24, Y+2	; 0x02
     aa4:	60 e0       	ldi	r22, 0x00	; 0
     aa6:	0e 94 05 01 	call	0x20a	; 0x20a <ChargePin10ms>
  adc.hp1 = W5msReadADC(HighPin) - W5msReadADC(LowPin);
     aaa:	81 2f       	mov	r24, r17
     aac:	0e 94 bd 15 	call	0x2b7a	; 0x2b7a <W5msReadADC>
     ab0:	7c 01       	movw	r14, r24
     ab2:	80 2f       	mov	r24, r16
     ab4:	0e 94 bd 15 	call	0x2b7a	; 0x2b7a <W5msReadADC>
     ab8:	e8 1a       	sub	r14, r24
     aba:	f9 0a       	sbc	r15, r25
  R_DDR = HiPinRH;		//switch R_H port for High-Pin to output (VCC)
     abc:	9a 85       	ldd	r25, Y+10	; 0x0a
     abe:	94 b9       	out	0x04, r25	; 4
  R_PORT = HiPinRH;
     ac0:	95 b9       	out	0x05, r25	; 5
  adc.hp3 = W5msReadADC(HighPin);		// M--|<--HP--R_H--VCC
     ac2:	81 2f       	mov	r24, r17
     ac4:	0e 94 bd 15 	call	0x2b7a	; 0x2b7a <W5msReadADC>
      The additional measurement with the big resistor R_H is made, to differ antiparallel diodes
      from resistors.
      A diode has a voltage, that is nearly independent from the current.
      The voltage of a resistor is proportional to the current.
    */
  if(adc.lp_otr > adc.hp1) {
     ac8:	e8 14       	cp	r14, r8
     aca:	f9 04       	cpc	r15, r9
     acc:	18 f0       	brcs	.+6      	; 0xad4 <__stack+0x1d5>
  R_PORT = HiPinRL;
  ChargePin10ms(TriPinRL,0);	//discharge for N-Kanal-MOSFET gate
  adc.hp1 = W5msReadADC(HighPin) - W5msReadADC(LowPin);
  R_DDR = HiPinRH;		//switch R_H port for High-Pin to output (VCC)
  R_PORT = HiPinRH;
  adc.hp3 = W5msReadADC(HighPin);		// M--|<--HP--R_H--VCC
     ace:	a8 2e       	mov	r10, r24
     ad0:	b9 2e       	mov	r11, r25
      The additional measurement with the big resistor R_H is made, to differ antiparallel diodes
      from resistors.
      A diode has a voltage, that is nearly independent from the current.
      The voltage of a resistor is proportional to the current.
    */
  if(adc.lp_otr > adc.hp1) {
     ad2:	47 01       	movw	r8, r14
  lcd_string(utoa(adc.hp3,outval,10));
  lcd_data(' ');
  wait1s();
#endif

  if((adc.hp1 > 150) && (adc.hp1 < 4640) && (adc.hp1 > (adc.hp3+(adc.hp3/8))) && (adc.hp3*8 > adc.hp1)) {
     ad4:	c4 01       	movw	r24, r8
     ad6:	87 59       	subi	r24, 0x97	; 151
     ad8:	90 40       	sbci	r25, 0x00	; 0
     ada:	a1 e1       	ldi	r26, 0x11	; 17
     adc:	89 38       	cpi	r24, 0x89	; 137
     ade:	9a 07       	cpc	r25, r26
     ae0:	68 f5       	brcc	.+90     	; 0xb3c <__stack+0x23d>
     ae2:	c5 01       	movw	r24, r10
     ae4:	23 e0       	ldi	r18, 0x03	; 3
     ae6:	96 95       	lsr	r25
     ae8:	87 95       	ror	r24
     aea:	2a 95       	dec	r18
     aec:	e1 f7       	brne	.-8      	; 0xae6 <__stack+0x1e7>
     aee:	8a 0d       	add	r24, r10
     af0:	9b 1d       	adc	r25, r11
     af2:	88 15       	cp	r24, r8
     af4:	99 05       	cpc	r25, r9
     af6:	10 f5       	brcc	.+68     	; 0xb3c <__stack+0x23d>
     af8:	83 e0       	ldi	r24, 0x03	; 3
     afa:	aa 0c       	add	r10, r10
     afc:	bb 1c       	adc	r11, r11
     afe:	8a 95       	dec	r24
     b00:	e1 f7       	brne	.-8      	; 0xafa <__stack+0x1fb>
     b02:	8a 14       	cp	r8, r10
     b04:	9b 04       	cpc	r9, r11
     b06:	d0 f4       	brcc	.+52     	; 0xb3c <__stack+0x23d>
     //voltage is above 0,15V and below 4,64V => Ok
     if((PartFound == PART_NONE) || (PartFound == PART_RESISTOR)) {
     b08:	80 91 07 01 	lds	r24, 0x0107
     b0c:	88 23       	and	r24, r24
     b0e:	11 f0       	breq	.+4      	; 0xb14 <__stack+0x215>
     b10:	86 30       	cpi	r24, 0x06	; 6
     b12:	19 f4       	brne	.+6      	; 0xb1a <__stack+0x21b>
        PartFound = PART_DIODE;	//mark for diode only, if no other component is found
     b14:	81 e0       	ldi	r24, 0x01	; 1
     b16:	80 93 07 01 	sts	0x0107, r24
				//since there is a problem with Transistors with a protection diode
#if DebugOut == 4
        lcd_data('D');
#endif
     }
     diodes[NumOfDiodes].Anode = HighPin;
     b1a:	80 91 05 01 	lds	r24, 0x0105
     b1e:	e8 2f       	mov	r30, r24
     b20:	f0 e0       	ldi	r31, 0x00	; 0
     b22:	ee 0f       	add	r30, r30
     b24:	ff 1f       	adc	r31, r31
     b26:	ee 0f       	add	r30, r30
     b28:	ff 1f       	adc	r31, r31
     b2a:	e8 5b       	subi	r30, 0xB8	; 184
     b2c:	fe 4f       	sbci	r31, 0xFE	; 254
     b2e:	10 83       	st	Z, r17
     diodes[NumOfDiodes].Cathode = LowPin;
     b30:	01 83       	std	Z+1, r16	; 0x01
     diodes[NumOfDiodes].Voltage = adc.hp1;	// voltage in Millivolt 
     b32:	93 82       	std	Z+3, r9	; 0x03
     b34:	82 82       	std	Z+2, r8	; 0x02
     NumOfDiodes++;
     b36:	8f 5f       	subi	r24, 0xFF	; 255
     b38:	80 93 05 01 	sts	0x0105, r24
#endif

widmes:
#ifdef R_MESS
  // resistor measurement
  wdt_reset();
     b3c:	a8 95       	wdr
// U_SCALE can be set to 4 for better resolution of ReadADC result
 #if U_SCALE != 1
  Config.U_AVCC = U_VCC*U_SCALE;	// scale to higher resolution, mV scale is not required
     b3e:	80 ed       	ldi	r24, 0xD0	; 208
     b40:	9d e4       	ldi	r25, 0x4D	; 77
     b42:	90 93 69 01 	sts	0x0169, r25
     b46:	80 93 68 01 	sts	0x0168, r24
  Config.U_Bandgap *= U_SCALE;
     b4a:	80 91 66 01 	lds	r24, 0x0166
     b4e:	90 91 67 01 	lds	r25, 0x0167
     b52:	88 0f       	add	r24, r24
     b54:	99 1f       	adc	r25, r25
     b56:	88 0f       	add	r24, r24
     b58:	99 1f       	adc	r25, r25
     b5a:	90 93 67 01 	sts	0x0167, r25
     b5e:	80 93 66 01 	sts	0x0166, r24
 #endif
#if R_ANZ_MESS != ANZ_MESS
  Config.Samples = R_ANZ_MESS;	// switch to special number of repetitions
     b62:	8e eb       	ldi	r24, 0xBE	; 190
     b64:	80 93 64 01 	sts	0x0164, r24
#endif
  ADC_PORT = TXD_VAL;
     b68:	18 b8       	out	0x08, r1	; 8
  ADC_DDR = LoADCm;		//switch Low-Pin to output (GND)
     b6a:	bf 81       	ldd	r27, Y+7	; 0x07
     b6c:	b7 b9       	out	0x07, r27	; 7
  R_DDR = HiPinRL;		//switch R_L port for High-Pin to output (VCC)
     b6e:	c4 b8       	out	0x04, r12	; 4
  R_PORT = HiPinRL;	
     b70:	c5 b8       	out	0x05, r12	; 5
  adc.tp1 = W5msReadADC(LowPin);	// low-voltage at Rx with load
     b72:	80 2f       	mov	r24, r16
     b74:	0e 94 bd 15 	call	0x2b7a	; 0x2b7a <W5msReadADC>
     b78:	5c 01       	movw	r10, r24
  adc.hp1 = ReadADC(HighPin);		// voltage at resistor Rx with R_L
     b7a:	81 2f       	mov	r24, r17
     b7c:	0e 94 bf 15 	call	0x2b7e	; 0x2b7e <ReadADC>
     b80:	2c 01       	movw	r4, r24
  if (adc.tp1 > adc.hp1) {
     adc.tp1 = adc.hp1;
  }
  R_PORT = 0;
     b82:	15 b8       	out	0x05, r1	; 5
  R_DDR = HiPinRH;		//switch R_H port for High-Pin to output (GND)
     b84:	ea 85       	ldd	r30, Y+10	; 0x0a
     b86:	e4 b9       	out	0x04, r30	; 4
  adc.hp2 = W5msReadADC(HighPin);	// read voltage, should be down
     b88:	81 2f       	mov	r24, r17
     b8a:	0e 94 bd 15 	call	0x2b7a	; 0x2b7a <W5msReadADC>
  if (adc.hp2 > (20*U_SCALE)) {
     b8e:	81 35       	cpi	r24, 0x51	; 81
     b90:	91 05       	cpc	r25, r1
     b92:	08 f0       	brcs	.+2      	; 0xb96 <__stack+0x297>
     b94:	7c c1       	rjmp	.+760    	; 0xe8e <__stack+0x58f>
     lcd_string(utoa(adc.hp2, outval, 10));
     lcd_data(' ');
 #endif
     goto testend;
  }
  R_PORT = HiPinRH;		//switch R_H for High-Pin to VCC
     b96:	fa 85       	ldd	r31, Y+10	; 0x0a
     b98:	f5 b9       	out	0x05, r31	; 5
  adc.hp2 = W5msReadADC(HighPin);	// voltage at resistor Rx with R_H
     b9a:	81 2f       	mov	r24, r17
     b9c:	0e 94 bd 15 	call	0x2b7a	; 0x2b7a <W5msReadADC>
     ba0:	6c 01       	movw	r12, r24

  ADC_DDR = HiADCm;		//switch High-Pin to output
     ba2:	2c 81       	ldd	r18, Y+4	; 0x04
     ba4:	27 b9       	out	0x07, r18	; 7
  ADC_PORT = HiADCp;		//switch High-Pin to VCC
     ba6:	28 b9       	out	0x08, r18	; 8
  R_PORT = 0;
     ba8:	15 b8       	out	0x05, r1	; 5
  R_DDR = LoPinRL;			//switch R_L for Low-Pin to GND
     baa:	3b 81       	ldd	r19, Y+3	; 0x03
     bac:	34 b9       	out	0x04, r19	; 4
  adc.tp2 = W5msReadADC(HighPin);	//high voltage with load
     bae:	81 2f       	mov	r24, r17
     bb0:	0e 94 bd 15 	call	0x2b7a	; 0x2b7a <W5msReadADC>
     bb4:	4c 01       	movw	r8, r24
  adc.lp1 = ReadADC(LowPin);		//voltage at the other end of Rx
     bb6:	80 2f       	mov	r24, r16
     bb8:	0e 94 bf 15 	call	0x2b7e	; 0x2b7e <ReadADC>
     bbc:	7c 01       	movw	r14, r24
#else
  #define RR680PL (R_L_VAL + PIN_RP)
  #define RR680MI (R_L_VAL + PIN_RM)
#endif
  LoPinRL = MEM_read_byte(&PinRLtab[LowPin]);		// intruction for LowPin R_L
  LoPinRH = LoPinRL + LoPinRL;				// intruction for LowPin R_H
     bbe:	8b 81       	ldd	r24, Y+3	; 0x03
     bc0:	88 0f       	add	r24, r24
  adc.tp2 = W5msReadADC(HighPin);	//high voltage with load
  adc.lp1 = ReadADC(LowPin);		//voltage at the other end of Rx
  if (adc.tp2 < adc.lp1) {
     adc.tp2 = adc.lp1;
  }
  R_DDR = LoPinRH;			//switch R_H for Low-Pin to GND
     bc2:	84 b9       	out	0x04, r24	; 4
  adc.lp2 = W5msReadADC(LowPin);
     bc4:	80 2f       	mov	r24, r16
     bc6:	0e 94 bd 15 	call	0x2b7a	; 0x2b7a <W5msReadADC>
     bca:	3c 01       	movw	r6, r24
		
  if((adc.hp1 < (4400*U_SCALE)) && (adc.hp2 > (97*U_SCALE))) {
     bcc:	80 ec       	ldi	r24, 0xC0	; 192
     bce:	48 16       	cp	r4, r24
     bd0:	84 e4       	ldi	r24, 0x44	; 68
     bd2:	58 06       	cpc	r5, r24
     bd4:	30 f4       	brcc	.+12     	; 0xbe2 <__stack+0x2e3>
     bd6:	95 e8       	ldi	r25, 0x85	; 133
     bd8:	c9 16       	cp	r12, r25
     bda:	91 e0       	ldi	r25, 0x01	; 1
     bdc:	d9 06       	cpc	r13, r25
     bde:	38 f0       	brcs	.+14     	; 0xbee <__stack+0x2ef>
     be0:	56 c1       	rjmp	.+684    	; 0xe8e <__stack+0x58f>
     lcd_data('F');
 #endif
     goto testend; 
  }
//    if((adc.hp2 + (adc.hp2 / 61)) < adc.hp1)
  if (adc.hp2 < (4972*U_SCALE)) { 
     be2:	a0 eb       	ldi	r26, 0xB0	; 176
     be4:	ca 16       	cp	r12, r26
     be6:	ad e4       	ldi	r26, 0x4D	; 77
     be8:	da 06       	cpc	r13, r26
     bea:	08 f0       	brcs	.+2      	; 0xbee <__stack+0x2ef>
     bec:	50 c1       	rjmp	.+672    	; 0xe8e <__stack+0x58f>
     // voltage breaks down with low test current and it is not nearly shorted  => resistor
//     if (adc.lp1 < 120) { // take measurement with R_H 
     if (adc.lp1 < (169*U_SCALE)) { // take measurement with R_H 
     bee:	b4 ea       	ldi	r27, 0xA4	; 164
     bf0:	eb 16       	cp	r14, r27
     bf2:	b2 e0       	ldi	r27, 0x02	; 2
     bf4:	fb 06       	cpc	r15, r27
     bf6:	08 f0       	brcs	.+2      	; 0xbfa <__stack+0x2fb>
     bf8:	72 c0       	rjmp	.+228    	; 0xcde <__stack+0x3df>
        ii = 'H';
        if (adc.lp2 < (38*U_SCALE)) {
     bfa:	e8 e9       	ldi	r30, 0x98	; 152
     bfc:	6e 16       	cp	r6, r30
     bfe:	71 04       	cpc	r7, r1
     c00:	08 f4       	brcc	.+2      	; 0xc04 <__stack+0x305>
     c02:	45 c1       	rjmp	.+650    	; 0xe8e <__stack+0x58f>
        }
        // two measurements with R_H resistors (470k) are made:
        // lirx1 (measurement at HighPin)
//        ukorr = (int)((U_VCC * U_SCALE) - adc.hp2) / ((U_VCC*U_SCALE)/(7*U_SCALE)) + (2*U_SCALE);
//        adc.hp2 += ukorr;
        lirx1 = (unsigned long)((unsigned int)R_H_VAL) * (unsigned long)adc.hp2 / ((U_VCC*U_SCALE) - adc.hp2);
     c04:	b6 01       	movw	r22, r12
     c06:	80 e0       	ldi	r24, 0x00	; 0
     c08:	90 e0       	ldi	r25, 0x00	; 0
     c0a:	28 e9       	ldi	r18, 0x98	; 152
     c0c:	37 eb       	ldi	r19, 0xB7	; 183
     c0e:	40 e0       	ldi	r20, 0x00	; 0
     c10:	50 e0       	ldi	r21, 0x00	; 0
     c12:	0e 94 2c 16 	call	0x2c58	; 0x2c58 <__mulsi3>
     c16:	f0 ed       	ldi	r31, 0xD0	; 208
     c18:	ef 2e       	mov	r14, r31
     c1a:	fd e4       	ldi	r31, 0x4D	; 77
     c1c:	ff 2e       	mov	r15, r31
     c1e:	97 01       	movw	r18, r14
     c20:	2c 19       	sub	r18, r12
     c22:	3d 09       	sbc	r19, r13
     c24:	40 e0       	ldi	r20, 0x00	; 0
     c26:	50 e0       	ldi	r21, 0x00	; 0
     c28:	0e 94 7e 16 	call	0x2cfc	; 0x2cfc <__udivmodsi4>
     c2c:	49 01       	movw	r8, r18
     c2e:	5a 01       	movw	r10, r20
        // lirx2 (measurement at LowPin)
//        ukorr = (int)((U_VCC * U_SCALE)/2 - adc.lp2) / ((U_VCC*U_SCALE)/(12*U_SCALE));
//        adc.lp2 += ukorr;
        lirx2 = (unsigned long)((unsigned int)R_H_VAL) * (unsigned long)((U_VCC*U_SCALE) - adc.lp2) / adc.lp2;
     c30:	e6 18       	sub	r14, r6
     c32:	f7 08       	sbc	r15, r7
     c34:	b7 01       	movw	r22, r14
     c36:	80 e0       	ldi	r24, 0x00	; 0
     c38:	90 e0       	ldi	r25, 0x00	; 0
     c3a:	28 e9       	ldi	r18, 0x98	; 152
     c3c:	37 eb       	ldi	r19, 0xB7	; 183
     c3e:	40 e0       	ldi	r20, 0x00	; 0
     c40:	50 e0       	ldi	r21, 0x00	; 0
     c42:	0e 94 2c 16 	call	0x2c58	; 0x2c58 <__mulsi3>
     c46:	93 01       	movw	r18, r6
     c48:	40 e0       	ldi	r20, 0x00	; 0
     c4a:	50 e0       	ldi	r21, 0x00	; 0
     c4c:	0e 94 7e 16 	call	0x2cfc	; 0x2cfc <__udivmodsi4>
#define FAKT_LOW 2		//resolution is about twice as good
#else
#define FAKT_LOW 4		//resolution is about four times better
#endif
#ifdef AUTOSCALE_ADC
        if (adc.hp2 < U_INT_LIMIT) {
     c50:	f8 e7       	ldi	r31, 0x78	; 120
     c52:	cf 16       	cp	r12, r31
     c54:	ff e0       	ldi	r31, 0x0F	; 15
     c56:	df 06       	cpc	r13, r31
     c58:	70 f4       	brcc	.+28     	; 0xc76 <__stack+0x377>
           lrx1 = (lirx1*FAKT_LOW + lirx2) / (FAKT_LOW+1);	//weighted average of both R_H measurements
     c5a:	c5 01       	movw	r24, r10
     c5c:	b4 01       	movw	r22, r8
     c5e:	e2 e0       	ldi	r30, 0x02	; 2
     c60:	66 0f       	add	r22, r22
     c62:	77 1f       	adc	r23, r23
     c64:	88 1f       	adc	r24, r24
     c66:	99 1f       	adc	r25, r25
     c68:	ea 95       	dec	r30
     c6a:	d1 f7       	brne	.-12     	; 0xc60 <__stack+0x361>
     c6c:	62 0f       	add	r22, r18
     c6e:	73 1f       	adc	r23, r19
     c70:	84 1f       	adc	r24, r20
     c72:	95 1f       	adc	r25, r21
     c74:	12 c0       	rjmp	.+36     	; 0xc9a <__stack+0x39b>
        } else if (adc.lp2 < U_INT_LIMIT){
     c76:	88 e7       	ldi	r24, 0x78	; 120
     c78:	68 16       	cp	r6, r24
     c7a:	8f e0       	ldi	r24, 0x0F	; 15
     c7c:	78 06       	cpc	r7, r24
     c7e:	a0 f4       	brcc	.+40     	; 0xca8 <__stack+0x3a9>
           lrx1 = (lirx2*FAKT_LOW + lirx1) / (FAKT_LOW+1);	//weighted average of both R_H measurements
     c80:	ca 01       	movw	r24, r20
     c82:	b9 01       	movw	r22, r18
     c84:	b2 e0       	ldi	r27, 0x02	; 2
     c86:	66 0f       	add	r22, r22
     c88:	77 1f       	adc	r23, r23
     c8a:	88 1f       	adc	r24, r24
     c8c:	99 1f       	adc	r25, r25
     c8e:	ba 95       	dec	r27
     c90:	d1 f7       	brne	.-12     	; 0xc86 <__stack+0x387>
     c92:	68 0d       	add	r22, r8
     c94:	79 1d       	adc	r23, r9
     c96:	8a 1d       	adc	r24, r10
     c98:	9b 1d       	adc	r25, r11
     c9a:	25 e0       	ldi	r18, 0x05	; 5
     c9c:	30 e0       	ldi	r19, 0x00	; 0
     c9e:	40 e0       	ldi	r20, 0x00	; 0
     ca0:	50 e0       	ldi	r21, 0x00	; 0
     ca2:	0e 94 7e 16 	call	0x2cfc	; 0x2cfc <__udivmodsi4>
     ca6:	08 c0       	rjmp	.+16     	; 0xcb8 <__stack+0x3b9>
        } else 
#endif
        {
           lrx1 = (lirx1 + lirx2) / 2;		//average of both R_H measurements
     ca8:	28 0d       	add	r18, r8
     caa:	39 1d       	adc	r19, r9
     cac:	4a 1d       	adc	r20, r10
     cae:	5b 1d       	adc	r21, r11
     cb0:	56 95       	lsr	r21
     cb2:	47 95       	ror	r20
     cb4:	37 95       	ror	r19
     cb6:	27 95       	ror	r18
        }
        lrx1 *= 100;
     cb8:	ca 01       	movw	r24, r20
     cba:	b9 01       	movw	r22, r18
     cbc:	24 e6       	ldi	r18, 0x64	; 100
     cbe:	30 e0       	ldi	r19, 0x00	; 0
     cc0:	40 e0       	ldi	r20, 0x00	; 0
     cc2:	50 e0       	ldi	r21, 0x00	; 0
     cc4:	0e 94 2c 16 	call	0x2c58	; 0x2c58 <__mulsi3>
     cc8:	6b 01       	movw	r12, r22
     cca:	7c 01       	movw	r14, r24
        lrx1 += RH_OFFSET;			// add constant for correction of systematic error
     ccc:	8c ea       	ldi	r24, 0xAC	; 172
     cce:	9d e0       	ldi	r25, 0x0D	; 13
     cd0:	a0 e0       	ldi	r26, 0x00	; 0
     cd2:	b0 e0       	ldi	r27, 0x00	; 0
     cd4:	c8 0e       	add	r12, r24
     cd6:	d9 1e       	adc	r13, r25
     cd8:	ea 1e       	adc	r14, r26
     cda:	fb 1e       	adc	r15, r27
     cdc:	73 c0       	rjmp	.+230    	; 0xdc4 <__stack+0x4c5>
     cde:	c2 01       	movw	r24, r4
     ce0:	a4 14       	cp	r10, r4
     ce2:	b5 04       	cpc	r11, r5
     ce4:	08 f4       	brcc	.+2      	; 0xce8 <__stack+0x3e9>
     ce6:	c5 01       	movw	r24, r10
     ce8:	67 01       	movw	r12, r14
     cea:	e8 14       	cp	r14, r8
     cec:	f9 04       	cpc	r15, r9
     cee:	08 f4       	brcc	.+2      	; 0xcf2 <__stack+0x3f3>
     cf0:	64 01       	movw	r12, r8
     cf2:	3c 01       	movw	r6, r24
     cf4:	84 15       	cp	r24, r4
     cf6:	95 05       	cpc	r25, r5
     cf8:	08 f4       	brcc	.+2      	; 0xcfc <__stack+0x3fd>
     cfa:	32 01       	movw	r6, r4
        // lirx1 (measurement at HighPin)
#if 1
        if (adc.tp1 > adc.hp1) {
           adc.hp1 = adc.tp1;		//diff negativ is illegal
        }
        lirx1 =(unsigned long)RR680PL * (unsigned long)(adc.hp1 - adc.tp1) / ((U_VCC*U_SCALE) - adc.hp1);
     cfc:	b3 01       	movw	r22, r6
     cfe:	68 1b       	sub	r22, r24
     d00:	79 0b       	sbc	r23, r25
     d02:	80 e0       	ldi	r24, 0x00	; 0
     d04:	90 e0       	ldi	r25, 0x00	; 0
     d06:	af 85       	ldd	r26, Y+15	; 0x0f
     d08:	b8 89       	ldd	r27, Y+16	; 0x10
     d0a:	9d 01       	movw	r18, r26
     d0c:	40 e0       	ldi	r20, 0x00	; 0
     d0e:	50 e0       	ldi	r21, 0x00	; 0
     d10:	0e 94 2c 16 	call	0x2c58	; 0x2c58 <__mulsi3>
     d14:	20 ed       	ldi	r18, 0xD0	; 208
     d16:	3d e4       	ldi	r19, 0x4D	; 77
     d18:	26 19       	sub	r18, r6
     d1a:	37 09       	sbc	r19, r7
     d1c:	40 e0       	ldi	r20, 0x00	; 0
     d1e:	50 e0       	ldi	r21, 0x00	; 0
     d20:	0e 94 7e 16 	call	0x2cfc	; 0x2cfc <__udivmodsi4>
     d24:	49 01       	movw	r8, r18
     d26:	5a 01       	movw	r10, r20
     d28:	26 01       	movw	r4, r12
     d2a:	ec 14       	cp	r14, r12
     d2c:	fd 04       	cpc	r15, r13
     d2e:	08 f4       	brcc	.+2      	; 0xd32 <__stack+0x433>
     d30:	27 01       	movw	r4, r14
        if (adc.tp2 < adc.lp1) {
           adc.lp1 = adc.tp2;		//diff negativ is illegal
        }
        // lirx2 (Measurement at LowPin)
        lirx2 =(unsigned long)RR680MI * (unsigned long)(adc.tp2 -adc.lp1) / adc.lp1;
     d32:	c4 18       	sub	r12, r4
     d34:	d5 08       	sbc	r13, r5
     d36:	b6 01       	movw	r22, r12
     d38:	80 e0       	ldi	r24, 0x00	; 0
     d3a:	90 e0       	ldi	r25, 0x00	; 0
     d3c:	e9 89       	ldd	r30, Y+17	; 0x11
     d3e:	fa 89       	ldd	r31, Y+18	; 0x12
     d40:	9f 01       	movw	r18, r30
     d42:	40 e0       	ldi	r20, 0x00	; 0
     d44:	50 e0       	ldi	r21, 0x00	; 0
     d46:	0e 94 2c 16 	call	0x2c58	; 0x2c58 <__mulsi3>
     d4a:	92 01       	movw	r18, r4
     d4c:	40 e0       	ldi	r20, 0x00	; 0
     d4e:	50 e0       	ldi	r21, 0x00	; 0
     d50:	0e 94 7e 16 	call	0x2cfc	; 0x2cfc <__udivmodsi4>
        if (lirx2 > (RR680PL - R_L_VAL))  lirx2 -= (RR680PL - R_L_VAL);
        else     lirx2 = 0;
#endif

#ifdef AUTOSCALE_ADC
        if (adc.hp1 < U_INT_LIMIT) {
     d54:	f8 e7       	ldi	r31, 0x78	; 120
     d56:	6f 16       	cp	r6, r31
     d58:	ff e0       	ldi	r31, 0x0F	; 15
     d5a:	7f 06       	cpc	r7, r31
     d5c:	70 f4       	brcc	.+28     	; 0xd7a <__stack+0x47b>
           lrx1 = (lirx1*FAKT_LOW + lirx2) / (FAKT_LOW+1);	//weighted average of both R_L measurements
     d5e:	c5 01       	movw	r24, r10
     d60:	b4 01       	movw	r22, r8
     d62:	f2 e0       	ldi	r31, 0x02	; 2
     d64:	66 0f       	add	r22, r22
     d66:	77 1f       	adc	r23, r23
     d68:	88 1f       	adc	r24, r24
     d6a:	99 1f       	adc	r25, r25
     d6c:	fa 95       	dec	r31
     d6e:	d1 f7       	brne	.-12     	; 0xd64 <__stack+0x465>
     d70:	62 0f       	add	r22, r18
     d72:	73 1f       	adc	r23, r19
     d74:	84 1f       	adc	r24, r20
     d76:	95 1f       	adc	r25, r21
     d78:	12 c0       	rjmp	.+36     	; 0xd9e <__stack+0x49f>
        } else if (adc.lp1 < U_INT_LIMIT) {
     d7a:	88 e7       	ldi	r24, 0x78	; 120
     d7c:	48 16       	cp	r4, r24
     d7e:	8f e0       	ldi	r24, 0x0F	; 15
     d80:	58 06       	cpc	r5, r24
     d82:	b0 f4       	brcc	.+44     	; 0xdb0 <__stack+0x4b1>
           lrx1 = (lirx2*FAKT_LOW + lirx1) / (FAKT_LOW+1);	//weighted average of both R_L measurements
     d84:	ca 01       	movw	r24, r20
     d86:	b9 01       	movw	r22, r18
     d88:	e2 e0       	ldi	r30, 0x02	; 2
     d8a:	66 0f       	add	r22, r22
     d8c:	77 1f       	adc	r23, r23
     d8e:	88 1f       	adc	r24, r24
     d90:	99 1f       	adc	r25, r25
     d92:	ea 95       	dec	r30
     d94:	d1 f7       	brne	.-12     	; 0xd8a <__stack+0x48b>
     d96:	68 0d       	add	r22, r8
     d98:	79 1d       	adc	r23, r9
     d9a:	8a 1d       	adc	r24, r10
     d9c:	9b 1d       	adc	r25, r11
     d9e:	25 e0       	ldi	r18, 0x05	; 5
     da0:	30 e0       	ldi	r19, 0x00	; 0
     da2:	40 e0       	ldi	r20, 0x00	; 0
     da4:	50 e0       	ldi	r21, 0x00	; 0
     da6:	0e 94 7e 16 	call	0x2cfc	; 0x2cfc <__udivmodsi4>
     daa:	69 01       	movw	r12, r18
     dac:	7a 01       	movw	r14, r20
     dae:	0a c0       	rjmp	.+20     	; 0xdc4 <__stack+0x4c5>
        } else
#endif
        {
           lrx1 = (lirx1 + lirx2) / 2;		//average of both R_L measurements
     db0:	69 01       	movw	r12, r18
     db2:	7a 01       	movw	r14, r20
     db4:	c8 0c       	add	r12, r8
     db6:	d9 1c       	adc	r13, r9
     db8:	ea 1c       	adc	r14, r10
     dba:	fb 1c       	adc	r15, r11
     dbc:	f6 94       	lsr	r15
     dbe:	e7 94       	ror	r14
     dc0:	d7 94       	ror	r13
     dc2:	c7 94       	ror	r12
//  (void) value_out(lrx1, 2);
  DisplayValue(lirx2,-1,LCD_CHAR_OMEGA,4)
  lcd_data(' ');
  lcd_line2();
#endif
     if((PartFound == PART_DIODE) || (PartFound == PART_NONE) || (PartFound == PART_RESISTOR)) {
     dc4:	80 91 07 01 	lds	r24, 0x0107
     dc8:	82 30       	cpi	r24, 0x02	; 2
     dca:	18 f0       	brcs	.+6      	; 0xdd2 <__stack+0x4d3>
     dcc:	86 30       	cpi	r24, 0x06	; 6
     dce:	09 f0       	breq	.+2      	; 0xdd2 <__stack+0x4d3>
     dd0:	5e c0       	rjmp	.+188    	; 0xe8e <__stack+0x58f>
        for (ii=0; ii<ResistorsFound; ii++) {
     dd2:	30 91 3e 01 	lds	r19, 0x013E
     dd6:	20 e0       	ldi	r18, 0x00	; 0
     dd8:	40 c0       	rjmp	.+128    	; 0xe5a <__stack+0x55b>
           // search measurements with inverse polarity 
           thisR = &resis[ii];
     dda:	82 2f       	mov	r24, r18
     ddc:	90 e0       	ldi	r25, 0x00	; 0
           if (thisR->rt != TristatePin) {
     dde:	fc 01       	movw	r30, r24
     de0:	53 e0       	ldi	r21, 0x03	; 3
     de2:	ee 0f       	add	r30, r30
     de4:	ff 1f       	adc	r31, r31
     de6:	5a 95       	dec	r21
     de8:	e1 f7       	brne	.-8      	; 0xde2 <__stack+0x4e3>
     dea:	e8 1b       	sub	r30, r24
     dec:	f9 0b       	sbc	r31, r25
     dee:	e9 5e       	subi	r30, 0xE9	; 233
     df0:	fe 4f       	sbci	r31, 0xFE	; 254
     df2:	86 81       	ldd	r24, Z+6	; 0x06
     df4:	99 81       	ldd	r25, Y+1	; 0x01
     df6:	89 17       	cp	r24, r25
     df8:	11 f0       	breq	.+4      	; 0xdfe <__stack+0x4ff>
  DisplayValue(lirx2,-1,LCD_CHAR_OMEGA,4)
  lcd_data(' ');
  lcd_line2();
#endif
     if((PartFound == PART_DIODE) || (PartFound == PART_NONE) || (PartFound == PART_RESISTOR)) {
        for (ii=0; ii<ResistorsFound; ii++) {
     dfa:	2f 5f       	subi	r18, 0xFF	; 255
     dfc:	2e c0       	rjmp	.+92     	; 0xe5a <__stack+0x55b>
           if (thisR->rt != TristatePin) {
              continue;
           }
           // must be measurement with inverse polarity 
           // resolution is 0.1 Ohm, 1 Ohm = 10 !
           lirx1 = (labs((long)lrx1 - (long)thisR->rx) * 10) / (lrx1 + thisR->rx + 100);
     dfe:	80 80       	ld	r8, Z
     e00:	91 80       	ldd	r9, Z+1	; 0x01
     e02:	a2 80       	ldd	r10, Z+2	; 0x02
     e04:	b3 80       	ldd	r11, Z+3	; 0x03
     e06:	c7 01       	movw	r24, r14
     e08:	b6 01       	movw	r22, r12
     e0a:	68 19       	sub	r22, r8
     e0c:	79 09       	sbc	r23, r9
     e0e:	8a 09       	sbc	r24, r10
     e10:	9b 09       	sbc	r25, r11
     e12:	97 ff       	sbrs	r25, 7
     e14:	07 c0       	rjmp	.+14     	; 0xe24 <__stack+0x525>
     e16:	90 95       	com	r25
     e18:	80 95       	com	r24
     e1a:	70 95       	com	r23
     e1c:	61 95       	neg	r22
     e1e:	7f 4f       	sbci	r23, 0xFF	; 255
     e20:	8f 4f       	sbci	r24, 0xFF	; 255
     e22:	9f 4f       	sbci	r25, 0xFF	; 255
     e24:	2a e0       	ldi	r18, 0x0A	; 10
     e26:	30 e0       	ldi	r19, 0x00	; 0
     e28:	40 e0       	ldi	r20, 0x00	; 0
     e2a:	50 e0       	ldi	r21, 0x00	; 0
     e2c:	0e 94 2c 16 	call	0x2c58	; 0x2c58 <__mulsi3>
     e30:	a5 01       	movw	r20, r10
     e32:	94 01       	movw	r18, r8
     e34:	2c 59       	subi	r18, 0x9C	; 156
     e36:	3f 4f       	sbci	r19, 0xFF	; 255
     e38:	4f 4f       	sbci	r20, 0xFF	; 255
     e3a:	5f 4f       	sbci	r21, 0xFF	; 255
     e3c:	2c 0d       	add	r18, r12
     e3e:	3d 1d       	adc	r19, r13
     e40:	4e 1d       	adc	r20, r14
     e42:	5f 1d       	adc	r21, r15
     e44:	0e 94 7e 16 	call	0x2cfc	; 0x2cfc <__udivmodsi4>
           if (lirx1  > 0) {
     e48:	21 15       	cp	r18, r1
     e4a:	31 05       	cpc	r19, r1
     e4c:	41 05       	cpc	r20, r1
     e4e:	51 05       	cpc	r21, r1
     e50:	f1 f4       	brne	.+60     	; 0xe8e <__stack+0x58f>
              DisplayValue(lirx1,-1,LCD_CHAR_OMEGA,3)
              lcd_data(' ');
 #endif
              goto testend; // <10% mismatch
           }
           PartFound = PART_RESISTOR;
     e52:	86 e0       	ldi	r24, 0x06	; 6
     e54:	80 93 07 01 	sts	0x0107, r24
           goto testend;
     e58:	1a c0       	rjmp	.+52     	; 0xe8e <__stack+0x58f>
  DisplayValue(lirx2,-1,LCD_CHAR_OMEGA,4)
  lcd_data(' ');
  lcd_line2();
#endif
     if((PartFound == PART_DIODE) || (PartFound == PART_NONE) || (PartFound == PART_RESISTOR)) {
        for (ii=0; ii<ResistorsFound; ii++) {
     e5a:	23 17       	cp	r18, r19
     e5c:	08 f4       	brcc	.+2      	; 0xe60 <__stack+0x561>
     e5e:	bd cf       	rjmp	.-134    	; 0xdda <__stack+0x4db>
           }
           PartFound = PART_RESISTOR;
           goto testend;
        } // end for
        // no same resistor with the same Tristate-Pin found, new one
        thisR = &resis[ResistorsFound];		// pointer to a free resistor structure
     e60:	83 2f       	mov	r24, r19
     e62:	90 e0       	ldi	r25, 0x00	; 0
        thisR->rx = lrx1;		// save resistor value
     e64:	fc 01       	movw	r30, r24
     e66:	43 e0       	ldi	r20, 0x03	; 3
     e68:	ee 0f       	add	r30, r30
     e6a:	ff 1f       	adc	r31, r31
     e6c:	4a 95       	dec	r20
     e6e:	e1 f7       	brne	.-8      	; 0xe68 <__stack+0x569>
     e70:	e8 1b       	sub	r30, r24
     e72:	f9 0b       	sbc	r31, r25
     e74:	e9 5e       	subi	r30, 0xE9	; 233
     e76:	fe 4f       	sbci	r31, 0xFE	; 254
     e78:	c0 82       	st	Z, r12
     e7a:	d1 82       	std	Z+1, r13	; 0x01
     e7c:	e2 82       	std	Z+2, r14	; 0x02
     e7e:	f3 82       	std	Z+3, r15	; 0x03
        thisR->ra = LowPin;		// save Pin numbers
     e80:	04 83       	std	Z+4, r16	; 0x04
        thisR->rb = HighPin;
     e82:	15 83       	std	Z+5, r17	; 0x05
        thisR->rt = TristatePin;	// Tristate is saved for easier search of inverse measurement
     e84:	a9 81       	ldd	r26, Y+1	; 0x01
     e86:	a6 83       	std	Z+6, r26	; 0x06
        ResistorsFound++;			// 1 more resistor found
     e88:	3f 5f       	subi	r19, 0xFF	; 255
     e8a:	30 93 3e 01 	sts	0x013E, r19
     }
  }
#endif
  testend:
#if U_SCALE != 1
  Config.U_AVCC = U_VCC;		// scale back to mV resolution
     e8e:	84 e7       	ldi	r24, 0x74	; 116
     e90:	93 e1       	ldi	r25, 0x13	; 19
     e92:	90 93 69 01 	sts	0x0169, r25
     e96:	80 93 68 01 	sts	0x0168, r24
  Config.U_Bandgap /= U_SCALE;
     e9a:	80 91 66 01 	lds	r24, 0x0166
     e9e:	90 91 67 01 	lds	r25, 0x0167
     ea2:	96 95       	lsr	r25
     ea4:	87 95       	ror	r24
     ea6:	96 95       	lsr	r25
     ea8:	87 95       	ror	r24
     eaa:	90 93 67 01 	sts	0x0167, r25
     eae:	80 93 66 01 	sts	0x0166, r24
#endif
#if R_ANZ_MESS != ANZ_MESS
  Config.Samples = ANZ_MESS;		// switch back to standard number of repetition
     eb2:	89 e1       	ldi	r24, 0x19	; 25
     eb4:	80 93 64 01 	sts	0x0164, r24
#ifdef DebugOut
#if DebugOut < 10
  wait2s();
#endif
#endif
  ADC_DDR = TXD_MSK;		// all ADC-Pins Input
     eb8:	17 b8       	out	0x07, r1	; 7
  ADC_PORT = TXD_VAL;		// all ADC outputs to Ground, keine Pull up
     eba:	18 b8       	out	0x08, r1	; 8
  R_DDR = 0;			// all resistor-outputs to Input
     ebc:	14 b8       	out	0x04, r1	; 4
  R_PORT = 0;			// all resistor-outputs to Ground, no Pull up
     ebe:	15 b8       	out	0x05, r1	; 5
} // end CheckPins()
     ec0:	68 96       	adiw	r28, 0x18	; 24
     ec2:	0f b6       	in	r0, 0x3f	; 63
     ec4:	f8 94       	cli
     ec6:	de bf       	out	0x3e, r29	; 62
     ec8:	0f be       	out	0x3f, r0	; 63
     eca:	cd bf       	out	0x3d, r28	; 61
     ecc:	cf 91       	pop	r28
     ece:	df 91       	pop	r29
     ed0:	1f 91       	pop	r17
     ed2:	0f 91       	pop	r16
     ed4:	ff 90       	pop	r15
     ed6:	ef 90       	pop	r14
     ed8:	df 90       	pop	r13
     eda:	cf 90       	pop	r12
     edc:	bf 90       	pop	r11
     ede:	af 90       	pop	r10
     ee0:	9f 90       	pop	r9
     ee2:	8f 90       	pop	r8
     ee4:	7f 90       	pop	r7
     ee6:	6f 90       	pop	r6
     ee8:	5f 90       	pop	r5
     eea:	4f 90       	pop	r4
     eec:	3f 90       	pop	r3
     eee:	2f 90       	pop	r2
     ef0:	08 95       	ret

00000ef2 <EntladePins>:

// first discharge any charge of capacitors
void EntladePins() {
     ef2:	af 92       	push	r10
     ef4:	bf 92       	push	r11
     ef6:	cf 92       	push	r12
     ef8:	df 92       	push	r13
     efa:	ef 92       	push	r14
     efc:	ff 92       	push	r15
     efe:	0f 93       	push	r16
     f00:	1f 93       	push	r17
     f02:	cf 93       	push	r28
     f04:	df 93       	push	r29
     f06:	ba e0       	ldi	r27, 0x0A	; 10
     f08:	db 2e       	mov	r13, r27
  for(lop_cnt=0;lop_cnt<10;lop_cnt++) {
     adc_gnd = TXD_MSK;		// put all ADC to Input
     ADC_DDR = adc_gnd;
     ADC_PORT = TXD_VAL;		// ADC-outputs auf 0
     R_PORT = 0;			// R-outputs auf 0
     R_DDR = (2<<(PC2*2)) | (2<<(PC1*2)) | (2<<(PC0*2)); // R_H for all Pins to GND
     f0a:	aa e2       	ldi	r26, 0x2A	; 42
     f0c:	aa 2e       	mov	r10, r26
     ADC_DDR = adc_gnd;		// switch all selected ADC-Ports at the same time

     // additionally switch the leaving Ports with R_L to GND.
     // since there is no disadvantage for the already directly switched pins, we can
     // simply switch all  R_L resistors to GND
     R_DDR = (1<<(PC2*2)) | (1<<(PC1*2)) | (1<<(PC0*2));	// Pins across R_L resistors to GND
     f0e:	f5 e1       	ldi	r31, 0x15	; 21
     f10:	bf 2e       	mov	r11, r31
        if ((adcmv[0] < (CAP_EMPTY_LEVEL+2)) && (adcmv[1] < (CAP_EMPTY_LEVEL+2)) && (adcmv[2] < (CAP_EMPTY_LEVEL+2))) {
           break;
        }
     }
     if (clr_cnt == MAX_ENTLADE_ZEIT) {
        PartFound = PART_CELL;	// mark as Battery
     f12:	e8 e0       	ldi	r30, 0x08	; 8
     f14:	ce 2e       	mov	r12, r30
// time of discharge in ms  (10000/20)
#define MAX_ENTLADE_ZEIT  (10000/20)

  for(lop_cnt=0;lop_cnt<10;lop_cnt++) {
     adc_gnd = TXD_MSK;		// put all ADC to Input
     ADC_DDR = adc_gnd;
     f16:	17 b8       	out	0x07, r1	; 7
     ADC_PORT = TXD_VAL;		// ADC-outputs auf 0
     f18:	18 b8       	out	0x08, r1	; 8
     R_PORT = 0;			// R-outputs auf 0
     f1a:	15 b8       	out	0x05, r1	; 5
     R_DDR = (2<<(PC2*2)) | (2<<(PC1*2)) | (2<<(PC0*2)); // R_H for all Pins to GND
     f1c:	a4 b8       	out	0x04, r10	; 4
     adcmv[0] = W5msReadADC(PC0);	// which voltage has Pin 1?
     f1e:	80 e0       	ldi	r24, 0x00	; 0
     f20:	0e 94 bd 15 	call	0x2b7a	; 0x2b7a <W5msReadADC>
     f24:	8c 01       	movw	r16, r24
     adcmv[1] = ReadADC(PC1);	// which voltage has Pin 2?
     f26:	81 e0       	ldi	r24, 0x01	; 1
     f28:	0e 94 bf 15 	call	0x2b7e	; 0x2b7e <ReadADC>
     f2c:	ec 01       	movw	r28, r24
     adcmv[2] = ReadADC(PC2);	// which voltage has Pin 3?
     f2e:	82 e0       	ldi	r24, 0x02	; 2
     f30:	0e 94 bf 15 	call	0x2b7e	; 0x2b7e <ReadADC>
     if ((PartFound == PART_CELL) || (adcmv[0] < CAP_EMPTY_LEVEL) & (adcmv[1] < CAP_EMPTY_LEVEL) & (adcmv[2] < CAP_EMPTY_LEVEL)) {
     f34:	20 91 07 01 	lds	r18, 0x0107
     f38:	28 30       	cpi	r18, 0x08	; 8
     f3a:	c1 f0       	breq	.+48     	; 0xf6c <EntladePins+0x7a>
     f3c:	41 e0       	ldi	r20, 0x01	; 1
     f3e:	c3 30       	cpi	r28, 0x03	; 3
     f40:	d1 05       	cpc	r29, r1
     f42:	08 f0       	brcs	.+2      	; 0xf46 <EntladePins+0x54>
     f44:	40 e0       	ldi	r20, 0x00	; 0
     f46:	21 e0       	ldi	r18, 0x01	; 1
     f48:	03 30       	cpi	r16, 0x03	; 3
     f4a:	11 05       	cpc	r17, r1
     f4c:	08 f0       	brcs	.+2      	; 0xf50 <EntladePins+0x5e>
     f4e:	20 e0       	ldi	r18, 0x00	; 0
     f50:	42 23       	and	r20, r18
     f52:	50 e0       	ldi	r21, 0x00	; 0
     f54:	21 e0       	ldi	r18, 0x01	; 1
     f56:	30 e0       	ldi	r19, 0x00	; 0
     f58:	83 30       	cpi	r24, 0x03	; 3
     f5a:	91 05       	cpc	r25, r1
     f5c:	10 f0       	brcs	.+4      	; 0xf62 <EntladePins+0x70>
     f5e:	20 e0       	ldi	r18, 0x00	; 0
     f60:	30 e0       	ldi	r19, 0x00	; 0
     f62:	24 23       	and	r18, r20
     f64:	35 23       	and	r19, r21
     f66:	21 15       	cp	r18, r1
     f68:	31 05       	cpc	r19, r1
     f6a:	19 f0       	breq	.+6      	; 0xf72 <EntladePins+0x80>
        ADC_DDR = TXD_MSK;		// switch all ADC-Pins to input
     f6c:	17 b8       	out	0x07, r1	; 7
        R_DDR = 0;			// switch all R_L Ports (and R_H) to input
     f6e:	14 b8       	out	0x04, r1	; 4
        return;
     f70:	4e c0       	rjmp	.+156    	; 0x100e <EntladePins+0x11c>
  uint8_t lop_cnt;		// loop counter
// time of discharge in ms  (10000/20)
#define MAX_ENTLADE_ZEIT  (10000/20)

  for(lop_cnt=0;lop_cnt<10;lop_cnt++) {
     adc_gnd = TXD_MSK;		// put all ADC to Input
     f72:	21 e0       	ldi	r18, 0x01	; 1
     f74:	33 e0       	ldi	r19, 0x03	; 3
     f76:	08 3e       	cpi	r16, 0xE8	; 232
     f78:	13 07       	cpc	r17, r19
     f7a:	08 f0       	brcs	.+2      	; 0xf7e <EntladePins+0x8c>
     f7c:	20 e0       	ldi	r18, 0x00	; 0
     }
     // all Pins with voltage lower than 1V can be connected directly to GND (ADC-Port)
     if (adcmv[0] < 1000) {
        adc_gnd |= (1<<PC0);	//Pin 1 directly to GND
     }
     if (adcmv[1] < 1000) {
     f7e:	33 e0       	ldi	r19, 0x03	; 3
     f80:	c8 3e       	cpi	r28, 0xE8	; 232
     f82:	d3 07       	cpc	r29, r19
     f84:	08 f4       	brcc	.+2      	; 0xf88 <EntladePins+0x96>
        adc_gnd |= (1<<PC1);	//Pin 2 directly to GND
     f86:	22 60       	ori	r18, 0x02	; 2
     }
     if (adcmv[2] < 1000) {
     f88:	33 e0       	ldi	r19, 0x03	; 3
     f8a:	88 3e       	cpi	r24, 0xE8	; 232
     f8c:	93 07       	cpc	r25, r19
     f8e:	08 f4       	brcc	.+2      	; 0xf92 <EntladePins+0xa0>
        adc_gnd |= (1<<PC2);	//Pin 3 directly to  GND
     f90:	24 60       	ori	r18, 0x04	; 4
     }
     ADC_DDR = adc_gnd;		// switch all selected ADC-Ports at the same time
     f92:	27 b9       	out	0x07, r18	; 7

     // additionally switch the leaving Ports with R_L to GND.
     // since there is no disadvantage for the already directly switched pins, we can
     // simply switch all  R_L resistors to GND
     R_DDR = (1<<(PC2*2)) | (1<<(PC1*2)) | (1<<(PC0*2));	// Pins across R_L resistors to GND
     f94:	b4 b8       	out	0x04, r11	; 4
     for(clr_cnt=0;clr_cnt<MAX_ENTLADE_ZEIT;clr_cnt++) {
     f96:	c0 e0       	ldi	r28, 0x00	; 0
     f98:	d0 e0       	ldi	r29, 0x00	; 0
        wdt_reset();
     f9a:	a8 95       	wdr
        adcmv[0] = W20msReadADC(PC0);	// which voltage has Pin 1?
     f9c:	80 e0       	ldi	r24, 0x00	; 0
     f9e:	0e 94 b9 15 	call	0x2b72	; 0x2b72 <W20msReadADC>
     fa2:	7c 01       	movw	r14, r24
        adcmv[1] = ReadADC(PC1);	// which voltage has Pin 2?
     fa4:	81 e0       	ldi	r24, 0x01	; 1
     fa6:	0e 94 bf 15 	call	0x2b7e	; 0x2b7e <ReadADC>
     faa:	8c 01       	movw	r16, r24
        adcmv[2] = ReadADC(PC2);	// which voltage has Pin 3?
     fac:	82 e0       	ldi	r24, 0x02	; 2
     fae:	0e 94 bf 15 	call	0x2b7e	; 0x2b7e <ReadADC>
        if (adcmv[0] < 1300) {
     fb2:	24 e1       	ldi	r18, 0x14	; 20
     fb4:	e2 16       	cp	r14, r18
     fb6:	25 e0       	ldi	r18, 0x05	; 5
     fb8:	f2 06       	cpc	r15, r18
     fba:	08 f4       	brcc	.+2      	; 0xfbe <EntladePins+0xcc>
           ADC_DDR |= (1<<PC0);	// below 1.3V , switch directly with ADC-Port to GND
     fbc:	38 9a       	sbi	0x07, 0	; 7
        }
        if (adcmv[1] < 1300) {
     fbe:	35 e0       	ldi	r19, 0x05	; 5
     fc0:	04 31       	cpi	r16, 0x14	; 20
     fc2:	13 07       	cpc	r17, r19
     fc4:	08 f4       	brcc	.+2      	; 0xfc8 <EntladePins+0xd6>
           ADC_DDR |= (1<<PC1);	// below 1.3V, switch directly with ADC-Port to GND
     fc6:	39 9a       	sbi	0x07, 1	; 7
        }
        if (adcmv[2] < 1300) {
     fc8:	25 e0       	ldi	r18, 0x05	; 5
     fca:	84 31       	cpi	r24, 0x14	; 20
     fcc:	92 07       	cpc	r25, r18
     fce:	08 f4       	brcc	.+2      	; 0xfd2 <EntladePins+0xe0>
           ADC_DDR |= (1<<PC2);	// below 1.3V, switch directly with ADC-Port to GND
     fd0:	3a 9a       	sbi	0x07, 2	; 7
        }
        if ((adcmv[0] < (CAP_EMPTY_LEVEL+2)) && (adcmv[1] < (CAP_EMPTY_LEVEL+2)) && (adcmv[2] < (CAP_EMPTY_LEVEL+2))) {
     fd2:	35 e0       	ldi	r19, 0x05	; 5
     fd4:	e3 16       	cp	r14, r19
     fd6:	f1 04       	cpc	r15, r1
     fd8:	30 f4       	brcc	.+12     	; 0xfe6 <EntladePins+0xf4>
     fda:	05 30       	cpi	r16, 0x05	; 5
     fdc:	11 05       	cpc	r17, r1
     fde:	18 f4       	brcc	.+6      	; 0xfe6 <EntladePins+0xf4>
     fe0:	85 30       	cpi	r24, 0x05	; 5
     fe2:	91 05       	cpc	r25, r1
     fe4:	38 f0       	brcs	.+14     	; 0xff4 <EntladePins+0x102>

     // additionally switch the leaving Ports with R_L to GND.
     // since there is no disadvantage for the already directly switched pins, we can
     // simply switch all  R_L resistors to GND
     R_DDR = (1<<(PC2*2)) | (1<<(PC1*2)) | (1<<(PC0*2));	// Pins across R_L resistors to GND
     for(clr_cnt=0;clr_cnt<MAX_ENTLADE_ZEIT;clr_cnt++) {
     fe6:	21 96       	adiw	r28, 0x01	; 1
     fe8:	81 e0       	ldi	r24, 0x01	; 1
     fea:	c4 3f       	cpi	r28, 0xF4	; 244
     fec:	d8 07       	cpc	r29, r24
     fee:	a9 f6       	brne	.-86     	; 0xf9a <EntladePins+0xa8>
        if ((adcmv[0] < (CAP_EMPTY_LEVEL+2)) && (adcmv[1] < (CAP_EMPTY_LEVEL+2)) && (adcmv[2] < (CAP_EMPTY_LEVEL+2))) {
           break;
        }
     }
     if (clr_cnt == MAX_ENTLADE_ZEIT) {
        PartFound = PART_CELL;	// mark as Battery
     ff0:	c0 92 07 01 	sts	0x0107, r12

     // additionally switch the leaving Ports with R_L to GND.
     // since there is no disadvantage for the already directly switched pins, we can
     // simply switch all  R_L resistors to GND
     R_DDR = (1<<(PC2*2)) | (1<<(PC1*2)) | (1<<(PC0*2));	// Pins across R_L resistors to GND
     for(clr_cnt=0;clr_cnt<MAX_ENTLADE_ZEIT;clr_cnt++) {
     ff4:	00 e0       	ldi	r16, 0x00	; 0
     ff6:	10 e0       	ldi	r17, 0x00	; 0
     ff8:	04 c0       	rjmp	.+8      	; 0x1002 <EntladePins+0x110>
//        lcd_data(' ');
//        lcd_string(utoa(adcmv[2], outval, 10));
     }
     for(adcmv[0]=0;adcmv[0]<clr_cnt;adcmv[0]++) {
        // for safety, discharge 5% of discharge  time
        wait1ms();
     ffa:	0e 94 a6 15 	call	0x2b4c	; 0x2b4c <wait1ms>
     ffe:	0f 5f       	subi	r16, 0xFF	; 255
    1000:	1f 4f       	sbci	r17, 0xFF	; 255
//        lcd_data(' ');
//        lcd_string(utoa(adcmv[1], outval, 10));
//        lcd_data(' ');
//        lcd_string(utoa(adcmv[2], outval, 10));
     }
     for(adcmv[0]=0;adcmv[0]<clr_cnt;adcmv[0]++) {
    1002:	0c 17       	cp	r16, r28
    1004:	1d 07       	cpc	r17, r29
    1006:	c8 f3       	brcs	.-14     	; 0xffa <EntladePins+0x108>
    1008:	da 94       	dec	r13
  unsigned int clr_cnt;		// Clear Counter
  uint8_t lop_cnt;		// loop counter
// time of discharge in ms  (10000/20)
#define MAX_ENTLADE_ZEIT  (10000/20)

  for(lop_cnt=0;lop_cnt<10;lop_cnt++) {
    100a:	09 f0       	breq	.+2      	; 0x100e <EntladePins+0x11c>
    100c:	84 cf       	rjmp	.-248    	; 0xf16 <EntladePins+0x24>
     for(adcmv[0]=0;adcmv[0]<clr_cnt;adcmv[0]++) {
        // for safety, discharge 5% of discharge  time
        wait1ms();
     }
  } // end while
 }
    100e:	df 91       	pop	r29
    1010:	cf 91       	pop	r28
    1012:	1f 91       	pop	r17
    1014:	0f 91       	pop	r16
    1016:	ff 90       	pop	r15
    1018:	ef 90       	pop	r14
    101a:	df 90       	pop	r13
    101c:	cf 90       	pop	r12
    101e:	bf 90       	pop	r11
    1020:	af 90       	pop	r10
    1022:	08 95       	ret

00001024 <getRLmultip>:


#ifdef C_MESS	//measurement of capacity is wanted
#include "ReadCapacity.c"

unsigned int getRLmultip(unsigned int cvolt) {
    1024:	ff 92       	push	r15
    1026:	0f 93       	push	r16
    1028:	1f 93       	push	r17
    102a:	cf 93       	push	r28
    102c:	df 93       	push	r29

  unsigned int uvolt;
  unsigned int y1, y2;
  uint8_t tabind;
  uint8_t tabres;
  if (cvolt >= RL_Tab_Beginn) {
    102e:	21 e0       	ldi	r18, 0x01	; 1
    1030:	8c 32       	cpi	r24, 0x2C	; 44
    1032:	92 07       	cpc	r25, r18
    1034:	18 f0       	brcs	.+6      	; 0x103c <getRLmultip+0x18>
     uvolt = cvolt - RL_Tab_Beginn;
    1036:	8c 52       	subi	r24, 0x2C	; 44
    1038:	91 40       	sbci	r25, 0x01	; 1
    103a:	02 c0       	rjmp	.+4      	; 0x1040 <getRLmultip+0x1c>
  } else {
     uvolt = 0;		// limit to begin of table
    103c:	80 e0       	ldi	r24, 0x00	; 0
    103e:	90 e0       	ldi	r25, 0x00	; 0
  }
  tabind = uvolt / RL_Tab_Abstand;
    1040:	69 e1       	ldi	r22, 0x19	; 25
    1042:	70 e0       	ldi	r23, 0x00	; 0
    1044:	0e 94 57 16 	call	0x2cae	; 0x2cae <__udivmodhi4>
  tabres = uvolt % RL_Tab_Abstand;
    1048:	f8 2e       	mov	r15, r24
  tabres = RL_Tab_Abstand - tabres;
  if (tabind > (RL_Tab_Length/RL_Tab_Abstand)) {
     tabind = (RL_Tab_Length/RL_Tab_Abstand);	// limit to end of table
  }
  y1 = MEM_read_word(&RLtab[tabind]);
    104a:	6d 32       	cpi	r22, 0x2D	; 45
    104c:	08 f0       	brcs	.+2      	; 0x1050 <getRLmultip+0x2c>
    104e:	6c e2       	ldi	r22, 0x2C	; 44
    1050:	c6 2f       	mov	r28, r22
    1052:	d0 e0       	ldi	r29, 0x00	; 0
    1054:	ce 01       	movw	r24, r28
    1056:	88 0f       	add	r24, r24
    1058:	99 1f       	adc	r25, r25
    105a:	80 50       	subi	r24, 0x00	; 0
    105c:	90 40       	sbci	r25, 0x00	; 0
    105e:	0e 94 fa 16 	call	0x2df4	; 0x2df4 <__eerd_word_m328p>
    1062:	8c 01       	movw	r16, r24
  y2 = MEM_read_word(&RLtab[tabind+1]);
    1064:	ce 01       	movw	r24, r28
    1066:	88 0f       	add	r24, r24
    1068:	99 1f       	adc	r25, r25
    106a:	8e 5f       	subi	r24, 0xFE	; 254
    106c:	9f 4f       	sbci	r25, 0xFF	; 255
    106e:	0e 94 fa 16 	call	0x2df4	; 0x2df4 <__eerd_word_m328p>
    1072:	9c 01       	movw	r18, r24
  } else {
     uvolt = 0;		// limit to begin of table
  }
  tabind = uvolt / RL_Tab_Abstand;
  tabres = uvolt % RL_Tab_Abstand;
  tabres = RL_Tab_Abstand - tabres;
    1074:	49 e1       	ldi	r20, 0x19	; 25
    1076:	4f 19       	sub	r20, r15
  if (tabind > (RL_Tab_Length/RL_Tab_Abstand)) {
     tabind = (RL_Tab_Length/RL_Tab_Abstand);	// limit to end of table
  }
  y1 = MEM_read_word(&RLtab[tabind]);
  y2 = MEM_read_word(&RLtab[tabind+1]);
  return ( ((y1 - y2) * tabres + (RL_Tab_Abstand/2)) / RL_Tab_Abstand + y2); // interpolate table
    1078:	50 e0       	ldi	r21, 0x00	; 0
    107a:	08 1b       	sub	r16, r24
    107c:	19 0b       	sbc	r17, r25
    107e:	40 9f       	mul	r20, r16
    1080:	c0 01       	movw	r24, r0
    1082:	41 9f       	mul	r20, r17
    1084:	90 0d       	add	r25, r0
    1086:	50 9f       	mul	r21, r16
    1088:	90 0d       	add	r25, r0
    108a:	11 24       	eor	r1, r1
    108c:	0c 96       	adiw	r24, 0x0c	; 12
    108e:	69 e1       	ldi	r22, 0x19	; 25
    1090:	70 e0       	ldi	r23, 0x00	; 0
    1092:	0e 94 57 16 	call	0x2cae	; 0x2cae <__udivmodhi4>
    1096:	62 0f       	add	r22, r18
    1098:	73 1f       	adc	r23, r19
}
    109a:	cb 01       	movw	r24, r22
    109c:	df 91       	pop	r29
    109e:	cf 91       	pop	r28
    10a0:	1f 91       	pop	r17
    10a2:	0f 91       	pop	r16
    10a4:	ff 90       	pop	r15
    10a6:	08 95       	ret

000010a8 <ReadCapacity>:

unsigned long CombineII2Long( unsigned int ovcnt16, unsigned int tmpcnt); //tricky function to build unsigned long from two unsigned int values


//=================================================================
void ReadCapacity(uint8_t HighPin, uint8_t LowPin) {
    10a8:	9f 92       	push	r9
    10aa:	af 92       	push	r10
    10ac:	bf 92       	push	r11
    10ae:	cf 92       	push	r12
    10b0:	df 92       	push	r13
    10b2:	ef 92       	push	r14
    10b4:	ff 92       	push	r15
    10b6:	0f 93       	push	r16
    10b8:	1f 93       	push	r17
    10ba:	cf 93       	push	r28
    10bc:	df 93       	push	r29
    10be:	18 2f       	mov	r17, r24
    10c0:	96 2e       	mov	r9, r22
  uint8_t HiPinR_L, HiPinR_H;
  uint8_t LoADC;
  uint8_t ii;

#ifdef AUTO_CAL
  pin_combination = (HighPin * 3) + LowPin - 1;	// coded Pin combination for capacity zero offset
    10c2:	88 0f       	add	r24, r24
    10c4:	81 0f       	add	r24, r17
    10c6:	86 0f       	add	r24, r22
    10c8:	81 50       	subi	r24, 0x01	; 1
    10ca:	80 93 31 01 	sts	0x0131, r24
#endif

  LoADC = MEM_read_byte(&PinADCtab[LowPin]) | TXD_MSK;
    10ce:	86 2f       	mov	r24, r22
    10d0:	90 e0       	ldi	r25, 0x00	; 0
    10d2:	85 51       	subi	r24, 0x15	; 21
    10d4:	9e 4f       	sbci	r25, 0xFE	; 254
    10d6:	0e 94 f2 16 	call	0x2de4	; 0x2de4 <__eerd_byte_m328p>
    10da:	c8 2e       	mov	r12, r24
  HiPinR_L = MEM_read_byte(&PinRLtab[HighPin]);	//R_L mask for HighPin R_L load
    10dc:	21 2f       	mov	r18, r17
    10de:	30 e0       	ldi	r19, 0x00	; 0
    10e0:	c9 01       	movw	r24, r18
    10e2:	88 51       	subi	r24, 0x18	; 24
    10e4:	9e 4f       	sbci	r25, 0xFE	; 254
    10e6:	0e 94 f2 16 	call	0x2de4	; 0x2de4 <__eerd_byte_m328p>
    10ea:	08 2f       	mov	r16, r24
  HiPinR_H = HiPinR_L + HiPinR_L;	//double for HighPin R_H load

  if(PartFound == PART_CAPACITOR) {
    10ec:	80 91 07 01 	lds	r24, 0x0107
    10f0:	87 30       	cpi	r24, 0x07	; 7
    10f2:	09 f4       	brne	.+2      	; 0x10f6 <ReadCapacity+0x4e>
    10f4:	d5 c1       	rjmp	.+938    	; 0x14a0 <ReadCapacity+0x3f8>
     lcd_string(ultoa(cval,outval,10));
     wait2s();
#endif
     return;	//We have found a capacitor already
  }
  if(PartFound == PART_RESISTOR) {
    10f6:	86 30       	cpi	r24, 0x06	; 6
    10f8:	09 f4       	brne	.+2      	; 0x10fc <ReadCapacity+0x54>
    10fa:	d2 c1       	rjmp	.+932    	; 0x14a0 <ReadCapacity+0x3f8>
     return;	//We have found a resistor already 
  }
  for (ii=0;ii<NumOfDiodes;ii++) {
    10fc:	30 91 05 01 	lds	r19, 0x0105
    1100:	e8 e4       	ldi	r30, 0x48	; 72
    1102:	f1 e0       	ldi	r31, 0x01	; 1
    1104:	20 e0       	ldi	r18, 0x00	; 0
    1106:	0f c0       	rjmp	.+30     	; 0x1126 <ReadCapacity+0x7e>
     if ((diodes[ii].Cathode == LowPin) && (diodes[ii].Anode == HighPin) && (diodes[ii].Voltage < 1500)) {
    1108:	81 81       	ldd	r24, Z+1	; 0x01
    110a:	89 15       	cp	r24, r9
    110c:	51 f4       	brne	.+20     	; 0x1122 <ReadCapacity+0x7a>
    110e:	80 81       	ld	r24, Z
    1110:	81 17       	cp	r24, r17
    1112:	39 f4       	brne	.+14     	; 0x1122 <ReadCapacity+0x7a>
    1114:	82 81       	ldd	r24, Z+2	; 0x02
    1116:	93 81       	ldd	r25, Z+3	; 0x03
    1118:	45 e0       	ldi	r20, 0x05	; 5
    111a:	8c 3d       	cpi	r24, 0xDC	; 220
    111c:	94 07       	cpc	r25, r20
    111e:	08 f4       	brcc	.+2      	; 0x1122 <ReadCapacity+0x7a>
    1120:	bf c1       	rjmp	.+894    	; 0x14a0 <ReadCapacity+0x3f8>
     return;	//We have found a capacitor already
  }
  if(PartFound == PART_RESISTOR) {
     return;	//We have found a resistor already 
  }
  for (ii=0;ii<NumOfDiodes;ii++) {
    1122:	2f 5f       	subi	r18, 0xFF	; 255
    1124:	34 96       	adiw	r30, 0x04	; 4
    1126:	23 17       	cp	r18, r19
    1128:	78 f3       	brcs	.-34     	; 0x1108 <ReadCapacity+0x60>
     if ((diodes[ii].Cathode == LowPin) && (diodes[ii].Anode == HighPin) && (diodes[ii].Voltage < 1500)) {
        return;
     }
  }
  
  EntladePins();			// discharge capacitor
    112a:	0e 94 79 07 	call	0xef2	; 0xef2 <EntladePins>
  ADC_PORT = TXD_VAL;			// switch ADC-Port to GND
    112e:	18 b8       	out	0x08, r1	; 8
  R_PORT = 0;				// switch R-Port to GND
    1130:	15 b8       	out	0x05, r1	; 5
  ADC_DDR = LoADC;			// switch Low-Pin to output (GND)
    1132:	c7 b8       	out	0x07, r12	; 7
  R_DDR = HiPinR_L;			// switch R_L port for HighPin to output (GND)
    1134:	04 b9       	out	0x04, r16	; 4
  adcv[0] = ReadADC(HighPin);		// voltage before any load 
    1136:	81 2f       	mov	r24, r17
    1138:	0e 94 bf 15 	call	0x2b7e	; 0x2b7e <ReadADC>
    113c:	5c 01       	movw	r10, r24
// ******** should adcv[0] be measured without current???
  for (ovcnt16=0;ovcnt16<500;ovcnt16++) {
    113e:	c0 e0       	ldi	r28, 0x00	; 0
    1140:	d0 e0       	ldi	r29, 0x00	; 0
     ChargePin10ms(HiPinR_L,1);		//HighPin with R_L 10ms to VCC ,then currentless
    1142:	80 2f       	mov	r24, r16
    1144:	61 e0       	ldi	r22, 0x01	; 1
    1146:	0e 94 05 01 	call	0x20a	; 0x20a <ChargePin10ms>
     wait500us();			//wait a little time
    114a:	0e 94 a7 15 	call	0x2b4e	; 0x2b4e <wait500us>
     wdt_reset();
    114e:	a8 95       	wdr
     // read voltage without current, is already charged enough?
     adcv[2] = ReadADC(HighPin) - adcv[0];
    1150:	81 2f       	mov	r24, r17
    1152:	0e 94 bf 15 	call	0x2b7e	; 0x2b7e <ReadADC>
    1156:	7c 01       	movw	r14, r24
    1158:	ea 18       	sub	r14, r10
    115a:	fb 08       	sbc	r15, r11
     if ((ovcnt16 == 126) && (adcv[2] < 75)) {
    115c:	ce 37       	cpi	r28, 0x7E	; 126
    115e:	d1 05       	cpc	r29, r1
    1160:	21 f4       	brne	.+8      	; 0x116a <ReadCapacity+0xc2>
    1162:	8b e4       	ldi	r24, 0x4B	; 75
    1164:	e8 16       	cp	r14, r24
    1166:	f1 04       	cpc	r15, r1
    1168:	50 f0       	brcs	.+20     	; 0x117e <ReadCapacity+0xd6>
        // 300mV can not be reached well-timed 
        break;		// don't try to load any more
     }
     if (adcv[2] > 300) {
    116a:	9d e2       	ldi	r25, 0x2D	; 45
    116c:	e9 16       	cp	r14, r25
    116e:	91 e0       	ldi	r25, 0x01	; 1
    1170:	f9 06       	cpc	r15, r25
    1172:	28 f4       	brcc	.+10     	; 0x117e <ReadCapacity+0xd6>
  R_PORT = 0;				// switch R-Port to GND
  ADC_DDR = LoADC;			// switch Low-Pin to output (GND)
  R_DDR = HiPinR_L;			// switch R_L port for HighPin to output (GND)
  adcv[0] = ReadADC(HighPin);		// voltage before any load 
// ******** should adcv[0] be measured without current???
  for (ovcnt16=0;ovcnt16<500;ovcnt16++) {
    1174:	21 96       	adiw	r28, 0x01	; 1
    1176:	21 e0       	ldi	r18, 0x01	; 1
    1178:	c4 3f       	cpi	r28, 0xF4	; 244
    117a:	d2 07       	cpc	r29, r18
    117c:	11 f7       	brne	.-60     	; 0x1142 <ReadCapacity+0x9a>
     }
  }
  // wait 5ms and read voltage again, does the capacitor keep the voltage?
//  adcv[1] = W5msReadADC(HighPin) - adcv[0];
//  wdt_reset();
  cpre = -12;			//default unit is pF
    117e:	84 ef       	ldi	r24, 0xF4	; 244
    1180:	80 93 32 01 	sts	0x0132, r24
  if (adcv[2] < 301) {
    1184:	3d e2       	ldi	r19, 0x2D	; 45
    1186:	e3 16       	cp	r14, r19
    1188:	31 e0       	ldi	r19, 0x01	; 1
    118a:	f3 06       	cpc	r15, r19
    118c:	08 f4       	brcc	.+2      	; 0x1190 <ReadCapacity+0xe8>
    118e:	84 c1       	rjmp	.+776    	; 0x1498 <ReadCapacity+0x3f0>
     wait1s();
#endif
     goto keinC;		// was never charged enough, >100mF or shorted
  }
  //voltage is rised properly and keeps the voltage enough
  if ((ovcnt16 == 0 ) && (adcv[2] > 1300)) {
    1190:	20 97       	sbiw	r28, 0x00	; 0
    1192:	31 f4       	brne	.+12     	; 0x11a0 <ReadCapacity+0xf8>
    1194:	45 e1       	ldi	r20, 0x15	; 21
    1196:	e4 16       	cp	r14, r20
    1198:	45 e0       	ldi	r20, 0x05	; 5
    119a:	f4 06       	cpc	r15, r20
    119c:	08 f0       	brcs	.+2      	; 0x11a0 <ReadCapacity+0xf8>
    119e:	55 c0       	rjmp	.+170    	; 0x124a <ReadCapacity+0x1a2>
     goto messe_mit_rh;		// Voltage of more than 1300mV is reached in one pulse, to fast loaded
  }
  // Capacity is more than about 50F
  cpre = -9;		// switch units to nF 
    11a0:	87 ef       	ldi	r24, 0xF7	; 247
    11a2:	80 93 32 01 	sts	0x0132, r24
  }
  cval_uncorrected = ovcnt16 + 1;
  cval_uncorrected *= getRLmultip(adcv[2]);		// get factor to convert time to capacity from table
#else
  // wait the same time which is required for loading
  for (tmpint=0;tmpint<=ovcnt16;tmpint++) {
    11a6:	cc 24       	eor	r12, r12
    11a8:	dd 24       	eor	r13, r13
     wait10ms();
    11aa:	0e 94 a1 15 	call	0x2b42	; 0x2b42 <wait10ms>
     adcv[3] = ReadADC(HighPin) - adcv[0]; // read voltage again, is discharged only a little bit ?
    11ae:	81 2f       	mov	r24, r17
    11b0:	0e 94 bf 15 	call	0x2b7e	; 0x2b7e <ReadADC>
    11b4:	8a 19       	sub	r24, r10
    11b6:	9b 09       	sbc	r25, r11
     wdt_reset();
    11b8:	a8 95       	wdr
  }
  cval_uncorrected = ovcnt16 + 1;
  cval_uncorrected *= getRLmultip(adcv[2]);		// get factor to convert time to capacity from table
#else
  // wait the same time which is required for loading
  for (tmpint=0;tmpint<=ovcnt16;tmpint++) {
    11ba:	08 94       	sec
    11bc:	c1 1c       	adc	r12, r1
    11be:	d1 1c       	adc	r13, r1
    11c0:	cc 15       	cp	r28, r12
    11c2:	dd 05       	cpc	r29, r13
    11c4:	90 f7       	brcc	.-28     	; 0x11aa <ReadCapacity+0x102>
     wait10ms();
     adcv[3] = ReadADC(HighPin) - adcv[0]; // read voltage again, is discharged only a little bit ?
     wdt_reset();
  }
  if (adcv[2] > adcv[3]) {
    11c6:	8e 15       	cp	r24, r14
    11c8:	9f 05       	cpc	r25, r15
    11ca:	48 f4       	brcc	.+18     	; 0x11de <ReadCapacity+0x136>
     // build difference to load voltage
     adcv[3] = adcv[2] - adcv[3];
    11cc:	97 01       	movw	r18, r14
    11ce:	28 1b       	sub	r18, r24
    11d0:	39 0b       	sbc	r19, r25
    11d2:	c9 01       	movw	r24, r18
  } else {
     adcv[3] = 0;
  }
  if (adcv[3] > 100) {
    11d4:	25 36       	cpi	r18, 0x65	; 101
    11d6:	31 05       	cpc	r19, r1
    11d8:	08 f0       	brcs	.+2      	; 0x11dc <ReadCapacity+0x134>
    11da:	5e c1       	rjmp	.+700    	; 0x1498 <ReadCapacity+0x3f0>
    11dc:	02 c0       	rjmp	.+4      	; 0x11e2 <ReadCapacity+0x13a>
  }
  if (adcv[2] > adcv[3]) {
     // build difference to load voltage
     adcv[3] = adcv[2] - adcv[3];
  } else {
     adcv[3] = 0;
    11de:	80 e0       	ldi	r24, 0x00	; 0
    11e0:	90 e0       	ldi	r25, 0x00	; 0
     lcd_data(' ');
     wait1s();
 #endif
     goto keinC;		// capacitor does not keep the voltage about 5ms
  }
  cval_uncorrected = ovcnt16 + 1;
    11e2:	21 96       	adiw	r28, 0x01	; 1
    11e4:	5e 01       	movw	r10, r28
    11e6:	cc 24       	eor	r12, r12
    11e8:	dd 24       	eor	r13, r13
    11ea:	a0 92 3f 01 	sts	0x013F, r10
    11ee:	b0 92 40 01 	sts	0x0140, r11
    11f2:	c0 92 41 01 	sts	0x0141, r12
    11f6:	d0 92 42 01 	sts	0x0142, r13
  // compute factor with load voltage + lost voltage during the voltage load time
  cval_uncorrected *= getRLmultip(adcv[2]+adcv[3]);	// get factor to convert time to capacity from table
    11fa:	8e 0d       	add	r24, r14
    11fc:	9f 1d       	adc	r25, r15
    11fe:	0e 94 12 08 	call	0x1024	; 0x1024 <getRLmultip>
    1202:	bc 01       	movw	r22, r24
    1204:	80 e0       	ldi	r24, 0x00	; 0
    1206:	90 e0       	ldi	r25, 0x00	; 0
    1208:	a6 01       	movw	r20, r12
    120a:	95 01       	movw	r18, r10
    120c:	0e 94 2c 16 	call	0x2c58	; 0x2c58 <__mulsi3>
    1210:	60 93 3f 01 	sts	0x013F, r22
    1214:	70 93 40 01 	sts	0x0140, r23
    1218:	80 93 41 01 	sts	0x0141, r24
    121c:	90 93 42 01 	sts	0x0142, r25
#endif
   cval = cval_uncorrected;		// set result to uncorrected
   // cval for this type is at least 40000nF, so the last digit will be never shown
   cval *= (400 - ((C_H_KORR)*2)/5);	// correct with C_H_KORR with 0.1% resolution, but prevent overflow
    1220:	20 e9       	ldi	r18, 0x90	; 144
    1222:	31 e0       	ldi	r19, 0x01	; 1
    1224:	40 e0       	ldi	r20, 0x00	; 0
    1226:	50 e0       	ldi	r21, 0x00	; 0
    1228:	0e 94 2c 16 	call	0x2c58	; 0x2c58 <__mulsi3>
   cval /= 40;
    122c:	28 e2       	ldi	r18, 0x28	; 40
    122e:	30 e0       	ldi	r19, 0x00	; 0
    1230:	40 e0       	ldi	r20, 0x00	; 0
    1232:	50 e0       	ldi	r21, 0x00	; 0
    1234:	0e 94 7e 16 	call	0x2cfc	; 0x2cfc <__udivmodsi4>
    1238:	20 93 60 01 	sts	0x0160, r18
    123c:	30 93 61 01 	sts	0x0161, r19
    1240:	40 93 62 01 	sts	0x0162, r20
    1244:	50 93 63 01 	sts	0x0163, r21
   lcd_string(ultoa(cval,outval,10));
   lcd_data('n');
   lcd_string(utoa(ovcnt16,outval,10));
   wait3s();
#endif
   goto checkDiodes;
    1248:	18 c1       	rjmp	.+560    	; 0x147a <ReadCapacity+0x3d2>
  pin_combination = (HighPin * 3) + LowPin - 1;	// coded Pin combination for capacity zero offset
#endif

  LoADC = MEM_read_byte(&PinADCtab[LowPin]) | TXD_MSK;
  HiPinR_L = MEM_read_byte(&PinRLtab[HighPin]);	//R_L mask for HighPin R_L load
  HiPinR_H = HiPinR_L + HiPinR_L;	//double for HighPin R_H load
    124a:	e0 2e       	mov	r14, r16
    124c:	ee 0c       	add	r14, r14

//==================================================================================
// Measurement of little capacity values
messe_mit_rh:
  //little capacity value, about  < 50 F
  EntladePins();			// discharge capacitor
    124e:	0e 94 79 07 	call	0xef2	; 0xef2 <EntladePins>
  //measure with the R_H (470kOhm) resistor 
  R_PORT = 0;		// R_DDR ist HiPinR_L
    1252:	15 b8       	out	0x05, r1	; 5
  ADC_DDR = (1<<TP1) | (1<<TP2) | (1<<TP3) | (1<<TxD);	//switch all Pins to output
    1254:	8f e0       	ldi	r24, 0x0F	; 15
    1256:	87 b9       	out	0x07, r24	; 7
  ADC_PORT = TXD_VAL;		//switch all ADC Pins to GND
    1258:	18 b8       	out	0x08, r1	; 8
  R_DDR = HiPinR_H;   		// switch R_H resistor port for HighPin to output (GND)
    125a:	e4 b8       	out	0x04, r14	; 4
// setup Analog Comparator
  ADC_COMP_CONTROL = (1<<ACME);			//enable Analog Comparator Multiplexer
    125c:	80 e4       	ldi	r24, 0x40	; 64
    125e:	80 93 7b 00 	sts	0x007B, r24
  ACSR =  (1<<ACBG) | (1<<ACI)  | (1<<ACIC);	// enable, 1.3V, no Interrupt, Connect to Timer1 
    1262:	84 e5       	ldi	r24, 0x54	; 84
    1264:	80 bf       	out	0x30, r24	; 48
  ADMUX = (1<<REFS0) | HighPin;			// switch Mux to High-Pin
    1266:	81 2f       	mov	r24, r17
    1268:	80 64       	ori	r24, 0x40	; 64
    126a:	80 93 7c 00 	sts	0x007C, r24
  ADCSRA = (1<<ADIF) | AUTO_CLOCK_DIV; //disable ADC
    126e:	86 e1       	ldi	r24, 0x16	; 22
    1270:	80 93 7a 00 	sts	0x007A, r24
  wait200us();
    1274:	0e 94 aa 15 	call	0x2b54	; 0x2b54 <wait200us>

  ovcnt16 = 0;
// setup Counter1
  TCCR1A = 0;			// set Counter1 to normal Mode
    1278:	10 92 80 00 	sts	0x0080, r1
  TCNT1 = 0;			//set Counter to 0
    127c:	10 92 85 00 	sts	0x0085, r1
    1280:	10 92 84 00 	sts	0x0084, r1
  TI1_INT_FLAGS = (1<<ICF1) | (1<<OCF1B) | (1<<OCF1A) | (1<<TOV1);	// mega88
    1284:	87 e2       	ldi	r24, 0x27	; 39
    1286:	86 bb       	out	0x16, r24	; 22
  R_PORT = HiPinR_H;           	// switch R_H resistor port for HighPin to VCC
    1288:	e5 b8       	out	0x05, r14	; 5
  if(PartFound == PART_FET) {
    128a:	80 91 07 01 	lds	r24, 0x0107
    128e:	83 30       	cpi	r24, 0x03	; 3
    1290:	79 f4       	brne	.+30     	; 0x12b0 <ReadCapacity+0x208>
     // charge capacitor with R_H resistor
     TCCR1B = (1<<CS10);	//Start counter 1MHz or 8MHz
    1292:	81 e0       	ldi	r24, 0x01	; 1
    1294:	80 93 81 00 	sts	0x0081, r24
     ADC_DDR = (((1<<TP1) | (1<<TP2) | (1<<TP3) | TXD_MSK) & ~(1<<HighPin));	// release only HighPin ADC port
    1298:	81 e0       	ldi	r24, 0x01	; 1
    129a:	90 e0       	ldi	r25, 0x00	; 0
    129c:	01 2e       	mov	r0, r17
    129e:	02 c0       	rjmp	.+4      	; 0x12a4 <ReadCapacity+0x1fc>
    12a0:	88 0f       	add	r24, r24
    12a2:	99 1f       	adc	r25, r25
    12a4:	0a 94       	dec	r0
    12a6:	e2 f7       	brpl	.-8      	; 0x12a0 <ReadCapacity+0x1f8>
    12a8:	80 95       	com	r24
    12aa:	87 70       	andi	r24, 0x07	; 7
    12ac:	87 b9       	out	0x07, r24	; 7
    12ae:	04 c0       	rjmp	.+8      	; 0x12b8 <ReadCapacity+0x210>
  } else {
     TCCR1B =  (1<<CS10);	//start counter 1MHz or 8MHz
    12b0:	81 e0       	ldi	r24, 0x01	; 1
    12b2:	80 93 81 00 	sts	0x0081, r24
     ADC_DDR = LoADC;		// stay LoADC Pin switched to GND, charge capacitor with R_H slowly
    12b6:	c7 b8       	out	0x07, r12	; 7
     ii = TI1_INT_FLAGS;		//read Timer flags
     if (ii & (1<<ICF1))  {
        break;
     }
     if((ii & (1<<TOV1))) {		// counter overflow, 65.536 ms @ 1MHz, 8.192ms @ 8MHz
        TI1_INT_FLAGS = (1<<TOV1);	// Reset OV Flag
    12b8:	81 e0       	ldi	r24, 0x01	; 1
     ADC_DDR = LoADC;		// stay LoADC Pin switched to GND, charge capacitor with R_H slowly
  }
//******************************
  while(1) {
     // Wait, until  Input Capture is set
     ii = TI1_INT_FLAGS;		//read Timer flags
    12ba:	26 b3       	in	r18, 0x16	; 22
     if (ii & (1<<ICF1))  {
    12bc:	25 fd       	sbrc	r18, 5
    12be:	09 c0       	rjmp	.+18     	; 0x12d2 <ReadCapacity+0x22a>
        break;
     }
     if((ii & (1<<TOV1))) {		// counter overflow, 65.536 ms @ 1MHz, 8.192ms @ 8MHz
    12c0:	20 ff       	sbrs	r18, 0
    12c2:	fb cf       	rjmp	.-10     	; 0x12ba <ReadCapacity+0x212>
        TI1_INT_FLAGS = (1<<TOV1);	// Reset OV Flag
    12c4:	86 bb       	out	0x16, r24	; 22
        wdt_reset();
    12c6:	a8 95       	wdr
        ovcnt16++;
    12c8:	21 96       	adiw	r28, 0x01	; 1
        if(ovcnt16 == (F_CPU/5000)) {
    12ca:	36 e0       	ldi	r19, 0x06	; 6
    12cc:	c0 34       	cpi	r28, 0x40	; 64
    12ce:	d3 07       	cpc	r29, r19
    12d0:	a1 f7       	brne	.-24     	; 0x12ba <ReadCapacity+0x212>
           break; 	//Timeout for Charging, above 12 s
        }
     }
  }
  TCCR1B = (0<<ICNC1) | (0<<ICES1) | (0<<CS10);  // stop counter
    12d2:	10 92 81 00 	sts	0x0081, r1
  TI1_INT_FLAGS = (1<<ICF1);			// Reset Input Capture
    12d6:	80 e2       	ldi	r24, 0x20	; 32
    12d8:	86 bb       	out	0x16, r24	; 22
  tmpint = ICR1;		// get previous Input Capture Counter flag
    12da:	e0 90 86 00 	lds	r14, 0x0086
    12de:	f0 90 87 00 	lds	r15, 0x0087
// check actual counter, if an additional overflow must be added
  if((TCNT1 > tmpint) && (ii & (1<<TOV1))) {
    12e2:	80 91 84 00 	lds	r24, 0x0084
    12e6:	90 91 85 00 	lds	r25, 0x0085
    12ea:	e8 16       	cp	r14, r24
    12ec:	f9 06       	cpc	r15, r25
    12ee:	28 f4       	brcc	.+10     	; 0x12fa <ReadCapacity+0x252>
    12f0:	20 ff       	sbrs	r18, 0
    12f2:	03 c0       	rjmp	.+6      	; 0x12fa <ReadCapacity+0x252>
     // this OV was not counted, but was before the Input Capture
     TI1_INT_FLAGS = (1<<TOV1);		// Reset OV Flag
    12f4:	81 e0       	ldi	r24, 0x01	; 1
    12f6:	86 bb       	out	0x16, r24	; 22
     ovcnt16++;
    12f8:	21 96       	adiw	r28, 0x01	; 1
  }
//############################################################
  ADCSRA = (1<<ADEN) | (1<<ADIF) | AUTO_CLOCK_DIV; //enable ADC
    12fa:	86 e9       	ldi	r24, 0x96	; 150
    12fc:	80 93 7a 00 	sts	0x007A, r24
  R_DDR = 0;			// switch R_H resistor port for input
    1300:	14 b8       	out	0x04, r1	; 4
  R_PORT = 0;			// switch R_H resistor port pull up for HighPin off
    1302:	15 b8       	out	0x05, r1	; 5
  load_diff = ReadADC(HighPin) + REF_C_KORR - ref_mv;	// build difference of capacitor voltage to Reference Voltage
    1304:	81 2f       	mov	r24, r17
    1306:	0e 94 bf 15 	call	0x2b7e	; 0x2b7e <ReadADC>
    130a:	20 91 2c 01 	lds	r18, 0x012C
    130e:	30 91 2d 01 	lds	r19, 0x012D
    1312:	82 1b       	sub	r24, r18
    1314:	93 0b       	sbc	r25, r19
    1316:	0c 96       	adiw	r24, 0x0c	; 12
    1318:	90 93 47 01 	sts	0x0147, r25
    131c:	80 93 46 01 	sts	0x0146, r24
//############################################################
  if (ovcnt16 >= (F_CPU/10000)) {
    1320:	43 e0       	ldi	r20, 0x03	; 3
    1322:	c0 32       	cpi	r28, 0x20	; 32
    1324:	d4 07       	cpc	r29, r20
    1326:	08 f0       	brcs	.+2      	; 0x132a <ReadCapacity+0x282>
    1328:	b7 c0       	rjmp	.+366    	; 0x1498 <ReadCapacity+0x3f0>
     goto keinC;	// no normal end
  }
  cval_uncorrected = CombineII2Long(ovcnt16, tmpint);
    132a:	ce 01       	movw	r24, r28
    132c:	b7 01       	movw	r22, r14
    132e:	0e 94 b8 15 	call	0x2b70	; 0x2b70 <CombineII2Long>
    1332:	60 93 3f 01 	sts	0x013F, r22
    1336:	70 93 40 01 	sts	0x0140, r23
    133a:	80 93 41 01 	sts	0x0141, r24
    133e:	90 93 42 01 	sts	0x0142, r25

  cpre = -12;			// cval unit is pF 
    1342:	24 ef       	ldi	r18, 0xF4	; 244
    1344:	20 93 32 01 	sts	0x0132, r18
  if (ovcnt16 > 65) {
    1348:	c2 34       	cpi	r28, 0x42	; 66
    134a:	d1 05       	cpc	r29, r1
    134c:	88 f0       	brcs	.+34     	; 0x1370 <ReadCapacity+0x2c8>
     cval_uncorrected /= 100;	// switch to next unit
    134e:	24 e6       	ldi	r18, 0x64	; 100
    1350:	30 e0       	ldi	r19, 0x00	; 0
    1352:	40 e0       	ldi	r20, 0x00	; 0
    1354:	50 e0       	ldi	r21, 0x00	; 0
    1356:	0e 94 7e 16 	call	0x2cfc	; 0x2cfc <__udivmodsi4>
    135a:	20 93 3f 01 	sts	0x013F, r18
    135e:	30 93 40 01 	sts	0x0140, r19
    1362:	40 93 41 01 	sts	0x0141, r20
    1366:	50 93 42 01 	sts	0x0142, r21
     cpre += 2;			// set unit, prevent overflow
    136a:	86 ef       	ldi	r24, 0xF6	; 246
    136c:	80 93 32 01 	sts	0x0132, r24
  }
  cval_uncorrected *= RHmultip;		// 708
    1370:	60 91 00 01 	lds	r22, 0x0100
    1374:	70 91 01 01 	lds	r23, 0x0101
    1378:	80 e0       	ldi	r24, 0x00	; 0
    137a:	90 e0       	ldi	r25, 0x00	; 0
    137c:	20 91 3f 01 	lds	r18, 0x013F
    1380:	30 91 40 01 	lds	r19, 0x0140
    1384:	40 91 41 01 	lds	r20, 0x0141
    1388:	50 91 42 01 	lds	r21, 0x0142
    138c:	0e 94 2c 16 	call	0x2c58	; 0x2c58 <__mulsi3>
  cval_uncorrected /= (F_CPU / 10000);	// divide by 100 (@ 1MHz clock), 800 (@ 8MHz clock)
    1390:	20 e2       	ldi	r18, 0x20	; 32
    1392:	33 e0       	ldi	r19, 0x03	; 3
    1394:	40 e0       	ldi	r20, 0x00	; 0
    1396:	50 e0       	ldi	r21, 0x00	; 0
    1398:	0e 94 7e 16 	call	0x2cfc	; 0x2cfc <__udivmodsi4>
    139c:	69 01       	movw	r12, r18
    139e:	7a 01       	movw	r14, r20
    13a0:	20 93 3f 01 	sts	0x013F, r18
    13a4:	30 93 40 01 	sts	0x0140, r19
    13a8:	40 93 41 01 	sts	0x0141, r20
    13ac:	50 93 42 01 	sts	0x0142, r21
  cval = cval_uncorrected;		// set the corrected cval
    13b0:	20 93 60 01 	sts	0x0160, r18
    13b4:	30 93 61 01 	sts	0x0161, r19
    13b8:	40 93 62 01 	sts	0x0162, r20
    13bc:	50 93 63 01 	sts	0x0163, r21
  if (cpre == -12) {
    13c0:	80 91 32 01 	lds	r24, 0x0132
    13c4:	84 3f       	cpi	r24, 0xF4	; 244
    13c6:	09 f0       	breq	.+2      	; 0x13ca <ReadCapacity+0x322>
    13c8:	4a c0       	rjmp	.+148    	; 0x145e <ReadCapacity+0x3b6>
#if COMP_SLEW1 > COMP_SLEW2
     if (cval < COMP_SLEW1) {
    13ca:	20 3a       	cpi	r18, 0xA0	; 160
    13cc:	8f e0       	ldi	r24, 0x0F	; 15
    13ce:	38 07       	cpc	r19, r24
    13d0:	80 e0       	ldi	r24, 0x00	; 0
    13d2:	48 07       	cpc	r20, r24
    13d4:	80 e0       	ldi	r24, 0x00	; 0
    13d6:	58 07       	cpc	r21, r24
    13d8:	b0 f4       	brcc	.+44     	; 0x1406 <ReadCapacity+0x35e>
        // add slew rate dependent offset
        cval += (COMP_SLEW1 / (cval+COMP_SLEW2 ));
    13da:	2c 54       	subi	r18, 0x4C	; 76
    13dc:	3f 4f       	sbci	r19, 0xFF	; 255
    13de:	4f 4f       	sbci	r20, 0xFF	; 255
    13e0:	5f 4f       	sbci	r21, 0xFF	; 255
    13e2:	60 ea       	ldi	r22, 0xA0	; 160
    13e4:	7f e0       	ldi	r23, 0x0F	; 15
    13e6:	80 e0       	ldi	r24, 0x00	; 0
    13e8:	90 e0       	ldi	r25, 0x00	; 0
    13ea:	0e 94 7e 16 	call	0x2cfc	; 0x2cfc <__udivmodsi4>
    13ee:	2c 0d       	add	r18, r12
    13f0:	3d 1d       	adc	r19, r13
    13f2:	4e 1d       	adc	r20, r14
    13f4:	5f 1d       	adc	r21, r15
    13f6:	20 93 60 01 	sts	0x0160, r18
    13fa:	30 93 61 01 	sts	0x0161, r19
    13fe:	40 93 62 01 	sts	0x0162, r20
    1402:	50 93 63 01 	sts	0x0163, r21
     }
#endif
#ifdef AUTO_CAL
     // auto calibration mode, cap_null can be updated in selftest section
     tmpint = eeprom_read_byte(&c_zero_tab[pin_combination]);	// read zero offset
    1406:	80 91 31 01 	lds	r24, 0x0131
    140a:	90 e0       	ldi	r25, 0x00	; 0
    140c:	84 50       	subi	r24, 0x04	; 4
    140e:	9e 4f       	sbci	r25, 0xFE	; 254
    1410:	0e 94 f2 16 	call	0x2de4	; 0x2de4 <__eerd_byte_m328p>
     if (cval > tmpint) {
    1414:	20 91 60 01 	lds	r18, 0x0160
    1418:	30 91 61 01 	lds	r19, 0x0161
    141c:	40 91 62 01 	lds	r20, 0x0162
    1420:	50 91 63 01 	lds	r21, 0x0163
        cval += (COMP_SLEW1 / (cval+COMP_SLEW2 ));
     }
#endif
#ifdef AUTO_CAL
     // auto calibration mode, cap_null can be updated in selftest section
     tmpint = eeprom_read_byte(&c_zero_tab[pin_combination]);	// read zero offset
    1424:	90 e0       	ldi	r25, 0x00	; 0
     if (cval > tmpint) {
    1426:	a0 e0       	ldi	r26, 0x00	; 0
    1428:	b0 e0       	ldi	r27, 0x00	; 0
    142a:	82 17       	cp	r24, r18
    142c:	93 07       	cpc	r25, r19
    142e:	a4 07       	cpc	r26, r20
    1430:	b5 07       	cpc	r27, r21
    1432:	68 f4       	brcc	.+26     	; 0x144e <ReadCapacity+0x3a6>
         cval -= tmpint;		//subtract zero offset (pF)
    1434:	28 1b       	sub	r18, r24
    1436:	39 0b       	sbc	r19, r25
    1438:	4a 0b       	sbc	r20, r26
    143a:	5b 0b       	sbc	r21, r27
    143c:	20 93 60 01 	sts	0x0160, r18
    1440:	30 93 61 01 	sts	0x0161, r19
    1444:	40 93 62 01 	sts	0x0162, r20
    1448:	50 93 63 01 	sts	0x0163, r21
    144c:	08 c0       	rjmp	.+16     	; 0x145e <ReadCapacity+0x3b6>
     } else {
         cval = 0;			//unsigned long may not reach negativ value
    144e:	10 92 60 01 	sts	0x0160, r1
    1452:	10 92 61 01 	sts	0x0161, r1
    1456:	10 92 62 01 	sts	0x0162, r1
    145a:	10 92 63 01 	sts	0x0163, r1
  lcd_data(' ');
  lcd_string(ultoa(cval,outval,10));
  lcd_data('p');
  wait3s();
#endif
  R_DDR = HiPinR_L; 		//switch R_L for High-Pin to GND
    145e:	04 b9       	out	0x04, r16	; 4
#if F_CPU < 2000001
   if(cval < 50)
#else 
   if(cval < 25)
    1460:	80 91 60 01 	lds	r24, 0x0160
    1464:	90 91 61 01 	lds	r25, 0x0161
    1468:	a0 91 62 01 	lds	r26, 0x0162
    146c:	b0 91 63 01 	lds	r27, 0x0163
    1470:	89 31       	cpi	r24, 0x19	; 25
    1472:	91 05       	cpc	r25, r1
    1474:	a1 05       	cpc	r26, r1
    1476:	b1 05       	cpc	r27, r1
    1478:	78 f0       	brcs	.+30     	; 0x1498 <ReadCapacity+0x3f0>
#endif
      goto keinC;	//capacity to low, < 70pF @1MHz (35pF @8MHz)
   }
   // end low capacity 
checkDiodes:
   if((NumOfDiodes > 0)  && (PartFound != PART_FET)) {
    147a:	80 91 05 01 	lds	r24, 0x0105
    147e:	88 23       	and	r24, r24
    1480:	21 f0       	breq	.+8      	; 0x148a <ReadCapacity+0x3e2>
    1482:	80 91 07 01 	lds	r24, 0x0107
    1486:	83 30       	cpi	r24, 0x03	; 3
    1488:	39 f4       	brne	.+14     	; 0x1498 <ReadCapacity+0x3f0>
      wait1s();
#endif
      // nearly shure, that there is one or more diodes in reverse direction,
      // which would be wrongly detected as capacitor 
   } else {
      PartFound = PART_CAPACITOR;	//capacitor is found
    148a:	87 e0       	ldi	r24, 0x07	; 7
    148c:	80 93 07 01 	sts	0x0107, r24
      ca = LowPin;			// save LowPin
    1490:	90 92 45 01 	sts	0x0145, r9
      cb = HighPin;		// save HighPin
    1494:	10 93 08 01 	sts	0x0108, r17
keinC:
  // discharge capacitor again
//  EntladePins();		// discharge capacitors
  //ready
  // switch all ports to input
  ADC_DDR =  TXD_MSK;		// switch all ADC ports to input
    1498:	17 b8       	out	0x07, r1	; 7
  ADC_PORT = TXD_VAL;		// switch all ADC outputs to GNG, no pull up
    149a:	18 b8       	out	0x08, r1	; 8
  R_DDR = 0;			// switch all resistor ports to input
    149c:	14 b8       	out	0x04, r1	; 4
  R_PORT = 0; 			// switch all resistor outputs to GND, no pull up
    149e:	15 b8       	out	0x05, r1	; 5
  return;
 } // end ReadCapacity()
    14a0:	df 91       	pop	r29
    14a2:	cf 91       	pop	r28
    14a4:	1f 91       	pop	r17
    14a6:	0f 91       	pop	r16
    14a8:	ff 90       	pop	r15
    14aa:	ef 90       	pop	r14
    14ac:	df 90       	pop	r13
    14ae:	cf 90       	pop	r12
    14b0:	bf 90       	pop	r11
    14b2:	af 90       	pop	r10
    14b4:	9f 90       	pop	r9
    14b6:	08 95       	ret

000014b8 <RefVoltage>:


 #ifdef WITH_AUTO_REF
void RefVoltage(void) {
    14b8:	ff 92       	push	r15
    14ba:	0f 93       	push	r16
    14bc:	1f 93       	push	r17
    14be:	cf 93       	push	r28
    14c0:	df 93       	push	r29
  unsigned int y1, y2;
  uint8_t tabind;
  uint8_t tabres;

  #ifdef AUTO_CAL
  referenz = ref_mv + (int16_t)eeprom_read_word((uint16_t *)(&ref_offset));
    14c2:	8a ef       	ldi	r24, 0xFA	; 250
    14c4:	91 e0       	ldi	r25, 0x01	; 1
    14c6:	0e 94 fa 16 	call	0x2df4	; 0x2df4 <__eerd_word_m328p>
    14ca:	20 91 2c 01 	lds	r18, 0x012C
    14ce:	30 91 2d 01 	lds	r19, 0x012D
    14d2:	28 0f       	add	r18, r24
    14d4:	39 1f       	adc	r19, r25
  #else
  referenz = ref_mv + REF_C_KORR;
  #endif
  if (referenz >= Ref_Tab_Beginn) {
    14d6:	83 e0       	ldi	r24, 0x03	; 3
    14d8:	28 3e       	cpi	r18, 0xE8	; 232
    14da:	38 07       	cpc	r19, r24
    14dc:	20 f0       	brcs	.+8      	; 0x14e6 <RefVoltage+0x2e>
     referenz -= Ref_Tab_Beginn;
    14de:	c9 01       	movw	r24, r18
    14e0:	88 5e       	subi	r24, 0xE8	; 232
    14e2:	93 40       	sbci	r25, 0x03	; 3
    14e4:	02 c0       	rjmp	.+4      	; 0x14ea <RefVoltage+0x32>
  } else  {
     referenz = 0;		// limit to begin of table
    14e6:	80 e0       	ldi	r24, 0x00	; 0
    14e8:	90 e0       	ldi	r25, 0x00	; 0
  }
  tabind = referenz / Ref_Tab_Abstand;
    14ea:	62 e3       	ldi	r22, 0x32	; 50
    14ec:	70 e0       	ldi	r23, 0x00	; 0
    14ee:	0e 94 57 16 	call	0x2cae	; 0x2cae <__udivmodhi4>
  tabres = referenz % Ref_Tab_Abstand;
    14f2:	f8 2e       	mov	r15, r24
  tabres = Ref_Tab_Abstand-tabres;
  if (tabind > 7) {
     tabind = 7;		// limit to end of table
  }
  // interpolate the table of factors
  y1 = MEM_read_word(&RHtab[tabind]);
    14f4:	68 30       	cpi	r22, 0x08	; 8
    14f6:	08 f0       	brcs	.+2      	; 0x14fa <RefVoltage+0x42>
    14f8:	67 e0       	ldi	r22, 0x07	; 7
    14fa:	c6 2f       	mov	r28, r22
    14fc:	d0 e0       	ldi	r29, 0x00	; 0
    14fe:	ce 01       	movw	r24, r28
    1500:	88 0f       	add	r24, r24
    1502:	99 1f       	adc	r25, r25
    1504:	86 5a       	subi	r24, 0xA6	; 166
    1506:	9f 4f       	sbci	r25, 0xFF	; 255
    1508:	0e 94 fa 16 	call	0x2df4	; 0x2df4 <__eerd_word_m328p>
    150c:	8c 01       	movw	r16, r24
  y2 = MEM_read_word(&RHtab[tabind+1]);
    150e:	ce 01       	movw	r24, r28
    1510:	88 0f       	add	r24, r24
    1512:	99 1f       	adc	r25, r25
    1514:	84 5a       	subi	r24, 0xA4	; 164
    1516:	9f 4f       	sbci	r25, 0xFF	; 255
    1518:	0e 94 fa 16 	call	0x2df4	; 0x2df4 <__eerd_word_m328p>
    151c:	9c 01       	movw	r18, r24
  } else  {
     referenz = 0;		// limit to begin of table
  }
  tabind = referenz / Ref_Tab_Abstand;
  tabres = referenz % Ref_Tab_Abstand;
  tabres = Ref_Tab_Abstand-tabres;
    151e:	42 e3       	ldi	r20, 0x32	; 50
    1520:	4f 19       	sub	r20, r15
  }
  // interpolate the table of factors
  y1 = MEM_read_word(&RHtab[tabind]);
  y2 = MEM_read_word(&RHtab[tabind+1]);
  // RHmultip is the interpolated factor to compute capacity from load time with 470k
  RHmultip = ((y1 - y2) * tabres + (Ref_Tab_Abstand/2)) / Ref_Tab_Abstand + y2;
    1522:	50 e0       	ldi	r21, 0x00	; 0
    1524:	08 1b       	sub	r16, r24
    1526:	19 0b       	sbc	r17, r25
    1528:	40 9f       	mul	r20, r16
    152a:	c0 01       	movw	r24, r0
    152c:	41 9f       	mul	r20, r17
    152e:	90 0d       	add	r25, r0
    1530:	50 9f       	mul	r21, r16
    1532:	90 0d       	add	r25, r0
    1534:	11 24       	eor	r1, r1
    1536:	49 96       	adiw	r24, 0x19	; 25
    1538:	62 e3       	ldi	r22, 0x32	; 50
    153a:	70 e0       	ldi	r23, 0x00	; 0
    153c:	0e 94 57 16 	call	0x2cae	; 0x2cae <__udivmodhi4>
    1540:	62 0f       	add	r22, r18
    1542:	73 1f       	adc	r23, r19
    1544:	70 93 01 01 	sts	0x0101, r23
    1548:	60 93 00 01 	sts	0x0100, r22
 }
    154c:	df 91       	pop	r29
    154e:	cf 91       	pop	r28
    1550:	1f 91       	pop	r17
    1552:	0f 91       	pop	r16
    1554:	ff 90       	pop	r15
    1556:	08 95       	ret

00001558 <lcd_clear_line>:
 #endif
#endif

#ifdef LCD_CLEAR
void lcd_clear_line(void) {
    1558:	1f 93       	push	r17
    155a:	14 e1       	ldi	r17, 0x14	; 20
 // writes 20 spaces to LCD-Display, Cursor must be positioned to first column
 unsigned char ll;
 for (ll=0;ll<20;ll++) {
    lcd_data(' ');
    155c:	80 e2       	ldi	r24, 0x20	; 32
    155e:	0e 94 80 00 	call	0x100	; 0x100 <lcd_data>
    1562:	11 50       	subi	r17, 0x01	; 1

#ifdef LCD_CLEAR
void lcd_clear_line(void) {
 // writes 20 spaces to LCD-Display, Cursor must be positioned to first column
 unsigned char ll;
 for (ll=0;ll<20;ll++) {
    1564:	d9 f7       	brne	.-10     	; 0x155c <lcd_clear_line+0x4>
    lcd_data(' ');
 }
}
    1566:	1f 91       	pop	r17
    1568:	08 95       	ret

0000156a <DisplayValue>:
 *    e.g: p = 10^-12 -> -12
 *  - unit character (0 = none)
 *  digits = 2, 3 or 4
 */
void DisplayValue(unsigned long Value, int8_t Exponent, unsigned char Unit, unsigned char digits)
{
    156a:	2f 92       	push	r2
    156c:	3f 92       	push	r3
    156e:	4f 92       	push	r4
    1570:	5f 92       	push	r5
    1572:	7f 92       	push	r7
    1574:	8f 92       	push	r8
    1576:	9f 92       	push	r9
    1578:	af 92       	push	r10
    157a:	bf 92       	push	r11
    157c:	cf 92       	push	r12
    157e:	df 92       	push	r13
    1580:	ef 92       	push	r14
    1582:	ff 92       	push	r15
    1584:	0f 93       	push	r16
    1586:	1f 93       	push	r17
    1588:	df 93       	push	r29
    158a:	cf 93       	push	r28
    158c:	cd b7       	in	r28, 0x3d	; 61
    158e:	de b7       	in	r29, 0x3e	; 62
    1590:	2f 97       	sbiw	r28, 0x0f	; 15
    1592:	0f b6       	in	r0, 0x3f	; 63
    1594:	f8 94       	cli
    1596:	de bf       	out	0x3e, r29	; 62
    1598:	0f be       	out	0x3f, r0	; 63
    159a:	cd bf       	out	0x3d, r28	; 61
    159c:	6b 01       	movw	r12, r22
    159e:	7c 01       	movw	r14, r24
    15a0:	14 2f       	mov	r17, r20
    15a2:	72 2e       	mov	r7, r18
  uint8_t           Index;		/* index ID */
  uint8_t           Length;		/* string length */


  Limit = 100;				/* scale value down to 2 digits */
  if (digits == 3) Limit = 1000;
    15a4:	03 30       	cpi	r16, 0x03	; 3
    15a6:	29 f0       	breq	.+10     	; 0x15b2 <DisplayValue+0x48>
  if (digits == 4) Limit = 10000;
    15a8:	04 30       	cpi	r16, 0x04	; 4
    15aa:	31 f0       	breq	.+12     	; 0x15b8 <DisplayValue+0x4e>
  uint8_t           Offset;		/* exponent of offset to next 10^3 step */
  uint8_t           Index;		/* index ID */
  uint8_t           Length;		/* string length */


  Limit = 100;				/* scale value down to 2 digits */
    15ac:	84 e6       	ldi	r24, 0x64	; 100
    15ae:	90 e0       	ldi	r25, 0x00	; 0
    15b0:	14 c0       	rjmp	.+40     	; 0x15da <DisplayValue+0x70>
  if (digits == 3) Limit = 1000;
    15b2:	88 ee       	ldi	r24, 0xE8	; 232
    15b4:	93 e0       	ldi	r25, 0x03	; 3
    15b6:	11 c0       	rjmp	.+34     	; 0x15da <DisplayValue+0x70>
  if (digits == 4) Limit = 10000;
    15b8:	80 e1       	ldi	r24, 0x10	; 16
    15ba:	97 e2       	ldi	r25, 0x27	; 39
    15bc:	0e c0       	rjmp	.+28     	; 0x15da <DisplayValue+0x70>
  while (Value >= Limit)
  {
    Value += 5;				/* for automagic rounding */
    15be:	c7 01       	movw	r24, r14
    15c0:	b6 01       	movw	r22, r12
    15c2:	6b 5f       	subi	r22, 0xFB	; 251
    15c4:	7f 4f       	sbci	r23, 0xFF	; 255
    15c6:	8f 4f       	sbci	r24, 0xFF	; 255
    15c8:	9f 4f       	sbci	r25, 0xFF	; 255
    Value = Value / 10;			/* scale down by 10^1 */
    15ca:	a5 01       	movw	r20, r10
    15cc:	94 01       	movw	r18, r8
    15ce:	0e 94 7e 16 	call	0x2cfc	; 0x2cfc <__udivmodsi4>
    15d2:	69 01       	movw	r12, r18
    15d4:	7a 01       	movw	r14, r20
    Exponent++;				/* increase exponent by 1 */
    15d6:	1f 5f       	subi	r17, 0xFF	; 255
    15d8:	08 c0       	rjmp	.+16     	; 0x15ea <DisplayValue+0x80>


  Limit = 100;				/* scale value down to 2 digits */
  if (digits == 3) Limit = 1000;
  if (digits == 4) Limit = 10000;
  while (Value >= Limit)
    15da:	1c 01       	movw	r2, r24
    15dc:	44 24       	eor	r4, r4
    15de:	55 24       	eor	r5, r5
  {
    Value += 5;				/* for automagic rounding */
    Value = Value / 10;			/* scale down by 10^1 */
    15e0:	6a e0       	ldi	r22, 0x0A	; 10
    15e2:	86 2e       	mov	r8, r22
    15e4:	91 2c       	mov	r9, r1
    15e6:	a1 2c       	mov	r10, r1
    15e8:	b1 2c       	mov	r11, r1


  Limit = 100;				/* scale value down to 2 digits */
  if (digits == 3) Limit = 1000;
  if (digits == 4) Limit = 10000;
  while (Value >= Limit)
    15ea:	c2 14       	cp	r12, r2
    15ec:	d3 04       	cpc	r13, r3
    15ee:	e4 04       	cpc	r14, r4
    15f0:	f5 04       	cpc	r15, r5
    15f2:	28 f7       	brcc	.-54     	; 0x15be <DisplayValue+0x54>


  /*
   *  determine prefix
   */
  Length = Exponent + 12;
    15f4:	81 2f       	mov	r24, r17
    15f6:	84 5f       	subi	r24, 0xF4	; 244
    15f8:	83 31       	cpi	r24, 0x13	; 19
    15fa:	08 f0       	brcs	.+2      	; 0x15fe <DisplayValue+0x94>
    15fc:	82 e1       	ldi	r24, 0x12	; 18
  if (Length <  0) Length = 0;		/* Limit to minimum prefix */
  if (Length > 18) Length = 18;		/* Limit to maximum prefix */
  Index = Length / 3;
    15fe:	23 e0       	ldi	r18, 0x03	; 3
  Offset = Length % 3;
    1600:	62 2f       	mov	r22, r18
    1602:	0e 94 4b 16 	call	0x2c96	; 0x2c96 <__udivmodqi4>
    1606:	19 2f       	mov	r17, r25
    if (Offset > 0)
    1608:	99 23       	and	r25, r25
    160a:	19 f0       	breq	.+6      	; 0x1612 <DisplayValue+0xa8>
    {
      Index++;				/* adjust index for exponent offset, take next prefix */
    160c:	8f 5f       	subi	r24, 0xFF	; 255
      Offset = 3 - Offset;		/* reverse value (1 or 2) */
    160e:	29 1b       	sub	r18, r25
    1610:	12 2f       	mov	r17, r18
    }
  Prefix = eeprom_read_byte((uint8_t *)(&PrefixTab[Index]));   /* look up prefix in table */
    1612:	90 e0       	ldi	r25, 0x00	; 0
    1614:	8d 50       	subi	r24, 0x0D	; 13
    1616:	9e 4f       	sbci	r25, 0xFE	; 254
    1618:	0e 94 f2 16 	call	0x2de4	; 0x2de4 <__eerd_byte_m328p>
    161c:	b8 2e       	mov	r11, r24
  /*
   *  display value
   */

  /* convert value into string */
  utoa((unsigned int)Value, OutBuffer, 10);
    161e:	c6 01       	movw	r24, r12
    1620:	6e 01       	movw	r12, r28
    1622:	08 94       	sec
    1624:	c1 1c       	adc	r12, r1
    1626:	d1 1c       	adc	r13, r1
    1628:	b6 01       	movw	r22, r12
    162a:	4a e0       	ldi	r20, 0x0A	; 10
    162c:	50 e0       	ldi	r21, 0x00	; 0
    162e:	0e 94 dc 16 	call	0x2db8	; 0x2db8 <utoa>
  Length = strlen(OutBuffer);
    1632:	f6 01       	movw	r30, r12
    1634:	01 90       	ld	r0, Z+
    1636:	00 20       	and	r0, r0
    1638:	e9 f7       	brne	.-6      	; 0x1634 <DisplayValue+0xca>
    163a:	31 97       	sbiw	r30, 0x01	; 1
    163c:	2e 2e       	mov	r2, r30
    163e:	2c 18       	sub	r2, r12

  /* position of dot */
  Exponent = Length - Offset;		/* calculate position */
    1640:	82 2c       	mov	r8, r2
    1642:	81 1a       	sub	r8, r17

  if (Exponent <= 0)			/* we have to prepend "0." */
    1644:	18 14       	cp	r1, r8
    1646:	44 f0       	brlt	.+16     	; 0x1658 <DisplayValue+0xee>
  {
    /* 0: factor 10 / -1: factor 100 */
//    lcd_data('0');
    lcd_data('.');
    1648:	8e e2       	ldi	r24, 0x2E	; 46
    164a:	0e 94 80 00 	call	0x100	; 0x100 <lcd_data>
    if (Exponent < 0) lcd_data('0');	/* extra 0 for factor 100 */
    164e:	88 20       	and	r8, r8
    1650:	19 f0       	breq	.+6      	; 0x1658 <DisplayValue+0xee>
    1652:	80 e3       	ldi	r24, 0x30	; 48
    1654:	0e 94 80 00 	call	0x100	; 0x100 <lcd_data>
  }

  if (Offset == 0) Exponent = -1;	/* disable dot if not needed */
    1658:	11 23       	and	r17, r17
    165a:	11 f4       	brne	.+4      	; 0x1660 <DisplayValue+0xf6>
    165c:	88 24       	eor	r8, r8
    165e:	8a 94       	dec	r8
    1660:	6e 01       	movw	r12, r28
    1662:	08 94       	sec
    1664:	c1 1c       	adc	r12, r1
    1666:	d1 1c       	adc	r13, r1
  /* adjust position to array or disable dot if set to 0 */
//  Exponent--;

  /* display value and add dot if requested */
  Index = 0;
  while (Index < Length)		/* loop through string */
    1668:	00 e0       	ldi	r16, 0x00	; 0
    166a:	10 e0       	ldi	r17, 0x00	; 0
  {
    lcd_data(OutBuffer[Index]);		/* display char */
    Index++;				/* next one */
    if (Index == Exponent) {
    166c:	99 24       	eor	r9, r9
    166e:	87 fc       	sbrc	r8, 7
    1670:	90 94       	com	r9
  /* adjust position to array or disable dot if set to 0 */
//  Exponent--;

  /* display value and add dot if requested */
  Index = 0;
  while (Index < Length)		/* loop through string */
    1672:	0d c0       	rjmp	.+26     	; 0x168e <DisplayValue+0x124>
  {
    lcd_data(OutBuffer[Index]);		/* display char */
    1674:	0f 5f       	subi	r16, 0xFF	; 255
    1676:	1f 4f       	sbci	r17, 0xFF	; 255
    1678:	f6 01       	movw	r30, r12
    167a:	81 91       	ld	r24, Z+
    167c:	6f 01       	movw	r12, r30
    167e:	0e 94 80 00 	call	0x100	; 0x100 <lcd_data>
    Index++;				/* next one */
    if (Index == Exponent) {
    1682:	08 15       	cp	r16, r8
    1684:	19 05       	cpc	r17, r9
    1686:	19 f4       	brne	.+6      	; 0x168e <DisplayValue+0x124>
      lcd_data('.');			/* display dot */
    1688:	8e e2       	ldi	r24, 0x2E	; 46
    168a:	0e 94 80 00 	call	0x100	; 0x100 <lcd_data>
  /* adjust position to array or disable dot if set to 0 */
//  Exponent--;

  /* display value and add dot if requested */
  Index = 0;
  while (Index < Length)		/* loop through string */
    168e:	02 15       	cp	r16, r2
    1690:	88 f3       	brcs	.-30     	; 0x1674 <DisplayValue+0x10a>
      lcd_data('.');			/* display dot */
    }
  }

  /* display prefix and unit */
  if (Prefix != 0) lcd_data(Prefix);
    1692:	bb 20       	and	r11, r11
    1694:	19 f0       	breq	.+6      	; 0x169c <DisplayValue+0x132>
    1696:	8b 2d       	mov	r24, r11
    1698:	0e 94 80 00 	call	0x100	; 0x100 <lcd_data>
  if (Unit) lcd_data(Unit);
    169c:	77 20       	and	r7, r7
    169e:	19 f0       	breq	.+6      	; 0x16a6 <DisplayValue+0x13c>
    16a0:	87 2d       	mov	r24, r7
    16a2:	0e 94 80 00 	call	0x100	; 0x100 <lcd_data>
}
    16a6:	2f 96       	adiw	r28, 0x0f	; 15
    16a8:	0f b6       	in	r0, 0x3f	; 63
    16aa:	f8 94       	cli
    16ac:	de bf       	out	0x3e, r29	; 62
    16ae:	0f be       	out	0x3f, r0	; 63
    16b0:	cd bf       	out	0x3d, r28	; 61
    16b2:	cf 91       	pop	r28
    16b4:	df 91       	pop	r29
    16b6:	1f 91       	pop	r17
    16b8:	0f 91       	pop	r16
    16ba:	ff 90       	pop	r15
    16bc:	ef 90       	pop	r14
    16be:	df 90       	pop	r13
    16c0:	cf 90       	pop	r12
    16c2:	bf 90       	pop	r11
    16c4:	af 90       	pop	r10
    16c6:	9f 90       	pop	r9
    16c8:	8f 90       	pop	r8
    16ca:	7f 90       	pop	r7
    16cc:	5f 90       	pop	r5
    16ce:	4f 90       	pop	r4
    16d0:	3f 90       	pop	r3
    16d2:	2f 90       	pop	r2
    16d4:	08 95       	ret

000016d6 <RvalOut>:
   }
}

#ifdef R_MESS
  #define AUSGABE_FUNKTION
void RvalOut(uint8_t ii) {	
    16d6:	0f 93       	push	r16
   // output of resistor value
   unsigned long rrx;
   uint8_t prefix;

   rrx = resis[ii].rx;
    16d8:	90 e0       	ldi	r25, 0x00	; 0
    16da:	fc 01       	movw	r30, r24
    16dc:	73 e0       	ldi	r23, 0x03	; 3
    16de:	ee 0f       	add	r30, r30
    16e0:	ff 1f       	adc	r31, r31
    16e2:	7a 95       	dec	r23
    16e4:	e1 f7       	brne	.-8      	; 0x16de <RvalOut+0x8>
    16e6:	e8 1b       	sub	r30, r24
    16e8:	f9 0b       	sbc	r31, r25
    16ea:	e9 5e       	subi	r30, 0xE9	; 233
    16ec:	fe 4f       	sbci	r31, 0xFE	; 254
//   }
//   if (prefix == 2) {
//      lcd_data('M');
//   }
//   lcd_data(LCD_CHAR_OMEGA);	//Omega is sign for Ohm 
   DisplayValue(rrx,-1,LCD_CHAR_OMEGA,4);
    16ee:	60 81       	ld	r22, Z
    16f0:	71 81       	ldd	r23, Z+1	; 0x01
    16f2:	82 81       	ldd	r24, Z+2	; 0x02
    16f4:	93 81       	ldd	r25, Z+3	; 0x03
    16f6:	4f ef       	ldi	r20, 0xFF	; 255
    16f8:	24 ef       	ldi	r18, 0xF4	; 244
    16fa:	04 e0       	ldi	r16, 0x04	; 4
    16fc:	0e 94 b5 0a 	call	0x156a	; 0x156a <DisplayValue>
   lcd_data(' ');
    1700:	80 e2       	ldi	r24, 0x20	; 32
    1702:	0e 94 80 00 	call	0x100	; 0x100 <lcd_data>
 }
    1706:	0f 91       	pop	r16
    1708:	08 95       	ret

0000170a <mVAusgabe>:
   lcd_line2(); 				//2. row
   lcd_fix_string(Uf);			//"Uf="
   mVAusgabe(bcdnum >> 4);
   mVAusgabe(bcdnum & 0x0f);
}
void mVAusgabe(uint8_t nn) {
    170a:	0f 93       	push	r16
   if (nn < 3) {
    170c:	83 30       	cpi	r24, 0x03	; 3
    170e:	a0 f4       	brcc	.+40     	; 0x1738 <mVAusgabe+0x2e>
      // Output in mV units
      DisplayValue(diodes[nn].Voltage,-3,'V',3);
    1710:	e8 2f       	mov	r30, r24
    1712:	f0 e0       	ldi	r31, 0x00	; 0
    1714:	ee 0f       	add	r30, r30
    1716:	ff 1f       	adc	r31, r31
    1718:	ee 0f       	add	r30, r30
    171a:	ff 1f       	adc	r31, r31
    171c:	e8 5b       	subi	r30, 0xB8	; 184
    171e:	fe 4f       	sbci	r31, 0xFE	; 254
    1720:	62 81       	ldd	r22, Z+2	; 0x02
    1722:	73 81       	ldd	r23, Z+3	; 0x03
    1724:	80 e0       	ldi	r24, 0x00	; 0
    1726:	90 e0       	ldi	r25, 0x00	; 0
    1728:	4d ef       	ldi	r20, 0xFD	; 253
    172a:	26 e5       	ldi	r18, 0x56	; 86
    172c:	03 e0       	ldi	r16, 0x03	; 3
    172e:	0e 94 b5 0a 	call	0x156a	; 0x156a <DisplayValue>
      lcd_data(' ');
    1732:	80 e2       	ldi	r24, 0x20	; 32
    1734:	0e 94 80 00 	call	0x100	; 0x100 <lcd_data>
   }
}
    1738:	0f 91       	pop	r16
    173a:	08 95       	ret

0000173c <UfAusgabe>:
// output of flux voltage for 1-2 diodes in row 2
// bcdnum = Numbers of both Diodes:
// higher 4 Bit  number of first Diode
// lower 4 Bit  number of second Diode (Structure diodes[nn])
// if number >= 3  no output is done
void UfAusgabe(uint8_t bcdnum) {
    173c:	1f 93       	push	r17
    173e:	18 2f       	mov	r17, r24

   lcd_line2(); 				//2. row
    1740:	80 ec       	ldi	r24, 0xC0	; 192
    1742:	0e 94 7c 00 	call	0xf8	; 0xf8 <lcd_command>
   lcd_fix_string(Uf);			//"Uf="
    1746:	86 e3       	ldi	r24, 0x36	; 54
    1748:	91 e0       	ldi	r25, 0x01	; 1
    174a:	0e 94 dd 00 	call	0x1ba	; 0x1ba <lcd_fix_string>
   mVAusgabe(bcdnum >> 4);
    174e:	81 2f       	mov	r24, r17
    1750:	82 95       	swap	r24
    1752:	8f 70       	andi	r24, 0x0F	; 15
    1754:	0e 94 85 0b 	call	0x170a	; 0x170a <mVAusgabe>
   mVAusgabe(bcdnum & 0x0f);
    1758:	81 2f       	mov	r24, r17
    175a:	8f 70       	andi	r24, 0x0F	; 15
    175c:	0e 94 85 0b 	call	0x170a	; 0x170a <mVAusgabe>
}
    1760:	1f 91       	pop	r17
    1762:	08 95       	ret

00001764 <AutoCheck>:
void AutoCheck(void) {
    1764:	2f 92       	push	r2
    1766:	3f 92       	push	r3
    1768:	4f 92       	push	r4
    176a:	5f 92       	push	r5
    176c:	6f 92       	push	r6
    176e:	7f 92       	push	r7
    1770:	8f 92       	push	r8
    1772:	9f 92       	push	r9
    1774:	af 92       	push	r10
    1776:	bf 92       	push	r11
    1778:	cf 92       	push	r12
    177a:	df 92       	push	r13
    177c:	ef 92       	push	r14
    177e:	ff 92       	push	r15
    1780:	0f 93       	push	r16
    1782:	1f 93       	push	r17
    1784:	df 93       	push	r29
    1786:	cf 93       	push	r28
    1788:	cd b7       	in	r28, 0x3d	; 61
    178a:	de b7       	in	r29, 0x3e	; 62
    178c:	68 97       	sbiw	r28, 0x18	; 24
    178e:	0f b6       	in	r0, 0x3f	; 63
    1790:	f8 94       	cli
    1792:	de bf       	out	0x3e, r29	; 62
    1794:	0f be       	out	0x3f, r0	; 63
    1796:	cd bf       	out	0x3d, r28	; 61
  uint16_t sum_rm=0;	// sum of 3 Pin voltages with 680 Ohm load
  uint16_t u680;	// 3 * (Voltage at 680 Ohm)
  uint16_t pin_rp;
  uint16_t pin_rm;
#endif
  ADC_PORT = TXD_VAL;
    1798:	18 b8       	out	0x08, r1	; 8
  ADC_DDR = TXD_MSK;
    179a:	17 b8       	out	0x07, r1	; 7
  R_PORT = (1<<(TP1*2));		//Pin 1 over RL to +
    179c:	81 e0       	ldi	r24, 0x01	; 1
    179e:	85 b9       	out	0x05, r24	; 5
  R_DDR = (1<<(TP1*2)) | (1<<(TP2*2));	//Pin 2 over RL to -
    17a0:	85 e0       	ldi	r24, 0x05	; 5
    17a2:	84 b9       	out	0x04, r24	; 4
  adcmv[0] = W5msReadADC(PC0);		// voltage at Pin 1
    17a4:	80 e0       	ldi	r24, 0x00	; 0
    17a6:	0e 94 bd 15 	call	0x2b7a	; 0x2b7a <W5msReadADC>
    17aa:	8c 01       	movw	r16, r24
    17ac:	9a 83       	std	Y+2, r25	; 0x02
    17ae:	89 83       	std	Y+1, r24	; 0x01
  adcmv[1] = ReadADC(PC1);		// voltage at Pin 2
    17b0:	81 e0       	ldi	r24, 0x01	; 1
    17b2:	0e 94 bf 15 	call	0x2b7e	; 0x2b7e <ReadADC>
    17b6:	7c 01       	movw	r14, r24
    17b8:	9c 83       	std	Y+4, r25	; 0x04
    17ba:	8b 83       	std	Y+3, r24	; 0x03
  adcmv[2] = ReadADC(PC2);		// voltage at Pin 3
    17bc:	82 e0       	ldi	r24, 0x02	; 2
    17be:	0e 94 bf 15 	call	0x2b7e	; 0x2b7e <ReadADC>
    17c2:	9c 01       	movw	r18, r24
    17c4:	9e 83       	std	Y+6, r25	; 0x06
    17c6:	8d 83       	std	Y+5, r24	; 0x05
  if (abs((int)(adcmv[1] - adcmv[0])) > 20) {
    17c8:	e0 1a       	sub	r14, r16
    17ca:	f1 0a       	sbc	r15, r17
    17cc:	f7 fe       	sbrs	r15, 7
    17ce:	04 c0       	rjmp	.+8      	; 0x17d8 <AutoCheck+0x74>
    17d0:	f0 94       	com	r15
    17d2:	e1 94       	neg	r14
    17d4:	f1 08       	sbc	r15, r1
    17d6:	f3 94       	inc	r15
    17d8:	45 e1       	ldi	r20, 0x15	; 21
    17da:	e4 16       	cp	r14, r20
    17dc:	f1 04       	cpc	r15, r1
    17de:	0c f0       	brlt	.+2      	; 0x17e2 <AutoCheck+0x7e>
    17e0:	bf c4       	rjmp	.+2430   	; 0x2160 <AutoCheck+0x9fc>
     return;				//difference to big, no selftest
  }
  if (abs((int)(adcmv[2] - adcmv[0])) > 20) {
    17e2:	20 1b       	sub	r18, r16
    17e4:	31 0b       	sbc	r19, r17
    17e6:	37 ff       	sbrs	r19, 7
    17e8:	03 c0       	rjmp	.+6      	; 0x17f0 <AutoCheck+0x8c>
    17ea:	30 95       	com	r19
    17ec:	21 95       	neg	r18
    17ee:	3f 4f       	sbci	r19, 0xFF	; 255
    17f0:	25 31       	cpi	r18, 0x15	; 21
    17f2:	31 05       	cpc	r19, r1
    17f4:	0c f0       	brlt	.+2      	; 0x17f8 <AutoCheck+0x94>
    17f6:	b4 c4       	rjmp	.+2408   	; 0x2160 <AutoCheck+0x9fc>
     return;				//difference to big, no selftest
  }
  if (abs((int)(adcmv[0] - (U_VCC/2))) > 30) {
    17f8:	0a 5b       	subi	r16, 0xBA	; 186
    17fa:	19 40       	sbci	r17, 0x09	; 9
    17fc:	17 ff       	sbrs	r17, 7
    17fe:	03 c0       	rjmp	.+6      	; 0x1806 <AutoCheck+0xa2>
    1800:	10 95       	com	r17
    1802:	01 95       	neg	r16
    1804:	1f 4f       	sbci	r17, 0xFF	; 255
    1806:	0f 31       	cpi	r16, 0x1F	; 31
    1808:	11 05       	cpc	r17, r1
    180a:	0c f0       	brlt	.+2      	; 0x180e <AutoCheck+0xaa>
    180c:	a9 c4       	rjmp	.+2386   	; 0x2160 <AutoCheck+0x9fc>
     return;				//difference to big, no selftest
  }
  R_DDR = (1<<(TP1*2)) | (1<<(TP3*2));	//Pin 3 over RL to - (Pin 1 over RL to +)
    180e:	81 e1       	ldi	r24, 0x11	; 17
    1810:	84 b9       	out	0x04, r24	; 4
  adcmv[0] = W5msReadADC(PC0);		// voltage at Pin 1
    1812:	80 e0       	ldi	r24, 0x00	; 0
    1814:	0e 94 bd 15 	call	0x2b7a	; 0x2b7a <W5msReadADC>
    1818:	8c 01       	movw	r16, r24
    181a:	9a 83       	std	Y+2, r25	; 0x02
    181c:	89 83       	std	Y+1, r24	; 0x01
  adcmv[1] = ReadADC(PC1);		// voltage at Pin 2
    181e:	81 e0       	ldi	r24, 0x01	; 1
    1820:	0e 94 bf 15 	call	0x2b7e	; 0x2b7e <ReadADC>
    1824:	7c 01       	movw	r14, r24
    1826:	9c 83       	std	Y+4, r25	; 0x04
    1828:	8b 83       	std	Y+3, r24	; 0x03
  adcmv[2] = ReadADC(PC2);		// voltage at Pin 3
    182a:	82 e0       	ldi	r24, 0x02	; 2
    182c:	0e 94 bf 15 	call	0x2b7e	; 0x2b7e <ReadADC>
    1830:	9c 01       	movw	r18, r24
    1832:	9e 83       	std	Y+6, r25	; 0x06
    1834:	8d 83       	std	Y+5, r24	; 0x05
  if (abs((int)(adcmv[1] - adcmv[0])) > 20) {
    1836:	e0 1a       	sub	r14, r16
    1838:	f1 0a       	sbc	r15, r17
    183a:	f7 fe       	sbrs	r15, 7
    183c:	04 c0       	rjmp	.+8      	; 0x1846 <AutoCheck+0xe2>
    183e:	f0 94       	com	r15
    1840:	e1 94       	neg	r14
    1842:	f1 08       	sbc	r15, r1
    1844:	f3 94       	inc	r15
    1846:	55 e1       	ldi	r21, 0x15	; 21
    1848:	e5 16       	cp	r14, r21
    184a:	f1 04       	cpc	r15, r1
    184c:	0c f0       	brlt	.+2      	; 0x1850 <AutoCheck+0xec>
    184e:	88 c4       	rjmp	.+2320   	; 0x2160 <AutoCheck+0x9fc>
     return;				//difference to big, no selftest
  }
  if (abs((int)(adcmv[2] - adcmv[0])) > 20) {
    1850:	20 1b       	sub	r18, r16
    1852:	31 0b       	sbc	r19, r17
    1854:	37 ff       	sbrs	r19, 7
    1856:	03 c0       	rjmp	.+6      	; 0x185e <AutoCheck+0xfa>
    1858:	30 95       	com	r19
    185a:	21 95       	neg	r18
    185c:	3f 4f       	sbci	r19, 0xFF	; 255
    185e:	25 31       	cpi	r18, 0x15	; 21
    1860:	31 05       	cpc	r19, r1
    1862:	0c f0       	brlt	.+2      	; 0x1866 <AutoCheck+0x102>
    1864:	7d c4       	rjmp	.+2298   	; 0x2160 <AutoCheck+0x9fc>
     return;				//difference to big, no selftest
  }
  if (abs((int)(adcmv[0] - (U_VCC/2))) > 30) {
    1866:	0a 5b       	subi	r16, 0xBA	; 186
    1868:	19 40       	sbci	r17, 0x09	; 9
    186a:	17 ff       	sbrs	r17, 7
    186c:	03 c0       	rjmp	.+6      	; 0x1874 <AutoCheck+0x110>
    186e:	10 95       	com	r17
    1870:	01 95       	neg	r16
    1872:	1f 4f       	sbci	r17, 0xFF	; 255
    1874:	0f 31       	cpi	r16, 0x1F	; 31
    1876:	11 05       	cpc	r17, r1
    1878:	0c f0       	brlt	.+2      	; 0x187c <AutoCheck+0x118>
    187a:	72 c4       	rjmp	.+2276   	; 0x2160 <AutoCheck+0x9fc>
     return;				//difference to big, no selftest
  }
  lcd_clear();
    187c:	0e 94 88 00 	call	0x110	; 0x110 <lcd_clear>
  lcd_line1();
    1880:	80 e8       	ldi	r24, 0x80	; 128
    1882:	0e 94 7c 00 	call	0xf8	; 0xf8 <lcd_command>
  lcd_fix2_string(SELFTEST);		// "Selftest mode.."
    1886:	8c ed       	ldi	r24, 0xDC	; 220
    1888:	90 e0       	ldi	r25, 0x00	; 0
    188a:	0e 94 dd 00 	call	0x1ba	; 0x1ba <lcd_fix_string>
  wait1s();
    188e:	0e 94 96 15 	call	0x2b2c	; 0x2b2c <wait1000ms>
    1892:	80 e0       	ldi	r24, 0x00	; 0
    1894:	90 e0       	ldi	r25, 0x00	; 0
 #define TEST_COUNT 12
#else
 #define TEST_COUNT 10
#endif
 
  for(tt=1;tt<TEST_COUNT;tt++) {		// loop for all Tests
    1896:	11 e0       	ldi	r17, 0x01	; 1
#ifdef AUTO_CAL
  uint16_t sum_c0;	// sum of empty probe C measurement
  uint8_t c0_count;	// counter for accumulated Cap measurements
  uint8_t err_flag=1;	//error flag
  int8_t udiff2;
  uint16_t sum_rm=0;	// sum of 3 Pin voltages with 680 Ohm load
    1898:	18 8a       	std	Y+16, r1	; 0x10
    189a:	1f 86       	std	Y+15, r1	; 0x0f
#define MAX_REP 8

#ifdef AUTO_CAL
  uint16_t sum_c0;	// sum of empty probe C measurement
  uint8_t c0_count;	// counter for accumulated Cap measurements
  uint8_t err_flag=1;	//error flag
    189c:	66 24       	eor	r6, r6
    189e:	63 94       	inc	r6
           lcd_data('1');
           lcd_fix_string(CapZeich);	// "-||-"
           lcd_data('3');
           lcd_fix2_string(MinCap);	// " >100nF"
           PartFound = PART_NONE;
           err_flag = 1;		// C is not found
    18a0:	55 24       	eor	r5, r5
    18a2:	53 94       	inc	r5
    18a4:	0c c4       	rjmp	.+2072   	; 0x20be <AutoCheck+0x95a>
#ifdef AUTO_CAL
     sum_c0 = 0;			//reset sum of capacity measurements
     c0_count = 0;			//counter for capacity measurement
#endif
     for(ww=0;ww<MAX_REP;ww++) {	// repeat the test MAX_REP times
        lcd_line2();			//Cursor to column 1, row 2
    18a6:	80 ec       	ldi	r24, 0xC0	; 192
    18a8:	0e 94 7c 00 	call	0xf8	; 0xf8 <lcd_command>
        lcd_clear_line();		// clear total line
    18ac:	0e 94 ac 0a 	call	0x1558	; 0x1558 <lcd_clear_line>
        lcd_line1();			//Cursor to column 1, row 1
    18b0:	80 e8       	ldi	r24, 0x80	; 128
    18b2:	0e 94 7c 00 	call	0xf8	; 0xf8 <lcd_command>
        lcd_clear_line();		// clear total line
    18b6:	0e 94 ac 0a 	call	0x1558	; 0x1558 <lcd_clear_line>
        lcd_line1();			//Cursor to column 1, row 1
    18ba:	80 e8       	ldi	r24, 0x80	; 128
    18bc:	0e 94 7c 00 	call	0xf8	; 0xf8 <lcd_command>
        lcd_data('T');			//output the Testmode "T"
    18c0:	84 e5       	ldi	r24, 0x54	; 84
    18c2:	0e 94 80 00 	call	0x100	; 0x100 <lcd_data>
        lcd_string(utoa(tt, outval, 10));	//output Test number
    18c6:	8d 89       	ldd	r24, Y+21	; 0x15
    18c8:	9e 89       	ldd	r25, Y+22	; 0x16
    18ca:	6b e0       	ldi	r22, 0x0B	; 11
    18cc:	71 e0       	ldi	r23, 0x01	; 1
    18ce:	4a e0       	ldi	r20, 0x0A	; 10
    18d0:	50 e0       	ldi	r21, 0x00	; 0
    18d2:	0e 94 dc 16 	call	0x2db8	; 0x2db8 <utoa>
    18d6:	0e 94 b9 00 	call	0x172	; 0x172 <lcd_string>
        lcd_data(' ');
    18da:	80 e2       	ldi	r24, 0x20	; 32
    18dc:	0e 94 80 00 	call	0x100	; 0x100 <lcd_data>
                                        //############################################
        if (tt == 1) {   // output of reference voltage and factors for capacity measurement
    18e0:	11 30       	cpi	r17, 0x01	; 1
    18e2:	b9 f5       	brne	.+110    	; 0x1952 <AutoCheck+0x1ee>
           Config.Samples = 190;	// set number of ADC reads near to maximum
    18e4:	8e eb       	ldi	r24, 0xBE	; 190
    18e6:	80 93 64 01 	sts	0x0164, r24
           (void) ReadADC(0x0e);	// read reference voltage 
    18ea:	8e e0       	ldi	r24, 0x0E	; 14
    18ec:	0e 94 bf 15 	call	0x2b7e	; 0x2b7e <ReadADC>
           ref_mv = W5msReadADC(0x0e);	// read reference voltage 
    18f0:	8e e0       	ldi	r24, 0x0E	; 14
    18f2:	0e 94 bd 15 	call	0x2b7a	; 0x2b7a <W5msReadADC>
    18f6:	90 93 2d 01 	sts	0x012D, r25
    18fa:	80 93 2c 01 	sts	0x012C, r24
           lcd_fix2_string(URefT);	//"URef="
    18fe:	8f e6       	ldi	r24, 0x6F	; 111
    1900:	91 e0       	ldi	r25, 0x01	; 1
    1902:	0e 94 dd 00 	call	0x1ba	; 0x1ba <lcd_fix_string>
           lcd_string(utoa(ref_mv, outval, 10));
    1906:	80 91 2c 01 	lds	r24, 0x012C
    190a:	90 91 2d 01 	lds	r25, 0x012D
    190e:	6b e0       	ldi	r22, 0x0B	; 11
    1910:	71 e0       	ldi	r23, 0x01	; 1
    1912:	4a e0       	ldi	r20, 0x0A	; 10
    1914:	50 e0       	ldi	r21, 0x00	; 0
    1916:	0e 94 dc 16 	call	0x2db8	; 0x2db8 <utoa>
    191a:	0e 94 b9 00 	call	0x172	; 0x172 <lcd_string>
           lcd_fix2_string(mVT);		//"mV "
    191e:	8b e6       	ldi	r24, 0x6B	; 107
    1920:	91 e0       	ldi	r25, 0x01	; 1
    1922:	0e 94 dd 00 	call	0x1ba	; 0x1ba <lcd_fix_string>
           lcd_line2();			//Cursor to column 1, row 2
    1926:	80 ec       	ldi	r24, 0xC0	; 192
    1928:	0e 94 7c 00 	call	0xf8	; 0xf8 <lcd_command>
#ifdef WITH_AUTO_REF
           RefVoltage();		//compute RHmultip = f(reference voltage)
    192c:	0e 94 5c 0a 	call	0x14b8	; 0x14b8 <RefVoltage>
#endif
           lcd_fix2_string(RHfakt);	//"RHf="
    1930:	84 e7       	ldi	r24, 0x74	; 116
    1932:	91 e0       	ldi	r25, 0x01	; 1
    1934:	0e 94 dd 00 	call	0x1ba	; 0x1ba <lcd_fix_string>
           lcd_string(utoa(RHmultip, outval, 10));
    1938:	80 91 00 01 	lds	r24, 0x0100
    193c:	90 91 01 01 	lds	r25, 0x0101
    1940:	6b e0       	ldi	r22, 0x0B	; 11
    1942:	71 e0       	ldi	r23, 0x01	; 1
    1944:	4a e0       	ldi	r20, 0x0A	; 10
    1946:	50 e0       	ldi	r21, 0x00	; 0
    1948:	0e 94 dc 16 	call	0x2db8	; 0x2db8 <utoa>
    194c:	0e 94 b9 00 	call	0x172	; 0x172 <lcd_string>
    1950:	71 c3       	rjmp	.+1762   	; 0x2034 <AutoCheck+0x8d0>
        }
                                        //############################################
        if (tt == 2) { // how equal are the RL resistors? 
    1952:	12 30       	cpi	r17, 0x02	; 2
    1954:	09 f5       	brne	.+66     	; 0x1998 <AutoCheck+0x234>
           R_PORT = 1<<(TP1*2);		//RL1 to VCC
    1956:	55 b8       	out	0x05, r5	; 5
           R_DDR = (1<<(TP1*2)) | (1<<(TP2*2));	//RL2 to -
    1958:	85 e0       	ldi	r24, 0x05	; 5
    195a:	84 b9       	out	0x04, r24	; 4
           adcmv[0] = W20msReadADC(TP1);
    195c:	80 e0       	ldi	r24, 0x00	; 0
    195e:	0e 94 b9 15 	call	0x2b72	; 0x2b72 <W20msReadADC>
           adcmv[0] -= ((long)U_VCC * (PIN_RM + R_L_VAL) / (PIN_RM + R_L_VAL + R_L_VAL + PIN_RP));
    1962:	86 5b       	subi	r24, 0xB6	; 182
    1964:	99 40       	sbci	r25, 0x09	; 9
    1966:	9a 83       	std	Y+2, r25	; 0x02
    1968:	89 83       	std	Y+1, r24	; 0x01
           R_DDR = (1<<(TP1*2)) | (1<<(TP3*2));	//RL3 to -
    196a:	81 e1       	ldi	r24, 0x11	; 17
    196c:	84 b9       	out	0x04, r24	; 4
           adcmv[1] = W20msReadADC(TP1);
    196e:	80 e0       	ldi	r24, 0x00	; 0
    1970:	0e 94 b9 15 	call	0x2b72	; 0x2b72 <W20msReadADC>
           adcmv[1] -= ((long)U_VCC * (PIN_RM + R_L_VAL) / (PIN_RM + R_L_VAL + R_L_VAL + PIN_RP));
    1974:	86 5b       	subi	r24, 0xB6	; 182
    1976:	99 40       	sbci	r25, 0x09	; 9
    1978:	9c 83       	std	Y+4, r25	; 0x04
    197a:	8b 83       	std	Y+3, r24	; 0x03
           R_PORT = 1<<(TP2*2);		//RL2 to VCC
    197c:	84 e0       	ldi	r24, 0x04	; 4
    197e:	85 b9       	out	0x05, r24	; 5
           R_DDR = (1<<(TP2*2)) | (1<<(TP3*2));	//RL3 to -
    1980:	84 e1       	ldi	r24, 0x14	; 20
    1982:	84 b9       	out	0x04, r24	; 4
           adcmv[2] = W20msReadADC(TP2);
    1984:	81 e0       	ldi	r24, 0x01	; 1
    1986:	0e 94 b9 15 	call	0x2b72	; 0x2b72 <W20msReadADC>
           adcmv[2] -= ((long)U_VCC * (PIN_RM + R_L_VAL) / (PIN_RM + R_L_VAL + R_L_VAL + PIN_RP));
    198a:	86 5b       	subi	r24, 0xB6	; 182
    198c:	99 40       	sbci	r25, 0x09	; 9
    198e:	9e 83       	std	Y+6, r25	; 0x06
    1990:	8d 83       	std	Y+5, r24	; 0x05
           lcd_fix2_string(RLRL);	// "RLRL"
    1992:	8e e9       	ldi	r24, 0x9E	; 158
    1994:	91 e0       	ldi	r25, 0x01	; 1
    1996:	63 c0       	rjmp	.+198    	; 0x1a5e <AutoCheck+0x2fa>
        }
                                        //############################################
        if (tt == 3) { // how equal are the RH resistors
    1998:	13 30       	cpi	r17, 0x03	; 3
    199a:	09 f5       	brne	.+66     	; 0x19de <AutoCheck+0x27a>
           R_PORT = 2<<(TP1*2);		//RH1 to VCC
    199c:	82 e0       	ldi	r24, 0x02	; 2
    199e:	85 b9       	out	0x05, r24	; 5
           R_DDR = (2<<(TP1*2)) | (2<<(TP2*2));	//RH2 to -
    19a0:	8a e0       	ldi	r24, 0x0A	; 10
    19a2:	84 b9       	out	0x04, r24	; 4
           adcmv[0] = W20msReadADC(TP1);
    19a4:	80 e0       	ldi	r24, 0x00	; 0
    19a6:	0e 94 b9 15 	call	0x2b72	; 0x2b72 <W20msReadADC>
           adcmv[0] -= (U_VCC/2);
    19aa:	8a 5b       	subi	r24, 0xBA	; 186
    19ac:	99 40       	sbci	r25, 0x09	; 9
    19ae:	9a 83       	std	Y+2, r25	; 0x02
    19b0:	89 83       	std	Y+1, r24	; 0x01
           R_DDR = (2<<(TP1*2)) | (2<<(TP3*2));	//RH3 to -
    19b2:	82 e2       	ldi	r24, 0x22	; 34
    19b4:	84 b9       	out	0x04, r24	; 4
           adcmv[1] = W20msReadADC(TP1);
    19b6:	80 e0       	ldi	r24, 0x00	; 0
    19b8:	0e 94 b9 15 	call	0x2b72	; 0x2b72 <W20msReadADC>
           adcmv[1] -= (U_VCC/2);
    19bc:	8a 5b       	subi	r24, 0xBA	; 186
    19be:	99 40       	sbci	r25, 0x09	; 9
    19c0:	9c 83       	std	Y+4, r25	; 0x04
    19c2:	8b 83       	std	Y+3, r24	; 0x03
           R_PORT = 2<<(TP2*2);		//RL2 to VCC
    19c4:	45 b8       	out	0x05, r4	; 5
           R_DDR = (2<<(TP2*2)) | (2<<(TP3*2));	//RH3 to -
    19c6:	88 e2       	ldi	r24, 0x28	; 40
    19c8:	84 b9       	out	0x04, r24	; 4
           adcmv[2] = W20msReadADC(TP2);
    19ca:	81 e0       	ldi	r24, 0x01	; 1
    19cc:	0e 94 b9 15 	call	0x2b72	; 0x2b72 <W20msReadADC>
           adcmv[2] -= (U_VCC/2);
    19d0:	8a 5b       	subi	r24, 0xBA	; 186
    19d2:	99 40       	sbci	r25, 0x09	; 9
    19d4:	9e 83       	std	Y+6, r25	; 0x06
    19d6:	8d 83       	std	Y+5, r24	; 0x05
           lcd_fix2_string(RHRH);	// "RHRH"
    19d8:	8c ea       	ldi	r24, 0xAC	; 172
    19da:	91 e0       	ldi	r25, 0x01	; 1
    19dc:	40 c0       	rjmp	.+128    	; 0x1a5e <AutoCheck+0x2fa>
        }
                                        //############################################
        if (tt == 4) { // Text release probes
    19de:	14 30       	cpi	r17, 0x04	; 4
    19e0:	19 f4       	brne	.+6      	; 0x19e8 <AutoCheck+0x284>
           lcd_fix2_string(RELPROBE);	// "Release Probes"
    19e2:	89 ef       	ldi	r24, 0xF9	; 249
    19e4:	90 e0       	ldi	r25, 0x00	; 0
    19e6:	3b c0       	rjmp	.+118    	; 0x1a5e <AutoCheck+0x2fa>
        }
                                        //############################################
        if (tt == 5) { // can we switch the ADC pins to GND across R_H resistor?
    19e8:	15 30       	cpi	r17, 0x05	; 5
    19ea:	c1 f4       	brne	.+48     	; 0x1a1c <AutoCheck+0x2b8>
           R_PORT = 0;
    19ec:	15 b8       	out	0x05, r1	; 5
           R_DDR = 2<<(TP1*2);		//Pin 1 over R_H to GND
    19ee:	82 e0       	ldi	r24, 0x02	; 2
    19f0:	84 b9       	out	0x04, r24	; 4
           adcmv[0] = W20msReadADC(TP1);
    19f2:	80 e0       	ldi	r24, 0x00	; 0
    19f4:	0e 94 b9 15 	call	0x2b72	; 0x2b72 <W20msReadADC>
    19f8:	9a 83       	std	Y+2, r25	; 0x02
    19fa:	89 83       	std	Y+1, r24	; 0x01

           R_DDR = 2<<(TP2*2);		//Pin 2 over R_H to GND
    19fc:	44 b8       	out	0x04, r4	; 4
           adcmv[1] = W20msReadADC(TP2);
    19fe:	81 e0       	ldi	r24, 0x01	; 1
    1a00:	0e 94 b9 15 	call	0x2b72	; 0x2b72 <W20msReadADC>
    1a04:	9c 83       	std	Y+4, r25	; 0x04
    1a06:	8b 83       	std	Y+3, r24	; 0x03

           R_DDR = 2<<(TP3*2);		//Pin 3 over R_H to GND
    1a08:	80 e2       	ldi	r24, 0x20	; 32
    1a0a:	84 b9       	out	0x04, r24	; 4
           adcmv[2] = W20msReadADC(TP3);
    1a0c:	82 e0       	ldi	r24, 0x02	; 2
    1a0e:	0e 94 b9 15 	call	0x2b72	; 0x2b72 <W20msReadADC>
    1a12:	9e 83       	std	Y+6, r25	; 0x06
    1a14:	8d 83       	std	Y+5, r24	; 0x05
           lcd_fix2_string(RH1L);	// "RH_Lo="
    1a16:	89 e7       	ldi	r24, 0x79	; 121
    1a18:	91 e0       	ldi	r25, 0x01	; 1
    1a1a:	21 c0       	rjmp	.+66     	; 0x1a5e <AutoCheck+0x2fa>
        }
                                        //############################################
        if (tt == 6) { // can we switch the ADC pins to VCC across the R_H resistor?
    1a1c:	16 30       	cpi	r17, 0x06	; 6
    1a1e:	11 f5       	brne	.+68     	; 0x1a64 <AutoCheck+0x300>
           R_DDR = 2<<(TP1*2);		//Pin 1 over R_H to VCC
    1a20:	82 e0       	ldi	r24, 0x02	; 2
    1a22:	84 b9       	out	0x04, r24	; 4
           R_PORT = 2<<(TP1*2);
    1a24:	85 b9       	out	0x05, r24	; 5
           adcmv[0] = W20msReadADC(TP1) - U_VCC;
    1a26:	80 e0       	ldi	r24, 0x00	; 0
    1a28:	0e 94 b9 15 	call	0x2b72	; 0x2b72 <W20msReadADC>
    1a2c:	84 57       	subi	r24, 0x74	; 116
    1a2e:	93 41       	sbci	r25, 0x13	; 19
    1a30:	9a 83       	std	Y+2, r25	; 0x02
    1a32:	89 83       	std	Y+1, r24	; 0x01
           R_DDR = 2<<(TP2*2);		//Pin 2 over R_H to VCC
    1a34:	44 b8       	out	0x04, r4	; 4
           R_PORT = 2<<(TP2*2);
    1a36:	45 b8       	out	0x05, r4	; 5
           adcmv[1] = W20msReadADC(TP2) - U_VCC;
    1a38:	81 e0       	ldi	r24, 0x01	; 1
    1a3a:	0e 94 b9 15 	call	0x2b72	; 0x2b72 <W20msReadADC>
    1a3e:	84 57       	subi	r24, 0x74	; 116
    1a40:	93 41       	sbci	r25, 0x13	; 19
    1a42:	9c 83       	std	Y+4, r25	; 0x04
    1a44:	8b 83       	std	Y+3, r24	; 0x03
           R_DDR = 2<<(TP3*2);		//Pin 3 over R_H to VCC
    1a46:	80 e2       	ldi	r24, 0x20	; 32
    1a48:	84 b9       	out	0x04, r24	; 4
           R_PORT = 2<<(TP3*2);
    1a4a:	85 b9       	out	0x05, r24	; 5
           adcmv[2] = W20msReadADC(TP3) - U_VCC;
    1a4c:	82 e0       	ldi	r24, 0x02	; 2
    1a4e:	0e 94 b9 15 	call	0x2b72	; 0x2b72 <W20msReadADC>
    1a52:	84 57       	subi	r24, 0x74	; 116
    1a54:	93 41       	sbci	r25, 0x13	; 19
    1a56:	9e 83       	std	Y+6, r25	; 0x06
    1a58:	8d 83       	std	Y+5, r24	; 0x05
           lcd_fix2_string(RH1H);	// "RH_Hi="
    1a5a:	8d e7       	ldi	r24, 0x7D	; 125
    1a5c:	91 e0       	ldi	r25, 0x01	; 1
    1a5e:	0e 94 dd 00 	call	0x1ba	; 0x1ba <lcd_fix_string>
    1a62:	e8 c2       	rjmp	.+1488   	; 0x2034 <AutoCheck+0x8d0>
        }
                                        //############################################
        if (tt == 7) { // measurement of internal resistance of the ADC port outputs switched to GND
    1a64:	17 30       	cpi	r17, 0x07	; 7
    1a66:	b9 f5       	brne	.+110    	; 0x1ad6 <AutoCheck+0x372>
           ADC_DDR = 1<<TP1 | TXD_MSK;	//ADC-Pin  1 to output 0V
    1a68:	57 b8       	out	0x07, r5	; 7
           R_PORT = 1<<(TP1*2);		//R_L-PORT 1 to VCC
    1a6a:	55 b8       	out	0x05, r5	; 5
           R_DDR = 1<<(TP1*2);		//Pin 1 to output and over R_L to VCC
    1a6c:	54 b8       	out	0x04, r5	; 4
           adcmv[0] = W5msReadADC(TP1);
    1a6e:	80 e0       	ldi	r24, 0x00	; 0
    1a70:	0e 94 bd 15 	call	0x2b7a	; 0x2b7a <W5msReadADC>
    1a74:	3c 01       	movw	r6, r24
    1a76:	9a 83       	std	Y+2, r25	; 0x02
    1a78:	89 83       	std	Y+1, r24	; 0x01

           ADC_DDR = 1<<TP2 | TXD_MSK;	//ADC-Pin 2 to output 0V
    1a7a:	82 e0       	ldi	r24, 0x02	; 2
    1a7c:	87 b9       	out	0x07, r24	; 7
           R_PORT =  1<<(TP2*2);	//R_L-PORT 2 to VCC
    1a7e:	04 e0       	ldi	r16, 0x04	; 4
    1a80:	05 b9       	out	0x05, r16	; 5
           R_DDR = 1<<(TP2*2);		//Pin 2 to output and over R_L to VCC
    1a82:	04 b9       	out	0x04, r16	; 4
           adcmv[1] = W5msReadADC(TP2);
    1a84:	81 e0       	ldi	r24, 0x01	; 1
    1a86:	0e 94 bd 15 	call	0x2b7a	; 0x2b7a <W5msReadADC>
    1a8a:	4c 01       	movw	r8, r24
    1a8c:	9c 83       	std	Y+4, r25	; 0x04
    1a8e:	8b 83       	std	Y+3, r24	; 0x03

           ADC_DDR = 1<<TP3 | TXD_MSK;	//ADC-Pin 3 to output 0V
    1a90:	07 b9       	out	0x07, r16	; 7
           R_PORT =  1<<(TP3*2);	//R_L-PORT 3 to VCC
    1a92:	80 e1       	ldi	r24, 0x10	; 16
    1a94:	85 b9       	out	0x05, r24	; 5
           R_DDR = 1<<(TP3*2);		//Pin 3 to output and over R_L to VCC
    1a96:	84 b9       	out	0x04, r24	; 4
           adcmv[2] = W5msReadADC(TP3);
    1a98:	82 e0       	ldi	r24, 0x02	; 2
    1a9a:	0e 94 bd 15 	call	0x2b7a	; 0x2b7a <W5msReadADC>
    1a9e:	1c 01       	movw	r2, r24
    1aa0:	9e 83       	std	Y+6, r25	; 0x06
    1aa2:	8d 83       	std	Y+5, r24	; 0x05
           lcd_fix2_string(RILO);	// "RiLo="
    1aa4:	88 e8       	ldi	r24, 0x88	; 136
    1aa6:	91 e0       	ldi	r25, 0x01	; 1
    1aa8:	0e 94 dd 00 	call	0x1ba	; 0x1ba <lcd_fix_string>
#ifdef AUTO_CAL
           err_flag = 1;		// set to not finished
           sum_c0 += adcmv[0] + adcmv[1] + adcmv[2]; //add all three values
    1aac:	86 0c       	add	r8, r6
    1aae:	97 1c       	adc	r9, r7
    1ab0:	82 0c       	add	r8, r2
    1ab2:	93 1c       	adc	r9, r3
    1ab4:	e8 0c       	add	r14, r8
    1ab6:	f9 1c       	adc	r15, r9
           c0_count += 3;
    1ab8:	83 e0       	ldi	r24, 0x03	; 3
    1aba:	c8 0e       	add	r12, r24
           if (c0_count == (MAX_REP*3)) {
    1abc:	ec 2d       	mov	r30, r12
    1abe:	e8 31       	cpi	r30, 0x18	; 24
    1ac0:	09 f0       	breq	.+2      	; 0x1ac4 <AutoCheck+0x360>
    1ac2:	47 c3       	rjmp	.+1678   	; 0x2152 <AutoCheck+0x9ee>
              //last repetition of measurement
              sum_c0 /= MAX_REP;
    1ac4:	e3 e0       	ldi	r30, 0x03	; 3
    1ac6:	f6 94       	lsr	r15
    1ac8:	e7 94       	ror	r14
    1aca:	ea 95       	dec	r30
    1acc:	e1 f7       	brne	.-8      	; 0x1ac6 <AutoCheck+0x362>
              sum_rm = sum_c0;		// sum of 3 Pin voltages switched to GND
    1ace:	f8 8a       	std	Y+16, r15	; 0x10
    1ad0:	ef 86       	std	Y+15, r14	; 0x0f
              err_flag = 0;		// clear not finished flag
    1ad2:	66 24       	eor	r6, r6
    1ad4:	af c2       	rjmp	.+1374   	; 0x2034 <AutoCheck+0x8d0>
           }
#endif
        }
                                        //############################################
        if (tt == 8) { // measurement of internal resistance of the ADC port output switched to VCC
    1ad6:	18 30       	cpi	r17, 0x08	; 8
    1ad8:	09 f0       	breq	.+2      	; 0x1adc <AutoCheck+0x378>
    1ada:	9e c0       	rjmp	.+316    	; 0x1c18 <AutoCheck+0x4b4>
           R_PORT = 0;			// R-Ports to GND
    1adc:	15 b8       	out	0x05, r1	; 5
           ADC_PORT = 1<<TP1 | TXD_VAL;	//ADC-Port 1 to VCC
    1ade:	58 b8       	out	0x08, r5	; 8
           ADC_DDR = 1<<TP1 | TXD_MSK;	//ADC-Pin  1 to output 0V
    1ae0:	57 b8       	out	0x07, r5	; 7
           R_DDR = 1<<(TP1*2);		//Pin 1 to output and over R_L to GND
    1ae2:	54 b8       	out	0x04, r5	; 4
           adcmv[0] = U_VCC - W5msReadADC(TP1);
    1ae4:	80 e0       	ldi	r24, 0x00	; 0
    1ae6:	0e 94 bd 15 	call	0x2b7a	; 0x2b7a <W5msReadADC>
    1aea:	74 e7       	ldi	r23, 0x74	; 116
    1aec:	27 2e       	mov	r2, r23
    1aee:	73 e1       	ldi	r23, 0x13	; 19
    1af0:	37 2e       	mov	r3, r23
    1af2:	28 1a       	sub	r2, r24
    1af4:	39 0a       	sbc	r3, r25
    1af6:	3a 82       	std	Y+2, r3	; 0x02
    1af8:	29 82       	std	Y+1, r2	; 0x01
      
           ADC_PORT = 1<<TP2 | TXD_VAL;	//ADC-Port 2 to VCC
    1afa:	82 e0       	ldi	r24, 0x02	; 2
    1afc:	88 b9       	out	0x08, r24	; 8
           ADC_DDR = 1<<TP2 | TXD_MSK;	//ADC-Pin  2 to output 0V
    1afe:	87 b9       	out	0x07, r24	; 7
           R_DDR = 1<<(TP2*2);		//Pin 2 to output and over R_L to GND
    1b00:	04 e0       	ldi	r16, 0x04	; 4
    1b02:	04 b9       	out	0x04, r16	; 4
           adcmv[1] = U_VCC - W5msReadADC(TP2);
    1b04:	81 e0       	ldi	r24, 0x01	; 1
    1b06:	0e 94 bd 15 	call	0x2b7a	; 0x2b7a <W5msReadADC>
    1b0a:	64 e7       	ldi	r22, 0x74	; 116
    1b0c:	86 2e       	mov	r8, r22
    1b0e:	63 e1       	ldi	r22, 0x13	; 19
    1b10:	96 2e       	mov	r9, r22
    1b12:	88 1a       	sub	r8, r24
    1b14:	99 0a       	sbc	r9, r25
    1b16:	9c 82       	std	Y+4, r9	; 0x04
    1b18:	8b 82       	std	Y+3, r8	; 0x03

           ADC_PORT = 1<<TP3 | TXD_VAL;	//ADC-Port 3 to VCC
    1b1a:	08 b9       	out	0x08, r16	; 8
           ADC_DDR = 1<<TP3 | TXD_MSK;	//ADC-Pin  3 to output 0V
    1b1c:	07 b9       	out	0x07, r16	; 7
           R_DDR = 1<<(TP3*2);		//Pin 3 to output and over R_L to GND
    1b1e:	80 e1       	ldi	r24, 0x10	; 16
    1b20:	84 b9       	out	0x04, r24	; 4
           adcmv[2] = U_VCC - W5msReadADC(TP3);
    1b22:	82 e0       	ldi	r24, 0x02	; 2
    1b24:	0e 94 bd 15 	call	0x2b7a	; 0x2b7a <W5msReadADC>
    1b28:	24 e7       	ldi	r18, 0x74	; 116
    1b2a:	33 e1       	ldi	r19, 0x13	; 19
    1b2c:	28 1b       	sub	r18, r24
    1b2e:	39 0b       	sbc	r19, r25
    1b30:	3e 83       	std	Y+6, r19	; 0x06
    1b32:	2d 83       	std	Y+5, r18	; 0x05

           lcd_fix2_string(RIHI);	// "RiHi="
    1b34:	81 e8       	ldi	r24, 0x81	; 129
    1b36:	91 e0       	ldi	r25, 0x01	; 1
    1b38:	28 8f       	std	Y+24, r18	; 0x18
    1b3a:	3f 8b       	std	Y+23, r19	; 0x17
    1b3c:	0e 94 dd 00 	call	0x1ba	; 0x1ba <lcd_fix_string>
#ifdef AUTO_CAL
           sum_c0 += adcmv[0] + adcmv[1] + adcmv[2];
    1b40:	82 0c       	add	r8, r2
    1b42:	93 1c       	adc	r9, r3
    1b44:	28 8d       	ldd	r18, Y+24	; 0x18
    1b46:	3f 89       	ldd	r19, Y+23	; 0x17
    1b48:	82 0e       	add	r8, r18
    1b4a:	93 1e       	adc	r9, r19
    1b4c:	e8 0c       	add	r14, r8
    1b4e:	f9 1c       	adc	r15, r9
           c0_count += 3;
    1b50:	f3 e0       	ldi	r31, 0x03	; 3
    1b52:	cf 0e       	add	r12, r31
           if ((err_flag == 0) && (c0_count == (MAX_REP*3))) {
    1b54:	66 20       	and	r6, r6
    1b56:	09 f0       	breq	.+2      	; 0x1b5a <AutoCheck+0x3f6>
    1b58:	6d c2       	rjmp	.+1242   	; 0x2034 <AutoCheck+0x8d0>
    1b5a:	2c 2d       	mov	r18, r12
    1b5c:	28 31       	cpi	r18, 0x18	; 24
    1b5e:	09 f0       	breq	.+2      	; 0x1b62 <AutoCheck+0x3fe>
    1b60:	69 c2       	rjmp	.+1234   	; 0x2034 <AutoCheck+0x8d0>
              //last repetition of measurement
              sum_c0 /= MAX_REP;		// sum of 3 Pin voltages switched to VCC
    1b62:	53 e0       	ldi	r21, 0x03	; 3
    1b64:	f6 94       	lsr	r15
    1b66:	e7 94       	ror	r14
    1b68:	5a 95       	dec	r21
    1b6a:	e1 f7       	brne	.-8      	; 0x1b64 <AutoCheck+0x400>
              u680 = ((U_VCC * 3) - sum_rm - sum_c0);	//three times the voltage at the 680 Ohm
    1b6c:	8f 85       	ldd	r24, Y+15	; 0x0f
    1b6e:	98 89       	ldd	r25, Y+16	; 0x10
    1b70:	90 95       	com	r25
    1b72:	81 95       	neg	r24
    1b74:	9f 4f       	sbci	r25, 0xFF	; 255
    1b76:	84 5a       	subi	r24, 0xA4	; 164
    1b78:	95 4c       	sbci	r25, 0xC5	; 197
    1b7a:	8e 19       	sub	r24, r14
    1b7c:	9f 09       	sbc	r25, r15
              pin_rm = (unsigned long)((unsigned long)sum_rm * (unsigned long)R_L_VAL) / (unsigned long)u680;
    1b7e:	9c 01       	movw	r18, r24
    1b80:	40 e0       	ldi	r20, 0x00	; 0
    1b82:	50 e0       	ldi	r21, 0x00	; 0
    1b84:	29 8b       	std	Y+17, r18	; 0x11
    1b86:	3a 8b       	std	Y+18, r19	; 0x12
    1b88:	4b 8b       	std	Y+19, r20	; 0x13
    1b8a:	5c 8b       	std	Y+20, r21	; 0x14
    1b8c:	4f 85       	ldd	r20, Y+15	; 0x0f
    1b8e:	58 89       	ldd	r21, Y+16	; 0x10
    1b90:	ba 01       	movw	r22, r20
    1b92:	80 e0       	ldi	r24, 0x00	; 0
    1b94:	90 e0       	ldi	r25, 0x00	; 0
    1b96:	20 e9       	ldi	r18, 0x90	; 144
    1b98:	3a e1       	ldi	r19, 0x1A	; 26
    1b9a:	40 e0       	ldi	r20, 0x00	; 0
    1b9c:	50 e0       	ldi	r21, 0x00	; 0
    1b9e:	0e 94 2c 16 	call	0x2c58	; 0x2c58 <__mulsi3>
    1ba2:	29 89       	ldd	r18, Y+17	; 0x11
    1ba4:	3a 89       	ldd	r19, Y+18	; 0x12
    1ba6:	4b 89       	ldd	r20, Y+19	; 0x13
    1ba8:	5c 89       	ldd	r21, Y+20	; 0x14
    1baa:	0e 94 7e 16 	call	0x2cfc	; 0x2cfc <__udivmodsi4>
    1bae:	19 01       	movw	r2, r18
              adcmv[2] = pin_rm;	// for last output in row 2
    1bb0:	3e 83       	std	Y+6, r19	; 0x06
    1bb2:	2d 83       	std	Y+5, r18	; 0x05
              pin_rp = (unsigned long)((unsigned long)sum_c0 * (unsigned long)R_L_VAL) / (unsigned long)u680;
    1bb4:	b7 01       	movw	r22, r14
    1bb6:	80 e0       	ldi	r24, 0x00	; 0
    1bb8:	90 e0       	ldi	r25, 0x00	; 0
    1bba:	20 e9       	ldi	r18, 0x90	; 144
    1bbc:	3a e1       	ldi	r19, 0x1A	; 26
    1bbe:	40 e0       	ldi	r20, 0x00	; 0
    1bc0:	50 e0       	ldi	r21, 0x00	; 0
    1bc2:	0e 94 2c 16 	call	0x2c58	; 0x2c58 <__mulsi3>
    1bc6:	29 89       	ldd	r18, Y+17	; 0x11
    1bc8:	3a 89       	ldd	r19, Y+18	; 0x12
    1bca:	4b 89       	ldd	r20, Y+19	; 0x13
    1bcc:	5c 89       	ldd	r21, Y+20	; 0x14
    1bce:	0e 94 7e 16 	call	0x2cfc	; 0x2cfc <__udivmodsi4>
    1bd2:	49 01       	movw	r8, r18
              if ((pin_rp < 280) && (pin_rm < 250)) {
    1bd4:	58 e1       	ldi	r21, 0x18	; 24
    1bd6:	85 16       	cp	r8, r21
    1bd8:	51 e0       	ldi	r21, 0x01	; 1
    1bda:	95 06       	cpc	r9, r21
    1bdc:	08 f0       	brcs	.+2      	; 0x1be0 <AutoCheck+0x47c>
    1bde:	2a c2       	rjmp	.+1108   	; 0x2034 <AutoCheck+0x8d0>
    1be0:	8a ef       	ldi	r24, 0xFA	; 250
    1be2:	28 16       	cp	r2, r24
    1be4:	31 04       	cpc	r3, r1
    1be6:	08 f0       	brcs	.+2      	; 0x1bea <AutoCheck+0x486>
    1be8:	25 c2       	rjmp	.+1098   	; 0x2034 <AutoCheck+0x8d0>
                 // rp is below 28 Ohm and rm is below 25 Ohm
//                 lcd_string(utoa(pin_rp, outval, 10));	//write value to LCD
                 DisplayValue(pin_rp,-1,LCD_CHAR_OMEGA,3);
    1bea:	b4 01       	movw	r22, r8
    1bec:	80 e0       	ldi	r24, 0x00	; 0
    1bee:	90 e0       	ldi	r25, 0x00	; 0
    1bf0:	4f ef       	ldi	r20, 0xFF	; 255
    1bf2:	24 ef       	ldi	r18, 0xF4	; 244
    1bf4:	03 e0       	ldi	r16, 0x03	; 3
    1bf6:	0e 94 b5 0a 	call	0x156a	; 0x156a <DisplayValue>
                 (void) eeprom_write_word((uint16_t *)(&R680pl), pin_rp+R_L_VAL);  //hold VCC resistance value in EEprom
    1bfa:	b4 01       	movw	r22, r8
    1bfc:	60 57       	subi	r22, 0x70	; 112
    1bfe:	75 4e       	sbci	r23, 0xE5	; 229
    1c00:	8e ee       	ldi	r24, 0xEE	; 238
    1c02:	91 e0       	ldi	r25, 0x01	; 1
    1c04:	0e 94 0e 17 	call	0x2e1c	; 0x2e1c <__eewr_word_m328p>
                 (void) eeprom_write_word((uint16_t *)(&R680mi), pin_rm+R_L_VAL);  //hold GND resistance value in EEprom
    1c08:	b1 01       	movw	r22, r2
    1c0a:	60 57       	subi	r22, 0x70	; 112
    1c0c:	75 4e       	sbci	r23, 0xE5	; 229
    1c0e:	80 ef       	ldi	r24, 0xF0	; 240
    1c10:	91 e0       	ldi	r25, 0x01	; 1
    1c12:	0e 94 0e 17 	call	0x2e1c	; 0x2e1c <__eewr_word_m328p>
    1c16:	0e c2       	rjmp	.+1052   	; 0x2034 <AutoCheck+0x8d0>
           }
#endif
        }
#ifdef C_MESS
                                        //############################################
        if (tt == 9) {			//measure Zero offset for Capacity measurement
    1c18:	19 30       	cpi	r17, 0x09	; 9
    1c1a:	09 f0       	breq	.+2      	; 0x1c1e <AutoCheck+0x4ba>
    1c1c:	da c0       	rjmp	.+436    	; 0x1dd2 <AutoCheck+0x66e>
 #ifdef AUTO_CAL
           if (ww == 0) { //first step of loop
    1c1e:	aa 20       	and	r10, r10
    1c20:	81 f4       	brne	.+32     	; 0x1c42 <AutoCheck+0x4de>
              // clear all sum
              for (c0_count=0;c0_count<7;c0_count++) adcmv[c0_count] = 0;
    1c22:	1a 82       	std	Y+2, r1	; 0x02
    1c24:	19 82       	std	Y+1, r1	; 0x01
    1c26:	1c 82       	std	Y+4, r1	; 0x04
    1c28:	1b 82       	std	Y+3, r1	; 0x03
    1c2a:	1e 82       	std	Y+6, r1	; 0x06
    1c2c:	1d 82       	std	Y+5, r1	; 0x05
    1c2e:	18 86       	std	Y+8, r1	; 0x08
    1c30:	1f 82       	std	Y+7, r1	; 0x07
    1c32:	1a 86       	std	Y+10, r1	; 0x0a
    1c34:	19 86       	std	Y+9, r1	; 0x09
    1c36:	1c 86       	std	Y+12, r1	; 0x0c
    1c38:	1b 86       	std	Y+11, r1	; 0x0b
    1c3a:	1e 86       	std	Y+14, r1	; 0x0e
    1c3c:	1d 86       	std	Y+13, r1	; 0x0d
    1c3e:	47 e0       	ldi	r20, 0x07	; 7
    1c40:	c4 2e       	mov	r12, r20
           }
           PartFound = PART_NONE;
    1c42:	10 92 07 01 	sts	0x0107, r1
           ReadCapacity(TP3, TP1);
    1c46:	82 e0       	ldi	r24, 0x02	; 2
    1c48:	60 e0       	ldi	r22, 0x00	; 0
    1c4a:	0e 94 54 08 	call	0x10a8	; 0x10a8 <ReadCapacity>
           if (cval_uncorrected > 70) break;
    1c4e:	80 91 3f 01 	lds	r24, 0x013F
    1c52:	90 91 40 01 	lds	r25, 0x0140
    1c56:	a0 91 41 01 	lds	r26, 0x0141
    1c5a:	b0 91 42 01 	lds	r27, 0x0142
    1c5e:	87 34       	cpi	r24, 0x47	; 71
    1c60:	91 05       	cpc	r25, r1
    1c62:	a1 05       	cpc	r26, r1
    1c64:	b1 05       	cpc	r27, r1
    1c66:	08 f0       	brcs	.+2      	; 0x1c6a <AutoCheck+0x506>
    1c68:	23 c2       	rjmp	.+1094   	; 0x20b0 <AutoCheck+0x94c>
           adcmv[5] += (unsigned char) cval_uncorrected;	//save capacity value of empty Pin 1:3
    1c6a:	2b 85       	ldd	r18, Y+11	; 0x0b
    1c6c:	3c 85       	ldd	r19, Y+12	; 0x0c
    1c6e:	28 0f       	add	r18, r24
    1c70:	31 1d       	adc	r19, r1
    1c72:	3c 87       	std	Y+12, r19	; 0x0c
    1c74:	2b 87       	std	Y+11, r18	; 0x0b
           ReadCapacity(TP3, TP2);
    1c76:	82 e0       	ldi	r24, 0x02	; 2
    1c78:	61 e0       	ldi	r22, 0x01	; 1
    1c7a:	0e 94 54 08 	call	0x10a8	; 0x10a8 <ReadCapacity>
           if (cval_uncorrected > 70) break;
    1c7e:	80 91 3f 01 	lds	r24, 0x013F
    1c82:	90 91 40 01 	lds	r25, 0x0140
    1c86:	a0 91 41 01 	lds	r26, 0x0141
    1c8a:	b0 91 42 01 	lds	r27, 0x0142
    1c8e:	87 34       	cpi	r24, 0x47	; 71
    1c90:	91 05       	cpc	r25, r1
    1c92:	a1 05       	cpc	r26, r1
    1c94:	b1 05       	cpc	r27, r1
    1c96:	08 f0       	brcs	.+2      	; 0x1c9a <AutoCheck+0x536>
    1c98:	0b c2       	rjmp	.+1046   	; 0x20b0 <AutoCheck+0x94c>
           adcmv[6] += (unsigned char) cval_uncorrected;	//save capacity value of empty Pin 2:3
    1c9a:	2d 85       	ldd	r18, Y+13	; 0x0d
    1c9c:	3e 85       	ldd	r19, Y+14	; 0x0e
    1c9e:	28 0f       	add	r18, r24
    1ca0:	31 1d       	adc	r19, r1
    1ca2:	3e 87       	std	Y+14, r19	; 0x0e
    1ca4:	2d 87       	std	Y+13, r18	; 0x0d
           ReadCapacity(TP2, TP1);
    1ca6:	81 e0       	ldi	r24, 0x01	; 1
    1ca8:	60 e0       	ldi	r22, 0x00	; 0
    1caa:	0e 94 54 08 	call	0x10a8	; 0x10a8 <ReadCapacity>
           if (cval_uncorrected > 70) break;
    1cae:	80 91 3f 01 	lds	r24, 0x013F
    1cb2:	90 91 40 01 	lds	r25, 0x0140
    1cb6:	a0 91 41 01 	lds	r26, 0x0141
    1cba:	b0 91 42 01 	lds	r27, 0x0142
    1cbe:	87 34       	cpi	r24, 0x47	; 71
    1cc0:	91 05       	cpc	r25, r1
    1cc2:	a1 05       	cpc	r26, r1
    1cc4:	b1 05       	cpc	r27, r1
    1cc6:	08 f0       	brcs	.+2      	; 0x1cca <AutoCheck+0x566>
    1cc8:	f3 c1       	rjmp	.+998    	; 0x20b0 <AutoCheck+0x94c>
           adcmv[2] += (unsigned char) cval_uncorrected;	//save capacity value of empty Pin 1:2
    1cca:	2d 81       	ldd	r18, Y+5	; 0x05
    1ccc:	3e 81       	ldd	r19, Y+6	; 0x06
    1cce:	28 0f       	add	r18, r24
    1cd0:	31 1d       	adc	r19, r1
    1cd2:	3e 83       	std	Y+6, r19	; 0x06
    1cd4:	2d 83       	std	Y+5, r18	; 0x05
           ReadCapacity(TP1, TP3);
    1cd6:	80 e0       	ldi	r24, 0x00	; 0
    1cd8:	62 e0       	ldi	r22, 0x02	; 2
    1cda:	0e 94 54 08 	call	0x10a8	; 0x10a8 <ReadCapacity>
           if (cval_uncorrected > 70) break;
    1cde:	80 91 3f 01 	lds	r24, 0x013F
    1ce2:	90 91 40 01 	lds	r25, 0x0140
    1ce6:	a0 91 41 01 	lds	r26, 0x0141
    1cea:	b0 91 42 01 	lds	r27, 0x0142
    1cee:	87 34       	cpi	r24, 0x47	; 71
    1cf0:	91 05       	cpc	r25, r1
    1cf2:	a1 05       	cpc	r26, r1
    1cf4:	b1 05       	cpc	r27, r1
    1cf6:	08 f0       	brcs	.+2      	; 0x1cfa <AutoCheck+0x596>
    1cf8:	db c1       	rjmp	.+950    	; 0x20b0 <AutoCheck+0x94c>
           adcmv[1] += (unsigned char) cval_uncorrected;	//save capacity value of empty Pin 3:1
    1cfa:	2b 81       	ldd	r18, Y+3	; 0x03
    1cfc:	3c 81       	ldd	r19, Y+4	; 0x04
    1cfe:	28 0f       	add	r18, r24
    1d00:	31 1d       	adc	r19, r1
    1d02:	3c 83       	std	Y+4, r19	; 0x04
    1d04:	2b 83       	std	Y+3, r18	; 0x03
           ReadCapacity(TP2, TP3);
    1d06:	81 e0       	ldi	r24, 0x01	; 1
    1d08:	62 e0       	ldi	r22, 0x02	; 2
    1d0a:	0e 94 54 08 	call	0x10a8	; 0x10a8 <ReadCapacity>
           if (cval_uncorrected > 70) break;
    1d0e:	80 91 3f 01 	lds	r24, 0x013F
    1d12:	90 91 40 01 	lds	r25, 0x0140
    1d16:	a0 91 41 01 	lds	r26, 0x0141
    1d1a:	b0 91 42 01 	lds	r27, 0x0142
    1d1e:	87 34       	cpi	r24, 0x47	; 71
    1d20:	91 05       	cpc	r25, r1
    1d22:	a1 05       	cpc	r26, r1
    1d24:	b1 05       	cpc	r27, r1
    1d26:	08 f0       	brcs	.+2      	; 0x1d2a <AutoCheck+0x5c6>
    1d28:	c3 c1       	rjmp	.+902    	; 0x20b0 <AutoCheck+0x94c>
           adcmv[4] += (unsigned char) cval_uncorrected;	//save capacity value of empty Pin 3:2
    1d2a:	29 85       	ldd	r18, Y+9	; 0x09
    1d2c:	3a 85       	ldd	r19, Y+10	; 0x0a
    1d2e:	28 0f       	add	r18, r24
    1d30:	31 1d       	adc	r19, r1
    1d32:	3a 87       	std	Y+10, r19	; 0x0a
    1d34:	29 87       	std	Y+9, r18	; 0x09
           ReadCapacity(TP1, TP2);
    1d36:	80 e0       	ldi	r24, 0x00	; 0
    1d38:	61 e0       	ldi	r22, 0x01	; 1
    1d3a:	0e 94 54 08 	call	0x10a8	; 0x10a8 <ReadCapacity>
           if (cval_uncorrected > 70) break;
    1d3e:	80 91 3f 01 	lds	r24, 0x013F
    1d42:	90 91 40 01 	lds	r25, 0x0140
    1d46:	a0 91 41 01 	lds	r26, 0x0141
    1d4a:	b0 91 42 01 	lds	r27, 0x0142
    1d4e:	87 34       	cpi	r24, 0x47	; 71
    1d50:	91 05       	cpc	r25, r1
    1d52:	a1 05       	cpc	r26, r1
    1d54:	b1 05       	cpc	r27, r1
    1d56:	08 f0       	brcs	.+2      	; 0x1d5a <AutoCheck+0x5f6>
    1d58:	ab c1       	rjmp	.+854    	; 0x20b0 <AutoCheck+0x94c>
           adcmv[0] += (unsigned char) cval_uncorrected;	//save capacity value of empty Pin 2:1
    1d5a:	29 81       	ldd	r18, Y+1	; 0x01
    1d5c:	3a 81       	ldd	r19, Y+2	; 0x02
    1d5e:	28 0f       	add	r18, r24
    1d60:	31 1d       	adc	r19, r1
    1d62:	3a 83       	std	Y+2, r19	; 0x02
    1d64:	29 83       	std	Y+1, r18	; 0x01
           if (ww == (MAX_REP - 1)) {
    1d66:	ea 2d       	mov	r30, r10
    1d68:	e7 30       	cpi	r30, 0x07	; 7
    1d6a:	51 f5       	brne	.+84     	; 0x1dc0 <AutoCheck+0x65c>
    1d6c:	6e 01       	movw	r12, r28
    1d6e:	08 94       	sec
    1d70:	c1 1c       	adc	r12, r1
    1d72:	d1 1c       	adc	r13, r1
    1d74:	88 24       	eor	r8, r8
    1d76:	99 24       	eor	r9, r9
    1d78:	81 2f       	mov	r24, r17
    1d7a:	86 01       	movw	r16, r12
    1d7c:	c8 2e       	mov	r12, r24
              for (c0_count=0;c0_count<7;c0_count++) {
                 adcmv[c0_count] /= MAX_REP;
    1d7e:	f8 01       	movw	r30, r16
    1d80:	80 81       	ld	r24, Z
    1d82:	91 81       	ldd	r25, Z+1	; 0x01
    1d84:	68 e0       	ldi	r22, 0x08	; 8
    1d86:	70 e0       	ldi	r23, 0x00	; 0
    1d88:	0e 94 6b 16 	call	0x2cd6	; 0x2cd6 <__divmodhi4>
    1d8c:	60 83       	st	Z, r22
    1d8e:	71 83       	std	Z+1, r23	; 0x01
    1d90:	0e 5f       	subi	r16, 0xFE	; 254
    1d92:	1f 4f       	sbci	r17, 0xFF	; 255
                 // write all zero offsets to the EEprom 
                 (void) eeprom_write_byte((uint8_t *)(&c_zero_tab[c0_count]),adcmv[c0_count]+(COMP_SLEW1 / (CC0 + CABLE_CAP + COMP_SLEW2)));
    1d94:	6e 5e       	subi	r22, 0xEE	; 238
    1d96:	c4 01       	movw	r24, r8
    1d98:	84 50       	subi	r24, 0x04	; 4
    1d9a:	9e 4f       	sbci	r25, 0xFE	; 254
    1d9c:	0e 94 00 17 	call	0x2e00	; 0x2e00 <__eewr_byte_m328p>
    1da0:	08 94       	sec
    1da2:	81 1c       	adc	r8, r1
    1da4:	91 1c       	adc	r9, r1
           adcmv[4] += (unsigned char) cval_uncorrected;	//save capacity value of empty Pin 3:2
           ReadCapacity(TP1, TP2);
           if (cval_uncorrected > 70) break;
           adcmv[0] += (unsigned char) cval_uncorrected;	//save capacity value of empty Pin 2:1
           if (ww == (MAX_REP - 1)) {
              for (c0_count=0;c0_count<7;c0_count++) {
    1da6:	f7 e0       	ldi	r31, 0x07	; 7
    1da8:	8f 16       	cp	r8, r31
    1daa:	91 04       	cpc	r9, r1
    1dac:	41 f7       	brne	.-48     	; 0x1d7e <AutoCheck+0x61a>
    1dae:	1c 2d       	mov	r17, r12
                 adcmv[c0_count] /= MAX_REP;
                 // write all zero offsets to the EEprom 
                 (void) eeprom_write_byte((uint8_t *)(&c_zero_tab[c0_count]),adcmv[c0_count]+(COMP_SLEW1 / (CC0 + CABLE_CAP + COMP_SLEW2)));
              }
              lcd_data('C');
    1db0:	83 e4       	ldi	r24, 0x43	; 67
    1db2:	0e 94 80 00 	call	0x100	; 0x100 <lcd_data>
              lcd_data('0');
    1db6:	80 e3       	ldi	r24, 0x30	; 48
    1db8:	0e 94 80 00 	call	0x100	; 0x100 <lcd_data>
           adcmv[4] += (unsigned char) cval_uncorrected;	//save capacity value of empty Pin 3:2
           ReadCapacity(TP1, TP2);
           if (cval_uncorrected > 70) break;
           adcmv[0] += (unsigned char) cval_uncorrected;	//save capacity value of empty Pin 2:1
           if (ww == (MAX_REP - 1)) {
              for (c0_count=0;c0_count<7;c0_count++) {
    1dbc:	37 e0       	ldi	r19, 0x07	; 7
    1dbe:	c3 2e       	mov	r12, r19
                 (void) eeprom_write_byte((uint8_t *)(&c_zero_tab[c0_count]),adcmv[c0_count]+(COMP_SLEW1 / (CC0 + CABLE_CAP + COMP_SLEW2)));
              }
              lcd_data('C');
              lcd_data('0');
           }
           adcmv[0] = adcmv[5];		// for output
    1dc0:	8b 85       	ldd	r24, Y+11	; 0x0b
    1dc2:	9c 85       	ldd	r25, Y+12	; 0x0c
    1dc4:	9a 83       	std	Y+2, r25	; 0x02
    1dc6:	89 83       	std	Y+1, r24	; 0x01
           adcmv[1] = adcmv[6];		// for output
    1dc8:	8d 85       	ldd	r24, Y+13	; 0x0d
    1dca:	9e 85       	ldd	r25, Y+14	; 0x0e
    1dcc:	9c 83       	std	Y+4, r25	; 0x04
    1dce:	8b 83       	std	Y+3, r24	; 0x03
    1dd0:	31 c1       	rjmp	.+610    	; 0x2034 <AutoCheck+0x8d0>
           adcmv[2] = (unsigned int) cval_uncorrected;	//save capacity value of empty Pin 1:2
 #endif
        }
 #ifdef AUTO_CAL
                                        //############################################
        if (tt == 10) {			// Message C > 100nF
    1dd2:	1a 30       	cpi	r17, 0x0A	; 10
    1dd4:	09 f0       	breq	.+2      	; 0x1dd8 <AutoCheck+0x674>
    1dd6:	40 c0       	rjmp	.+128    	; 0x1e58 <AutoCheck+0x6f4>
           lcd_data('1');
    1dd8:	81 e3       	ldi	r24, 0x31	; 49
    1dda:	0e 94 80 00 	call	0x100	; 0x100 <lcd_data>
           lcd_fix_string(CapZeich);	// "-||-"
    1dde:	87 e4       	ldi	r24, 0x47	; 71
    1de0:	91 e0       	ldi	r25, 0x01	; 1
    1de2:	0e 94 dd 00 	call	0x1ba	; 0x1ba <lcd_fix_string>
           lcd_data('3');
    1de6:	83 e3       	ldi	r24, 0x33	; 51
    1de8:	0e 94 80 00 	call	0x100	; 0x100 <lcd_data>
           lcd_fix2_string(MinCap);	// " >100nF"
    1dec:	8f e8       	ldi	r24, 0x8F	; 143
    1dee:	91 e0       	ldi	r25, 0x01	; 1
    1df0:	0e 94 dd 00 	call	0x1ba	; 0x1ba <lcd_fix_string>
           PartFound = PART_NONE;
    1df4:	10 92 07 01 	sts	0x0107, r1
           err_flag = 1;		// C is not found
           ReadCapacity(TP3, TP1);	// look for capacitor > 100nF
    1df8:	82 e0       	ldi	r24, 0x02	; 2
    1dfa:	60 e0       	ldi	r22, 0x00	; 0
    1dfc:	0e 94 54 08 	call	0x10a8	; 0x10a8 <ReadCapacity>
           if (((cpre == 0) && (cval > 95000)) || ((cpre == 1) && (cval < 30000))) {
    1e00:	80 91 32 01 	lds	r24, 0x0132
    1e04:	88 23       	and	r24, r24
    1e06:	91 f4       	brne	.+36     	; 0x1e2c <AutoCheck+0x6c8>
    1e08:	80 91 60 01 	lds	r24, 0x0160
    1e0c:	90 91 61 01 	lds	r25, 0x0161
    1e10:	a0 91 62 01 	lds	r26, 0x0162
    1e14:	b0 91 63 01 	lds	r27, 0x0163
    1e18:	89 31       	cpi	r24, 0x19	; 25
    1e1a:	23 e7       	ldi	r18, 0x73	; 115
    1e1c:	92 07       	cpc	r25, r18
    1e1e:	21 e0       	ldi	r18, 0x01	; 1
    1e20:	a2 07       	cpc	r26, r18
    1e22:	20 e0       	ldi	r18, 0x00	; 0
    1e24:	b2 07       	cpc	r27, r18
    1e26:	08 f0       	brcs	.+2      	; 0x1e2a <AutoCheck+0x6c6>
    1e28:	97 c1       	rjmp	.+814    	; 0x2158 <AutoCheck+0x9f4>
    1e2a:	13 c0       	rjmp	.+38     	; 0x1e52 <AutoCheck+0x6ee>
    1e2c:	81 30       	cpi	r24, 0x01	; 1
    1e2e:	89 f4       	brne	.+34     	; 0x1e52 <AutoCheck+0x6ee>
    1e30:	80 91 60 01 	lds	r24, 0x0160
    1e34:	90 91 61 01 	lds	r25, 0x0161
    1e38:	a0 91 62 01 	lds	r26, 0x0162
    1e3c:	b0 91 63 01 	lds	r27, 0x0163
    1e40:	80 33       	cpi	r24, 0x30	; 48
    1e42:	35 e7       	ldi	r19, 0x75	; 117
    1e44:	93 07       	cpc	r25, r19
    1e46:	30 e0       	ldi	r19, 0x00	; 0
    1e48:	a3 07       	cpc	r26, r19
    1e4a:	30 e0       	ldi	r19, 0x00	; 0
    1e4c:	b3 07       	cpc	r27, r19
    1e4e:	08 f4       	brcc	.+2      	; 0x1e52 <AutoCheck+0x6ee>
    1e50:	83 c1       	rjmp	.+774    	; 0x2158 <AutoCheck+0x9f4>
              // the right capacitor is detected, finish with next step
              ww = MAX_REP;
              err_flag = 0;		// Capacitor is found
           } else {
              wait2s();			// wait additional time
    1e52:	0e 94 95 15 	call	0x2b2a	; 0x2b2a <wait2s>
    1e56:	7d c1       	rjmp	.+762    	; 0x2152 <AutoCheck+0x9ee>
           }
           // next step will repeat measurement
        }
                                        //############################################
        if (tt == 11) {			//measure  offset Voltage of analog Comparator for Capacity measurement
    1e58:	1b 30       	cpi	r17, 0x0B	; 11
    1e5a:	09 f0       	breq	.+2      	; 0x1e5e <AutoCheck+0x6fa>
    1e5c:	eb c0       	rjmp	.+470    	; 0x2034 <AutoCheck+0x8d0>
           PartFound = PART_NONE;
    1e5e:	10 92 07 01 	sts	0x0107, r1
           if (err_flag != 0) break;
    1e62:	66 20       	and	r6, r6
    1e64:	09 f0       	breq	.+2      	; 0x1e68 <AutoCheck+0x704>
    1e66:	22 c1       	rjmp	.+580    	; 0x20ac <AutoCheck+0x948>
           ReadCapacity(TP3, TP1);	// look for capacitor > 100nF
    1e68:	82 e0       	ldi	r24, 0x02	; 2
    1e6a:	60 e0       	ldi	r22, 0x00	; 0
    1e6c:	0e 94 54 08 	call	0x10a8	; 0x10a8 <ReadCapacity>
           if (((cpre == 0) && (cval > 95000)) || ((cpre == 1) && (cval < 30000))) {
    1e70:	80 91 32 01 	lds	r24, 0x0132
    1e74:	88 23       	and	r24, r24
    1e76:	91 f4       	brne	.+36     	; 0x1e9c <AutoCheck+0x738>
    1e78:	80 91 60 01 	lds	r24, 0x0160
    1e7c:	90 91 61 01 	lds	r25, 0x0161
    1e80:	a0 91 62 01 	lds	r26, 0x0162
    1e84:	b0 91 63 01 	lds	r27, 0x0163
    1e88:	89 31       	cpi	r24, 0x19	; 25
    1e8a:	43 e7       	ldi	r20, 0x73	; 115
    1e8c:	94 07       	cpc	r25, r20
    1e8e:	41 e0       	ldi	r20, 0x01	; 1
    1e90:	a4 07       	cpc	r26, r20
    1e92:	40 e0       	ldi	r20, 0x00	; 0
    1e94:	b4 07       	cpc	r27, r20
    1e96:	08 f4       	brcc	.+2      	; 0x1e9a <AutoCheck+0x736>
    1e98:	cd c0       	rjmp	.+410    	; 0x2034 <AutoCheck+0x8d0>
    1e9a:	14 c0       	rjmp	.+40     	; 0x1ec4 <AutoCheck+0x760>
    1e9c:	81 30       	cpi	r24, 0x01	; 1
    1e9e:	09 f0       	breq	.+2      	; 0x1ea2 <AutoCheck+0x73e>
    1ea0:	c9 c0       	rjmp	.+402    	; 0x2034 <AutoCheck+0x8d0>
    1ea2:	80 91 60 01 	lds	r24, 0x0160
    1ea6:	90 91 61 01 	lds	r25, 0x0161
    1eaa:	a0 91 62 01 	lds	r26, 0x0162
    1eae:	b0 91 63 01 	lds	r27, 0x0163
    1eb2:	80 33       	cpi	r24, 0x30	; 48
    1eb4:	55 e7       	ldi	r21, 0x75	; 117
    1eb6:	95 07       	cpc	r25, r21
    1eb8:	50 e0       	ldi	r21, 0x00	; 0
    1eba:	a5 07       	cpc	r26, r21
    1ebc:	50 e0       	ldi	r21, 0x00	; 0
    1ebe:	b5 07       	cpc	r27, r21
    1ec0:	08 f0       	brcs	.+2      	; 0x1ec4 <AutoCheck+0x760>
    1ec2:	b8 c0       	rjmp	.+368    	; 0x2034 <AutoCheck+0x8d0>
              // value of capacitor is correct
              (void) eeprom_write_word((uint16_t *)(&ref_offset), load_diff);	// hold zero offset + slew rate dependend offset
    1ec4:	60 91 46 01 	lds	r22, 0x0146
    1ec8:	70 91 47 01 	lds	r23, 0x0147
    1ecc:	8a ef       	ldi	r24, 0xFA	; 250
    1ece:	91 e0       	ldi	r25, 0x01	; 1
    1ed0:	0e 94 0e 17 	call	0x2e1c	; 0x2e1c <__eewr_word_m328p>
              lcd_line2();		//Cursor to column 1, row 2
    1ed4:	80 ec       	ldi	r24, 0xC0	; 192
    1ed6:	0e 94 7c 00 	call	0xf8	; 0xf8 <lcd_command>
              lcd_fix2_string(REF_Cstr);	// "REF_C="
    1eda:	87 e9       	ldi	r24, 0x97	; 151
    1edc:	91 e0       	ldi	r25, 0x01	; 1
    1ede:	0e 94 dd 00 	call	0x1ba	; 0x1ba <lcd_fix_string>
              lcd_string(itoa(load_diff, outval, 10));	//output REF_C_KORR
    1ee2:	80 91 46 01 	lds	r24, 0x0146
    1ee6:	90 91 47 01 	lds	r25, 0x0147
    1eea:	6b e0       	ldi	r22, 0x0B	; 11
    1eec:	71 e0       	ldi	r23, 0x01	; 1
    1eee:	4a e0       	ldi	r20, 0x0A	; 10
    1ef0:	50 e0       	ldi	r21, 0x00	; 0
    1ef2:	0e 94 bb 16 	call	0x2d76	; 0x2d76 <itoa>
    1ef6:	0e 94 b9 00 	call	0x172	; 0x172 <lcd_string>
  #ifdef AUTOSCALE_ADC
              ADC_PORT =  TXD_VAL;	//ADC-Port 1 to GND
    1efa:	18 b8       	out	0x08, r1	; 8
              ADC_DDR = 1<<TP1 | TXD_MSK;	//ADC-Pin  1 to output 0V
    1efc:	57 b8       	out	0x07, r5	; 7
              R_DDR = 2<<(TP3*2);		//Pin 3 over R_H to GND
    1efe:	80 e2       	ldi	r24, 0x20	; 32
    1f00:	84 b9       	out	0x04, r24	; 4
              do {
                adcmv[0] = ReadADC(TP3);
    1f02:	82 e0       	ldi	r24, 0x02	; 2
    1f04:	0e 94 bf 15 	call	0x2b7e	; 0x2b7e <ReadADC>
    1f08:	9c 01       	movw	r18, r24
    1f0a:	9a 83       	std	Y+2, r25	; 0x02
    1f0c:	89 83       	std	Y+1, r24	; 0x01
              } while (adcmv[0] > 980);
    1f0e:	83 e0       	ldi	r24, 0x03	; 3
    1f10:	25 3d       	cpi	r18, 0xD5	; 213
    1f12:	38 07       	cpc	r19, r24
    1f14:	b4 f7       	brge	.-20     	; 0x1f02 <AutoCheck+0x79e>
              R_DDR = 0;		//all Pins to input 
    1f16:	14 b8       	out	0x04, r1	; 4
              Config.U_Bandgap = 0;	// do not use internal Ref
    1f18:	10 92 67 01 	sts	0x0167, r1
    1f1c:	10 92 66 01 	sts	0x0166, r1
              adcmv[0] = ReadADC(TP3);  // get cap voltage with VCC reference
    1f20:	82 e0       	ldi	r24, 0x02	; 2
    1f22:	0e 94 bf 15 	call	0x2b7e	; 0x2b7e <ReadADC>
    1f26:	6c 01       	movw	r12, r24
    1f28:	9a 83       	std	Y+2, r25	; 0x02
    1f2a:	89 83       	std	Y+1, r24	; 0x01
              Config.U_Bandgap = ADC_internal_reference;
    1f2c:	82 ef       	ldi	r24, 0xF2	; 242
    1f2e:	91 e0       	ldi	r25, 0x01	; 1
    1f30:	0e 94 f2 16 	call	0x2de4	; 0x2de4 <__eerd_byte_m328p>
    1f34:	99 27       	eor	r25, r25
    1f36:	87 fd       	sbrc	r24, 7
    1f38:	90 95       	com	r25
    1f3a:	20 91 2c 01 	lds	r18, 0x012C
    1f3e:	30 91 2d 01 	lds	r19, 0x012D
    1f42:	82 0f       	add	r24, r18
    1f44:	93 1f       	adc	r25, r19
    1f46:	90 93 67 01 	sts	0x0167, r25
    1f4a:	80 93 66 01 	sts	0x0166, r24
              adcmv[1] = ReadADC(TP3);	// get cap voltage with internal reference
    1f4e:	82 e0       	ldi	r24, 0x02	; 2
    1f50:	0e 94 bf 15 	call	0x2b7e	; 0x2b7e <ReadADC>
    1f54:	5c 01       	movw	r10, r24
    1f56:	9c 83       	std	Y+4, r25	; 0x04
    1f58:	8b 83       	std	Y+3, r24	; 0x03
              Config.U_Bandgap = 0;	// do not use internal Ref
    1f5a:	10 92 67 01 	sts	0x0167, r1
    1f5e:	10 92 66 01 	sts	0x0166, r1
              adcmv[2] = ReadADC(TP3);  // get cap voltage with VCC reference
    1f62:	82 e0       	ldi	r24, 0x02	; 2
    1f64:	0e 94 bf 15 	call	0x2b7e	; 0x2b7e <ReadADC>
    1f68:	7c 01       	movw	r14, r24
    1f6a:	9e 83       	std	Y+6, r25	; 0x06
    1f6c:	8d 83       	std	Y+5, r24	; 0x05
              Config.U_Bandgap = ADC_internal_reference;
    1f6e:	80 90 2c 01 	lds	r8, 0x012C
    1f72:	90 90 2d 01 	lds	r9, 0x012D
    1f76:	82 ef       	ldi	r24, 0xF2	; 242
    1f78:	91 e0       	ldi	r25, 0x01	; 1
    1f7a:	0e 94 f2 16 	call	0x2de4	; 0x2de4 <__eerd_byte_m328p>
    1f7e:	99 27       	eor	r25, r25
    1f80:	87 fd       	sbrc	r24, 7
    1f82:	90 95       	com	r25
    1f84:	88 0d       	add	r24, r8
    1f86:	99 1d       	adc	r25, r9
    1f88:	90 93 67 01 	sts	0x0167, r25
    1f8c:	80 93 66 01 	sts	0x0166, r24
              udiff = (int8_t)(((signed long)(adcmv[0] + adcmv[2] - adcmv[1] - adcmv[1])) * ADC_internal_reference / (2*adcmv[1]))+REF_R_KORR;
    1f90:	82 ef       	ldi	r24, 0xF2	; 242
    1f92:	91 e0       	ldi	r25, 0x01	; 1
    1f94:	0e 94 f2 16 	call	0x2de4	; 0x2de4 <__eerd_byte_m328p>
    1f98:	ce 0c       	add	r12, r14
    1f9a:	df 1c       	adc	r13, r15
    1f9c:	ca 18       	sub	r12, r10
    1f9e:	db 08       	sbc	r13, r11
    1fa0:	ca 18       	sub	r12, r10
    1fa2:	db 08       	sbc	r13, r11
    1fa4:	ee 24       	eor	r14, r14
    1fa6:	d7 fc       	sbrc	r13, 7
    1fa8:	e0 94       	com	r14
    1faa:	fe 2c       	mov	r15, r14
    1fac:	99 27       	eor	r25, r25
    1fae:	87 fd       	sbrc	r24, 7
    1fb0:	90 95       	com	r25
    1fb2:	88 0d       	add	r24, r8
    1fb4:	99 1d       	adc	r25, r9
    1fb6:	9c 01       	movw	r18, r24
    1fb8:	40 e0       	ldi	r20, 0x00	; 0
    1fba:	50 e0       	ldi	r21, 0x00	; 0
    1fbc:	c7 01       	movw	r24, r14
    1fbe:	b6 01       	movw	r22, r12
    1fc0:	0e 94 2c 16 	call	0x2c58	; 0x2c58 <__mulsi3>
    1fc4:	aa 0c       	add	r10, r10
    1fc6:	bb 1c       	adc	r11, r11
    1fc8:	95 01       	movw	r18, r10
    1fca:	44 27       	eor	r20, r20
    1fcc:	37 fd       	sbrc	r19, 7
    1fce:	40 95       	com	r20
    1fd0:	54 2f       	mov	r21, r20
    1fd2:	0e 94 a0 16 	call	0x2d40	; 0x2d40 <__divmodsi4>
    1fd6:	2d 5f       	subi	r18, 0xFD	; 253
              lcd_data(' ');
    1fd8:	80 e2       	ldi	r24, 0x20	; 32
    1fda:	28 8f       	std	Y+24, r18	; 0x18
    1fdc:	0e 94 80 00 	call	0x100	; 0x100 <lcd_data>
              lcd_data('_');
    1fe0:	8f e5       	ldi	r24, 0x5F	; 95
    1fe2:	0e 94 80 00 	call	0x100	; 0x100 <lcd_data>
              lcd_data('R');
    1fe6:	82 e5       	ldi	r24, 0x52	; 82
    1fe8:	0e 94 80 00 	call	0x100	; 0x100 <lcd_data>
              lcd_data('=');
    1fec:	8d e3       	ldi	r24, 0x3D	; 61
    1fee:	0e 94 80 00 	call	0x100	; 0x100 <lcd_data>
              udiff2 = udiff + (int8_t)eeprom_read_byte((uint8_t *)(&RefDiff));
    1ff2:	82 ef       	ldi	r24, 0xF2	; 242
    1ff4:	91 e0       	ldi	r25, 0x01	; 1
    1ff6:	0e 94 f2 16 	call	0x2de4	; 0x2de4 <__eerd_byte_m328p>
    1ffa:	28 8d       	ldd	r18, Y+24	; 0x18
    1ffc:	02 2f       	mov	r16, r18
    1ffe:	08 0f       	add	r16, r24
              if (udiff != 0) {
    2000:	22 23       	and	r18, r18
    2002:	31 f0       	breq	.+12     	; 0x2010 <AutoCheck+0x8ac>
                 (void) eeprom_write_byte((uint8_t *)(&RefDiff), (uint8_t)udiff2);	// hold offset for true reference Voltage
    2004:	82 ef       	ldi	r24, 0xF2	; 242
    2006:	91 e0       	ldi	r25, 0x01	; 1
    2008:	60 2f       	mov	r22, r16
    200a:	0e 94 00 17 	call	0x2e00	; 0x2e00 <__eewr_byte_m328p>
    200e:	03 c0       	rjmp	.+6      	; 0x2016 <AutoCheck+0x8b2>
              } else {
                 lcd_data('=');		// mark as identical
    2010:	8d e3       	ldi	r24, 0x3D	; 61
    2012:	0e 94 80 00 	call	0x100	; 0x100 <lcd_data>
              }
              lcd_string(itoa(udiff2, outval, 10));	//output correction voltage
    2016:	80 2f       	mov	r24, r16
    2018:	99 27       	eor	r25, r25
    201a:	87 fd       	sbrc	r24, 7
    201c:	90 95       	com	r25
    201e:	6b e0       	ldi	r22, 0x0B	; 11
    2020:	71 e0       	ldi	r23, 0x01	; 1
    2022:	4a e0       	ldi	r20, 0x0A	; 10
    2024:	50 e0       	ldi	r21, 0x00	; 0
    2026:	0e 94 bb 16 	call	0x2d76	; 0x2d76 <itoa>
    202a:	0e 94 b9 00 	call	0x172	; 0x172 <lcd_string>
  #endif
              wait4s();
    202e:	0e 94 93 15 	call	0x2b26	; 0x2b26 <wait4s>
              break;
    2032:	3e c0       	rjmp	.+124    	; 0x20b0 <AutoCheck+0x94c>
           }
        }
 #endif
#endif
        if ((tt > 1) && (tt <10)) {	// output 3 voltages 
    2034:	eb 2d       	mov	r30, r11
    2036:	e8 30       	cpi	r30, 0x08	; 8
    2038:	38 f5       	brcc	.+78     	; 0x2088 <AutoCheck+0x924>
           lcd_line2();			//Cursor to column 1, row 2
    203a:	80 ec       	ldi	r24, 0xC0	; 192
    203c:	0e 94 7c 00 	call	0xf8	; 0xf8 <lcd_command>
           lcd_string(itoa(adcmv[0], outval, 10));	//output voltage 1
    2040:	89 81       	ldd	r24, Y+1	; 0x01
    2042:	9a 81       	ldd	r25, Y+2	; 0x02
    2044:	6b e0       	ldi	r22, 0x0B	; 11
    2046:	71 e0       	ldi	r23, 0x01	; 1
    2048:	4a e0       	ldi	r20, 0x0A	; 10
    204a:	50 e0       	ldi	r21, 0x00	; 0
    204c:	0e 94 bb 16 	call	0x2d76	; 0x2d76 <itoa>
    2050:	0e 94 b9 00 	call	0x172	; 0x172 <lcd_string>
           lcd_data(' ');
    2054:	80 e2       	ldi	r24, 0x20	; 32
    2056:	0e 94 80 00 	call	0x100	; 0x100 <lcd_data>
           lcd_string(itoa(adcmv[1], outval, 10));	//output voltage 2
    205a:	8b 81       	ldd	r24, Y+3	; 0x03
    205c:	9c 81       	ldd	r25, Y+4	; 0x04
    205e:	6b e0       	ldi	r22, 0x0B	; 11
    2060:	71 e0       	ldi	r23, 0x01	; 1
    2062:	4a e0       	ldi	r20, 0x0A	; 10
    2064:	50 e0       	ldi	r21, 0x00	; 0
    2066:	0e 94 bb 16 	call	0x2d76	; 0x2d76 <itoa>
    206a:	0e 94 b9 00 	call	0x172	; 0x172 <lcd_string>
           lcd_data(' ');
    206e:	80 e2       	ldi	r24, 0x20	; 32
    2070:	0e 94 80 00 	call	0x100	; 0x100 <lcd_data>
           lcd_string(itoa(adcmv[2], outval, 10));	//output voltage 3
    2074:	8d 81       	ldd	r24, Y+5	; 0x05
    2076:	9e 81       	ldd	r25, Y+6	; 0x06
    2078:	6b e0       	ldi	r22, 0x0B	; 11
    207a:	71 e0       	ldi	r23, 0x01	; 1
    207c:	4a e0       	ldi	r20, 0x0A	; 10
    207e:	50 e0       	ldi	r21, 0x00	; 0
    2080:	0e 94 bb 16 	call	0x2d76	; 0x2d76 <itoa>
    2084:	0e 94 b9 00 	call	0x172	; 0x172 <lcd_string>
        }
        ADC_DDR =  TXD_MSK;		// all-Pins to Input
    2088:	17 b8       	out	0x07, r1	; 7
        ADC_PORT = TXD_VAL;		// all ADC-Ports to GND
    208a:	18 b8       	out	0x08, r1	; 8
        R_DDR = 0;			// all R-Ports to Input
    208c:	14 b8       	out	0x04, r1	; 4
        R_PORT = 0;
    208e:	15 b8       	out	0x05, r1	; 5
        if(!(ON_PIN_REG & (1<<RST_PIN))) {
    2090:	4f 9b       	sbis	0x09, 7	; 9
    2092:	0e c0       	rjmp	.+28     	; 0x20b0 <AutoCheck+0x94c>
	   // if key is pressed, don't repeat
           break;
        }
        wait500ms();
    2094:	0e 94 97 15 	call	0x2b2e	; 0x2b2e <wait500ms>
        if(!(ON_PIN_REG & (1<<RST_PIN))) {
    2098:	4f 9b       	sbis	0x09, 7	; 9
    209a:	0a c0       	rjmp	.+20     	; 0x20b0 <AutoCheck+0x94c>
	   // if key is pressed, don't repeat
           break;
        }
        wait500ms();
    209c:	0e 94 97 15 	call	0x2b2e	; 0x2b2e <wait500ms>
  for(tt=1;tt<TEST_COUNT;tt++) {		// loop for all Tests
#ifdef AUTO_CAL
     sum_c0 = 0;			//reset sum of capacity measurements
     c0_count = 0;			//counter for capacity measurement
#endif
     for(ww=0;ww<MAX_REP;ww++) {	// repeat the test MAX_REP times
    20a0:	a3 94       	inc	r10
    20a2:	fa 2d       	mov	r31, r10
    20a4:	f8 30       	cpi	r31, 0x08	; 8
    20a6:	08 f4       	brcc	.+2      	; 0x20aa <AutoCheck+0x946>
    20a8:	fe cb       	rjmp	.-2052   	; 0x18a6 <AutoCheck+0x142>
    20aa:	02 c0       	rjmp	.+4      	; 0x20b0 <AutoCheck+0x94c>
           // next step will repeat measurement
        }
                                        //############################################
        if (tt == 11) {			//measure  offset Voltage of analog Comparator for Capacity measurement
           PartFound = PART_NONE;
           if (err_flag != 0) break;
    20ac:	66 24       	eor	r6, r6
    20ae:	63 94       	inc	r6
	   // if key is pressed, don't repeat
           break;
        }
        wait500ms();
     } //end for ww
     wait1s();
    20b0:	0e 94 96 15 	call	0x2b2c	; 0x2b2c <wait1000ms>
 #define TEST_COUNT 12
#else
 #define TEST_COUNT 10
#endif
 
  for(tt=1;tt<TEST_COUNT;tt++) {		// loop for all Tests
    20b4:	1f 5f       	subi	r17, 0xFF	; 255
    20b6:	1c 30       	cpi	r17, 0x0C	; 12
    20b8:	81 f0       	breq	.+32     	; 0x20da <AutoCheck+0x976>
    20ba:	8d 89       	ldd	r24, Y+21	; 0x15
    20bc:	9e 89       	ldd	r25, Y+22	; 0x16
void AutoCheck(void) {
    20be:	cc 24       	eor	r12, r12
    20c0:	ee 24       	eor	r14, r14
    20c2:	ff 24       	eor	r15, r15
    20c4:	aa 24       	eor	r10, r10
        lcd_line2();			//Cursor to column 1, row 2
        lcd_clear_line();		// clear total line
        lcd_line1();			//Cursor to column 1, row 1
        lcd_clear_line();		// clear total line
        lcd_line1();			//Cursor to column 1, row 1
        lcd_data('T');			//output the Testmode "T"
    20c6:	9c 01       	movw	r18, r24
    20c8:	2f 5f       	subi	r18, 0xFF	; 255
    20ca:	3f 4f       	sbci	r19, 0xFF	; 255
    20cc:	3e 8b       	std	Y+22, r19	; 0x16
    20ce:	2d 8b       	std	Y+21, r18	; 0x15
           PartFound = PART_NONE;
           err_flag = 1;		// C is not found
           ReadCapacity(TP3, TP1);	// look for capacitor > 100nF
           if (((cpre == 0) && (cval > 95000)) || ((cpre == 1) && (cval < 30000))) {
              // the right capacitor is detected, finish with next step
              ww = MAX_REP;
    20d0:	98 e0       	ldi	r25, 0x08	; 8
    20d2:	49 2e       	mov	r4, r25
              break;
           }
        }
 #endif
#endif
        if ((tt > 1) && (tt <10)) {	// output 3 voltages 
    20d4:	b8 2e       	mov	r11, r24
    20d6:	ba 94       	dec	r11
    20d8:	e6 cb       	rjmp	.-2100   	; 0x18a6 <AutoCheck+0x142>
        }
        wait500ms();
     } //end for ww
     wait1s();
  } //end for tt
  Config.Samples = ANZ_MESS;	// set to configured number of ADC samples
    20da:	89 e1       	ldi	r24, 0x19	; 25
    20dc:	80 93 64 01 	sts	0x0164, r24
  lcd_clear();
    20e0:	0e 94 88 00 	call	0x110	; 0x110 <lcd_clear>
//  lcd_line1();
  lcd_line2();
    20e4:	80 ec       	ldi	r24, 0xC0	; 192
    20e6:	0e 94 7c 00 	call	0xf8	; 0xf8 <lcd_command>
  lcd_fix_string(VERSION);	//"Version ..."
    20ea:	8d e5       	ldi	r24, 0x5D	; 93
    20ec:	91 e0       	ldi	r25, 0x01	; 1
    20ee:	0e 94 dd 00 	call	0x1ba	; 0x1ba <lcd_fix_string>
  lcd_line1();
    20f2:	80 e8       	ldi	r24, 0x80	; 128
    20f4:	0e 94 7c 00 	call	0xf8	; 0xf8 <lcd_command>
  lcd_fix2_string(ATE);		//"Selftest End"
    20f8:	8c ee       	ldi	r24, 0xEC	; 236
    20fa:	90 e0       	ldi	r25, 0x00	; 0
    20fc:	0e 94 dd 00 	call	0x1ba	; 0x1ba <lcd_fix_string>
 #ifdef FREQUENCY_50HZ
  lcd_fix2_string(T50HZ);	//" 50Hz"
    2100:	8a eb       	ldi	r24, 0xBA	; 186
    2102:	91 e0       	ldi	r25, 0x01	; 1
    2104:	0e 94 dd 00 	call	0x1ba	; 0x1ba <lcd_fix_string>
  ADC_PORT = TXD_VAL;
    2108:	18 b8       	out	0x08, r1	; 8
  ADC_DDR = 1<<TP1 | TXD_MSK;	// Pin 1 to GND
    210a:	81 e0       	ldi	r24, 0x01	; 1
    210c:	87 b9       	out	0x07, r24	; 7
  R_DDR = (1<<(TP3*2)) | (1<<(TP2*2));
    210e:	84 e1       	ldi	r24, 0x14	; 20
    2110:	84 b9       	out	0x04, r24	; 4
    2112:	1e e1       	ldi	r17, 0x1E	; 30
  for(ww=0;ww<30;ww++) {	// repeat the signal up to 30 times (1 minute)
     for (ii=0;ii<100;ii++) {	// for 2 s generate 50 Hz
         R_PORT = (1<<(TP2*2));	// Pin 2 over R_L to VCC, Pin 3 over R_L to GND
    2114:	04 e0       	ldi	r16, 0x04	; 4
    2116:	e0 2e       	mov	r14, r16
         wait10ms();
         R_PORT = (1<<(TP3*2));	// Pin 3 over R_L to VCC, Pin 2 over R_L to GND
    2118:	00 e1       	ldi	r16, 0x10	; 16
  lcd_fix2_string(T50HZ);	//" 50Hz"
  ADC_PORT = TXD_VAL;
  ADC_DDR = 1<<TP1 | TXD_MSK;	// Pin 1 to GND
  R_DDR = (1<<(TP3*2)) | (1<<(TP2*2));
  for(ww=0;ww<30;ww++) {	// repeat the signal up to 30 times (1 minute)
     for (ii=0;ii<100;ii++) {	// for 2 s generate 50 Hz
    211a:	10 92 30 01 	sts	0x0130, r1
    211e:	0c c0       	rjmp	.+24     	; 0x2138 <AutoCheck+0x9d4>
         R_PORT = (1<<(TP2*2));	// Pin 2 over R_L to VCC, Pin 3 over R_L to GND
    2120:	e5 b8       	out	0x05, r14	; 5
         wait10ms();
    2122:	0e 94 a1 15 	call	0x2b42	; 0x2b42 <wait10ms>
         R_PORT = (1<<(TP3*2));	// Pin 3 over R_L to VCC, Pin 2 over R_L to GND
    2126:	05 b9       	out	0x05, r16	; 5
         wait10ms();
    2128:	0e 94 a1 15 	call	0x2b42	; 0x2b42 <wait10ms>
         wdt_reset();
    212c:	a8 95       	wdr
  lcd_fix2_string(T50HZ);	//" 50Hz"
  ADC_PORT = TXD_VAL;
  ADC_DDR = 1<<TP1 | TXD_MSK;	// Pin 1 to GND
  R_DDR = (1<<(TP3*2)) | (1<<(TP2*2));
  for(ww=0;ww<30;ww++) {	// repeat the signal up to 30 times (1 minute)
     for (ii=0;ii<100;ii++) {	// for 2 s generate 50 Hz
    212e:	80 91 30 01 	lds	r24, 0x0130
    2132:	8f 5f       	subi	r24, 0xFF	; 255
    2134:	80 93 30 01 	sts	0x0130, r24
    2138:	80 91 30 01 	lds	r24, 0x0130
    213c:	84 36       	cpi	r24, 0x64	; 100
    213e:	80 f3       	brcs	.-32     	; 0x2120 <AutoCheck+0x9bc>
         wait10ms();
         R_PORT = (1<<(TP3*2));	// Pin 3 over R_L to VCC, Pin 2 over R_L to GND
         wait10ms();
         wdt_reset();
     }
     if (!(ON_PIN_REG & (1<<RST_PIN))) {
    2140:	4f 9b       	sbis	0x09, 7	; 9
    2142:	02 c0       	rjmp	.+4      	; 0x2148 <AutoCheck+0x9e4>
    2144:	11 50       	subi	r17, 0x01	; 1
 #ifdef FREQUENCY_50HZ
  lcd_fix2_string(T50HZ);	//" 50Hz"
  ADC_PORT = TXD_VAL;
  ADC_DDR = 1<<TP1 | TXD_MSK;	// Pin 1 to GND
  R_DDR = (1<<(TP3*2)) | (1<<(TP2*2));
  for(ww=0;ww<30;ww++) {	// repeat the signal up to 30 times (1 minute)
    2146:	49 f7       	brne	.-46     	; 0x211a <AutoCheck+0x9b6>
        // if key is pressed, don't repeat
        break;
     }
  }
 #endif
 PartFound = PART_NONE;
    2148:	10 92 07 01 	sts	0x0107, r1
 wait1s();			//wait 1 seconds
    214c:	0e 94 96 15 	call	0x2b2c	; 0x2b2c <wait1000ms>
    2150:	07 c0       	rjmp	.+14     	; 0x2160 <AutoCheck+0x9fc>
           R_PORT =  1<<(TP3*2);	//R_L-PORT 3 to VCC
           R_DDR = 1<<(TP3*2);		//Pin 3 to output and over R_L to VCC
           adcmv[2] = W5msReadADC(TP3);
           lcd_fix2_string(RILO);	// "RiLo="
#ifdef AUTO_CAL
           err_flag = 1;		// set to not finished
    2152:	66 24       	eor	r6, r6
    2154:	63 94       	inc	r6
    2156:	6e cf       	rjmp	.-292    	; 0x2034 <AutoCheck+0x8d0>
           err_flag = 1;		// C is not found
           ReadCapacity(TP3, TP1);	// look for capacitor > 100nF
           if (((cpre == 0) && (cval > 95000)) || ((cpre == 1) && (cval < 30000))) {
              // the right capacitor is detected, finish with next step
              ww = MAX_REP;
              err_flag = 0;		// Capacitor is found
    2158:	66 24       	eor	r6, r6
           PartFound = PART_NONE;
           err_flag = 1;		// C is not found
           ReadCapacity(TP3, TP1);	// look for capacitor > 100nF
           if (((cpre == 0) && (cval > 95000)) || ((cpre == 1) && (cval < 30000))) {
              // the right capacitor is detected, finish with next step
              ww = MAX_REP;
    215a:	b8 e0       	ldi	r27, 0x08	; 8
    215c:	ab 2e       	mov	r10, r27
    215e:	6a cf       	rjmp	.-300    	; 0x2034 <AutoCheck+0x8d0>
     }
  }
 #endif
 PartFound = PART_NONE;
 wait1s();			//wait 1 seconds
 } 
    2160:	68 96       	adiw	r28, 0x18	; 24
    2162:	0f b6       	in	r0, 0x3f	; 63
    2164:	f8 94       	cli
    2166:	de bf       	out	0x3e, r29	; 62
    2168:	0f be       	out	0x3f, r0	; 63
    216a:	cd bf       	out	0x3d, r28	; 61
    216c:	cf 91       	pop	r28
    216e:	df 91       	pop	r29
    2170:	1f 91       	pop	r17
    2172:	0f 91       	pop	r16
    2174:	ff 90       	pop	r15
    2176:	ef 90       	pop	r14
    2178:	df 90       	pop	r13
    217a:	cf 90       	pop	r12
    217c:	bf 90       	pop	r11
    217e:	af 90       	pop	r10
    2180:	9f 90       	pop	r9
    2182:	8f 90       	pop	r8
    2184:	7f 90       	pop	r7
    2186:	6f 90       	pop	r6
    2188:	5f 90       	pop	r5
    218a:	4f 90       	pop	r4
    218c:	3f 90       	pop	r3
    218e:	2f 90       	pop	r2
    2190:	08 95       	ret

00002192 <main>:
//#define DebugOut 5		// if set, output of Transistor checks in row 2+3
//#define DebugOut 10		// if set, output of capacity measurements (ReadCapacity) in row 3+4 
#include "Transistortester.h"

//begin of transistortester program
int main(void) {
    2192:	0f 93       	push	r16
    2194:	1f 93       	push	r17
    2196:	cf 93       	push	r28
    2198:	df 93       	push	r29
  //switch on
  ON_DDR = (1<<ON_PIN);
    219a:	80 e4       	ldi	r24, 0x40	; 64
    219c:	8a b9       	out	0x0a, r24	; 10
  ON_PORT = (1<<ON_PIN) | (1<<RST_PIN);	//power on and Pullup for the Reset-Pin
    219e:	80 ec       	ldi	r24, 0xC0	; 192
    21a0:	8b b9       	out	0x0b, r24	; 11
  uint8_t tmp;
  //ADC-Init
  ADCSRA = (1<<ADEN) | AUTO_CLOCK_DIV;	//prescaler=8 or 64 (if 8Mhz clock)
    21a2:	86 e8       	ldi	r24, 0x86	; 134
    21a4:	80 93 7a 00 	sts	0x007A, r24
// #define WDRF_HOME MCU_STATUS_REG
 #define WDRF_HOME MCUCSR
#else
 #define WDRF_HOME MCUSR
#endif
  tmp = (WDRF_HOME & (1<<WDRF));	// save Watch Dog Flag
    21a8:	14 b7       	in	r17, 0x34	; 52
  WDRF_HOME &= ~(1<<WDRF);	 	//reset Watch Dog flag
    21aa:	84 b7       	in	r24, 0x34	; 52
    21ac:	87 7f       	andi	r24, 0xF7	; 247
    21ae:	84 bf       	out	0x34, r24	; 52
  wdt_disable();			// disable Watch Dog
    21b0:	88 e1       	ldi	r24, 0x18	; 24
    21b2:	0f b6       	in	r0, 0x3f	; 63
    21b4:	f8 94       	cli
    21b6:	80 93 60 00 	sts	0x0060, r24
    21ba:	10 92 60 00 	sts	0x0060, r1
    21be:	0f be       	out	0x3f, r0	; 63
  lcd_init();				//initialize LCD
    21c0:	0e 94 8e 00 	call	0x11c	; 0x11c <lcd_init>
	
//  ADC_PORT = TXD_VAL;
//  ADC_DDR = TXD_MSK;
  if(tmp) { 
    21c4:	13 ff       	sbrs	r17, 3
    21c6:	0a c0       	rjmp	.+20     	; 0x21dc <main+0x4a>
     // check if  Watchdog-Event 
     // this happens, if the Watchdog is not reset for 2s
     // can happen, if any loop in the Program doen't finish.
     lcd_line1();
    21c8:	80 e8       	ldi	r24, 0x80	; 128
    21ca:	0e 94 7c 00 	call	0xf8	; 0xf8 <lcd_command>
     lcd_fix_string(TestTimedOut);	//Output Timeout
    21ce:	83 ed       	ldi	r24, 0xD3	; 211
    21d0:	90 e0       	ldi	r25, 0x00	; 0
    21d2:	0e 94 dd 00 	call	0x1ba	; 0x1ba <lcd_fix_string>
     wait3s();				//wait for 3 s
    21d6:	0e 94 94 15 	call	0x2b28	; 0x2b28 <wait3s>
    21da:	b5 c0       	rjmp	.+362    	; 0x2346 <main+0x1b4>
     ON_PORT = 0;			//shut off!
     return 0;
  }
  LCDLoadCustomChar(LCD_CHAR_DIODE1);	//Custom-Character Diode symbol
    21dc:	88 e4       	ldi	r24, 0x48	; 72
    21de:	0e 94 7c 00 	call	0xf8	; 0xf8 <lcd_command>
  lcd_fix_customchar(DiodeIcon1);	//load Character  >|
    21e2:	80 ec       	ldi	r24, 0xC0	; 192
    21e4:	91 e0       	ldi	r25, 0x01	; 1
    21e6:	0e 94 ee 00 	call	0x1dc	; 0x1dc <lcd_fix_customchar>
  LCDLoadCustomChar(LCD_CHAR_DIODE2);	//Custom-Character 
    21ea:	80 e5       	ldi	r24, 0x50	; 80
    21ec:	0e 94 7c 00 	call	0xf8	; 0xf8 <lcd_command>
  lcd_fix_customchar(DiodeIcon2);	//load Character  |<
    21f0:	88 ec       	ldi	r24, 0xC8	; 200
    21f2:	91 e0       	ldi	r25, 0x01	; 1
    21f4:	0e 94 ee 00 	call	0x1dc	; 0x1dc <lcd_fix_customchar>
#ifdef C_MESS
  LCDLoadCustomChar(LCD_CHAR_CAP);	//Custom-Character  Capacitor symbol
    21f8:	88 e5       	ldi	r24, 0x58	; 88
    21fa:	0e 94 7c 00 	call	0xf8	; 0xf8 <lcd_command>
  lcd_fix_customchar(CapIcon);		//load Character  ||
    21fe:	80 ed       	ldi	r24, 0xD0	; 208
    2200:	91 e0       	ldi	r25, 0x01	; 1
    2202:	0e 94 ee 00 	call	0x1dc	; 0x1dc <lcd_fix_customchar>
#endif
#ifdef R_MESS
  LCDLoadCustomChar(LCD_CHAR_RESIS1);	//Custom-Character Resistor symbol
    2206:	80 e7       	ldi	r24, 0x70	; 112
    2208:	0e 94 7c 00 	call	0xf8	; 0xf8 <lcd_command>
  lcd_fix_customchar(ResIcon1);		//load Character  [
    220c:	88 ed       	ldi	r24, 0xD8	; 216
    220e:	91 e0       	ldi	r25, 0x01	; 1
    2210:	0e 94 ee 00 	call	0x1dc	; 0x1dc <lcd_fix_customchar>
  LCDLoadCustomChar(LCD_CHAR_RESIS2);	//Custom-Character 
    2214:	88 e7       	ldi	r24, 0x78	; 120
    2216:	0e 94 7c 00 	call	0xf8	; 0xf8 <lcd_command>
  lcd_fix_customchar(ResIcon2);		//load Character  ]
    221a:	80 ee       	ldi	r24, 0xE0	; 224
    221c:	91 e0       	ldi	r25, 0x01	; 1
    221e:	0e 94 ee 00 	call	0x1dc	; 0x1dc <lcd_fix_customchar>
#endif
#ifdef PULLUP_DISABLE
 #ifdef __AVR_ATmega8__
  SFIOR = (1<<PUD);		// disable Pull-Up Resistors mega8
 #else
  MCUCR = (1<<PUD);		// disable Pull-Up Resistors mega168 family
    2222:	80 e1       	ldi	r24, 0x10	; 16
    2224:	85 bf       	out	0x35, r24	; 53
 #endif
#endif

#if POWER_OFF+0 > 1
  // tester display time selection
  display_time = OFF_WAIT_TIME;		// LONG_WAIT_TIME for single mode, else SHORT_WAIT_TIME
    2226:	88 eb       	ldi	r24, 0xB8	; 184
    2228:	9b e0       	ldi	r25, 0x0B	; 11
    222a:	90 93 03 01 	sts	0x0103, r25
    222e:	80 93 02 01 	sts	0x0102, r24
  if (!(ON_PIN_REG & (1<<RST_PIN))) {
    2232:	4f 99       	sbic	0x09, 7	; 9
    2234:	0a c0       	rjmp	.+20     	; 0x224a <main+0xb8>
     // if power button is pressed ...
     wait300ms();			// wait to catch a long key press
    2236:	0e 94 99 15 	call	0x2b32	; 0x2b32 <wait300ms>
     if (!(ON_PIN_REG & (1<<RST_PIN))) {
    223a:	4f 99       	sbic	0x09, 7	; 9
    223c:	06 c0       	rjmp	.+12     	; 0x224a <main+0xb8>
        // check if power button is still pressed
        display_time = LONG_WAIT_TIME;	// ... set long time display anyway
    223e:	80 e1       	ldi	r24, 0x10	; 16
    2240:	97 e2       	ldi	r25, 0x27	; 39
    2242:	90 93 03 01 	sts	0x0103, r25
    2246:	80 93 02 01 	sts	0x0102, r24
  }
#else
  #define display_time OFF_WAIT_TIME
#endif

  empty_count = 0;
    224a:	10 92 2f 01 	sts	0x012F, r1
  mess_count = 0;
    224e:	10 92 0a 01 	sts	0x010A, r1


//*****************************************************************
//Entry: if start key is pressed before shut down
start:
  PartFound = PART_NONE;
    2252:	10 92 07 01 	sts	0x0107, r1
  NumOfDiodes = 0;
    2256:	10 92 05 01 	sts	0x0105, r1
  PartReady = 0;
    225a:	10 92 04 01 	sts	0x0104, r1
  PartMode = 0;
    225e:	10 92 06 01 	sts	0x0106, r1
  lcd_clear();
    2262:	0e 94 88 00 	call	0x110	; 0x110 <lcd_clear>
  ADC_DDR = TXD_MSK;		//activate Software-UART 
    2266:	17 b8       	out	0x07, r1	; 7
#ifdef R_MESS
  ResistorsFound = 0;
    2268:	10 92 3e 01 	sts	0x013E, r1
#endif
#ifdef C_MESS
  ca = 0;
    226c:	10 92 45 01 	sts	0x0145, r1
  cb = 0;
    2270:	10 92 08 01 	sts	0x0108, r1
#endif
#ifdef WITH_UART
  uart_newline();		// start of new measurement
#endif
  Config.RefFlag = 0;
    2274:	10 92 65 01 	sts	0x0165, r1
  Config.Samples = 190;		// set number of ADC samples near to max
    2278:	8e eb       	ldi	r24, 0xBE	; 190
    227a:	80 93 64 01 	sts	0x0164, r24
  Config.U_AVCC = U_VCC;	// set VCC Voltage
    227e:	84 e7       	ldi	r24, 0x74	; 116
    2280:	93 e1       	ldi	r25, 0x13	; 19
    2282:	90 93 69 01 	sts	0x0169, r25
    2286:	80 93 68 01 	sts	0x0168, r24
  (void) ReadADC(0x0e);		// read Reference-voltage 
    228a:	8e e0       	ldi	r24, 0x0E	; 14
    228c:	0e 94 bf 15 	call	0x2b7e	; 0x2b7e <ReadADC>
  ref_mv = W20msReadADC(0x0e);	// read Reference-voltage
    2290:	8e e0       	ldi	r24, 0x0E	; 14
    2292:	0e 94 b9 15 	call	0x2b72	; 0x2b72 <W20msReadADC>
    2296:	ec 01       	movw	r28, r24
    2298:	90 93 2d 01 	sts	0x012D, r25
    229c:	80 93 2c 01 	sts	0x012C, r24
  Config.U_Bandgap = ADC_internal_reference;	// set internal reference voltage for ADC
    22a0:	82 ef       	ldi	r24, 0xF2	; 242
    22a2:	91 e0       	ldi	r25, 0x01	; 1
    22a4:	0e 94 f2 16 	call	0x2de4	; 0x2de4 <__eerd_byte_m328p>
    22a8:	99 27       	eor	r25, r25
    22aa:	87 fd       	sbrc	r24, 7
    22ac:	90 95       	com	r25
    22ae:	8c 0f       	add	r24, r28
    22b0:	9d 1f       	adc	r25, r29
    22b2:	90 93 67 01 	sts	0x0167, r25
    22b6:	80 93 66 01 	sts	0x0166, r24
  Config.Samples = ANZ_MESS;	// set to configured number of ADC samples
    22ba:	89 e1       	ldi	r24, 0x19	; 25
    22bc:	80 93 64 01 	sts	0x0164, r24

#ifdef BAT_CHECK
  // Battery check is selected
  ReadADC(5);	//Dummy-Readout
    22c0:	85 e0       	ldi	r24, 0x05	; 5
    22c2:	0e 94 bf 15 	call	0x2b7e	; 0x2b7e <ReadADC>
  trans.hfe[0] = W5msReadADC(5); 	//with 5V reference
    22c6:	85 e0       	ldi	r24, 0x05	; 5
    22c8:	0e 94 bd 15 	call	0x2b7a	; 0x2b7a <W5msReadADC>
    22cc:	90 93 34 01 	sts	0x0134, r25
    22d0:	80 93 33 01 	sts	0x0133, r24
  lcd_line1();	//1. row 
    22d4:	80 e8       	ldi	r24, 0x80	; 128
    22d6:	0e 94 7c 00 	call	0xf8	; 0xf8 <lcd_command>
  lcd_fix_string(Bat);		//output: "Bat. "
    22da:	87 e0       	ldi	r24, 0x07	; 7
    22dc:	91 e0       	ldi	r25, 0x01	; 1
    22de:	0e 94 dd 00 	call	0x1ba	; 0x1ba <lcd_fix_string>
 #ifdef BAT_OUT
  // display Battery voltage
  // The divisor to get the voltage in 0.01V units is ((10*33)/133) witch is about 2.4812
  // A good result can be get with multiply by 4 and divide by 10 (about 0.75%).
  cval = (trans.hfe[0]*4)/10+((BAT_OUT+5)/10); // usually output only 2 digits
    22e2:	80 91 33 01 	lds	r24, 0x0133
    22e6:	90 91 34 01 	lds	r25, 0x0134
    22ea:	88 0f       	add	r24, r24
    22ec:	99 1f       	adc	r25, r25
    22ee:	88 0f       	add	r24, r24
    22f0:	99 1f       	adc	r25, r25
    22f2:	6a e0       	ldi	r22, 0x0A	; 10
    22f4:	70 e0       	ldi	r23, 0x00	; 0
    22f6:	0e 94 57 16 	call	0x2cae	; 0x2cae <__udivmodhi4>
    22fa:	61 5f       	subi	r22, 0xF1	; 241
    22fc:	7f 4f       	sbci	r23, 0xFF	; 255
    22fe:	80 e0       	ldi	r24, 0x00	; 0
    2300:	90 e0       	ldi	r25, 0x00	; 0
    2302:	60 93 60 01 	sts	0x0160, r22
    2306:	70 93 61 01 	sts	0x0161, r23
    230a:	80 93 62 01 	sts	0x0162, r24
    230e:	90 93 63 01 	sts	0x0163, r25
  DisplayValue(cval,-2,'V',2);		// Display 2 Digits of this 10mV units
    2312:	4e ef       	ldi	r20, 0xFE	; 254
    2314:	26 e5       	ldi	r18, 0x56	; 86
    2316:	02 e0       	ldi	r16, 0x02	; 2
    2318:	0e 94 b5 0a 	call	0x156a	; 0x156a <DisplayValue>
  lcd_data(' ');
    231c:	80 e2       	ldi	r24, 0x20	; 32
    231e:	0e 94 80 00 	call	0x100	; 0x100 <lcd_data>
 #warning "Battery POOR level is set for 7805 regulator"
 #define WARN_LEVEL (((unsigned long)7300*(unsigned long)33)/133)
 #define POOR_LEVEL (((unsigned long)6300*(unsigned long)33)/133)
 #endif
  // check the battery voltage
  if (trans.hfe[0] <  WARN_LEVEL) {
    2322:	80 91 33 01 	lds	r24, 0x0133
    2326:	90 91 34 01 	lds	r25, 0x0134
    232a:	27 e0       	ldi	r18, 0x07	; 7
    232c:	8c 32       	cpi	r24, 0x2C	; 44
    232e:	92 07       	cpc	r25, r18
    2330:	a8 f4       	brcc	.+42     	; 0x235c <main+0x1ca>
     //Vcc < 7,3V; show Warning 
     if(trans.hfe[0] < POOR_LEVEL) {	
    2332:	26 e0       	ldi	r18, 0x06	; 6
    2334:	83 33       	cpi	r24, 0x33	; 51
    2336:	92 07       	cpc	r25, r18
    2338:	70 f4       	brcc	.+28     	; 0x2356 <main+0x1c4>
        //Vcc <6,3V; no proper operation is possible
        lcd_fix_string(BatEmpty);	//Battery empty!
    233a:	8c e7       	ldi	r24, 0x7C	; 124
    233c:	90 e0       	ldi	r25, 0x00	; 0
    233e:	0e 94 dd 00 	call	0x1ba	; 0x1ba <lcd_fix_string>
        wait2s();
    2342:	0e 94 95 15 	call	0x2b2a	; 0x2b2a <wait2s>
        PORTD = 0;			//switch power off
    2346:	1b b8       	out	0x0b, r1	; 11
  }
#else
  goto start;	// POWER_OFF not selected, repeat measurement
#endif
  return 0;
}   // end main
    2348:	80 e0       	ldi	r24, 0x00	; 0
    234a:	90 e0       	ldi	r25, 0x00	; 0
    234c:	df 91       	pop	r29
    234e:	cf 91       	pop	r28
    2350:	1f 91       	pop	r17
    2352:	0f 91       	pop	r16
    2354:	08 95       	ret
        lcd_fix_string(BatEmpty);	//Battery empty!
        wait2s();
        PORTD = 0;			//switch power off
        return 0;
     }
     lcd_fix_string(BatWeak);		//Battery weak
    2356:	87 e7       	ldi	r24, 0x77	; 119
    2358:	90 e0       	ldi	r25, 0x00	; 0
    235a:	02 c0       	rjmp	.+4      	; 0x2360 <main+0x1ce>
  } else { // Battery-voltage OK
     lcd_fix_string(OK); 		// "OK"
    235c:	8d e0       	ldi	r24, 0x0D	; 13
    235e:	91 e0       	ldi	r25, 0x01	; 1
    2360:	0e 94 dd 00 	call	0x1ba	; 0x1ba <lcd_fix_string>
  }
#else
  lcd_fix_string(VERSION);		// if no Battery check, Version .. in row 1
#endif
#ifdef WDT_enabled
  wdt_enable(WDTO_2S);		//Watchdog on
    2364:	2f e0       	ldi	r18, 0x0F	; 15
    2366:	88 e1       	ldi	r24, 0x18	; 24
    2368:	90 e0       	ldi	r25, 0x00	; 0
    236a:	0f b6       	in	r0, 0x3f	; 63
    236c:	f8 94       	cli
    236e:	a8 95       	wdr
    2370:	80 93 60 00 	sts	0x0060, r24
    2374:	0f be       	out	0x3f, r0	; 63
    2376:	20 93 60 00 	sts	0x0060, r18
#endif

//  wait1s();			// add mor time for reading batterie voltage
  // begin tests
#ifdef WITH_AUTO_REF
  RefVoltage();			//compute RHmultip = f(reference voltage)
    237a:	0e 94 5c 0a 	call	0x14b8	; 0x14b8 <RefVoltage>
#endif
  lcd_line2();			//LCD position row2, column 1
    237e:	80 ec       	ldi	r24, 0xC0	; 192
    2380:	0e 94 7c 00 	call	0xf8	; 0xf8 <lcd_command>
  lcd_fix_string(TestRunning);		//String: testing...
    2384:	8c e6       	ldi	r24, 0x6C	; 108
    2386:	90 e0       	ldi	r25, 0x00	; 0
    2388:	0e 94 dd 00 	call	0x1ba	; 0x1ba <lcd_fix_string>
  lcd_string(itoa((int)(trans.hfe[0] - 289), outval, 10));	//output temperature
  lcd_data(LCD_CHAR_DEGREE);
  lcd_data('C');
#endif
#ifndef DebugOut
  lcd_line2();			//LCD position row 2, column 1
    238c:	80 ec       	ldi	r24, 0xC0	; 192
    238e:	0e 94 7c 00 	call	0xf8	; 0xf8 <lcd_command>
#endif
#ifdef C_MESS
  #define AUSGABE_FUNKTION
  EntladePins();		// discharge all capacitors!
    2392:	0e 94 79 07 	call	0xef2	; 0xef2 <EntladePins>
  if(PartFound == PART_CELL) {
    2396:	80 91 07 01 	lds	r24, 0x0107
    239a:	88 30       	cpi	r24, 0x08	; 8
    239c:	91 f4       	brne	.+36     	; 0x23c2 <main+0x230>
    lcd_clear();
    239e:	0e 94 88 00 	call	0x110	; 0x110 <lcd_clear>
//    lcd_line1();
    lcd_data('C');
    23a2:	83 e4       	ldi	r24, 0x43	; 67
    23a4:	0e 94 80 00 	call	0x100	; 0x100 <lcd_data>
    lcd_data('e');
    23a8:	85 e6       	ldi	r24, 0x65	; 101
    23aa:	0e 94 80 00 	call	0x100	; 0x100 <lcd_data>
    lcd_data('l');
    23ae:	8c e6       	ldi	r24, 0x6C	; 108
    23b0:	0e 94 80 00 	call	0x100	; 0x100 <lcd_data>
    lcd_data('l');
    23b4:	8c e6       	ldi	r24, 0x6C	; 108
    23b6:	0e 94 80 00 	call	0x100	; 0x100 <lcd_data>
    lcd_data('!');
    23ba:	81 e2       	ldi	r24, 0x21	; 33
    23bc:	0e 94 80 00 	call	0x100	; 0x100 <lcd_data>
    goto end2;
    23c0:	79 c3       	rjmp	.+1778   	; 0x2ab4 <main+0x922>
  }
#endif
#ifdef WITH_SELFTEST
  AutoCheck();			//check, if selftest should be done
    23c2:	0e 94 b2 0b 	call	0x1764	; 0x1764 <AutoCheck>
#endif
     
  // check all 6 combinations for the 3 pins 
  CheckPins(TP1, TP2, TP3);
    23c6:	80 e0       	ldi	r24, 0x00	; 0
    23c8:	61 e0       	ldi	r22, 0x01	; 1
    23ca:	42 e0       	ldi	r20, 0x02	; 2
    23cc:	0e 94 26 01 	call	0x24c	; 0x24c <CheckPins>
  CheckPins(TP1, TP3, TP2);
    23d0:	80 e0       	ldi	r24, 0x00	; 0
    23d2:	62 e0       	ldi	r22, 0x02	; 2
    23d4:	41 e0       	ldi	r20, 0x01	; 1
    23d6:	0e 94 26 01 	call	0x24c	; 0x24c <CheckPins>
  CheckPins(TP2, TP1, TP3);
    23da:	81 e0       	ldi	r24, 0x01	; 1
    23dc:	60 e0       	ldi	r22, 0x00	; 0
    23de:	42 e0       	ldi	r20, 0x02	; 2
    23e0:	0e 94 26 01 	call	0x24c	; 0x24c <CheckPins>
  CheckPins(TP2, TP3, TP1);
    23e4:	81 e0       	ldi	r24, 0x01	; 1
    23e6:	62 e0       	ldi	r22, 0x02	; 2
    23e8:	40 e0       	ldi	r20, 0x00	; 0
    23ea:	0e 94 26 01 	call	0x24c	; 0x24c <CheckPins>
  CheckPins(TP3, TP2, TP1);
    23ee:	82 e0       	ldi	r24, 0x02	; 2
    23f0:	61 e0       	ldi	r22, 0x01	; 1
    23f2:	40 e0       	ldi	r20, 0x00	; 0
    23f4:	0e 94 26 01 	call	0x24c	; 0x24c <CheckPins>
  CheckPins(TP3, TP1, TP2);
    23f8:	82 e0       	ldi	r24, 0x02	; 2
    23fa:	60 e0       	ldi	r22, 0x00	; 0
    23fc:	41 e0       	ldi	r20, 0x01	; 1
    23fe:	0e 94 26 01 	call	0x24c	; 0x24c <CheckPins>
  
#ifdef C_MESS
  //separate check if is is a capacitor
  if(((PartFound == PART_NONE) || (PartFound == PART_RESISTOR) || (PartFound == PART_DIODE)) ) {
    2402:	80 91 07 01 	lds	r24, 0x0107
    2406:	88 23       	and	r24, r24
    2408:	21 f0       	breq	.+8      	; 0x2412 <main+0x280>
    240a:	86 30       	cpi	r24, 0x06	; 6
    240c:	11 f0       	breq	.+4      	; 0x2412 <main+0x280>
    240e:	81 30       	cpi	r24, 0x01	; 1
    2410:	71 f4       	brne	.+28     	; 0x242e <main+0x29c>
     EntladePins();		// discharge capacities
    2412:	0e 94 79 07 	call	0xef2	; 0xef2 <EntladePins>
     //measurement of capacities in all 3 combinations
     ReadCapacity(TP3, TP1);
    2416:	82 e0       	ldi	r24, 0x02	; 2
    2418:	60 e0       	ldi	r22, 0x00	; 0
    241a:	0e 94 54 08 	call	0x10a8	; 0x10a8 <ReadCapacity>
     ReadCapacity(TP3, TP2);
    241e:	82 e0       	ldi	r24, 0x02	; 2
    2420:	61 e0       	ldi	r22, 0x01	; 1
    2422:	0e 94 54 08 	call	0x10a8	; 0x10a8 <ReadCapacity>
     ReadCapacity(TP2, TP1);
    2426:	81 e0       	ldi	r24, 0x01	; 1
    2428:	60 e0       	ldi	r22, 0x00	; 0
    242a:	0e 94 54 08 	call	0x10a8	; 0x10a8 <ReadCapacity>
  }
#endif
  //All checks are done, output result to display
  lcd_clear();
    242e:	0e 94 88 00 	call	0x110	; 0x110 <lcd_clear>
//  lcd_line1();
  if(PartFound == PART_DIODE) {
    2432:	80 91 07 01 	lds	r24, 0x0107
    2436:	81 30       	cpi	r24, 0x01	; 1
    2438:	09 f0       	breq	.+2      	; 0x243c <main+0x2aa>
    243a:	00 c1       	rjmp	.+512    	; 0x263c <main+0x4aa>
     if(NumOfDiodes == 1) {		//single Diode
    243c:	90 91 05 01 	lds	r25, 0x0105
    2440:	91 30       	cpi	r25, 0x01	; 1
    2442:	51 f5       	brne	.+84     	; 0x2498 <main+0x306>
        lcd_fix_string(Diode);		//"Diode: "
    2444:	81 e9       	ldi	r24, 0x91	; 145
    2446:	90 e0       	ldi	r25, 0x00	; 0
    2448:	0e 94 dd 00 	call	0x1ba	; 0x1ba <lcd_fix_string>
        lcd_testpin(diodes[0].Anode);
    244c:	80 91 48 01 	lds	r24, 0x0148
    2450:	0e 94 84 00 	call	0x108	; 0x108 <lcd_testpin>
        lcd_fix_string(AnKat);		//"->|-"
    2454:	8b e4       	ldi	r24, 0x4B	; 75
    2456:	91 e0       	ldi	r25, 0x01	; 1
    2458:	0e 94 dd 00 	call	0x1ba	; 0x1ba <lcd_fix_string>
        lcd_testpin(diodes[0].Cathode);
    245c:	80 91 49 01 	lds	r24, 0x0149
    2460:	0e 94 84 00 	call	0x108	; 0x108 <lcd_testpin>
        UfAusgabe(0x70);
    2464:	80 e7       	ldi	r24, 0x70	; 112
    2466:	0e 94 9e 0b 	call	0x173c	; 0x173c <UfAusgabe>
#ifdef C_MESS
        lcd_fix_string(GateCap);		//"C="
    246a:	8a e1       	ldi	r24, 0x1A	; 26
    246c:	91 e0       	ldi	r25, 0x01	; 1
    246e:	0e 94 dd 00 	call	0x1ba	; 0x1ba <lcd_fix_string>
        ReadCapacity(diodes[0].Cathode,diodes[0].Anode);	// Capacity opposite flow direction
    2472:	80 91 49 01 	lds	r24, 0x0149
    2476:	60 91 48 01 	lds	r22, 0x0148
    247a:	0e 94 54 08 	call	0x10a8	; 0x10a8 <ReadCapacity>
        DisplayValue(cval,cpre,'F',3);
    247e:	60 91 60 01 	lds	r22, 0x0160
    2482:	70 91 61 01 	lds	r23, 0x0161
    2486:	80 91 62 01 	lds	r24, 0x0162
    248a:	90 91 63 01 	lds	r25, 0x0163
    248e:	40 91 32 01 	lds	r20, 0x0132
    2492:	26 e4       	ldi	r18, 0x46	; 70
    2494:	03 e0       	ldi	r16, 0x03	; 3
    2496:	d2 c2       	rjmp	.+1444   	; 0x2a3c <main+0x8aa>
#endif
        goto end;
     } else if(NumOfDiodes == 2) { // double diode
    2498:	92 30       	cpi	r25, 0x02	; 2
    249a:	09 f0       	breq	.+2      	; 0x249e <main+0x30c>
    249c:	4c c0       	rjmp	.+152    	; 0x2536 <main+0x3a4>
        lcd_data('2');
    249e:	82 e3       	ldi	r24, 0x32	; 50
    24a0:	0e 94 80 00 	call	0x100	; 0x100 <lcd_data>
        lcd_fix_string(Dioden);		//"diodes "
    24a4:	83 e5       	ldi	r24, 0x53	; 83
    24a6:	91 e0       	ldi	r25, 0x01	; 1
    24a8:	0e 94 dd 00 	call	0x1ba	; 0x1ba <lcd_fix_string>
        if(diodes[0].Anode == diodes[1].Anode) { //Common Anode
    24ac:	90 91 48 01 	lds	r25, 0x0148
    24b0:	20 91 4c 01 	lds	r18, 0x014C
    24b4:	92 17       	cp	r25, r18
    24b6:	59 f4       	brne	.+22     	; 0x24ce <main+0x33c>
           lcd_testpin(diodes[0].Cathode);
    24b8:	80 91 49 01 	lds	r24, 0x0149
    24bc:	0e 94 84 00 	call	0x108	; 0x108 <lcd_testpin>
           lcd_fix_string(KatAn);	//"-|<-"
    24c0:	8f e4       	ldi	r24, 0x4F	; 79
    24c2:	91 e0       	ldi	r25, 0x01	; 1
    24c4:	0e 94 dd 00 	call	0x1ba	; 0x1ba <lcd_fix_string>
           lcd_testpin(diodes[0].Anode);
    24c8:	80 91 48 01 	lds	r24, 0x0148
    24cc:	2b c0       	rjmp	.+86     	; 0x2524 <main+0x392>
           lcd_fix_string(AnKat);	//"->|-"
           lcd_testpin(diodes[1].Cathode);
           UfAusgabe(0x01);
           goto end;
        } else if(diodes[0].Cathode == diodes[1].Cathode) { //Common Cathode
    24ce:	30 91 49 01 	lds	r19, 0x0149
    24d2:	80 91 4d 01 	lds	r24, 0x014D
    24d6:	38 17       	cp	r19, r24
    24d8:	b9 f4       	brne	.+46     	; 0x2508 <main+0x376>
           lcd_testpin(diodes[0].Anode);
    24da:	89 2f       	mov	r24, r25
    24dc:	0e 94 84 00 	call	0x108	; 0x108 <lcd_testpin>
           lcd_fix_string(AnKat);	//"->|-"
    24e0:	8b e4       	ldi	r24, 0x4B	; 75
    24e2:	91 e0       	ldi	r25, 0x01	; 1
    24e4:	0e 94 dd 00 	call	0x1ba	; 0x1ba <lcd_fix_string>
	   lcd_testpin(diodes[0].Cathode);
    24e8:	80 91 49 01 	lds	r24, 0x0149
    24ec:	0e 94 84 00 	call	0x108	; 0x108 <lcd_testpin>
           lcd_fix_string(KatAn);	//"-|<-"
    24f0:	8f e4       	ldi	r24, 0x4F	; 79
    24f2:	91 e0       	ldi	r25, 0x01	; 1
    24f4:	0e 94 dd 00 	call	0x1ba	; 0x1ba <lcd_fix_string>
           lcd_testpin(diodes[1].Anode);
    24f8:	80 91 4c 01 	lds	r24, 0x014C
    24fc:	0e 94 84 00 	call	0x108	; 0x108 <lcd_testpin>
           UfAusgabe(0x01);
    2500:	81 e0       	ldi	r24, 0x01	; 1
    2502:	0e 94 9e 0b 	call	0x173c	; 0x173c <UfAusgabe>
           goto end;
    2506:	cf c2       	rjmp	.+1438   	; 0x2aa6 <main+0x914>
          }
        else if ((diodes[0].Cathode == diodes[1].Anode) && (diodes[1].Cathode == diodes[0].Anode)) {
    2508:	32 17       	cp	r19, r18
    250a:	09 f0       	breq	.+2      	; 0x250e <main+0x37c>
    250c:	9a c2       	rjmp	.+1332   	; 0x2a42 <main+0x8b0>
    250e:	89 17       	cp	r24, r25
    2510:	09 f0       	breq	.+2      	; 0x2514 <main+0x382>
    2512:	97 c2       	rjmp	.+1326   	; 0x2a42 <main+0x8b0>
           //Antiparallel
           lcd_testpin(diodes[0].Anode);
    2514:	0e 94 84 00 	call	0x108	; 0x108 <lcd_testpin>
           lcd_fix_string(AnKat);	//"->|-"
    2518:	8b e4       	ldi	r24, 0x4B	; 75
    251a:	91 e0       	ldi	r25, 0x01	; 1
    251c:	0e 94 dd 00 	call	0x1ba	; 0x1ba <lcd_fix_string>
           lcd_testpin(diodes[0].Cathode);
    2520:	80 91 49 01 	lds	r24, 0x0149
    2524:	0e 94 84 00 	call	0x108	; 0x108 <lcd_testpin>
           lcd_fix_string(AnKat);	//"->|-"
    2528:	8b e4       	ldi	r24, 0x4B	; 75
    252a:	91 e0       	ldi	r25, 0x01	; 1
    252c:	0e 94 dd 00 	call	0x1ba	; 0x1ba <lcd_fix_string>
           lcd_testpin(diodes[1].Cathode);
    2530:	80 91 4d 01 	lds	r24, 0x014D
    2534:	e3 cf       	rjmp	.-58     	; 0x24fc <main+0x36a>
           UfAusgabe(0x01);
           goto end;
        }
     } else if(NumOfDiodes == 3) {
    2536:	93 30       	cpi	r25, 0x03	; 3
    2538:	09 f0       	breq	.+2      	; 0x253c <main+0x3aa>
    253a:	83 c2       	rjmp	.+1286   	; 0x2a42 <main+0x8b0>
        //Serial of 2 Diodes; was detected as 3 Diodes 
        trans.b = 3;
    253c:	90 93 3b 01 	sts	0x013B, r25
        trans.c = 3;
    2540:	90 93 3c 01 	sts	0x013C, r25
        /* Check for any constallation of 2 serial diodes:
          Only once the pin No of anyone Cathode is identical of another anode.
          two diodes in series is additionally detected as third big diode.
        */
        if(diodes[0].Cathode == diodes[1].Anode)
    2544:	50 91 49 01 	lds	r21, 0x0149
    2548:	90 91 4c 01 	lds	r25, 0x014C
    254c:	59 17       	cp	r21, r25
    254e:	21 f4       	brne	.+8      	; 0x2558 <main+0x3c6>
          {
           trans.b = 0;
    2550:	10 92 3b 01 	sts	0x013B, r1
           trans.c = 1;
    2554:	80 93 3c 01 	sts	0x013C, r24
          }
        if(diodes[0].Anode == diodes[1].Cathode)
    2558:	40 91 48 01 	lds	r20, 0x0148
    255c:	30 91 4d 01 	lds	r19, 0x014D
    2560:	43 17       	cp	r20, r19
    2562:	29 f4       	brne	.+10     	; 0x256e <main+0x3dc>
          {
           trans.b = 1;
    2564:	81 e0       	ldi	r24, 0x01	; 1
    2566:	80 93 3b 01 	sts	0x013B, r24
           trans.c = 0;
    256a:	10 92 3c 01 	sts	0x013C, r1
          }
        if(diodes[0].Cathode == diodes[2].Anode)
    256e:	20 91 50 01 	lds	r18, 0x0150
    2572:	52 17       	cp	r21, r18
    2574:	29 f4       	brne	.+10     	; 0x2580 <main+0x3ee>
          {
           trans.b = 0;
    2576:	10 92 3b 01 	sts	0x013B, r1
           trans.c = 2;
    257a:	82 e0       	ldi	r24, 0x02	; 2
    257c:	80 93 3c 01 	sts	0x013C, r24
          }
        if(diodes[0].Anode == diodes[2].Cathode)
    2580:	80 91 51 01 	lds	r24, 0x0151
    2584:	48 17       	cp	r20, r24
    2586:	29 f4       	brne	.+10     	; 0x2592 <main+0x400>
          {
           trans.b = 2;
    2588:	42 e0       	ldi	r20, 0x02	; 2
    258a:	40 93 3b 01 	sts	0x013B, r20
           trans.c = 0;
    258e:	10 92 3c 01 	sts	0x013C, r1
          }
        if(diodes[1].Cathode == diodes[2].Anode)
    2592:	32 17       	cp	r19, r18
    2594:	31 f4       	brne	.+12     	; 0x25a2 <main+0x410>
          {
           trans.b = 1;
    2596:	21 e0       	ldi	r18, 0x01	; 1
    2598:	20 93 3b 01 	sts	0x013B, r18
           trans.c = 2;
    259c:	22 e0       	ldi	r18, 0x02	; 2
    259e:	20 93 3c 01 	sts	0x013C, r18
          }
        if(diodes[1].Anode == diodes[2].Cathode)
    25a2:	98 17       	cp	r25, r24
    25a4:	31 f4       	brne	.+12     	; 0x25b2 <main+0x420>
          {
           trans.b = 2;
    25a6:	82 e0       	ldi	r24, 0x02	; 2
    25a8:	80 93 3b 01 	sts	0x013B, r24
           trans.c = 1;
    25ac:	81 e0       	ldi	r24, 0x01	; 1
    25ae:	80 93 3c 01 	sts	0x013C, r24
        lcd_testpin(diodes[2].Cathode);
        lcd_data(' ');
        lcd_string(utoa(diodes[2].Voltage, outval, 10));
        lcd_line1();
#endif
        if((trans.b<3) && (trans.c<3)) {
    25b2:	80 91 3b 01 	lds	r24, 0x013B
    25b6:	83 30       	cpi	r24, 0x03	; 3
    25b8:	08 f0       	brcs	.+2      	; 0x25bc <main+0x42a>
    25ba:	43 c2       	rjmp	.+1158   	; 0x2a42 <main+0x8b0>
    25bc:	80 91 3c 01 	lds	r24, 0x013C
    25c0:	83 30       	cpi	r24, 0x03	; 3
    25c2:	08 f0       	brcs	.+2      	; 0x25c6 <main+0x434>
    25c4:	3e c2       	rjmp	.+1148   	; 0x2a42 <main+0x8b0>
           lcd_data('3');
    25c6:	83 e3       	ldi	r24, 0x33	; 51
    25c8:	0e 94 80 00 	call	0x100	; 0x100 <lcd_data>
           lcd_fix_string(Dioden);	//"Diodes "
    25cc:	83 e5       	ldi	r24, 0x53	; 83
    25ce:	91 e0       	ldi	r25, 0x01	; 1
    25d0:	0e 94 dd 00 	call	0x1ba	; 0x1ba <lcd_fix_string>
           lcd_testpin(diodes[trans.b].Anode);
    25d4:	e0 91 3b 01 	lds	r30, 0x013B
    25d8:	f0 e0       	ldi	r31, 0x00	; 0
    25da:	ee 0f       	add	r30, r30
    25dc:	ff 1f       	adc	r31, r31
    25de:	ee 0f       	add	r30, r30
    25e0:	ff 1f       	adc	r31, r31
    25e2:	e8 5b       	subi	r30, 0xB8	; 184
    25e4:	fe 4f       	sbci	r31, 0xFE	; 254
    25e6:	80 81       	ld	r24, Z
    25e8:	0e 94 84 00 	call	0x108	; 0x108 <lcd_testpin>
           lcd_fix_string(AnKat);	//"->|-"
    25ec:	8b e4       	ldi	r24, 0x4B	; 75
    25ee:	91 e0       	ldi	r25, 0x01	; 1
    25f0:	0e 94 dd 00 	call	0x1ba	; 0x1ba <lcd_fix_string>
           lcd_testpin(diodes[trans.b].Cathode);
    25f4:	e0 91 3b 01 	lds	r30, 0x013B
    25f8:	f0 e0       	ldi	r31, 0x00	; 0
    25fa:	ee 0f       	add	r30, r30
    25fc:	ff 1f       	adc	r31, r31
    25fe:	ee 0f       	add	r30, r30
    2600:	ff 1f       	adc	r31, r31
    2602:	e8 5b       	subi	r30, 0xB8	; 184
    2604:	fe 4f       	sbci	r31, 0xFE	; 254
    2606:	81 81       	ldd	r24, Z+1	; 0x01
    2608:	0e 94 84 00 	call	0x108	; 0x108 <lcd_testpin>
           lcd_fix_string(AnKat);	//"->|-"
    260c:	8b e4       	ldi	r24, 0x4B	; 75
    260e:	91 e0       	ldi	r25, 0x01	; 1
    2610:	0e 94 dd 00 	call	0x1ba	; 0x1ba <lcd_fix_string>
           lcd_testpin(diodes[trans.c].Cathode);
    2614:	e0 91 3c 01 	lds	r30, 0x013C
    2618:	f0 e0       	ldi	r31, 0x00	; 0
    261a:	ee 0f       	add	r30, r30
    261c:	ff 1f       	adc	r31, r31
    261e:	ee 0f       	add	r30, r30
    2620:	ff 1f       	adc	r31, r31
    2622:	e8 5b       	subi	r30, 0xB8	; 184
    2624:	fe 4f       	sbci	r31, 0xFE	; 254
    2626:	81 81       	ldd	r24, Z+1	; 0x01
    2628:	0e 94 84 00 	call	0x108	; 0x108 <lcd_testpin>
           UfAusgabe( (trans.b<<4)|trans.c);
    262c:	80 91 3b 01 	lds	r24, 0x013B
    2630:	82 95       	swap	r24
    2632:	80 7f       	andi	r24, 0xF0	; 240
    2634:	90 91 3c 01 	lds	r25, 0x013C
    2638:	89 2b       	or	r24, r25
    263a:	63 cf       	rjmp	.-314    	; 0x2502 <main+0x370>
           goto end;
        }
     }
     // end (PartFound == PART_DIODE)
  } else if (PartFound == PART_TRANSISTOR) {
    263c:	82 30       	cpi	r24, 0x02	; 2
    263e:	09 f0       	breq	.+2      	; 0x2642 <main+0x4b0>
    2640:	72 c0       	rjmp	.+228    	; 0x2726 <main+0x594>
    if(PartReady != 0) {
    2642:	80 91 04 01 	lds	r24, 0x0104
    2646:	88 23       	and	r24, r24
    2648:	01 f1       	breq	.+64     	; 0x268a <main+0x4f8>
       if((trans.hfe[0]>trans.hfe[1])) {
    264a:	80 91 35 01 	lds	r24, 0x0135
    264e:	90 91 36 01 	lds	r25, 0x0136
    2652:	20 91 33 01 	lds	r18, 0x0133
    2656:	30 91 34 01 	lds	r19, 0x0134
    265a:	82 17       	cp	r24, r18
    265c:	93 07       	cpc	r25, r19
    265e:	48 f4       	brcc	.+18     	; 0x2672 <main+0x4e0>
          //if the amplification factor was higher at first testr: swap C and E !
          tmp = trans.c;
    2660:	80 91 3c 01 	lds	r24, 0x013C
          trans.c = trans.e;
    2664:	90 91 3d 01 	lds	r25, 0x013D
    2668:	90 93 3c 01 	sts	0x013C, r25
          trans.e = tmp;
    266c:	80 93 3d 01 	sts	0x013D, r24
    2670:	0c c0       	rjmp	.+24     	; 0x268a <main+0x4f8>
       } else {
          trans.hfe[0] = trans.hfe[1];
    2672:	90 93 34 01 	sts	0x0134, r25
    2676:	80 93 33 01 	sts	0x0133, r24
          trans.uBE[0] = trans.uBE[1];
    267a:	80 91 39 01 	lds	r24, 0x0139
    267e:	90 91 3a 01 	lds	r25, 0x013A
    2682:	90 93 38 01 	sts	0x0138, r25
    2686:	80 93 37 01 	sts	0x0137, r24
       }
    }

    if(PartMode == PART_MODE_NPN) {
    268a:	80 91 06 01 	lds	r24, 0x0106
    268e:	81 30       	cpi	r24, 0x01	; 1
    2690:	19 f4       	brne	.+6      	; 0x2698 <main+0x506>
       lcd_fix_string(NPN);		//"NPN "
    2692:	80 e2       	ldi	r24, 0x20	; 32
    2694:	91 e0       	ldi	r25, 0x01	; 1
    2696:	02 c0       	rjmp	.+4      	; 0x269c <main+0x50a>
    } else {
       lcd_fix_string(PNP);		//"PNP "
    2698:	85 e2       	ldi	r24, 0x25	; 37
    269a:	91 e0       	ldi	r25, 0x01	; 1
    269c:	0e 94 dd 00 	call	0x1ba	; 0x1ba <lcd_fix_string>
    }
    if(NumOfDiodes > 2) {	//Transistor with protection diode
    26a0:	80 91 05 01 	lds	r24, 0x0105
    26a4:	83 30       	cpi	r24, 0x03	; 3
    26a6:	58 f0       	brcs	.+22     	; 0x26be <main+0x52c>
       if(PartMode == PART_MODE_NPN) {
    26a8:	80 91 06 01 	lds	r24, 0x0106
    26ac:	81 30       	cpi	r24, 0x01	; 1
    26ae:	19 f4       	brne	.+6      	; 0x26b6 <main+0x524>
          lcd_fix_string(AnKat);	//"->|-"
    26b0:	8b e4       	ldi	r24, 0x4B	; 75
    26b2:	91 e0       	ldi	r25, 0x01	; 1
    26b4:	02 c0       	rjmp	.+4      	; 0x26ba <main+0x528>
       } else {
          lcd_fix_string(KatAn);	//"-|<-"
    26b6:	8f e4       	ldi	r24, 0x4F	; 79
    26b8:	91 e0       	ldi	r25, 0x01	; 1
    26ba:	0e 94 dd 00 	call	0x1ba	; 0x1ba <lcd_fix_string>
       }
    }
    lcd_fix_string(ebcstr);		//" EBC="
    26be:	8a e2       	ldi	r24, 0x2A	; 42
    26c0:	91 e0       	ldi	r25, 0x01	; 1
    26c2:	0e 94 dd 00 	call	0x1ba	; 0x1ba <lcd_fix_string>
    lcd_testpin(trans.e);
    26c6:	80 91 3d 01 	lds	r24, 0x013D
    26ca:	0e 94 84 00 	call	0x108	; 0x108 <lcd_testpin>
    lcd_testpin(trans.b);
    26ce:	80 91 3b 01 	lds	r24, 0x013B
    26d2:	0e 94 84 00 	call	0x108	; 0x108 <lcd_testpin>
    lcd_testpin(trans.c);
    26d6:	80 91 3c 01 	lds	r24, 0x013C
    26da:	0e 94 84 00 	call	0x108	; 0x108 <lcd_testpin>
    lcd_line2(); //2. row 
    26de:	80 ec       	ldi	r24, 0xC0	; 192
    26e0:	0e 94 7c 00 	call	0xf8	; 0xf8 <lcd_command>
    lcd_fix_string(hfestr);		//"B="  (hFE)
    26e4:	8d e1       	ldi	r24, 0x1D	; 29
    26e6:	91 e0       	ldi	r25, 0x01	; 1
    26e8:	0e 94 dd 00 	call	0x1ba	; 0x1ba <lcd_fix_string>
    lcd_string(utoa(trans.hfe[0], outval, 10));
    26ec:	80 91 33 01 	lds	r24, 0x0133
    26f0:	90 91 34 01 	lds	r25, 0x0134
    26f4:	6b e0       	ldi	r22, 0x0B	; 11
    26f6:	71 e0       	ldi	r23, 0x01	; 1
    26f8:	4a e0       	ldi	r20, 0x0A	; 10
    26fa:	50 e0       	ldi	r21, 0x00	; 0
    26fc:	0e 94 dc 16 	call	0x2db8	; 0x2db8 <utoa>
    2700:	0e 94 b9 00 	call	0x172	; 0x172 <lcd_string>
    lcd_data(' ');
    2704:	80 e2       	ldi	r24, 0x20	; 32
    2706:	0e 94 80 00 	call	0x100	; 0x100 <lcd_data>

    lcd_fix_string(Uf);		//"Uf="
    270a:	86 e3       	ldi	r24, 0x36	; 54
    270c:	91 e0       	ldi	r25, 0x01	; 1
    270e:	0e 94 dd 00 	call	0x1ba	; 0x1ba <lcd_fix_string>
    diodes[2].Voltage = trans.uBE[0];
    2712:	80 91 37 01 	lds	r24, 0x0137
    2716:	90 91 38 01 	lds	r25, 0x0138
    271a:	90 93 53 01 	sts	0x0153, r25
    271e:	80 93 52 01 	sts	0x0152, r24
    mVAusgabe(2);		// output: xxxxmV
    2722:	82 e0       	ldi	r24, 0x02	; 2
    2724:	90 c0       	rjmp	.+288    	; 0x2846 <main+0x6b4>
    goto end;
    // end (PartFound == PART_TRANSISTOR)
  } else if (PartFound == PART_FET) {	//JFET or MOSFET
    2726:	83 30       	cpi	r24, 0x03	; 3
    2728:	09 f0       	breq	.+2      	; 0x272c <main+0x59a>
    272a:	90 c0       	rjmp	.+288    	; 0x284c <main+0x6ba>
    if(PartMode&1) {
    272c:	80 91 06 01 	lds	r24, 0x0106
    2730:	80 ff       	sbrs	r24, 0
    2732:	02 c0       	rjmp	.+4      	; 0x2738 <main+0x5a6>
       //N-Kanal
       lcd_data('P');			//P-channel
    2734:	80 e5       	ldi	r24, 0x50	; 80
    2736:	01 c0       	rjmp	.+2      	; 0x273a <main+0x5a8>
    } else {
       lcd_data('N');			//N-channel
    2738:	8e e4       	ldi	r24, 0x4E	; 78
    273a:	0e 94 80 00 	call	0x100	; 0x100 <lcd_data>
    }
    lcd_data('-');
    273e:	8d e2       	ldi	r24, 0x2D	; 45
    2740:	0e 94 80 00 	call	0x100	; 0x100 <lcd_data>

    tmp = PartMode/2;
    2744:	80 91 06 01 	lds	r24, 0x0106
    2748:	86 95       	lsr	r24
    if (tmp == (PART_MODE_N_D_MOS/2)) {
    274a:	82 30       	cpi	r24, 0x02	; 2
    274c:	11 f4       	brne	.+4      	; 0x2752 <main+0x5c0>
       lcd_data('D');			// N-D
    274e:	84 e4       	ldi	r24, 0x44	; 68
    2750:	03 c0       	rjmp	.+6      	; 0x2758 <main+0x5c6>
    }
    if (tmp == (PART_MODE_N_E_MOS/2)) {
    2752:	81 30       	cpi	r24, 0x01	; 1
    2754:	21 f4       	brne	.+8      	; 0x275e <main+0x5cc>
       lcd_data('E');			// N-E
    2756:	85 e4       	ldi	r24, 0x45	; 69
    2758:	0e 94 80 00 	call	0x100	; 0x100 <lcd_data>
    275c:	05 c0       	rjmp	.+10     	; 0x2768 <main+0x5d6>
    }
    if (tmp == (PART_MODE_N_JFET/2)) {
    275e:	83 30       	cpi	r24, 0x03	; 3
    2760:	19 f4       	brne	.+6      	; 0x2768 <main+0x5d6>
       lcd_fix_string(jfet);		//"JFET"
    2762:	85 e1       	ldi	r24, 0x15	; 21
    2764:	91 e0       	ldi	r25, 0x01	; 1
    2766:	02 c0       	rjmp	.+4      	; 0x276c <main+0x5da>
    } else {
       lcd_fix_string(mosfet);		//"-MOS "
    2768:	80 e1       	ldi	r24, 0x10	; 16
    276a:	91 e0       	ldi	r25, 0x01	; 1
    276c:	0e 94 dd 00 	call	0x1ba	; 0x1ba <lcd_fix_string>
    }
    lcd_fix_string(gds);		//"GDS="
    2770:	80 e3       	ldi	r24, 0x30	; 48
    2772:	91 e0       	ldi	r25, 0x01	; 1
    2774:	0e 94 dd 00 	call	0x1ba	; 0x1ba <lcd_fix_string>
    lcd_testpin(trans.b);
    2778:	80 91 3b 01 	lds	r24, 0x013B
    277c:	0e 94 84 00 	call	0x108	; 0x108 <lcd_testpin>
    lcd_testpin(trans.c);
    2780:	80 91 3c 01 	lds	r24, 0x013C
    2784:	0e 94 84 00 	call	0x108	; 0x108 <lcd_testpin>
    lcd_testpin(trans.e);
    2788:	80 91 3d 01 	lds	r24, 0x013D
    278c:	0e 94 84 00 	call	0x108	; 0x108 <lcd_testpin>
    if((NumOfDiodes > 0) && (PartMode < PART_MODE_N_D_MOS)) {
    2790:	80 91 05 01 	lds	r24, 0x0105
    2794:	88 23       	and	r24, r24
    2796:	59 f0       	breq	.+22     	; 0x27ae <main+0x61c>
    2798:	80 91 06 01 	lds	r24, 0x0106
    279c:	84 30       	cpi	r24, 0x04	; 4
    279e:	38 f4       	brcc	.+14     	; 0x27ae <main+0x61c>
       //MOSFET with protection diode; only with enhancement-FETs
       if (PartMode&1) {
    27a0:	80 ff       	sbrs	r24, 0
    27a2:	02 c0       	rjmp	.+4      	; 0x27a8 <main+0x616>
          lcd_data(LCD_CHAR_DIODE1);	//show Diode symbol >|
    27a4:	81 e0       	ldi	r24, 0x01	; 1
    27a6:	01 c0       	rjmp	.+2      	; 0x27aa <main+0x618>
       } else {
          lcd_data(LCD_CHAR_DIODE2);	//show Diode symbol |<
    27a8:	82 e0       	ldi	r24, 0x02	; 2
    27aa:	0e 94 80 00 	call	0x100	; 0x100 <lcd_data>
       }
    }
    lcd_line2();			//2. Row
    27ae:	80 ec       	ldi	r24, 0xC0	; 192
    27b0:	0e 94 7c 00 	call	0xf8	; 0xf8 <lcd_command>
    if(PartMode < PART_MODE_N_D_MOS) {	//enhancement-MOSFET
    27b4:	80 91 06 01 	lds	r24, 0x0106
    27b8:	84 30       	cpi	r24, 0x04	; 4
    27ba:	d8 f4       	brcc	.+54     	; 0x27f2 <main+0x660>
 #ifdef C_MESS	//Gate capacity
       lcd_fix_string(GateCap);		//"C="
    27bc:	8a e1       	ldi	r24, 0x1A	; 26
    27be:	91 e0       	ldi	r25, 0x01	; 1
    27c0:	0e 94 dd 00 	call	0x1ba	; 0x1ba <lcd_fix_string>
       ReadCapacity(trans.b,trans.e);	//measure capacity
    27c4:	80 91 3b 01 	lds	r24, 0x013B
    27c8:	60 91 3d 01 	lds	r22, 0x013D
    27cc:	0e 94 54 08 	call	0x10a8	; 0x10a8 <ReadCapacity>
       DisplayValue(cval,cpre,'F',3);
    27d0:	60 91 60 01 	lds	r22, 0x0160
    27d4:	70 91 61 01 	lds	r23, 0x0161
    27d8:	80 91 62 01 	lds	r24, 0x0162
    27dc:	90 91 63 01 	lds	r25, 0x0163
    27e0:	40 91 32 01 	lds	r20, 0x0132
    27e4:	26 e4       	ldi	r18, 0x46	; 70
    27e6:	03 e0       	ldi	r16, 0x03	; 3
    27e8:	0e 94 b5 0a 	call	0x156a	; 0x156a <DisplayValue>
 #endif
       lcd_fix_string(vt);		// "Vt="
    27ec:	8a e3       	ldi	r24, 0x3A	; 58
    27ee:	91 e0       	ldi	r25, 0x01	; 1
    27f0:	1f c0       	rjmp	.+62     	; 0x2830 <main+0x69e>
    } else {
       lcd_data('I');
    27f2:	89 e4       	ldi	r24, 0x49	; 73
    27f4:	0e 94 80 00 	call	0x100	; 0x100 <lcd_data>
       lcd_data('=');
    27f8:	8d e3       	ldi	r24, 0x3D	; 61
    27fa:	0e 94 80 00 	call	0x100	; 0x100 <lcd_data>
       utoa(trans.uBE[1]+100,outval,10);
    27fe:	80 91 39 01 	lds	r24, 0x0139
    2802:	90 91 3a 01 	lds	r25, 0x013A
    2806:	8c 59       	subi	r24, 0x9C	; 156
    2808:	9f 4f       	sbci	r25, 0xFF	; 255
    280a:	6b e0       	ldi	r22, 0x0B	; 11
    280c:	71 e0       	ldi	r23, 0x01	; 1
    280e:	4a e0       	ldi	r20, 0x0A	; 10
    2810:	50 e0       	ldi	r21, 0x00	; 0
    2812:	0e 94 dc 16 	call	0x2db8	; 0x2db8 <utoa>
       lcd_data(outval[1]);
    2816:	80 91 0c 01 	lds	r24, 0x010C
    281a:	0e 94 80 00 	call	0x100	; 0x100 <lcd_data>
       lcd_data('.');
    281e:	8e e2       	ldi	r24, 0x2E	; 46
    2820:	0e 94 80 00 	call	0x100	; 0x100 <lcd_data>
       lcd_data(outval[2]);
    2824:	80 91 0d 01 	lds	r24, 0x010D
    2828:	0e 94 80 00 	call	0x100	; 0x100 <lcd_data>
       lcd_fix_string(Vgs_str);		// "mA Vgs="
    282c:	8f e3       	ldi	r24, 0x3F	; 63
    282e:	91 e0       	ldi	r25, 0x01	; 1
    2830:	0e 94 dd 00 	call	0x1ba	; 0x1ba <lcd_fix_string>
    }
    //Gate-threshold voltage
    diodes[0].Voltage = gthvoltage;
    2834:	80 91 43 01 	lds	r24, 0x0143
    2838:	90 91 44 01 	lds	r25, 0x0144
    283c:	90 93 4b 01 	sts	0x014B, r25
    2840:	80 93 4a 01 	sts	0x014A, r24
    mVAusgabe(0);			//Output gthvoltage
    2844:	80 e0       	ldi	r24, 0x00	; 0
    2846:	0e 94 85 0b 	call	0x170a	; 0x170a <mVAusgabe>
    goto end;
    284a:	2d c1       	rjmp	.+602    	; 0x2aa6 <main+0x914>
    // end (PartFound == PART_FET)
  } else if (PartFound == PART_THYRISTOR) {
    284c:	85 30       	cpi	r24, 0x05	; 5
    284e:	19 f4       	brne	.+6      	; 0x2856 <main+0x6c4>
    lcd_fix_string(Thyristor);		//"Thyristor"
    2850:	84 ea       	ldi	r24, 0xA4	; 164
    2852:	90 e0       	ldi	r25, 0x00	; 0
    2854:	04 c0       	rjmp	.+8      	; 0x285e <main+0x6cc>
    goto gakAusgabe;
  } else if (PartFound == PART_TRIAC) {
    2856:	84 30       	cpi	r24, 0x04	; 4
    2858:	c1 f4       	brne	.+48     	; 0x288a <main+0x6f8>
    lcd_fix_string(Triac);		//"Triac"
    285a:	8e e9       	ldi	r24, 0x9E	; 158
    285c:	90 e0       	ldi	r25, 0x00	; 0
    285e:	0e 94 dd 00 	call	0x1ba	; 0x1ba <lcd_fix_string>
  mess_count = 0;
  goto end2;


gakAusgabe:
  lcd_line2(); //2. row 
    2862:	80 ec       	ldi	r24, 0xC0	; 192
    2864:	0e 94 7c 00 	call	0xf8	; 0xf8 <lcd_command>
  lcd_fix_string(GAK);		//"GAK="
    2868:	89 e9       	ldi	r24, 0x99	; 153
    286a:	90 e0       	ldi	r25, 0x00	; 0
    286c:	0e 94 dd 00 	call	0x1ba	; 0x1ba <lcd_fix_string>
  lcd_testpin(trans.b);
    2870:	80 91 3b 01 	lds	r24, 0x013B
    2874:	0e 94 84 00 	call	0x108	; 0x108 <lcd_testpin>
  lcd_testpin(trans.c);
    2878:	80 91 3c 01 	lds	r24, 0x013C
    287c:	0e 94 84 00 	call	0x108	; 0x108 <lcd_testpin>
  lcd_testpin(trans.e);
    2880:	80 91 3d 01 	lds	r24, 0x013D
    2884:	0e 94 84 00 	call	0x108	; 0x108 <lcd_testpin>
    2888:	0e c1       	rjmp	.+540    	; 0x2aa6 <main+0x914>
  } else if (PartFound == PART_TRIAC) {
    lcd_fix_string(Triac);		//"Triac"
    goto gakAusgabe;
  }
 #ifdef R_MESS	//resistor measurement is wanted
  else if(PartFound == PART_RESISTOR) {
    288a:	86 30       	cpi	r24, 0x06	; 6
    288c:	09 f0       	breq	.+2      	; 0x2890 <main+0x6fe>
    288e:	b9 c0       	rjmp	.+370    	; 0x2a02 <main+0x870>
    if (ResistorsFound == 1) { // single resistor
    2890:	60 91 3e 01 	lds	r22, 0x013E
    2894:	61 30       	cpi	r22, 0x01	; 1
    2896:	69 f4       	brne	.+26     	; 0x28b2 <main+0x720>
       lcd_testpin(resis[0].rb);  	//Pin-number 1
    2898:	80 91 1c 01 	lds	r24, 0x011C
    289c:	0e 94 84 00 	call	0x108	; 0x108 <lcd_testpin>
       lcd_fix_string(Resistor_str);
    28a0:	88 e5       	ldi	r24, 0x58	; 88
    28a2:	91 e0       	ldi	r25, 0x01	; 1
    28a4:	0e 94 dd 00 	call	0x1ba	; 0x1ba <lcd_fix_string>
       lcd_testpin(resis[0].ra);		//Pin-number 2
    28a8:	80 91 1b 01 	lds	r24, 0x011B
    28ac:	0e 94 84 00 	call	0x108	; 0x108 <lcd_testpin>
    28b0:	7f c0       	rjmp	.+254    	; 0x29b0 <main+0x81e>
    } else { // R-Max suchen
       ii = 0;
    28b2:	10 92 30 01 	sts	0x0130, r1
       if (resis[1].rx > resis[0].rx)
    28b6:	20 91 1e 01 	lds	r18, 0x011E
    28ba:	30 91 1f 01 	lds	r19, 0x011F
    28be:	40 91 20 01 	lds	r20, 0x0120
    28c2:	50 91 21 01 	lds	r21, 0x0121
    28c6:	80 91 17 01 	lds	r24, 0x0117
    28ca:	90 91 18 01 	lds	r25, 0x0118
    28ce:	a0 91 19 01 	lds	r26, 0x0119
    28d2:	b0 91 1a 01 	lds	r27, 0x011A
    28d6:	82 17       	cp	r24, r18
    28d8:	93 07       	cpc	r25, r19
    28da:	a4 07       	cpc	r26, r20
    28dc:	b5 07       	cpc	r27, r21
    28de:	18 f4       	brcc	.+6      	; 0x28e6 <main+0x754>
          ii = 1;
    28e0:	81 e0       	ldi	r24, 0x01	; 1
    28e2:	80 93 30 01 	sts	0x0130, r24
       if (ResistorsFound == 2) {
    28e6:	62 30       	cpi	r22, 0x02	; 2
    28e8:	19 f4       	brne	.+6      	; 0x28f0 <main+0x75e>
          ii = 2;
    28ea:	60 93 30 01 	sts	0x0130, r22
    28ee:	21 c0       	rjmp	.+66     	; 0x2932 <main+0x7a0>
       } else {
          if (resis[2].rx > resis[ii].rx) {
    28f0:	80 91 30 01 	lds	r24, 0x0130
    28f4:	90 e0       	ldi	r25, 0x00	; 0
    28f6:	fc 01       	movw	r30, r24
    28f8:	a3 e0       	ldi	r26, 0x03	; 3
    28fa:	ee 0f       	add	r30, r30
    28fc:	ff 1f       	adc	r31, r31
    28fe:	aa 95       	dec	r26
    2900:	e1 f7       	brne	.-8      	; 0x28fa <main+0x768>
    2902:	e8 1b       	sub	r30, r24
    2904:	f9 0b       	sbc	r31, r25
    2906:	e9 5e       	subi	r30, 0xE9	; 233
    2908:	fe 4f       	sbci	r31, 0xFE	; 254
    290a:	20 91 25 01 	lds	r18, 0x0125
    290e:	30 91 26 01 	lds	r19, 0x0126
    2912:	40 91 27 01 	lds	r20, 0x0127
    2916:	50 91 28 01 	lds	r21, 0x0128
    291a:	80 81       	ld	r24, Z
    291c:	91 81       	ldd	r25, Z+1	; 0x01
    291e:	a2 81       	ldd	r26, Z+2	; 0x02
    2920:	b3 81       	ldd	r27, Z+3	; 0x03
    2922:	82 17       	cp	r24, r18
    2924:	93 07       	cpc	r25, r19
    2926:	a4 07       	cpc	r26, r20
    2928:	b5 07       	cpc	r27, r21
    292a:	18 f4       	brcc	.+6      	; 0x2932 <main+0x7a0>
             ii = 2;
    292c:	82 e0       	ldi	r24, 0x02	; 2
    292e:	80 93 30 01 	sts	0x0130, r24
          }
       }

       if (ii == 0) {
    2932:	80 91 30 01 	lds	r24, 0x0130
    2936:	88 23       	and	r24, r24
    2938:	89 f4       	brne	.+34     	; 0x295c <main+0x7ca>
          lcd_data('1');
    293a:	81 e3       	ldi	r24, 0x31	; 49
    293c:	0e 94 80 00 	call	0x100	; 0x100 <lcd_data>
          lcd_fix_string(Resistor_str);	// -[=]-
    2940:	88 e5       	ldi	r24, 0x58	; 88
    2942:	91 e0       	ldi	r25, 0x01	; 1
    2944:	0e 94 dd 00 	call	0x1ba	; 0x1ba <lcd_fix_string>
          lcd_data('3');
    2948:	83 e3       	ldi	r24, 0x33	; 51
    294a:	0e 94 80 00 	call	0x100	; 0x100 <lcd_data>
          lcd_fix_string(Resistor_str);	// -[=]-
    294e:	88 e5       	ldi	r24, 0x58	; 88
    2950:	91 e0       	ldi	r25, 0x01	; 1
    2952:	0e 94 dd 00 	call	0x1ba	; 0x1ba <lcd_fix_string>
          lcd_data('2');
    2956:	82 e3       	ldi	r24, 0x32	; 50
    2958:	0e 94 80 00 	call	0x100	; 0x100 <lcd_data>
       }
       if (ii == 1) {
    295c:	80 91 30 01 	lds	r24, 0x0130
    2960:	81 30       	cpi	r24, 0x01	; 1
    2962:	89 f4       	brne	.+34     	; 0x2986 <main+0x7f4>
          lcd_data('1');
    2964:	81 e3       	ldi	r24, 0x31	; 49
    2966:	0e 94 80 00 	call	0x100	; 0x100 <lcd_data>
          lcd_fix_string(Resistor_str);	// -[=]-
    296a:	88 e5       	ldi	r24, 0x58	; 88
    296c:	91 e0       	ldi	r25, 0x01	; 1
    296e:	0e 94 dd 00 	call	0x1ba	; 0x1ba <lcd_fix_string>
          lcd_data('2');
    2972:	82 e3       	ldi	r24, 0x32	; 50
    2974:	0e 94 80 00 	call	0x100	; 0x100 <lcd_data>
          lcd_fix_string(Resistor_str);	// -[=]-
    2978:	88 e5       	ldi	r24, 0x58	; 88
    297a:	91 e0       	ldi	r25, 0x01	; 1
    297c:	0e 94 dd 00 	call	0x1ba	; 0x1ba <lcd_fix_string>
          lcd_data('3');
    2980:	83 e3       	ldi	r24, 0x33	; 51
    2982:	0e 94 80 00 	call	0x100	; 0x100 <lcd_data>
       }
       if (ii == 2) {
    2986:	80 91 30 01 	lds	r24, 0x0130
    298a:	82 30       	cpi	r24, 0x02	; 2
    298c:	89 f4       	brne	.+34     	; 0x29b0 <main+0x81e>
          lcd_data('2');
    298e:	82 e3       	ldi	r24, 0x32	; 50
    2990:	0e 94 80 00 	call	0x100	; 0x100 <lcd_data>
          lcd_fix_string(Resistor_str);	// -[=]-
    2994:	88 e5       	ldi	r24, 0x58	; 88
    2996:	91 e0       	ldi	r25, 0x01	; 1
    2998:	0e 94 dd 00 	call	0x1ba	; 0x1ba <lcd_fix_string>
          lcd_data('1');
    299c:	81 e3       	ldi	r24, 0x31	; 49
    299e:	0e 94 80 00 	call	0x100	; 0x100 <lcd_data>
          lcd_fix_string(Resistor_str);	// -[=]-
    29a2:	88 e5       	ldi	r24, 0x58	; 88
    29a4:	91 e0       	ldi	r25, 0x01	; 1
    29a6:	0e 94 dd 00 	call	0x1ba	; 0x1ba <lcd_fix_string>
          lcd_data('3');
    29aa:	83 e3       	ldi	r24, 0x33	; 51
    29ac:	0e 94 80 00 	call	0x100	; 0x100 <lcd_data>
       }
    }
    lcd_line2(); //2. row 
    29b0:	80 ec       	ldi	r24, 0xC0	; 192
    29b2:	0e 94 7c 00 	call	0xf8	; 0xf8 <lcd_command>
    if (ResistorsFound == 1) {
    29b6:	80 91 3e 01 	lds	r24, 0x013E
    29ba:	81 30       	cpi	r24, 0x01	; 1
    29bc:	11 f4       	brne	.+4      	; 0x29c2 <main+0x830>
       RvalOut(0);
    29be:	80 e0       	ldi	r24, 0x00	; 0
    29c0:	1d c0       	rjmp	.+58     	; 0x29fc <main+0x86a>
    } else {
       // output resistor values in right order
       if (ii == 0) {
    29c2:	80 91 30 01 	lds	r24, 0x0130
    29c6:	88 23       	and	r24, r24
    29c8:	31 f4       	brne	.+12     	; 0x29d6 <main+0x844>
          RvalOut(1);
    29ca:	81 e0       	ldi	r24, 0x01	; 1
    29cc:	0e 94 6b 0b 	call	0x16d6	; 0x16d6 <RvalOut>
          RvalOut(2);
    29d0:	82 e0       	ldi	r24, 0x02	; 2
    29d2:	0e 94 6b 0b 	call	0x16d6	; 0x16d6 <RvalOut>
       }
       if (ii == 1) {
    29d6:	80 91 30 01 	lds	r24, 0x0130
    29da:	81 30       	cpi	r24, 0x01	; 1
    29dc:	31 f4       	brne	.+12     	; 0x29ea <main+0x858>
          RvalOut(0);
    29de:	80 e0       	ldi	r24, 0x00	; 0
    29e0:	0e 94 6b 0b 	call	0x16d6	; 0x16d6 <RvalOut>
          RvalOut(2);
    29e4:	82 e0       	ldi	r24, 0x02	; 2
    29e6:	0e 94 6b 0b 	call	0x16d6	; 0x16d6 <RvalOut>
       }
       if (ii == 2) {
    29ea:	80 91 30 01 	lds	r24, 0x0130
    29ee:	82 30       	cpi	r24, 0x02	; 2
    29f0:	09 f0       	breq	.+2      	; 0x29f4 <main+0x862>
    29f2:	59 c0       	rjmp	.+178    	; 0x2aa6 <main+0x914>
          RvalOut(0);
    29f4:	80 e0       	ldi	r24, 0x00	; 0
    29f6:	0e 94 6b 0b 	call	0x16d6	; 0x16d6 <RvalOut>
          RvalOut(1);
    29fa:	81 e0       	ldi	r24, 0x01	; 1
    29fc:	0e 94 6b 0b 	call	0x16d6	; 0x16d6 <RvalOut>
    2a00:	52 c0       	rjmp	.+164    	; 0x2aa6 <main+0x914>
  } // end (PartFound == PART_RESISTOR)
#endif

#ifdef C_MESS
//capacity measurement is wanted
  else if(PartFound == PART_CAPACITOR) {
    2a02:	87 30       	cpi	r24, 0x07	; 7
    2a04:	f1 f4       	brne	.+60     	; 0x2a42 <main+0x8b0>
//     lcd_fix_string(Capacitor);
     lcd_testpin(ca);			//Pin number 1
    2a06:	80 91 45 01 	lds	r24, 0x0145
    2a0a:	0e 94 84 00 	call	0x108	; 0x108 <lcd_testpin>
     lcd_fix_string(CapZeich);		// capacitor sign
    2a0e:	87 e4       	ldi	r24, 0x47	; 71
    2a10:	91 e0       	ldi	r25, 0x01	; 1
    2a12:	0e 94 dd 00 	call	0x1ba	; 0x1ba <lcd_fix_string>
     lcd_testpin(cb);			//Pin number 2
    2a16:	80 91 08 01 	lds	r24, 0x0108
    2a1a:	0e 94 84 00 	call	0x108	; 0x108 <lcd_testpin>
     lcd_line2(); 				//2. row 
    2a1e:	80 ec       	ldi	r24, 0xC0	; 192
    2a20:	0e 94 7c 00 	call	0xf8	; 0xf8 <lcd_command>
     DisplayValue(cval,cpre,'F',4);
    2a24:	60 91 60 01 	lds	r22, 0x0160
    2a28:	70 91 61 01 	lds	r23, 0x0161
    2a2c:	80 91 62 01 	lds	r24, 0x0162
    2a30:	90 91 63 01 	lds	r25, 0x0163
    2a34:	40 91 32 01 	lds	r20, 0x0132
    2a38:	26 e4       	ldi	r18, 0x46	; 70
    2a3a:	04 e0       	ldi	r16, 0x04	; 4
    2a3c:	0e 94 b5 0a 	call	0x156a	; 0x156a <DisplayValue>
     goto end;
    2a40:	32 c0       	rjmp	.+100    	; 0x2aa6 <main+0x914>
  }
#endif
  if(NumOfDiodes == 0) { //no diodes are found
    2a42:	80 91 05 01 	lds	r24, 0x0105
    2a46:	88 23       	and	r24, r24
    2a48:	71 f4       	brne	.+28     	; 0x2a66 <main+0x8d4>
     lcd_fix_string(TestFailed1); 	//"Kein,unbek. oder"
    2a4a:	87 eb       	ldi	r24, 0xB7	; 183
    2a4c:	90 e0       	ldi	r25, 0x00	; 0
    2a4e:	0e 94 dd 00 	call	0x1ba	; 0x1ba <lcd_fix_string>
     lcd_line2(); //2. row 
    2a52:	80 ec       	ldi	r24, 0xC0	; 192
    2a54:	0e 94 7c 00 	call	0xf8	; 0xf8 <lcd_command>
     lcd_fix_string(TestFailed2); 	//"defektes "
    2a58:	83 e8       	ldi	r24, 0x83	; 131
    2a5a:	90 e0       	ldi	r25, 0x00	; 0
    2a5c:	0e 94 dd 00 	call	0x1ba	; 0x1ba <lcd_fix_string>
     lcd_fix_string(Bauteil);		//"Bauteil"
    2a60:	8c e8       	ldi	r24, 0x8C	; 140
    2a62:	90 e0       	ldi	r25, 0x00	; 0
    2a64:	16 c0       	rjmp	.+44     	; 0x2a92 <main+0x900>
  } else {
     lcd_fix_string(Bauteil);		//"Bauteil"
    2a66:	8c e8       	ldi	r24, 0x8C	; 140
    2a68:	90 e0       	ldi	r25, 0x00	; 0
    2a6a:	0e 94 dd 00 	call	0x1ba	; 0x1ba <lcd_fix_string>
     lcd_fix_string(Unknown); 		//" unbek."
    2a6e:	8e ea       	ldi	r24, 0xAE	; 174
    2a70:	90 e0       	ldi	r25, 0x00	; 0
    2a72:	0e 94 dd 00 	call	0x1ba	; 0x1ba <lcd_fix_string>
     lcd_line2(); //2. row 
    2a76:	80 ec       	ldi	r24, 0xC0	; 192
    2a78:	0e 94 7c 00 	call	0xf8	; 0xf8 <lcd_command>
     lcd_fix_string(OrBroken); 		//"oder defekt "
    2a7c:	87 ec       	ldi	r24, 0xC7	; 199
    2a7e:	90 e0       	ldi	r25, 0x00	; 0
    2a80:	0e 94 dd 00 	call	0x1ba	; 0x1ba <lcd_fix_string>
     lcd_data(NumOfDiodes + '0');
    2a84:	80 91 05 01 	lds	r24, 0x0105
    2a88:	80 5d       	subi	r24, 0xD0	; 208
    2a8a:	0e 94 80 00 	call	0x100	; 0x100 <lcd_data>
     lcd_fix_string(AnKat);		//"->|-"
    2a8e:	8b e4       	ldi	r24, 0x4B	; 75
    2a90:	91 e0       	ldi	r25, 0x01	; 1
    2a92:	0e 94 dd 00 	call	0x1ba	; 0x1ba <lcd_fix_string>
  }
  empty_count++;
    2a96:	80 91 2f 01 	lds	r24, 0x012F
    2a9a:	8f 5f       	subi	r24, 0xFF	; 255
    2a9c:	80 93 2f 01 	sts	0x012F, r24
  mess_count = 0;
    2aa0:	10 92 0a 01 	sts	0x010A, r1
  goto end2;
    2aa4:	07 c0       	rjmp	.+14     	; 0x2ab4 <main+0x922>
  lcd_testpin(trans.b);
  lcd_testpin(trans.c);
  lcd_testpin(trans.e);
//- - - - - - - - - - - - - - - - - - - - - - - - - - - - 
 end:
  empty_count = 0;		// reset counter, if part is found
    2aa6:	10 92 2f 01 	sts	0x012F, r1
  mess_count++;			// count measurements
    2aaa:	80 91 0a 01 	lds	r24, 0x010A
    2aae:	8f 5f       	subi	r24, 0xFF	; 255
    2ab0:	80 93 0a 01 	sts	0x010A, r24

 end2:
  while(!(ON_PIN_REG & (1<<RST_PIN)));	//wait ,until button is released
    2ab4:	4f 9b       	sbis	0x09, 7	; 9
    2ab6:	fe cf       	rjmp	.-4      	; 0x2ab4 <main+0x922>
  wait200ms();
    2ab8:	0e 94 9a 15 	call	0x2b34	; 0x2b34 <wait200ms>
// wait 10 seconds or 3 seconds (if repeat function)
  for(gthvoltage = 0;gthvoltage<display_time;gthvoltage++) {
    2abc:	10 92 44 01 	sts	0x0144, r1
    2ac0:	10 92 43 01 	sts	0x0143, r1
    2ac4:	0e c0       	rjmp	.+28     	; 0x2ae2 <main+0x950>
     if(!(ON_PIN_REG & (1<<RST_PIN))) {
    2ac6:	4f 9b       	sbis	0x09, 7	; 9
    2ac8:	c4 cb       	rjmp	.-2168   	; 0x2252 <main+0xc0>
        // If the key is pressed again... 
        // goto start of measurement 
        goto start;
     }
     wdt_reset();
    2aca:	a8 95       	wdr
     wait1ms();
    2acc:	0e 94 a6 15 	call	0x2b4c	; 0x2b4c <wait1ms>

 end2:
  while(!(ON_PIN_REG & (1<<RST_PIN)));	//wait ,until button is released
  wait200ms();
// wait 10 seconds or 3 seconds (if repeat function)
  for(gthvoltage = 0;gthvoltage<display_time;gthvoltage++) {
    2ad0:	80 91 43 01 	lds	r24, 0x0143
    2ad4:	90 91 44 01 	lds	r25, 0x0144
    2ad8:	01 96       	adiw	r24, 0x01	; 1
    2ada:	90 93 44 01 	sts	0x0144, r25
    2ade:	80 93 43 01 	sts	0x0143, r24
    2ae2:	20 91 43 01 	lds	r18, 0x0143
    2ae6:	30 91 44 01 	lds	r19, 0x0144
    2aea:	80 91 02 01 	lds	r24, 0x0102
    2aee:	90 91 03 01 	lds	r25, 0x0103
    2af2:	28 17       	cp	r18, r24
    2af4:	39 07       	cpc	r19, r25
    2af6:	38 f3       	brcs	.-50     	; 0x2ac6 <main+0x934>
  #define POWER2_OFF 255
 #else
  #define POWER2_OFF POWER_OFF*2
 #endif
 #if POWER_OFF+0 > 1
  if ((empty_count < POWER_OFF) && (mess_count < POWER2_OFF)) {
    2af8:	80 91 2f 01 	lds	r24, 0x012F
    2afc:	85 30       	cpi	r24, 0x05	; 5
    2afe:	28 f4       	brcc	.+10     	; 0x2b0a <main+0x978>
    2b00:	80 91 0a 01 	lds	r24, 0x010A
    2b04:	8a 30       	cpi	r24, 0x0A	; 10
    2b06:	08 f4       	brcc	.+2      	; 0x2b0a <main+0x978>
    2b08:	a4 cb       	rjmp	.-2232   	; 0x2252 <main+0xc0>
     goto start;			// repeat measurement POWER_OFF times
  }
 #endif
  // only one Measurement requested, shut off
  wdt_disable();			//Watchdog off
    2b0a:	88 e1       	ldi	r24, 0x18	; 24
    2b0c:	0f b6       	in	r0, 0x3f	; 63
    2b0e:	f8 94       	cli
    2b10:	80 93 60 00 	sts	0x0060, r24
    2b14:	10 92 60 00 	sts	0x0060, r1
    2b18:	0f be       	out	0x3f, r0	; 63
  ON_PORT &= ~(1<<ON_PIN);		//switch off power
    2b1a:	5e 98       	cbi	0x0b, 6	; 11
  //never ending loop 
  while(1) {
     if(!(ON_PIN_REG & (1<<RST_PIN))) {
    2b1c:	4f 99       	sbic	0x09, 7	; 9
    2b1e:	fe cf       	rjmp	.-4      	; 0x2b1c <main+0x98a>
    2b20:	98 cb       	rjmp	.-2256   	; 0x2252 <main+0xc0>

00002b22 <uart_putc>:
    2b22:	08 95       	ret

00002b24 <wait5s>:
    2b24:	03 d0       	rcall	.+6      	; 0x2b2c <wait1000ms>

00002b26 <wait4s>:
    2b26:	02 d0       	rcall	.+4      	; 0x2b2c <wait1000ms>

00002b28 <wait3s>:
    2b28:	01 d0       	rcall	.+2      	; 0x2b2c <wait1000ms>

00002b2a <wait2s>:
    2b2a:	00 d0       	rcall	.+0      	; 0x2b2c <wait1000ms>

00002b2c <wait1000ms>:
    2b2c:	00 d0       	rcall	.+0      	; 0x2b2e <wait500ms>

00002b2e <wait500ms>:
    2b2e:	03 d0       	rcall	.+6      	; 0x2b36 <wait100ms>

00002b30 <wait400ms>:
    2b30:	02 d0       	rcall	.+4      	; 0x2b36 <wait100ms>

00002b32 <wait300ms>:
    2b32:	01 d0       	rcall	.+2      	; 0x2b36 <wait100ms>

00002b34 <wait200ms>:
    2b34:	00 d0       	rcall	.+0      	; 0x2b36 <wait100ms>

00002b36 <wait100ms>:
    2b36:	a8 95       	wdr
    2b38:	00 d0       	rcall	.+0      	; 0x2b3a <wait50ms>

00002b3a <wait50ms>:
    2b3a:	03 d0       	rcall	.+6      	; 0x2b42 <wait10ms>

00002b3c <wait40ms>:
    2b3c:	02 d0       	rcall	.+4      	; 0x2b42 <wait10ms>

00002b3e <wait30ms>:
    2b3e:	01 d0       	rcall	.+2      	; 0x2b42 <wait10ms>

00002b40 <wait20ms>:
    2b40:	00 d0       	rcall	.+0      	; 0x2b42 <wait10ms>

00002b42 <wait10ms>:
    2b42:	00 d0       	rcall	.+0      	; 0x2b44 <wait5ms>

00002b44 <wait5ms>:
    2b44:	03 d0       	rcall	.+6      	; 0x2b4c <wait1ms>

00002b46 <wait4ms>:
    2b46:	02 d0       	rcall	.+4      	; 0x2b4c <wait1ms>

00002b48 <wait3ms>:
    2b48:	01 d0       	rcall	.+2      	; 0x2b4c <wait1ms>

00002b4a <wait2ms>:
    2b4a:	00 d0       	rcall	.+0      	; 0x2b4c <wait1ms>

00002b4c <wait1ms>:
    2b4c:	00 d0       	rcall	.+0      	; 0x2b4e <wait500us>

00002b4e <wait500us>:
    2b4e:	03 d0       	rcall	.+6      	; 0x2b56 <wait100us>

00002b50 <wait400us>:
    2b50:	02 d0       	rcall	.+4      	; 0x2b56 <wait100us>

00002b52 <wait300us>:
    2b52:	01 d0       	rcall	.+2      	; 0x2b56 <wait100us>

00002b54 <wait200us>:
    2b54:	00 d0       	rcall	.+0      	; 0x2b56 <wait100us>

00002b56 <wait100us>:
    2b56:	00 d0       	rcall	.+0      	; 0x2b58 <wait50us>

00002b58 <wait50us>:
    2b58:	03 d0       	rcall	.+6      	; 0x2b60 <wait10us>

00002b5a <wait40us>:
    2b5a:	02 d0       	rcall	.+4      	; 0x2b60 <wait10us>

00002b5c <wait30us>:
    2b5c:	01 d0       	rcall	.+2      	; 0x2b60 <wait10us>

00002b5e <wait20us>:
    2b5e:	00 d0       	rcall	.+0      	; 0x2b60 <wait10us>

00002b60 <wait10us>:
    2b60:	00 d0       	rcall	.+0      	; 0x2b62 <wait5us>

00002b62 <wait5us>:
    2b62:	03 d0       	rcall	.+6      	; 0x2b6a <wait1us>

00002b64 <wait4us>:
    2b64:	02 d0       	rcall	.+4      	; 0x2b6a <wait1us>

00002b66 <wait3us>:
    2b66:	01 d0       	rcall	.+2      	; 0x2b6a <wait1us>

00002b68 <wait2us>:
    2b68:	00 d0       	rcall	.+0      	; 0x2b6a <wait1us>

00002b6a <wait1us>:
    2b6a:	00 00       	nop
    2b6c:	08 95       	ret

00002b6e <CombineBI2Long>:
    2b6e:	99 27       	eor	r25, r25

00002b70 <CombineII2Long>:
    2b70:	08 95       	ret

00002b72 <W20msReadADC>:
    2b72:	0e 94 a1 15 	call	0x2b42	; 0x2b42 <wait10ms>

00002b76 <W10msReadADC>:
    2b76:	0e 94 a2 15 	call	0x2b44	; 0x2b44 <wait5ms>

00002b7a <W5msReadADC>:
    2b7a:	0e 94 a2 15 	call	0x2b44	; 0x2b44 <wait5ms>

00002b7e <ReadADC>:
    2b7e:	1f 93       	push	r17
    2b80:	18 2f       	mov	r17, r24
    2b82:	10 64       	ori	r17, 0x40	; 64

00002b84 <get_sample>:
    2b84:	10 93 7c 00 	sts	0x007C, r17
    2b88:	e1 2f       	mov	r30, r17
    2b8a:	e0 78       	andi	r30, 0x80	; 128
    2b8c:	80 91 65 01 	lds	r24, 0x0165
    2b90:	e8 17       	cp	r30, r24
    2b92:	69 f0       	breq	.+26     	; 0x2bae <r2aa2>
    2b94:	0e 94 ab 15 	call	0x2b56	; 0x2b56 <wait100us>
    2b98:	80 91 7a 00 	lds	r24, 0x007A
    2b9c:	80 64       	ori	r24, 0x40	; 64
    2b9e:	80 93 7a 00 	sts	0x007A, r24

00002ba2 <wadc1>:
    2ba2:	80 91 7a 00 	lds	r24, 0x007A
    2ba6:	86 fd       	sbrc	r24, 6
    2ba8:	fc cf       	rjmp	.-8      	; 0x2ba2 <wadc1>
    2baa:	e0 93 65 01 	sts	0x0165, r30

00002bae <r2aa2>:
    2bae:	20 e0       	ldi	r18, 0x00	; 0
    2bb0:	30 e0       	ldi	r19, 0x00	; 0
    2bb2:	a9 01       	movw	r20, r18
    2bb4:	e0 e0       	ldi	r30, 0x00	; 0
    2bb6:	20 c0       	rjmp	.+64     	; 0x2bf8 <r2ae8>

00002bb8 <Loop>:
    2bb8:	80 91 7a 00 	lds	r24, 0x007A
    2bbc:	80 64       	ori	r24, 0x40	; 64
    2bbe:	80 93 7a 00 	sts	0x007A, r24

00002bc2 <wadc2>:
    2bc2:	80 91 7a 00 	lds	r24, 0x007A
    2bc6:	86 fd       	sbrc	r24, 6
    2bc8:	fc cf       	rjmp	.-8      	; 0x2bc2 <wadc2>
    2bca:	60 91 78 00 	lds	r22, 0x0078
    2bce:	70 91 79 00 	lds	r23, 0x0079
    2bd2:	26 0f       	add	r18, r22
    2bd4:	37 1f       	adc	r19, r23
    2bd6:	41 1d       	adc	r20, r1
    2bd8:	51 1d       	adc	r21, r1
    2bda:	e4 30       	cpi	r30, 0x04	; 4
    2bdc:	61 f4       	brne	.+24     	; 0x2bf6 <r2ae6>
    2bde:	80 91 67 01 	lds	r24, 0x0167
    2be2:	80 30       	cpi	r24, 0x00	; 0
    2be4:	41 f0       	breq	.+16     	; 0x2bf6 <r2ae6>
    2be6:	84 e0       	ldi	r24, 0x04	; 4
    2be8:	20 30       	cpi	r18, 0x00	; 0
    2bea:	38 07       	cpc	r19, r24
    2bec:	20 f4       	brcc	.+8      	; 0x2bf6 <r2ae6>
    2bee:	17 fd       	sbrc	r17, 7
    2bf0:	02 c0       	rjmp	.+4      	; 0x2bf6 <r2ae6>
    2bf2:	10 68       	ori	r17, 0x80	; 128
    2bf4:	c7 cf       	rjmp	.-114    	; 0x2b84 <get_sample>

00002bf6 <r2ae6>:
    2bf6:	ef 5f       	subi	r30, 0xFF	; 255

00002bf8 <r2ae8>:
    2bf8:	80 91 64 01 	lds	r24, 0x0164
    2bfc:	e8 17       	cp	r30, r24
    2bfe:	e0 f2       	brcs	.-72     	; 0x2bb8 <Loop>
    2c00:	17 ff       	sbrs	r17, 7
    2c02:	05 c0       	rjmp	.+10     	; 0x2c0e <r2afe>
    2c04:	60 91 66 01 	lds	r22, 0x0166
    2c08:	70 91 67 01 	lds	r23, 0x0167
    2c0c:	04 c0       	rjmp	.+8      	; 0x2c16 <r2b02>

00002c0e <r2afe>:
    2c0e:	60 91 68 01 	lds	r22, 0x0168
    2c12:	70 91 69 01 	lds	r23, 0x0169

00002c16 <r2b02>:
    2c16:	80 e0       	ldi	r24, 0x00	; 0
    2c18:	90 e0       	ldi	r25, 0x00	; 0
    2c1a:	0e 94 2c 16 	call	0x2c58	; 0x2c58 <__mulsi3>
    2c1e:	2f ef       	ldi	r18, 0xFF	; 255
    2c20:	33 e0       	ldi	r19, 0x03	; 3
    2c22:	41 e0       	ldi	r20, 0x01	; 1
    2c24:	62 0f       	add	r22, r18
    2c26:	74 1f       	adc	r23, r20
    2c28:	81 1d       	adc	r24, r1
    2c2a:	91 1d       	adc	r25, r1
    2c2c:	40 e0       	ldi	r20, 0x00	; 0
    2c2e:	50 e0       	ldi	r21, 0x00	; 0
    2c30:	0e 94 7e 16 	call	0x2cfc	; 0x2cfc <__udivmodsi4>
    2c34:	b9 01       	movw	r22, r18
    2c36:	ca 01       	movw	r24, r20
    2c38:	20 91 64 01 	lds	r18, 0x0164
    2c3c:	32 2f       	mov	r19, r18
    2c3e:	35 95       	asr	r19
    2c40:	63 0f       	add	r22, r19
    2c42:	71 1d       	adc	r23, r1
    2c44:	81 1d       	adc	r24, r1
    2c46:	91 1d       	adc	r25, r1
    2c48:	30 e0       	ldi	r19, 0x00	; 0
    2c4a:	40 e0       	ldi	r20, 0x00	; 0
    2c4c:	50 e0       	ldi	r21, 0x00	; 0
    2c4e:	0e 94 7e 16 	call	0x2cfc	; 0x2cfc <__udivmodsi4>
    2c52:	c9 01       	movw	r24, r18
    2c54:	1f 91       	pop	r17
    2c56:	08 95       	ret

00002c58 <__mulsi3>:
    2c58:	62 9f       	mul	r22, r18
    2c5a:	d0 01       	movw	r26, r0
    2c5c:	73 9f       	mul	r23, r19
    2c5e:	f0 01       	movw	r30, r0
    2c60:	82 9f       	mul	r24, r18
    2c62:	e0 0d       	add	r30, r0
    2c64:	f1 1d       	adc	r31, r1
    2c66:	64 9f       	mul	r22, r20
    2c68:	e0 0d       	add	r30, r0
    2c6a:	f1 1d       	adc	r31, r1
    2c6c:	92 9f       	mul	r25, r18
    2c6e:	f0 0d       	add	r31, r0
    2c70:	83 9f       	mul	r24, r19
    2c72:	f0 0d       	add	r31, r0
    2c74:	74 9f       	mul	r23, r20
    2c76:	f0 0d       	add	r31, r0
    2c78:	65 9f       	mul	r22, r21
    2c7a:	f0 0d       	add	r31, r0
    2c7c:	99 27       	eor	r25, r25
    2c7e:	72 9f       	mul	r23, r18
    2c80:	b0 0d       	add	r27, r0
    2c82:	e1 1d       	adc	r30, r1
    2c84:	f9 1f       	adc	r31, r25
    2c86:	63 9f       	mul	r22, r19
    2c88:	b0 0d       	add	r27, r0
    2c8a:	e1 1d       	adc	r30, r1
    2c8c:	f9 1f       	adc	r31, r25
    2c8e:	bd 01       	movw	r22, r26
    2c90:	cf 01       	movw	r24, r30
    2c92:	11 24       	eor	r1, r1
    2c94:	08 95       	ret

00002c96 <__udivmodqi4>:
    2c96:	99 1b       	sub	r25, r25
    2c98:	79 e0       	ldi	r23, 0x09	; 9
    2c9a:	04 c0       	rjmp	.+8      	; 0x2ca4 <__udivmodqi4_ep>

00002c9c <__udivmodqi4_loop>:
    2c9c:	99 1f       	adc	r25, r25
    2c9e:	96 17       	cp	r25, r22
    2ca0:	08 f0       	brcs	.+2      	; 0x2ca4 <__udivmodqi4_ep>
    2ca2:	96 1b       	sub	r25, r22

00002ca4 <__udivmodqi4_ep>:
    2ca4:	88 1f       	adc	r24, r24
    2ca6:	7a 95       	dec	r23
    2ca8:	c9 f7       	brne	.-14     	; 0x2c9c <__udivmodqi4_loop>
    2caa:	80 95       	com	r24
    2cac:	08 95       	ret

00002cae <__udivmodhi4>:
    2cae:	aa 1b       	sub	r26, r26
    2cb0:	bb 1b       	sub	r27, r27
    2cb2:	51 e1       	ldi	r21, 0x11	; 17
    2cb4:	07 c0       	rjmp	.+14     	; 0x2cc4 <__udivmodhi4_ep>

00002cb6 <__udivmodhi4_loop>:
    2cb6:	aa 1f       	adc	r26, r26
    2cb8:	bb 1f       	adc	r27, r27
    2cba:	a6 17       	cp	r26, r22
    2cbc:	b7 07       	cpc	r27, r23
    2cbe:	10 f0       	brcs	.+4      	; 0x2cc4 <__udivmodhi4_ep>
    2cc0:	a6 1b       	sub	r26, r22
    2cc2:	b7 0b       	sbc	r27, r23

00002cc4 <__udivmodhi4_ep>:
    2cc4:	88 1f       	adc	r24, r24
    2cc6:	99 1f       	adc	r25, r25
    2cc8:	5a 95       	dec	r21
    2cca:	a9 f7       	brne	.-22     	; 0x2cb6 <__udivmodhi4_loop>
    2ccc:	80 95       	com	r24
    2cce:	90 95       	com	r25
    2cd0:	bc 01       	movw	r22, r24
    2cd2:	cd 01       	movw	r24, r26
    2cd4:	08 95       	ret

00002cd6 <__divmodhi4>:
    2cd6:	97 fb       	bst	r25, 7
    2cd8:	09 2e       	mov	r0, r25
    2cda:	07 26       	eor	r0, r23
    2cdc:	0a d0       	rcall	.+20     	; 0x2cf2 <__divmodhi4_neg1>
    2cde:	77 fd       	sbrc	r23, 7
    2ce0:	04 d0       	rcall	.+8      	; 0x2cea <__divmodhi4_neg2>
    2ce2:	e5 df       	rcall	.-54     	; 0x2cae <__udivmodhi4>
    2ce4:	06 d0       	rcall	.+12     	; 0x2cf2 <__divmodhi4_neg1>
    2ce6:	00 20       	and	r0, r0
    2ce8:	1a f4       	brpl	.+6      	; 0x2cf0 <__divmodhi4_exit>

00002cea <__divmodhi4_neg2>:
    2cea:	70 95       	com	r23
    2cec:	61 95       	neg	r22
    2cee:	7f 4f       	sbci	r23, 0xFF	; 255

00002cf0 <__divmodhi4_exit>:
    2cf0:	08 95       	ret

00002cf2 <__divmodhi4_neg1>:
    2cf2:	f6 f7       	brtc	.-4      	; 0x2cf0 <__divmodhi4_exit>
    2cf4:	90 95       	com	r25
    2cf6:	81 95       	neg	r24
    2cf8:	9f 4f       	sbci	r25, 0xFF	; 255
    2cfa:	08 95       	ret

00002cfc <__udivmodsi4>:
    2cfc:	a1 e2       	ldi	r26, 0x21	; 33
    2cfe:	1a 2e       	mov	r1, r26
    2d00:	aa 1b       	sub	r26, r26
    2d02:	bb 1b       	sub	r27, r27
    2d04:	fd 01       	movw	r30, r26
    2d06:	0d c0       	rjmp	.+26     	; 0x2d22 <__udivmodsi4_ep>

00002d08 <__udivmodsi4_loop>:
    2d08:	aa 1f       	adc	r26, r26
    2d0a:	bb 1f       	adc	r27, r27
    2d0c:	ee 1f       	adc	r30, r30
    2d0e:	ff 1f       	adc	r31, r31
    2d10:	a2 17       	cp	r26, r18
    2d12:	b3 07       	cpc	r27, r19
    2d14:	e4 07       	cpc	r30, r20
    2d16:	f5 07       	cpc	r31, r21
    2d18:	20 f0       	brcs	.+8      	; 0x2d22 <__udivmodsi4_ep>
    2d1a:	a2 1b       	sub	r26, r18
    2d1c:	b3 0b       	sbc	r27, r19
    2d1e:	e4 0b       	sbc	r30, r20
    2d20:	f5 0b       	sbc	r31, r21

00002d22 <__udivmodsi4_ep>:
    2d22:	66 1f       	adc	r22, r22
    2d24:	77 1f       	adc	r23, r23
    2d26:	88 1f       	adc	r24, r24
    2d28:	99 1f       	adc	r25, r25
    2d2a:	1a 94       	dec	r1
    2d2c:	69 f7       	brne	.-38     	; 0x2d08 <__udivmodsi4_loop>
    2d2e:	60 95       	com	r22
    2d30:	70 95       	com	r23
    2d32:	80 95       	com	r24
    2d34:	90 95       	com	r25
    2d36:	9b 01       	movw	r18, r22
    2d38:	ac 01       	movw	r20, r24
    2d3a:	bd 01       	movw	r22, r26
    2d3c:	cf 01       	movw	r24, r30
    2d3e:	08 95       	ret

00002d40 <__divmodsi4>:
    2d40:	97 fb       	bst	r25, 7
    2d42:	09 2e       	mov	r0, r25
    2d44:	05 26       	eor	r0, r21
    2d46:	0e d0       	rcall	.+28     	; 0x2d64 <__divmodsi4_neg1>
    2d48:	57 fd       	sbrc	r21, 7
    2d4a:	04 d0       	rcall	.+8      	; 0x2d54 <__divmodsi4_neg2>
    2d4c:	d7 df       	rcall	.-82     	; 0x2cfc <__udivmodsi4>
    2d4e:	0a d0       	rcall	.+20     	; 0x2d64 <__divmodsi4_neg1>
    2d50:	00 1c       	adc	r0, r0
    2d52:	38 f4       	brcc	.+14     	; 0x2d62 <__divmodsi4_exit>

00002d54 <__divmodsi4_neg2>:
    2d54:	50 95       	com	r21
    2d56:	40 95       	com	r20
    2d58:	30 95       	com	r19
    2d5a:	21 95       	neg	r18
    2d5c:	3f 4f       	sbci	r19, 0xFF	; 255
    2d5e:	4f 4f       	sbci	r20, 0xFF	; 255
    2d60:	5f 4f       	sbci	r21, 0xFF	; 255

00002d62 <__divmodsi4_exit>:
    2d62:	08 95       	ret

00002d64 <__divmodsi4_neg1>:
    2d64:	f6 f7       	brtc	.-4      	; 0x2d62 <__divmodsi4_exit>
    2d66:	90 95       	com	r25
    2d68:	80 95       	com	r24
    2d6a:	70 95       	com	r23
    2d6c:	61 95       	neg	r22
    2d6e:	7f 4f       	sbci	r23, 0xFF	; 255
    2d70:	8f 4f       	sbci	r24, 0xFF	; 255
    2d72:	9f 4f       	sbci	r25, 0xFF	; 255
    2d74:	08 95       	ret

00002d76 <itoa>:
    2d76:	fb 01       	movw	r30, r22
    2d78:	9f 01       	movw	r18, r30
    2d7a:	e8 94       	clt
    2d7c:	42 30       	cpi	r20, 0x02	; 2
    2d7e:	c4 f0       	brlt	.+48     	; 0x2db0 <itoa+0x3a>
    2d80:	45 32       	cpi	r20, 0x25	; 37
    2d82:	b4 f4       	brge	.+44     	; 0x2db0 <itoa+0x3a>
    2d84:	4a 30       	cpi	r20, 0x0A	; 10
    2d86:	29 f4       	brne	.+10     	; 0x2d92 <itoa+0x1c>
    2d88:	97 fb       	bst	r25, 7
    2d8a:	1e f4       	brtc	.+6      	; 0x2d92 <itoa+0x1c>
    2d8c:	90 95       	com	r25
    2d8e:	81 95       	neg	r24
    2d90:	9f 4f       	sbci	r25, 0xFF	; 255
    2d92:	64 2f       	mov	r22, r20
    2d94:	77 27       	eor	r23, r23
    2d96:	0e 94 57 16 	call	0x2cae	; 0x2cae <__udivmodhi4>
    2d9a:	80 5d       	subi	r24, 0xD0	; 208
    2d9c:	8a 33       	cpi	r24, 0x3A	; 58
    2d9e:	0c f0       	brlt	.+2      	; 0x2da2 <itoa+0x2c>
    2da0:	89 5d       	subi	r24, 0xD9	; 217
    2da2:	81 93       	st	Z+, r24
    2da4:	cb 01       	movw	r24, r22
    2da6:	00 97       	sbiw	r24, 0x00	; 0
    2da8:	a1 f7       	brne	.-24     	; 0x2d92 <itoa+0x1c>
    2daa:	16 f4       	brtc	.+4      	; 0x2db0 <itoa+0x3a>
    2dac:	5d e2       	ldi	r21, 0x2D	; 45
    2dae:	51 93       	st	Z+, r21
    2db0:	10 82       	st	Z, r1
    2db2:	c9 01       	movw	r24, r18
    2db4:	0c 94 13 17 	jmp	0x2e26	; 0x2e26 <strrev>

00002db8 <utoa>:
    2db8:	fb 01       	movw	r30, r22
    2dba:	9f 01       	movw	r18, r30
    2dbc:	42 30       	cpi	r20, 0x02	; 2
    2dbe:	74 f0       	brlt	.+28     	; 0x2ddc <utoa+0x24>
    2dc0:	45 32       	cpi	r20, 0x25	; 37
    2dc2:	64 f4       	brge	.+24     	; 0x2ddc <utoa+0x24>
    2dc4:	64 2f       	mov	r22, r20
    2dc6:	77 27       	eor	r23, r23
    2dc8:	0e 94 57 16 	call	0x2cae	; 0x2cae <__udivmodhi4>
    2dcc:	80 5d       	subi	r24, 0xD0	; 208
    2dce:	8a 33       	cpi	r24, 0x3A	; 58
    2dd0:	0c f0       	brlt	.+2      	; 0x2dd4 <utoa+0x1c>
    2dd2:	89 5d       	subi	r24, 0xD9	; 217
    2dd4:	81 93       	st	Z+, r24
    2dd6:	cb 01       	movw	r24, r22
    2dd8:	00 97       	sbiw	r24, 0x00	; 0
    2dda:	a1 f7       	brne	.-24     	; 0x2dc4 <utoa+0xc>
    2ddc:	10 82       	st	Z, r1
    2dde:	c9 01       	movw	r24, r18
    2de0:	0c 94 13 17 	jmp	0x2e26	; 0x2e26 <strrev>

00002de4 <__eerd_byte_m328p>:
    2de4:	f9 99       	sbic	0x1f, 1	; 31
    2de6:	fe cf       	rjmp	.-4      	; 0x2de4 <__eerd_byte_m328p>
    2de8:	92 bd       	out	0x22, r25	; 34
    2dea:	81 bd       	out	0x21, r24	; 33
    2dec:	f8 9a       	sbi	0x1f, 0	; 31
    2dee:	99 27       	eor	r25, r25
    2df0:	80 b5       	in	r24, 0x20	; 32
    2df2:	08 95       	ret

00002df4 <__eerd_word_m328p>:
    2df4:	a8 e1       	ldi	r26, 0x18	; 24
    2df6:	b0 e0       	ldi	r27, 0x00	; 0
    2df8:	42 e0       	ldi	r20, 0x02	; 2
    2dfa:	50 e0       	ldi	r21, 0x00	; 0
    2dfc:	0c 94 25 17 	jmp	0x2e4a	; 0x2e4a <__eerd_blraw_m328p>

00002e00 <__eewr_byte_m328p>:
    2e00:	26 2f       	mov	r18, r22

00002e02 <__eewr_r18_m328p>:
    2e02:	f9 99       	sbic	0x1f, 1	; 31
    2e04:	fe cf       	rjmp	.-4      	; 0x2e02 <__eewr_r18_m328p>
    2e06:	1f ba       	out	0x1f, r1	; 31
    2e08:	92 bd       	out	0x22, r25	; 34
    2e0a:	81 bd       	out	0x21, r24	; 33
    2e0c:	20 bd       	out	0x20, r18	; 32
    2e0e:	0f b6       	in	r0, 0x3f	; 63
    2e10:	f8 94       	cli
    2e12:	fa 9a       	sbi	0x1f, 2	; 31
    2e14:	f9 9a       	sbi	0x1f, 1	; 31
    2e16:	0f be       	out	0x3f, r0	; 63
    2e18:	01 96       	adiw	r24, 0x01	; 1
    2e1a:	08 95       	ret

00002e1c <__eewr_word_m328p>:
    2e1c:	0e 94 00 17 	call	0x2e00	; 0x2e00 <__eewr_byte_m328p>
    2e20:	27 2f       	mov	r18, r23
    2e22:	0c 94 01 17 	jmp	0x2e02	; 0x2e02 <__eewr_r18_m328p>

00002e26 <strrev>:
    2e26:	dc 01       	movw	r26, r24
    2e28:	fc 01       	movw	r30, r24
    2e2a:	67 2f       	mov	r22, r23
    2e2c:	71 91       	ld	r23, Z+
    2e2e:	77 23       	and	r23, r23
    2e30:	e1 f7       	brne	.-8      	; 0x2e2a <strrev+0x4>
    2e32:	32 97       	sbiw	r30, 0x02	; 2
    2e34:	04 c0       	rjmp	.+8      	; 0x2e3e <strrev+0x18>
    2e36:	7c 91       	ld	r23, X
    2e38:	6d 93       	st	X+, r22
    2e3a:	70 83       	st	Z, r23
    2e3c:	62 91       	ld	r22, -Z
    2e3e:	ae 17       	cp	r26, r30
    2e40:	bf 07       	cpc	r27, r31
    2e42:	c8 f3       	brcs	.-14     	; 0x2e36 <strrev+0x10>
    2e44:	08 95       	ret

00002e46 <__eerd_block_m328p>:
    2e46:	dc 01       	movw	r26, r24
    2e48:	cb 01       	movw	r24, r22

00002e4a <__eerd_blraw_m328p>:
    2e4a:	fc 01       	movw	r30, r24
    2e4c:	f9 99       	sbic	0x1f, 1	; 31
    2e4e:	fe cf       	rjmp	.-4      	; 0x2e4c <__eerd_blraw_m328p+0x2>
    2e50:	06 c0       	rjmp	.+12     	; 0x2e5e <__eerd_blraw_m328p+0x14>
    2e52:	f2 bd       	out	0x22, r31	; 34
    2e54:	e1 bd       	out	0x21, r30	; 33
    2e56:	f8 9a       	sbi	0x1f, 0	; 31
    2e58:	31 96       	adiw	r30, 0x01	; 1
    2e5a:	00 b4       	in	r0, 0x20	; 32
    2e5c:	0d 92       	st	X+, r0
    2e5e:	41 50       	subi	r20, 0x01	; 1
    2e60:	50 40       	sbci	r21, 0x00	; 0
    2e62:	b8 f7       	brcc	.-18     	; 0x2e52 <__eerd_blraw_m328p+0x8>
    2e64:	08 95       	ret

00002e66 <_exit>:
    2e66:	f8 94       	cli

00002e68 <__stop_program>:
    2e68:	ff cf       	rjmp	.-2      	; 0x2e68 <__stop_program>
