
TransistorTester.elf:     Dateiformat elf32-avr

Sektionen:
Idx Name          Größe     VMA       LMA       Datei-Off Ausr.
  0 .data         00000000  00800100  00003fda  0000408e  2**0
                  CONTENTS, ALLOC, LOAD, DATA
  1 .text         00003fda  00000000  00000000  000000b4  2**1
                  CONTENTS, ALLOC, LOAD, READONLY, CODE
  2 .bss          000000ae  00800100  00800100  0000408e  2**0
                  ALLOC
  3 .eeprom       000001c6  00810000  00810000  0000408e  2**0
                  CONTENTS, ALLOC, LOAD, READONLY, DATA
  4 .stab         00000a98  00000000  00000000  00004254  2**2
                  CONTENTS, READONLY, DEBUGGING
  5 .stabstr      00000141  00000000  00000000  00004cec  2**0
                  CONTENTS, READONLY, DEBUGGING
  6 .comment      00000011  00000000  00000000  00004e2d  2**0
                  CONTENTS, READONLY
  7 .debug_aranges 00000430  00000000  00000000  00004e40  2**3
                  CONTENTS, READONLY, DEBUGGING
  8 .debug_info   00006b8b  00000000  00000000  00005270  2**0
                  CONTENTS, READONLY, DEBUGGING
  9 .debug_abbrev 00001819  00000000  00000000  0000bdfb  2**0
                  CONTENTS, READONLY, DEBUGGING
 10 .debug_line   00001d94  00000000  00000000  0000d614  2**0
                  CONTENTS, READONLY, DEBUGGING
 11 .debug_frame  00000660  00000000  00000000  0000f3a8  2**2
                  CONTENTS, READONLY, DEBUGGING
 12 .debug_str    00000ecc  00000000  00000000  0000fa08  2**0
                  CONTENTS, READONLY, DEBUGGING
 13 .debug_loc    00003a5b  00000000  00000000  000108d4  2**0
                  CONTENTS, READONLY, DEBUGGING
 14 .debug_ranges 00000018  00000000  00000000  0001432f  2**0
                  CONTENTS, READONLY, DEBUGGING

Disassembly of section .text:

00000000 <__vectors>:
       0:	0c 94 89 00 	jmp	0x112	; 0x112 <__ctors_end>
       4:	0c 94 9b 00 	jmp	0x136	; 0x136 <__bad_interrupt>
       8:	0c 94 9b 00 	jmp	0x136	; 0x136 <__bad_interrupt>
       c:	0c 94 9b 00 	jmp	0x136	; 0x136 <__bad_interrupt>
      10:	0c 94 9b 00 	jmp	0x136	; 0x136 <__bad_interrupt>
      14:	0c 94 9b 00 	jmp	0x136	; 0x136 <__bad_interrupt>
      18:	0c 94 9b 00 	jmp	0x136	; 0x136 <__bad_interrupt>
      1c:	0c 94 c9 04 	jmp	0x992	; 0x992 <__vector_7>
      20:	0c 94 9b 00 	jmp	0x136	; 0x136 <__bad_interrupt>
      24:	0c 94 9b 00 	jmp	0x136	; 0x136 <__bad_interrupt>
      28:	0c 94 a8 13 	jmp	0x2750	; 0x2750 <__vector_10>
      2c:	0c 94 9b 00 	jmp	0x136	; 0x136 <__bad_interrupt>
      30:	0c 94 9b 00 	jmp	0x136	; 0x136 <__bad_interrupt>
      34:	0c 94 82 13 	jmp	0x2704	; 0x2704 <__vector_13>
      38:	0c 94 9b 00 	jmp	0x136	; 0x136 <__bad_interrupt>
      3c:	0c 94 9b 00 	jmp	0x136	; 0x136 <__bad_interrupt>
      40:	0c 94 9b 00 	jmp	0x136	; 0x136 <__bad_interrupt>
      44:	0c 94 9b 00 	jmp	0x136	; 0x136 <__bad_interrupt>
      48:	0c 94 9b 00 	jmp	0x136	; 0x136 <__bad_interrupt>
      4c:	0c 94 9b 00 	jmp	0x136	; 0x136 <__bad_interrupt>
      50:	0c 94 9b 00 	jmp	0x136	; 0x136 <__bad_interrupt>
      54:	0c 94 ca 04 	jmp	0x994	; 0x994 <__vector_21>
      58:	0c 94 9b 00 	jmp	0x136	; 0x136 <__bad_interrupt>
      5c:	0c 94 9b 00 	jmp	0x136	; 0x136 <__bad_interrupt>
      60:	0c 94 9b 00 	jmp	0x136	; 0x136 <__bad_interrupt>
      64:	0c 94 9b 00 	jmp	0x136	; 0x136 <__bad_interrupt>

00000068 <REF_R_str>:
      68:	52 45 46 5f 52 3d 00                                REF_R=.

0000006f <REF_C_str>:
      6f:	52 45 46 5f 43 3d 00                                REF_C=.

00000076 <MinCap_str>:
      76:	20 3e 31 30 30 6e 46 00                              >100nF.

0000007e <PinRLRHADCtab>:
      7e:	01 04 10 01 02 04                                   ......

00000084 <R0_str>:
      84:	52 30 3d 00                                         R0=.

00000088 <ICEs_str>:
      88:	49 43 45 73 3d 00                                   ICEs=.

0000008e <ICE0_str>:
      8e:	49 43 45 30 3d 00                                   ICE0=.

00000094 <VERSION_str>:
      94:	56 65 72 73 69 6f 6e 20 31 2e 31 32 6b 00           Version 1.12k.

000000a2 <RHtab>:
      a2:	ba 03 87 03 58 03 2e 03 07 03 e4 02 c3 02 a4 02     ....X...........
      b2:	88 02                                               ..

000000b4 <LogTab>:
      b4:	00 00 14 00 29 00 3e 00 53 00 69 00 80 00 97 00     ....).>.S.i.....
      c4:	ae 00 c6 00 df 00 f8 00 12 01 2d 01 49 01 65 01     ..........-.I.e.
      d4:	82 01 a0 01 be 01 de 01 ff 01 21 02 44 02 68 02     ..........!.D.h.
      e4:	8e 02 b5 02 de 02 09 03 35 03 64 03 94 03 c8 03     ........5.d.....
      f4:	fe 03 37 04 73 04 b4 04 f9 04 43 05 93 05 ea 05     ..7.s.....C.....
     104:	49 06 b3 06 29 07 ae 07 48 08 ff 08 de 09           I...)...H.....

00000112 <__ctors_end>:
     112:	11 24       	eor	r1, r1
     114:	1f be       	out	0x3f, r1	; 63
     116:	cf ef       	ldi	r28, 0xFF	; 255
     118:	d4 e0       	ldi	r29, 0x04	; 4
     11a:	de bf       	out	0x3e, r29	; 62
     11c:	cd bf       	out	0x3d, r28	; 61

0000011e <__do_clear_bss>:
     11e:	11 e0       	ldi	r17, 0x01	; 1
     120:	a0 e0       	ldi	r26, 0x00	; 0
     122:	b1 e0       	ldi	r27, 0x01	; 1
     124:	01 c0       	rjmp	.+2      	; 0x128 <.do_clear_bss_start>

00000126 <.do_clear_bss_loop>:
     126:	1d 92       	st	X+, r1

00000128 <.do_clear_bss_start>:
     128:	ae 3a       	cpi	r26, 0xAE	; 174
     12a:	b1 07       	cpc	r27, r17
     12c:	e1 f7       	brne	.-8      	; 0x126 <.do_clear_bss_loop>
     12e:	0e 94 93 19 	call	0x3326	; 0x3326 <main>
     132:	0c 94 eb 1f 	jmp	0x3fd6	; 0x3fd6 <_exit>

00000136 <__bad_interrupt>:
     136:	0c 94 00 00 	jmp	0	; 0x0 <__vectors>

0000013a <_lcd_hw_write>:
#else	/* !(LCD_INTERFACE_MODE == (MODE_SPI | MODE_7920_SERIAL | MODE_I2C | MODE_7108_SERIAL)) */
;---------------------------------------------------------------------------------
_lcd_hw_write:
; must be a 4-bit parallel interface for HD44780 compatible controller or simular
               ; Set RS (0=Cmd, 1=Char)
               sbrc    preg_1, 0
     13a:	80 fd       	sbrc	r24, 0
                       set_rs_high
     13c:	5c 9a       	sbi	0x0b, 4	; 11
               sbrs    preg_1, 0
     13e:	80 ff       	sbrs	r24, 0
                       set_rs_low
     140:	5c 98       	cbi	0x0b, 4	; 11
               set_rs_output;		//init hardware
     142:	54 9a       	sbi	0x0a, 4	; 10
               nop	;		//wait for address setup
     144:	00 00       	nop
               set_en_high
     146:	5d 9a       	sbi	0x0b, 5	; 11
               set_en_output;		//init hardware
     148:	55 9a       	sbi	0x0a, 5	; 10

               ; Send high nibble
               set_b4_low
     14a:	58 98       	cbi	0x0b, 0	; 11
               set_b5_low
     14c:	59 98       	cbi	0x0b, 1	; 11
               set_b6_low
     14e:	5a 98       	cbi	0x0b, 2	; 11
               set_b7_low
     150:	5b 98       	cbi	0x0b, 3	; 11

               sbrc    preg_2, 4
     152:	64 fd       	sbrc	r22, 4
                       set_b4_high
     154:	58 9a       	sbi	0x0b, 0	; 11
               set_b4_output;		//init hardware
     156:	50 9a       	sbi	0x0a, 0	; 10
               sbrc    preg_2, 5
     158:	65 fd       	sbrc	r22, 5
                       set_b5_high
     15a:	59 9a       	sbi	0x0b, 1	; 11
               set_b5_output;		//init hardware
     15c:	51 9a       	sbi	0x0a, 1	; 10
               sbrc    preg_2, 6
     15e:	66 fd       	sbrc	r22, 6
                       set_b6_high
     160:	5a 9a       	sbi	0x0b, 2	; 11
               set_b6_output;		//init hardware
     162:	52 9a       	sbi	0x0a, 2	; 10
               sbrc    preg_2, 7
     164:	67 fd       	sbrc	r22, 7
                       set_b7_high
     166:	5b 9a       	sbi	0x0b, 3	; 11
               set_b7_output;		//init hardware
     168:	53 9a       	sbi	0x0a, 3	; 10

               nop			; wait for data setup time
     16a:	00 00       	nop
               set_en_low		; force data read from LCD controller
     16c:	5d 98       	cbi	0x0b, 5	; 11
               RCALL    wait1us
     16e:	c4 d2       	rcall	.+1416   	; 0x6f8 <wait1us>

               ; skip sending low nibble for init commands
               sbrc    preg_1, 7
     170:	87 fd       	sbrc	r24, 7
                       rjmp _lcd_hw_write_exit
     172:	10 c0       	rjmp	.+32     	; 0x194 <_lcd_hw_write_exit>

               ; Send low nibble
               set_en_high
     174:	5d 9a       	sbi	0x0b, 5	; 11
               
               set_b4_low
     176:	58 98       	cbi	0x0b, 0	; 11
               set_b5_low
     178:	59 98       	cbi	0x0b, 1	; 11
               set_b6_low
     17a:	5a 98       	cbi	0x0b, 2	; 11
               set_b7_low
     17c:	5b 98       	cbi	0x0b, 3	; 11
               
               sbrc    preg_2, 0
     17e:	60 fd       	sbrc	r22, 0
                       set_b4_high
     180:	58 9a       	sbi	0x0b, 0	; 11
               sbrc    preg_2, 1
     182:	61 fd       	sbrc	r22, 1
                       set_b5_high
     184:	59 9a       	sbi	0x0b, 1	; 11
               sbrc    preg_2, 2
     186:	62 fd       	sbrc	r22, 2
                       set_b6_high
     188:	5a 9a       	sbi	0x0b, 2	; 11
               sbrc    preg_2, 3
     18a:	63 fd       	sbrc	r22, 3
                       set_b7_high
     18c:	5b 9a       	sbi	0x0b, 3	; 11

               nop			; wait for data setup time
     18e:	00 00       	nop
               set_en_low		; force data read from LCD controller
     190:	5d 98       	cbi	0x0b, 5	; 11
               RCALL    wait50us
 #endif
 #ifdef SLOW_LCD
               RCALL    wait30us
 #else
               RCALL    wait1us
     192:	b2 d2       	rcall	.+1380   	; 0x6f8 <wait1us>

00000194 <_lcd_hw_write_exit>:
 #endif
_lcd_hw_write_exit:
               ret
     194:	08 95       	ret

00000196 <lcd_save_position>:
}

#if FLASHEND > 0x1fff
/* ************************************************************************************** */
uint8_t lcd_save_position(void) {
 last_text_column = _lcd_column;
     196:	80 91 03 01 	lds	r24, 0x0103
     19a:	80 93 00 01 	sts	0x0100, r24
 last_text_line = lcd_text_line;
     19e:	80 91 0e 01 	lds	r24, 0x010E
     1a2:	80 93 02 01 	sts	0x0102, r24
 return(last_text_line);
}
     1a6:	08 95       	ret

000001a8 <lcd_data>:
 pfont = (uint8_t *)font + (FONT_WIDTH * NR_BYTE * temp1);	// first byte of character data
 // for other controllers like ST7565 the _page specifies the page of the controller (8 lines)
 lcd_set_pixels( pfont, _xpos, _page*8, 0, (unsigned char)FONT_WIDTH, (unsigned char)(NR_BYTE*8));
_xpos += FONT_WIDTH;		// move pointer to the next character position
#else
 lcd_write_data(temp1);		// set RS to 1
     1a8:	68 2f       	mov	r22, r24
     1aa:	81 e0       	ldi	r24, 0x01	; 1
     1ac:	0e 94 9d 00 	call	0x13a	; 0x13a <_lcd_hw_write>
     1b0:	0e 94 73 03 	call	0x6e6	; 0x6e6 <wait50us>
     1b4:	08 95       	ret

000001b6 <lcd_testpin>:

/* ******************************************************************************* */
// sends numeric character (Pin Number) to the LCD 
// from binary 0 we send ASCII 1 ....
void lcd_testpin(unsigned char temp) {
   lcd_data(temp + '1' + TP_OFFSET);
     1b6:	8f 5c       	subi	r24, 0xCF	; 207
     1b8:	0e 94 d4 00 	call	0x1a8	; 0x1a8 <lcd_data>
     1bc:	08 95       	ret

000001be <lcd_space>:
}

/* ******************************************************************************* */
// send space character to LCD
void lcd_space(void) {
   lcd_data(' ');
     1be:	80 e2       	ldi	r24, 0x20	; 32
     1c0:	0e 94 d4 00 	call	0x1a8	; 0x1a8 <lcd_data>
     1c4:	08 95       	ret

000001c6 <lcd_spaces>:
}
#if FLASHEND > 0x1fff
void lcd_spaces(uint8_t nn) {
     1c6:	a1 e0       	ldi	r26, 0x01	; 1
     1c8:	b0 e0       	ldi	r27, 0x00	; 0
     1ca:	e9 ee       	ldi	r30, 0xE9	; 233
     1cc:	f0 e0       	ldi	r31, 0x00	; 0
     1ce:	0c 94 83 1f 	jmp	0x3f06	; 0x3f06 <__prologue_saves__+0x20>
   while (nn != 0) {
     1d2:	88 23       	and	r24, r24
     1d4:	31 f0       	breq	.+12     	; 0x1e2 <lcd_spaces+0x1c>
     lcd_space();
     1d6:	89 83       	std	Y+1, r24	; 0x01
     1d8:	0e 94 df 00 	call	0x1be	; 0x1be <lcd_space>
     nn--;
     1dc:	89 81       	ldd	r24, Y+1	; 0x01
     1de:	81 50       	subi	r24, 0x01	; 1
     1e0:	f8 cf       	rjmp	.-16     	; 0x1d2 <lcd_spaces+0xc>
   }
}
     1e2:	21 96       	adiw	r28, 0x01	; 1
     1e4:	e2 e0       	ldi	r30, 0x02	; 2
     1e6:	0c 94 9f 1f 	jmp	0x3f3e	; 0x3f3e <__epilogue_restores__+0x20>

000001ea <lcd_equal>:
#endif
// send equal character to LCD
void lcd_equal(void) {
   lcd_data('=');
     1ea:	8d e3       	ldi	r24, 0x3D	; 61
     1ec:	0e 94 d4 00 	call	0x1a8	; 0x1a8 <lcd_data>
     1f0:	08 95       	ret

000001f2 <lcd_command>:
} /* end lcd_data() */
 
// sends a command to the LCD
 
void lcd_command(unsigned char temp1) {
        lcd_write_cmd(temp1);		// set RS to 0
     1f2:	68 2f       	mov	r22, r24
     1f4:	80 e0       	ldi	r24, 0x00	; 0
     1f6:	0e 94 9d 00 	call	0x13a	; 0x13a <_lcd_hw_write>
     1fa:	0e 94 73 03 	call	0x6e6	; 0x6e6 <wait50us>
     1fe:	08 95       	ret

00000200 <lcd_line1>:
}

/* ******************************************************************************* */
//move to the beginning of the 1. row
void lcd_line1() {
   lcd_text_line = 0;
     200:	10 92 0e 01 	sts	0x010E, r1
   lcd_set_cursor(0 * ((FONT_HEIGHT + 7) / 8),0);
#elif (LCD_ST_TYPE == 7920)
   _page = 0;			// _page is the vertical pixel address for ST7920 controller
   _xpos = 0;			// LCD_ST7565_H_OFFSET is not used for ST7920 controller
#else
   lcd_command((uint8_t)(CMD_SetDDRAMAddress));
     204:	80 e8       	ldi	r24, 0x80	; 128
     206:	0e 94 f9 00 	call	0x1f2	; 0x1f2 <lcd_command>
     20a:	08 95       	ret

0000020c <lcd_line2>:
// for the ST7920 you can select a accurate vertical pixel positioning of line with:
// #define FONT_V_SPACE FONT_HEIGHT
// or you can select a 8-line rounding of the positioning of the lines with: 
#define FONT_V_SPACE (((FONT_HEIGHT + 7) / 8) * 8)
void lcd_line2() {
   lcd_text_line = 1;
     20c:	81 e0       	ldi	r24, 0x01	; 1
     20e:	80 93 0e 01 	sts	0x010E, r24
#if ((LCD_ST_TYPE == 7565) || (LCD_ST_TYPE == 1306) || (LCD_ST_TYPE == 7108) || (LCD_ST_TYPE == 7920))
   lcd_set_cursor(1 * ((FONT_HEIGHT + 7) / 8),0);
#else
   lcd_command((uint8_t)(CMD_SetDDRAMAddress + 0x40));
     212:	80 ec       	ldi	r24, 0xC0	; 192
     214:	0e 94 f9 00 	call	0x1f2	; 0x1f2 <lcd_command>
     218:	08 95       	ret

0000021a <lcd_line3>:
}

/* ******************************************************************************* */
//move to the beginning of the 3. row
void lcd_line3() {
   lcd_text_line = 2;
     21a:	82 e0       	ldi	r24, 0x02	; 2
     21c:	80 93 0e 01 	sts	0x010E, r24
#if ((LCD_ST_TYPE == 7565) || (LCD_ST_TYPE == 1306) || (LCD_ST_TYPE == 7108) || (LCD_ST_TYPE == 7920))
   lcd_set_cursor(2 * ((FONT_HEIGHT + 7) / 8),0);
#else
   lcd_command((uint8_t)(CMD_SetDDRAMAddress + 0x14));
     220:	84 e9       	ldi	r24, 0x94	; 148
     222:	0e 94 f9 00 	call	0x1f2	; 0x1f2 <lcd_command>
     226:	08 95       	ret

00000228 <lcd_line4>:
}

/* ******************************************************************************* */
//move to the beginning of the 4. row
void lcd_line4() {
   lcd_text_line = 3;
     228:	83 e0       	ldi	r24, 0x03	; 3
     22a:	80 93 0e 01 	sts	0x010E, r24
#if ((LCD_ST_TYPE == 7565) || (LCD_ST_TYPE == 1306) || (LCD_ST_TYPE == 7108) || (LCD_ST_TYPE == 7920))
   lcd_set_cursor(3 * ((FONT_HEIGHT + 7) / 8),0);
#else
   lcd_command((uint8_t)(CMD_SetDDRAMAddress + 0x54));
     22e:	84 ed       	ldi	r24, 0xD4	; 212
     230:	0e 94 f9 00 	call	0x1f2	; 0x1f2 <lcd_command>
     234:	08 95       	ret

00000236 <lcd_set_cursor>:
/* ************************************************************************************** */
/* Set the character position to x,y , where x specifies the character number in a text line. */
/* The y position is the page address (8 line units).                                     */
/* For most controllers the y position must be increased by (Height + 7) / 8 for the next text line */
void lcd_set_cursor(uint8_t y, uint8_t x) {
 _lcd_column = x;
     236:	60 93 03 01 	sts	0x0103, r22
     23a:	98 2f       	mov	r25, r24
     23c:	96 95       	lsr	r25
    // For example the SPL501 controller has 132x65 dot matrix memory
    // LCD_ST7565_H_OFFSET specifies the offset of the 128 pixel of the display window.
   _xpos = (x * FONT_WIDTH);
#else
   // move to the specified position for character display
   if ((y & 0x01) != 0) {
     23e:	80 ff       	sbrs	r24, 0
     240:	02 c0       	rjmp	.+4      	; 0x246 <lcd_set_cursor+0x10>
     lcd_command((uint8_t)(CMD_SetDDRAMAddress + 0x40 + (20*(y/2)) + x));
     242:	80 ec       	ldi	r24, 0xC0	; 192
     244:	01 c0       	rjmp	.+2      	; 0x248 <lcd_set_cursor+0x12>
   } else {
     lcd_command((uint8_t)(CMD_SetDDRAMAddress + (20*(y/2)) + x));
     246:	80 e8       	ldi	r24, 0x80	; 128
     248:	86 0f       	add	r24, r22
     24a:	24 e1       	ldi	r18, 0x14	; 20
     24c:	92 9f       	mul	r25, r18
     24e:	80 0d       	add	r24, r0
     250:	11 24       	eor	r1, r1
     252:	0e 94 f9 00 	call	0x1f2	; 0x1f2 <lcd_command>
     256:	08 95       	ret

00000258 <lcd_next_line>:
/* ******************************************************************************* */
// position to next line to column xx
// Text_line number is incremented by 1, if possible (not yet at the last line).
// If already at the last line of the display, last_line_used is set to 1 .
void lcd_next_line(uint8_t xx) {
lcd_text_line ++;
     258:	90 91 0e 01 	lds	r25, 0x010E
     25c:	9f 5f       	subi	r25, 0xFF	; 255
     25e:	90 93 0e 01 	sts	0x010E, r25
if (lcd_text_line > (LCD_LINES - 1))  {
     262:	92 30       	cpi	r25, 0x02	; 2
     264:	30 f0       	brcs	.+12     	; 0x272 <lcd_next_line+0x1a>
   // Limit is reached
   lcd_text_line = (LCD_LINES - 1);
     266:	91 e0       	ldi	r25, 0x01	; 1
     268:	90 93 0e 01 	sts	0x010E, r25
   last_line_used = 1;
     26c:	90 93 43 01 	sts	0x0143, r25
     270:	02 c0       	rjmp	.+4      	; 0x276 <lcd_next_line+0x1e>
} else {
   last_line_used = 0;
     272:	10 92 43 01 	sts	0x0143, r1
}
lcd_set_cursor((uint8_t)(lcd_text_line * PAGES_PER_LINE), xx);
     276:	68 2f       	mov	r22, r24
     278:	80 91 0e 01 	lds	r24, 0x010E
     27c:	0e 94 1b 01 	call	0x236	; 0x236 <lcd_set_cursor>
     280:	08 95       	ret

00000282 <lcd_next_line_wait>:
}
/* ******************************************************************************* */
#ifdef WAIT_LINE2_CLEAR
void lcd_next_line_wait(uint8_t xx) {
 lcd_next_line(xx);
     282:	0e 94 2c 01 	call	0x258	; 0x258 <lcd_next_line>
 wait_for_key_5s_line2();		// wait 5s and clear last line
     286:	0e 94 49 04 	call	0x892	; 0x892 <wait_for_key_5s_line2>
     28a:	08 95       	ret

0000028c <lcd_restore_position>:
 last_text_line = lcd_text_line;
 return(last_text_line);
}
/* ************************************************************************************** */
void lcd_restore_position(void) {
 lcd_set_cursor((uint8_t)last_text_line * PAGES_PER_LINE, (uint8_t)(last_text_column));
     28c:	60 91 00 01 	lds	r22, 0x0100
     290:	80 91 02 01 	lds	r24, 0x0102
     294:	0e 94 1b 01 	call	0x236	; 0x236 <lcd_set_cursor>
     298:	08 95       	ret

0000029a <lcd_clear>:
     for (p = 0; p < (SCREEN_WIDTH / 8); p++) {
       lcd_bit_mem[count][p] = 0;		// clear bits in image data
     }
   }
#else
   lcd_command(CLEAR_DISPLAY);
     29a:	81 e0       	ldi	r24, 0x01	; 1
     29c:	0e 94 f9 00 	call	0x1f2	; 0x1f2 <lcd_command>
   wait_about10ms();
     2a0:	82 e0       	ldi	r24, 0x02	; 2
     2a2:	0e 94 7e 03 	call	0x6fc	; 0x6fc <sleep_5ms>
#endif
#ifdef WITH_UART
   uart_newline();
#endif
   lcd_line1();			// set cursor to Line1 Column 1, (only for OLED-Display)
     2a6:	0e 94 00 01 	call	0x200	; 0x200 <lcd_line1>
   lcd_text_line = 0;
     2aa:	10 92 0e 01 	sts	0x010E, r1
     2ae:	08 95       	ret

000002b0 <lcd_init>:
}
/* -------------------------------------------------------------------------- */
#else    /* !(LCD_ST_TYPE == 7565 | 1306) | 7108 | 7920) */
/* must be a character display */
void lcd_init(void) {
   wait_about30ms();
     2b0:	86 e0       	ldi	r24, 0x06	; 6
     2b2:	0e 94 7e 03 	call	0x6fc	; 0x6fc <sleep_5ms>
   // to initialise, send 3 times to be shure to be in 8 Bit mode
   lcd_write_init(1);
     2b6:	60 e3       	ldi	r22, 0x30	; 48
     2b8:	80 e8       	ldi	r24, 0x80	; 128
     2ba:	0e 94 9d 00 	call	0x13a	; 0x13a <_lcd_hw_write>
   wait_about5ms();
     2be:	81 e0       	ldi	r24, 0x01	; 1
     2c0:	0e 94 7e 03 	call	0x6fc	; 0x6fc <sleep_5ms>
   
   lcd_write_init(1);
     2c4:	60 e3       	ldi	r22, 0x30	; 48
     2c6:	80 e8       	ldi	r24, 0x80	; 128
     2c8:	0e 94 9d 00 	call	0x13a	; 0x13a <_lcd_hw_write>
   wait1ms();
     2cc:	0e 94 6d 03 	call	0x6da	; 0x6da <wait1ms>

   lcd_write_init(1);
     2d0:	60 e3       	ldi	r22, 0x30	; 48
     2d2:	80 e8       	ldi	r24, 0x80	; 128
     2d4:	0e 94 9d 00 	call	0x13a	; 0x13a <_lcd_hw_write>
   wait1ms();
     2d8:	0e 94 6d 03 	call	0x6da	; 0x6da <wait1ms>

   lcd_write_init(0);		// switch to 4 Bit mode
     2dc:	60 e2       	ldi	r22, 0x20	; 32
     2de:	80 e8       	ldi	r24, 0x80	; 128
     2e0:	0e 94 9d 00 	call	0x13a	; 0x13a <_lcd_hw_write>
   wait_about10ms();
     2e4:	82 e0       	ldi	r24, 0x02	; 2
     2e6:	0e 94 7e 03 	call	0x6fc	; 0x6fc <sleep_5ms>

   lcd_command(CMD_SetEntryMode | 0x02);	// increment / no Scroll    
   lcd_clear();
 #else
   // initialize sequence with OLED display
   lcd_command(CMD_SetIFOptions);		// Add for OLED
     2ea:	80 e2       	ldi	r24, 0x20	; 32
     2ec:	0e 94 f9 00 	call	0x1f2	; 0x1f2 <lcd_command>
   lcd_command(CMD_SetIFOptions);		// Add for OLED
     2f0:	80 e2       	ldi	r24, 0x20	; 32
     2f2:	0e 94 f9 00 	call	0x1f2	; 0x1f2 <lcd_command>

   lcd_command(CMD_SetIFOptions| 0x0A);		// 4Bit / 2 rows / 5x7 / table3 / Add for OLED
     2f6:	8a e2       	ldi	r24, 0x2A	; 42
     2f8:	0e 94 f9 00 	call	0x1f2	; 0x1f2 <lcd_command>
   lcd_command(CMD_SetDisplayAndCursor);	// Display off / no Blinking  / Add for OLED
     2fc:	88 e0       	ldi	r24, 0x08	; 8
     2fe:	0e 94 f9 00 	call	0x1f2	; 0x1f2 <lcd_command>
   lcd_clear();
     302:	0e 94 4d 01 	call	0x29a	; 0x29a <lcd_clear>
   lcd_command(CMD_SetEntryMode | 0x02);	// increment / no Scroll
     306:	86 e0       	ldi	r24, 0x06	; 6
     308:	0e 94 f9 00 	call	0x1f2	; 0x1f2 <lcd_command>
   lcd_command(2);				// Home Command  // Add for OLED
     30c:	82 e0       	ldi	r24, 0x02	; 2
     30e:	0e 94 f9 00 	call	0x1f2	; 0x1f2 <lcd_command>
   wait_about5ms();
     312:	81 e0       	ldi	r24, 0x01	; 1
     314:	0e 94 7e 03 	call	0x6fc	; 0x6fc <sleep_5ms>
   lcd_command(CMD_SetDisplayAndCursor | 0x04);	// Display on / Cursor off / no Blinking
     318:	8c e0       	ldi	r24, 0x0C	; 12
     31a:	0e 94 f9 00 	call	0x1f2	; 0x1f2 <lcd_command>
     31e:	08 95       	ret

00000320 <lcd_string>:
 
 
/* ******************************************************************************* */
// writes a string to the LCD 
 
void lcd_string(char *data) {
     320:	cf 93       	push	r28
     322:	df 93       	push	r29
     324:	ec 01       	movw	r28, r24
    while(*data) {
     326:	89 91       	ld	r24, Y+
     328:	88 23       	and	r24, r24
     32a:	19 f0       	breq	.+6      	; 0x332 <lcd_string+0x12>
        lcd_data(*data);
     32c:	0e 94 d4 00 	call	0x1a8	; 0x1a8 <lcd_data>
     330:	fa cf       	rjmp	.-12     	; 0x326 <lcd_string+0x6>
        data++;
    }
}
     332:	df 91       	pop	r29
     334:	cf 91       	pop	r28
     336:	08 95       	ret

00000338 <lcd_pgm_string>:

#ifdef use_lcd_pgm
//Load string from PGM  and send to LCD 
void lcd_pgm_string(const unsigned char *data) {
     338:	cf 93       	push	r28
     33a:	df 93       	push	r29
     33c:	ec 01       	movw	r28, r24
   unsigned char cc;
   while(1) {
      cc = pgm_read_byte(data);
     33e:	fe 01       	movw	r30, r28
     340:	84 91       	lpm	r24, Z
      if((cc==0) || (cc==128)) {
     342:	98 2f       	mov	r25, r24
     344:	9f 77       	andi	r25, 0x7F	; 127
     346:	21 f0       	breq	.+8      	; 0x350 <lcd_pgm_string+0x18>
         return;
      }
      lcd_data(cc);
     348:	0e 94 d4 00 	call	0x1a8	; 0x1a8 <lcd_data>
      data++;
     34c:	21 96       	adiw	r28, 0x01	; 1
   }
     34e:	f7 cf       	rjmp	.-18     	; 0x33e <lcd_pgm_string+0x6>
}
     350:	df 91       	pop	r29
     352:	cf 91       	pop	r28
     354:	08 95       	ret

00000356 <lcd_fix_string>:
#endif

/* ******************************************************************************* */
#ifdef USE_EEPROM
//Load string from PGM or EEprom and send to LCD 
void lcd_fix_string(const unsigned char *data) {
     356:	cf 93       	push	r28
     358:	df 93       	push	r29
     35a:	ec 01       	movw	r28, r24
   unsigned char cc;
   while(1) {
      cc = MEM_read_byte(data);
     35c:	ce 01       	movw	r24, r28
     35e:	0e 94 c0 1f 	call	0x3f80	; 0x3f80 <__eerd_byte_m168>
      if((cc==0) || (cc==128)) {
     362:	98 2f       	mov	r25, r24
     364:	9f 77       	andi	r25, 0x7F	; 127
     366:	21 f0       	breq	.+8      	; 0x370 <lcd_fix_string+0x1a>
         return;
      }
      lcd_data(cc);
     368:	0e 94 d4 00 	call	0x1a8	; 0x1a8 <lcd_data>
      data++;
     36c:	21 96       	adiw	r28, 0x01	; 1
   }
     36e:	f6 cf       	rjmp	.-20     	; 0x35c <lcd_fix_string+0x6>
}
     370:	df 91       	pop	r29
     372:	cf 91       	pop	r28
     374:	08 95       	ret

00000376 <lcd_fix_customchar>:
#endif

/* ******************************************************************************* */
// load custom character from PGM or EEprom and send to LCD
void lcd_fix_customchar(const unsigned char *chardata) {	
     376:	0f 93       	push	r16
     378:	1f 93       	push	r17
     37a:	cf 93       	push	r28
     37c:	df 93       	push	r29
     37e:	8c 01       	movw	r16, r24
     380:	08 5f       	subi	r16, 0xF8	; 248
     382:	1f 4f       	sbci	r17, 0xFF	; 255
#if (LCD_ST_TYPE == 0)
    uint8_t ii;
    for (ii=0;ii<8;ii++) {
        lcd_data(MEM_read_byte(chardata++));
     384:	ec 01       	movw	r28, r24
     386:	21 96       	adiw	r28, 0x01	; 1
     388:	0e 94 c0 1f 	call	0x3f80	; 0x3f80 <__eerd_byte_m168>
     38c:	0e 94 d4 00 	call	0x1a8	; 0x1a8 <lcd_data>
/* ******************************************************************************* */
// load custom character from PGM or EEprom and send to LCD
void lcd_fix_customchar(const unsigned char *chardata) {	
#if (LCD_ST_TYPE == 0)
    uint8_t ii;
    for (ii=0;ii<8;ii++) {
     390:	c0 17       	cp	r28, r16
     392:	d1 07       	cpc	r29, r17
     394:	11 f0       	breq	.+4      	; 0x39a <lcd_fix_customchar+0x24>
        lcd_data(MEM_read_byte(chardata++));
     396:	ce 01       	movw	r24, r28
     398:	f5 cf       	rjmp	.-22     	; 0x384 <lcd_fix_customchar+0xe>
    }
#endif
}
     39a:	df 91       	pop	r29
     39c:	cf 91       	pop	r28
     39e:	1f 91       	pop	r17
     3a0:	0f 91       	pop	r16
     3a2:	08 95       	ret

000003a4 <lcd_clear_line>:

/* ******************************************************************************* */
#ifdef LCD_CLEAR
void lcd_clear_line(void) {
 // writes 20 spaces to LCD-Display, Cursor must be positioned to first column
    lcd_spaces(20);
     3a4:	84 e1       	ldi	r24, 0x14	; 20
     3a6:	0e 94 e3 00 	call	0x1c6	; 0x1c6 <lcd_spaces>
     3aa:	08 95       	ret

000003ac <lcd_clear_line1>:
}
void lcd_clear_line1(void) {
    lcd_line1();
     3ac:	0e 94 00 01 	call	0x200	; 0x200 <lcd_line1>
    lcd_clear_line();
     3b0:	0e 94 d2 01 	call	0x3a4	; 0x3a4 <lcd_clear_line>
    lcd_line1();
     3b4:	0e 94 00 01 	call	0x200	; 0x200 <lcd_line1>
     3b8:	08 95       	ret

000003ba <lcd_clear_line2>:
}
void lcd_clear_line2(void) {
    lcd_line2();
     3ba:	0e 94 06 01 	call	0x20c	; 0x20c <lcd_line2>
    lcd_clear_line();
     3be:	0e 94 d2 01 	call	0x3a4	; 0x3a4 <lcd_clear_line>
    lcd_line2();
     3c2:	0e 94 06 01 	call	0x20c	; 0x20c <lcd_line2>
     3c6:	08 95       	ret

000003c8 <lcd_show_Cg>:
   } /* end for ii */
 #endif /* (LCD_ST_TYPE == 7565) ||  == 1306 ||  == 7108  || == 7920 */
}
#endif
/* ******************************************************************************* */
void lcd_show_Cg(void) {
     3c8:	0f 93       	push	r16
       lcd_MEM_string(GateCap_str);             //"Cg="
     3ca:	88 ea       	ldi	r24, 0xA8	; 168
     3cc:	90 e0       	ldi	r25, 0x00	; 0
     3ce:	0e 94 ab 01 	call	0x356	; 0x356 <lcd_fix_string>
#if FLASHEND > 0x1fff
       if (cap.cpre < -3) {
     3d2:	40 91 86 01 	lds	r20, 0x0186
     3d6:	4d 3f       	cpi	r20, 0xFD	; 253
     3d8:	6c f4       	brge	.+26     	; 0x3f4 <lcd_show_Cg+0x2c>
          DisplayValue(cap.cval,cap.cpre,'F',3);
     3da:	60 91 74 01 	lds	r22, 0x0174
     3de:	70 91 75 01 	lds	r23, 0x0175
     3e2:	80 91 76 01 	lds	r24, 0x0176
     3e6:	90 91 77 01 	lds	r25, 0x0177
     3ea:	03 e0       	ldi	r16, 0x03	; 3
     3ec:	26 e4       	ldi	r18, 0x46	; 70
     3ee:	0e 94 b2 02 	call	0x564	; 0x564 <DisplayValue>
     3f2:	03 c0       	rjmp	.+6      	; 0x3fa <lcd_show_Cg+0x32>
       } else {
          lcd_data('?');
     3f4:	8f e3       	ldi	r24, 0x3F	; 63
     3f6:	0e 94 d4 00 	call	0x1a8	; 0x1a8 <lcd_data>
       }
#else
       DisplayValue(cap.cval,cap.cpre,'F',3);
#endif
}
     3fa:	0f 91       	pop	r16
     3fc:	08 95       	ret

000003fe <i2lcd>:

 .section .text
i2lcd:			;	void i2lcd(int iw)

;;  	movw	r20, r24
 	sbrs	r25, 7
     3fe:	97 ff       	sbrs	r25, 7
 	rjmp	to_lcd		; if (iw >= 0) {
     400:	09 c0       	rjmp	.+18     	; 0x414 <u2lcd>
;   // negativ value, output -  and invert iw
        push	r24		; save r24:r25
     402:	8f 93       	push	r24
        push	r25
     404:	9f 93       	push	r25
 	ldi	r24,'-'		; 45
     406:	8d e2       	ldi	r24, 0x2D	; 45
 	RCALL	lcd_data	; lcd_data('-'); uses r22
     408:	cf de       	rcall	.-610    	; 0x1a8 <lcd_data>
        pop	r25		; recall r25:r24
     40a:	9f 91       	pop	r25
        pop	r24		; old r24
     40c:	8f 91       	pop	r24
        com	r25
     40e:	90 95       	com	r25
	neg	r24
     410:	81 95       	neg	r24
        sbci	r25,-1		; iw = - iw
     412:	9f 4f       	sbci	r25, 0xFF	; 255

00000414 <u2lcd>:

u2lcd:			;	void i2lcd(uint16_t iw)
to_lcd:			;	void i2lcd(uint16_t iw)
 	ldi	r22, lo8(outval)	;0x0F
     414:	6d e1       	ldi	r22, 0x1D	; 29
 	ldi	r23, hi8(outval)	;0x01
     416:	71 e0       	ldi	r23, 0x01	; 1
 	ldi	r20, 10
     418:	4a e0       	ldi	r20, 0x0A	; 10
 	ldi	r21, 0x00	; 0
     41a:	50 e0       	ldi	r21, 0x00	; 0
 	ACALL	utoa		; utoa(iw, outval, 10);	//output voltage to string
     41c:	0e 94 aa 1f 	call	0x3f54	; 0x3f54 <utoa>
 	RCALL	lcd_string	;lcd_string(utoa(iw, outval, 10));	//output correction voltage
     420:	7f df       	rcall	.-258    	; 0x320 <lcd_string>

 	ret
     422:	08 95       	ret

00000424 <PinLayout>:

PinLayout:

#ifndef EBC_STYLE 
;   // Layout with 123= style
 	push	r14
     424:	ef 92       	push	r14
 	push	r15
     426:	ff 92       	push	r15
 	push	r16
     428:	0f 93       	push	r16
 	push	r17
     42a:	1f 93       	push	r17

 	mov	r17, r24		; Pin1
     42c:	18 2f       	mov	r17, r24
 	mov	r16, r22		; Pin2
     42e:	06 2f       	mov	r16, r22
 	mov	r15, r20		; Pin3
     430:	f4 2e       	mov	r15, r20
 	ldi	r24, lo8(N123_str)	; 0x0B
     432:	87 e9       	ldi	r24, 0x97	; 151
 	ldi	r25, hi8(N123_str)	; 0x01	
     434:	90 e0       	ldi	r25, 0x00	; 0
 #ifdef USE_EEPROM
 	RCALL	lcd_fix_string	; lcd_MEM_string(N123_str);		//" 123="
     436:	8f df       	rcall	.-226    	; 0x356 <lcd_fix_string>
 #else
 	RCALL	lcd_pgm_string	; lcd_MEM_string(N123_str);		//" 123="
 #endif
 	eor	r14, r14	; for (ipp=0;
     438:	ee 24       	eor	r14, r14

0000043a <loop1>:
loop1:
 	lds	r30, _trans
     43a:	e0 91 41 01 	lds	r30, 0x0141
 	lds	r31, _trans+1
     43e:	f0 91 42 01 	lds	r31, 0x0142
 	ldd	r24, Z+OFFS_e	; _trans->e
     442:	86 85       	ldd	r24, Z+14	; 0x0e
 	cp	r14, r24
     444:	e8 16       	cp	r14, r24
 	brne	checkb		; if (ipp == _trans->e) 
     446:	11 f4       	brne	.+4      	; 0x44c <checkb>
 	mov	r24, r17	; pin1
     448:	81 2f       	mov	r24, r17
        rjmp	data_ipp  	; lcd_data(pin1);	// Output Character in right order
     44a:	09 c0       	rjmp	.+18     	; 0x45e <data_ipp>

0000044c <checkb>:
checkb:
 	ldd	r24, Z+OFFS_b	; _trans->b
     44c:	84 85       	ldd	r24, Z+12	; 0x0c
 	cp	r14, r24	; if (ipp == _trans->b) 
     44e:	e8 16       	cp	r14, r24
 	brne	checkc
     450:	11 f4       	brne	.+4      	; 0x456 <checkc>
 	mov	r24, r16
     452:	80 2f       	mov	r24, r16
        rjmp	data_ipp	;  lcd_data(pin2);
     454:	04 c0       	rjmp	.+8      	; 0x45e <data_ipp>

00000456 <checkc>:
checkc:
 	ldd	r24, Z+OFFS_c	; _trans->c
     456:	85 85       	ldd	r24, Z+13	; 0x0d
 	cp	r14, r24
     458:	e8 16       	cp	r14, r24
 	brne	next_ipp		; if (ipp == _trans->c) 
     45a:	11 f4       	brne	.+4      	; 0x460 <next_ipp>
 	mov	r24, r15
     45c:	8f 2d       	mov	r24, r15

0000045e <data_ipp>:
data_ipp:
 	RCALL	lcd_data	;  lcd_data(pin3);
     45e:	a4 de       	rcall	.-696    	; 0x1a8 <lcd_data>

00000460 <next_ipp>:
next_ipp:
 	inc	r14
     460:	e3 94       	inc	r14
 	mov	r24, r14
     462:	8e 2d       	mov	r24, r14
 	cpi	r24, 0x03	;  for (     ;ipp<3;ipp++) {
     464:	83 30       	cpi	r24, 0x03	; 3
 	brne	loop1 
     466:	49 f7       	brne	.-46     	; 0x43a <loop1>

 	pop	r17
     468:	1f 91       	pop	r17
 	pop	r16
     46a:	0f 91       	pop	r16
 	pop	r15
     46c:	ff 90       	pop	r15
 	pop	r14
     46e:	ef 90       	pop	r14
 	ret
     470:	08 95       	ret

00000472 <Rnum2pins>:
#endif     /* WITH_GRAPHICS */

 .GLOBAL Rnum2pins
 .func Rnum2pins
 Rnum2pins:
	mov	r22,r24
     472:	68 2f       	mov	r22, r24
	ldi	r24, TP1
     474:	80 e0       	ldi	r24, 0x00	; 0
	ldi	r25, TP3
     476:	92 e0       	ldi	r25, 0x02	; 2
        and	r22,r22
     478:	66 23       	and	r22, r22
        brne    nozero
     47a:	09 f4       	brne	.+2      	; 0x47e <nozero>
        ldi	r25, TP2
     47c:	91 e0       	ldi	r25, 0x01	; 1

0000047e <nozero>:
nozero:
	cpi	r22, 2
     47e:	62 30       	cpi	r22, 0x02	; 2
	brne	no_two
     480:	09 f4       	brne	.+2      	; 0x484 <no_two>
	ldi	r24, TP2
     482:	81 e0       	ldi	r24, 0x01	; 1

00000484 <no_two>:
no_two:
	ret
     484:	08 95       	ret

00000486 <RvalOut>:
 .extern ResistorVal

 .section .text

RvalOut:		; void RvalOut(uint8_t nrr) 	
 	push	r16
     486:	0f 93       	push	r16

        mov	r16, r24
     488:	08 2f       	mov	r16, r24
	LDIZ	ResistorVal
     48a:	e2 ea       	ldi	r30, 0xA2	; 162
     48c:	f1 e0       	ldi	r31, 0x01	; 1
	add	r24, r24	; nrr*2
     48e:	88 0f       	add	r24, r24
	add	r24, r24	; nrr*4
     490:	88 0f       	add	r24, r24
	add	r30, r24
     492:	e8 0f       	add	r30, r24
	adc	r31, zero_reg
     494:	f1 1d       	adc	r31, r1

 	ld	r22, Z		; resis[rr].rx
     496:	60 81       	ld	r22, Z
 	ldd	r23, Z+1	; 0x01
     498:	71 81       	ldd	r23, Z+1	; 0x01
 	ldd	r24, Z+2	; 0x02
     49a:	82 81       	ldd	r24, Z+2	; 0x02
 	ldd	r25, Z+3	; 0x03
     49c:	93 81       	ldd	r25, Z+3	; 0x03
#if FLASHEND > 0x1fff
 	cpi	r22, 0x64	; 100
     49e:	64 36       	cpi	r22, 0x64	; 100
 	cpc	r23, r1
     4a0:	71 05       	cpc	r23, r1
 	cpc	r24, r1
     4a2:	81 05       	cpc	r24, r1
 	cpc	r25, r1
     4a4:	91 05       	cpc	r25, r1
 	brcc	ad1d8e 		; (ResistorVal[nrr] < 100)
     4a6:	80 f4       	brcc	.+32     	; 0x4c8 <ad1d8e>
 	lds	r18, inductor_lpre
     4a8:	20 91 01 01 	lds	r18, 0x0101
 	and	r18, r18
     4ac:	22 23       	and	r18, r18
 	brne	ad1d8e 		; (inductor_lpre == 0)
     4ae:	61 f4       	brne	.+24     	; 0x4c8 <ad1d8e>
	mov	r24,r16
     4b0:	80 2f       	mov	r24, r16
	ACALL	Rnum2pins;	; pins = Rnum2pins(nrr)
     4b2:	0e 94 39 02 	call	0x472	; 0x472 <Rnum2pins>
        mov	r22, r25
     4b6:	69 2f       	mov	r22, r25
 	ACALL	GetESR		; rr = GetESR(resis[nrr].ra,resis[nrr].rb);
     4b8:	0e 94 fd 16 	call	0x2dfa	; 0x2dfa <GetESR>
 	movw	r22, r24
     4bc:	bc 01       	movw	r22, r24
        ldi	r24, 0
     4be:	80 e0       	ldi	r24, 0x00	; 0
        ldi	r25, 0
     4c0:	90 e0       	ldi	r25, 0x00	; 0
 	ldi	r20, -2		; 254
     4c2:	4e ef       	ldi	r20, 0xFE	; 254
 	ldi	r16, 0x03	; 3
     4c4:	03 e0       	ldi	r16, 0x03	; 3
 	rjmp	ad1d94		; DisplayValue(rr,-2,LCD_CHAR_OMEGA,3);
     4c6:	02 c0       	rjmp	.+4      	; 0x4cc <ad1d94>

000004c8 <ad1d8e>:
ad1d8e:		; } else {
#endif
	; r22-r25 = ResistorVal[rr]
 	ldi	r20, -1		; 255
     4c8:	4f ef       	ldi	r20, 0xFF	; 255
 	ldi	r16, 0x04	; DisplayValue(resis[nrr].rx,-1,LCD_CHAR_OMEGA,4);
     4ca:	04 e0       	ldi	r16, 0x04	; 4

000004cc <ad1d94>:
ad1d94:
 	ldi	r18, LCD_CHAR_OMEGA	; 244
     4cc:	24 ef       	ldi	r18, 0xF4	; 244
 	RCALL	DisplayValue
     4ce:	4a d0       	rcall	.+148    	; 0x564 <DisplayValue>
 	RCALL	lcd_space	; lcd_space();
     4d0:	76 de       	rcall	.-788    	; 0x1be <lcd_space>
 	pop	r16
     4d2:	0f 91       	pop	r16
 	ret
     4d4:	08 95       	ret

000004d6 <mVAusgabe>:
        .extern lcd_space

	 .func mVAusgabe
	mVAusgabe:
	;   if (nn < 6) {
		cpi	r24, 0x06	; 6
     4d6:	86 30       	cpi	r24, 0x06	; 6
		brcc	ad1ca4;
     4d8:	58 f4       	brcc	.+22     	; 0x4f0 <ad1ca4>
	      // Output in mV units
		LDIZ	diodes+12;
     4da:	e6 e9       	ldi	r30, 0x96	; 150
     4dc:	f1 e0       	ldi	r31, 0x01	; 1
		add	r30,r24
     4de:	e8 0f       	add	r30, r24
		adc	r31,zero_reg
     4e0:	f1 1d       	adc	r31, r1
		add	r30,r24
     4e2:	e8 0f       	add	r30, r24
		adc	r31,zero_reg
     4e4:	f1 1d       	adc	r31, r1
		ld	r24, Z		; diodes.Voltage[nn]
     4e6:	80 81       	ld	r24, Z
		ldd	r25, Z+1	; 0x01
     4e8:	91 81       	ldd	r25, Z+1	; 0x01
		ldi	r22, 0x03	; 3
     4ea:	63 e0       	ldi	r22, 0x03	; 3
		RCALL	Display_mV	; Display_mV(diodes.Voltage[nn],3);
     4ec:	d6 d0       	rcall	.+428    	; 0x69a <Display_mV>
		RCALL	lcd_space;	; lcd_space();
     4ee:	67 de       	rcall	.-818    	; 0x1be <lcd_space>

000004f0 <ad1ca4>:
	ad1ca4:
		ret
     4f0:	08 95       	ret

000004f2 <UfAusgabe>:
	.extern mVAusgabe

	.func UfAusgabe

UfAusgabe:
 	push	r17
     4f2:	1f 93       	push	r17
 	mov	r17, r24
     4f4:	18 2f       	mov	r17, r24
 	lds	r24, ResistorsFound;	0x0168
     4f6:	80 91 70 01 	lds	r24, 0x0170
 	and	r24, r24
     4fa:	88 23       	and	r24, r24
 	breq	ad1cbe; 	   if (ResistorsFound > 0) { 
     4fc:	19 f0       	breq	.+6      	; 0x504 <ad1cbe>
 	RCALL	lcd_space;	lcd_space();
     4fe:	5f de       	rcall	.-834    	; 0x1be <lcd_space>
 	ldi	r24, LCD_CHAR_RESIS3;	0
     500:	82 e5       	ldi	r24, 0x52	; 82
 	RCALL	lcd_data;      lcd_data(LCD_CHAR_RESIS3);	// special symbol or R
     502:	52 de       	rcall	.-860    	; 0x1a8 <lcd_data>

00000504 <ad1cbe>:
ad1cbe:
 	RCALL	lcd_line2;					//2. row
     504:	83 de       	rcall	.-762    	; 0x20c <lcd_line2>
 	ldi	r24, lo8(Uf_str);	0xE9
     506:	8e e8       	ldi	r24, 0x8E	; 142
 	ldi	r25, hi8(Uf_str);	0x01
     508:	90 e0       	ldi	r25, 0x00	; 0
#ifdef USE_EEPROM
 	RCALL	lcd_fix_string	; lcd_PGM_string(Uf_str);	//"Uf="
     50a:	25 df       	rcall	.-438    	; 0x356 <lcd_fix_string>
#else
 	RCALL	lcd_pgm_string	; lcd_PGM_string(Uf_str);	//"Uf="
#endif
 	mov	r24, r17
     50c:	81 2f       	mov	r24, r17
 	swap	r24
     50e:	82 95       	swap	r24
 	andi	r24, 0x0F
     510:	8f 70       	andi	r24, 0x0F	; 15
 	rcall	mVAusgabe	; mVAusgabe(bcdnum >> 4);
     512:	e1 df       	rcall	.-62     	; 0x4d6 <mVAusgabe>
 	mov	r24, r17
     514:	81 2f       	mov	r24, r17
 	andi	r24, 0x0F	; 15
     516:	8f 70       	andi	r24, 0x0F	; 15
 	rcall	mVAusgabe	; mVAusgabe(bcdnum & 0x0f);
     518:	de df       	rcall	.-68     	; 0x4d6 <mVAusgabe>
 	pop	r17
     51a:	1f 91       	pop	r17
 	ret
     51c:	08 95       	ret

0000051e <SerienDiodenAusgabe>:
	.extern AnKat

	.func  SerienDiodenAusgabe

SerienDiodenAusgabe:
 	push	r28
     51e:	cf 93       	push	r28
 	push	r29
     520:	df 93       	push	r29
 	lds	r24, diode_sequence;	0x0102
     522:	80 91 0f 01 	lds	r24, 0x010F
 	swap	r24
     526:	82 95       	swap	r24
 	andi	r24, 0x0F	; first = diode_sequence >> 4;
     528:	8f 70       	andi	r24, 0x0F	; 15
 	ldi	r28, lo8(diodes)	;0x80
     52a:	ca e8       	ldi	r28, 0x8A	; 138
 	ldi	r29, hi8(diodes)	;0x01
     52c:	d1 e0       	ldi	r29, 0x01	; 1
 	add	r28, r24	; first
     52e:	c8 0f       	add	r28, r24
 	adc	r29, zero_reg
     530:	d1 1d       	adc	r29, r1
 	ld	r24, Y		;Anode
     532:	88 81       	ld	r24, Y
 	RCALL	lcd_testpin	; lcd_testpin(diodes.Anode[first]);
     534:	40 de       	rcall	.-896    	; 0x1b6 <lcd_testpin>
 	ldi	r24, lo8(AnKat)	;0xA3
     536:	8a e5       	ldi	r24, 0x5A	; 90
 	ldi	r25, hi8(AnKat)	;0x03
     538:	90 e0       	ldi	r25, 0x00	; 0
#ifdef USE_EEPROM
	.extern lcd_fix_string
 	RCALL	lcd_fix_string	; lcd_PGM_string(AnKat);	//"->|-"
     53a:	0d df       	rcall	.-486    	; 0x356 <lcd_fix_string>
#else
	.extern lcd_pgm_string
 	RCALL	lcd_pgm_string	; lcd_PGM_string(AnKat);	//"->|-"
#endif
 	ldd	r24, Y+6	; Cathode
     53c:	8e 81       	ldd	r24, Y+6	; 0x06
 	RCALL	lcd_testpin	; lcd_testpin(diodes.Cathode[first]);
     53e:	3b de       	rcall	.-906    	; 0x1b6 <lcd_testpin>
 	ldi	r24, lo8(AnKat)	;0xA3
     540:	8a e5       	ldi	r24, 0x5A	; 90
 	ldi	r25, hi8(AnKat)	;0x03
     542:	90 e0       	ldi	r25, 0x00	; 0
#ifdef USE_EEPROM
 	RCALL	lcd_fix_string	; lcd_PGM_string(AnKat);	//"->|-"
     544:	08 df       	rcall	.-496    	; 0x356 <lcd_fix_string>
#else
 	RCALL	lcd_pgm_string	; lcd_PGM_string(AnKat);	//"->|-"
#endif
 	ldi	r28, lo8(diodes)	;0x80
     546:	ca e8       	ldi	r28, 0x8A	; 138
 	ldi	r29, hi8(diodes)	;0x01
     548:	d1 e0       	ldi	r29, 0x01	; 1
 	lds	r24, diode_sequence;	0x0102
     54a:	80 91 0f 01 	lds	r24, 0x010F
 	andi	r24, 0x03	; second = diode_sequence & 3;
     54e:	83 70       	andi	r24, 0x03	; 3
 	add	r28, r24
     550:	c8 0f       	add	r28, r24
 	adc	r29, zero_reg
     552:	d1 1d       	adc	r29, r1
 	ldd	r24, Y+6	; Cathode
     554:	8e 81       	ldd	r24, Y+6	; 0x06
 	RCALL	lcd_testpin	; lcd_testpin(diodes.Cathode[second]);
     556:	2f de       	rcall	.-930    	; 0x1b6 <lcd_testpin>
 	lds	r24, diode_sequence;	x0102
     558:	80 91 0f 01 	lds	r24, 0x010F
 	rcall	UfAusgabe	; UfAusgabe(diode_sequence);
     55c:	ca df       	rcall	.-108    	; 0x4f2 <UfAusgabe>
    	pop	r29
     55e:	df 91       	pop	r29
    	pop	r28
     560:	cf 91       	pop	r28
    	ret
     562:	08 95       	ret

00000564 <DisplayValue>:

 */

void DisplayValue(unsigned long Value, int8_t Exponent, unsigned char Unit, unsigned char digits)

{
     564:	a0 e0       	ldi	r26, 0x00	; 0
     566:	b0 e0       	ldi	r27, 0x00	; 0
     568:	e8 eb       	ldi	r30, 0xB8	; 184
     56a:	f2 e0       	ldi	r31, 0x02	; 2
     56c:	0c 94 79 1f 	jmp	0x3ef2	; 0x3ef2 <__prologue_saves__+0xc>
     570:	dc 01       	movw	r26, r24
     572:	cb 01       	movw	r24, r22
     574:	14 2f       	mov	r17, r20
     576:	c2 2f       	mov	r28, r18



  Limit = 100;				/* scale value down to 2 digits */

  if (digits == 3) Limit = 1000;	/* scale value down to 3 digits */
     578:	03 30       	cpi	r16, 0x03	; 3
     57a:	29 f0       	breq	.+10     	; 0x586 <DisplayValue+0x22>

  if (digits == 4) Limit = 10000;	/* scale value down to 4 digits */
     57c:	04 30       	cpi	r16, 0x04	; 4
     57e:	31 f0       	breq	.+12     	; 0x58c <DisplayValue+0x28>





  Limit = 100;				/* scale value down to 2 digits */
     580:	24 e6       	ldi	r18, 0x64	; 100
     582:	30 e0       	ldi	r19, 0x00	; 0
     584:	05 c0       	rjmp	.+10     	; 0x590 <DisplayValue+0x2c>

  if (digits == 3) Limit = 1000;	/* scale value down to 3 digits */
     586:	28 ee       	ldi	r18, 0xE8	; 232
     588:	33 e0       	ldi	r19, 0x03	; 3
     58a:	02 c0       	rjmp	.+4      	; 0x590 <DisplayValue+0x2c>

  if (digits == 4) Limit = 10000;	/* scale value down to 4 digits */
     58c:	20 e1       	ldi	r18, 0x10	; 16
     58e:	37 e2       	ldi	r19, 0x27	; 39
  if (digits == 5) Limit = 100000;	/* scale value down to 5 digits */
  if (digits == 6) Limit = 1000000;	/* scale value down to 6 digits */
  if (digits == 7) Limit = 10000000;	/* scale value down to 7 digits */
#endif

  while (Value >= Limit)
     590:	69 01       	movw	r12, r18
     592:	e1 2c       	mov	r14, r1
     594:	f1 2c       	mov	r15, r1

  {

    Value += 5;				/* for automatic rounding */

    Value = Value / 10;			/* scale down by 10^1 */
     596:	2a e0       	ldi	r18, 0x0A	; 10
     598:	82 2e       	mov	r8, r18
     59a:	91 2c       	mov	r9, r1
     59c:	a1 2c       	mov	r10, r1
     59e:	b1 2c       	mov	r11, r1
  if (digits == 5) Limit = 100000;	/* scale value down to 5 digits */
  if (digits == 6) Limit = 1000000;	/* scale value down to 6 digits */
  if (digits == 7) Limit = 10000000;	/* scale value down to 7 digits */
#endif

  while (Value >= Limit)
     5a0:	8c 15       	cp	r24, r12
     5a2:	9d 05       	cpc	r25, r13
     5a4:	ae 05       	cpc	r26, r14
     5a6:	bf 05       	cpc	r27, r15
     5a8:	70 f0       	brcs	.+28     	; 0x5c6 <DisplayValue+0x62>

  {

    Value += 5;				/* for automatic rounding */
     5aa:	bc 01       	movw	r22, r24
     5ac:	cd 01       	movw	r24, r26
     5ae:	6b 5f       	subi	r22, 0xFB	; 251
     5b0:	7f 4f       	sbci	r23, 0xFF	; 255
     5b2:	8f 4f       	sbci	r24, 0xFF	; 255
     5b4:	9f 4f       	sbci	r25, 0xFF	; 255

    Value = Value / 10;			/* scale down by 10^1 */
     5b6:	a5 01       	movw	r20, r10
     5b8:	94 01       	movw	r18, r8
     5ba:	0e 94 32 1f 	call	0x3e64	; 0x3e64 <__udivmodsi4>
     5be:	da 01       	movw	r26, r20
     5c0:	c9 01       	movw	r24, r18
     5c2:	1f 5f       	subi	r17, 0xFF	; 255
     5c4:	ed cf       	rjmp	.-38     	; 0x5a0 <DisplayValue+0x3c>

   *  determine prefix

   */

  Length = Exponent + 12;
     5c6:	14 5f       	subi	r17, 0xF4	; 244

  if ((int8_t)Length <  0) Length = 0;		/* Limit to minimum prefix */
     5c8:	17 fd       	sbrc	r17, 7
     5ca:	04 c0       	rjmp	.+8      	; 0x5d4 <DisplayValue+0x70>

  if (Length > 18) Length = 18;		/* Limit to maximum prefix */
     5cc:	13 31       	cpi	r17, 0x13	; 19
     5ce:	18 f0       	brcs	.+6      	; 0x5d6 <DisplayValue+0x72>
     5d0:	12 e1       	ldi	r17, 0x12	; 18
     5d2:	01 c0       	rjmp	.+2      	; 0x5d6 <DisplayValue+0x72>

   */

  Length = Exponent + 12;

  if ((int8_t)Length <  0) Length = 0;		/* Limit to minimum prefix */
     5d4:	10 e0       	ldi	r17, 0x00	; 0

  if (Length > 18) Length = 18;		/* Limit to maximum prefix */

  Index = Length / 3;
     5d6:	2b ea       	ldi	r18, 0xAB	; 171
     5d8:	12 9f       	mul	r17, r18
     5da:	f1 2c       	mov	r15, r1
     5dc:	11 24       	eor	r1, r1
     5de:	f6 94       	lsr	r15

  Offset = Length % 3;
     5e0:	2f 2d       	mov	r18, r15
     5e2:	22 0f       	add	r18, r18
     5e4:	2f 0d       	add	r18, r15
     5e6:	e1 2e       	mov	r14, r17
     5e8:	e2 1a       	sub	r14, r18

  if (Offset > 0)
     5ea:	21 f0       	breq	.+8      	; 0x5f4 <DisplayValue+0x90>

    {

      Index++;				/* adjust index for exponent offset, take next prefix */
     5ec:	f3 94       	inc	r15

      Offset = 3 - Offset;		/* reverse value (1 or 2) */
     5ee:	23 e0       	ldi	r18, 0x03	; 3
     5f0:	2e 19       	sub	r18, r14
     5f2:	e2 2e       	mov	r14, r18
  /* convert value into string */

#ifdef WITH_MENU
  ultoa(Value, OutBuffer, 10);
#else
  utoa((unsigned int)Value, OutBuffer, 10);
     5f4:	4a e0       	ldi	r20, 0x0A	; 10
     5f6:	50 e0       	ldi	r21, 0x00	; 0
     5f8:	62 e3       	ldi	r22, 0x32	; 50
     5fa:	71 e0       	ldi	r23, 0x01	; 1
     5fc:	0e 94 aa 1f 	call	0x3f54	; 0x3f54 <utoa>
#endif

  Length = strlen(OutBuffer);
     600:	e2 e3       	ldi	r30, 0x32	; 50
     602:	f1 e0       	ldi	r31, 0x01	; 1
     604:	df 01       	movw	r26, r30
     606:	0d 90       	ld	r0, X+
     608:	00 20       	and	r0, r0
     60a:	e9 f7       	brne	.-6      	; 0x606 <DisplayValue+0xa2>
     60c:	8d 01       	movw	r16, r26
     60e:	01 50       	subi	r16, 0x01	; 1
     610:	11 09       	sbc	r17, r1
     612:	02 53       	subi	r16, 0x32	; 50
     614:	11 40       	sbci	r17, 0x01	; 1
     616:	a0 2e       	mov	r10, r16

    }

#endif

  Prefix = MEM_read_byte((uint8_t *)(&PrefixTab[Index]));   /* look up prefix in table */
     618:	8f 2d       	mov	r24, r15
     61a:	90 e0       	ldi	r25, 0x00	; 0
     61c:	80 50       	subi	r24, 0x00	; 0
     61e:	90 40       	sbci	r25, 0x00	; 0
     620:	0e 94 c0 1f 	call	0x3f80	; 0x3f80 <__eerd_byte_m168>
     624:	b8 2e       	mov	r11, r24



  /* position of dot */

  Exponent = Length - Offset;		/* calculate position */
     626:	d0 2f       	mov	r29, r16
     628:	de 19       	sub	r29, r14



  if (Exponent <= 0)			/* we have to prepend "0." */
     62a:	1d 16       	cp	r1, r29
     62c:	44 f0       	brlt	.+16     	; 0x63e <DisplayValue+0xda>

    /* 0: factor 10 / -1: factor 100 */

//    lcd_data('0');

    lcd_data('.');
     62e:	8e e2       	ldi	r24, 0x2E	; 46
     630:	0e 94 d4 00 	call	0x1a8	; 0x1a8 <lcd_data>

      }

#else

    if (Exponent < 0) lcd_data('0');	/* extra 0 for factor 100 */
     634:	dd 23       	and	r29, r29
     636:	19 f0       	breq	.+6      	; 0x63e <DisplayValue+0xda>
     638:	80 e3       	ldi	r24, 0x30	; 48
     63a:	0e 94 d4 00 	call	0x1a8	; 0x1a8 <lcd_data>

  }



  if (Offset == 0) Exponent = -1;	/* disable dot if not needed */
     63e:	e1 10       	cpse	r14, r1
     640:	01 c0       	rjmp	.+2      	; 0x644 <DisplayValue+0xe0>
     642:	df ef       	ldi	r29, 0xFF	; 255
     644:	82 e3       	ldi	r24, 0x32	; 50
     646:	e8 2e       	mov	r14, r24
     648:	81 e0       	ldi	r24, 0x01	; 1
     64a:	f8 2e       	mov	r15, r24

  /* display value and add dot if requested */

  Index = 0;

  while (Index < Length)		/* loop through string */
     64c:	87 01       	movw	r16, r14

    lcd_data(OutBuffer[Index]);		/* display char */

    Index++;				/* next one */

    if (Index == Exponent) {
     64e:	cd 2e       	mov	r12, r29
     650:	dd 24       	eor	r13, r13
     652:	c7 fc       	sbrc	r12, 7
     654:	d0 94       	com	r13
     656:	80 2f       	mov	r24, r16
     658:	8e 19       	sub	r24, r14

  /* display value and add dot if requested */

  Index = 0;

  while (Index < Length)		/* loop through string */
     65a:	8a 15       	cp	r24, r10
     65c:	78 f4       	brcc	.+30     	; 0x67c <DisplayValue+0x118>

  {

    lcd_data(OutBuffer[Index]);		/* display char */
     65e:	f8 01       	movw	r30, r16
     660:	81 91       	ld	r24, Z+
     662:	8f 01       	movw	r16, r30
     664:	0e 94 d4 00 	call	0x1a8	; 0x1a8 <lcd_data>
     668:	98 01       	movw	r18, r16
     66a:	22 53       	subi	r18, 0x32	; 50
     66c:	31 40       	sbci	r19, 0x01	; 1

    Index++;				/* next one */

    if (Index == Exponent) {
     66e:	2c 15       	cp	r18, r12
     670:	3d 05       	cpc	r19, r13
     672:	89 f7       	brne	.-30     	; 0x656 <DisplayValue+0xf2>

      lcd_data('.');			/* display dot */
     674:	8e e2       	ldi	r24, 0x2E	; 46
     676:	0e 94 d4 00 	call	0x1a8	; 0x1a8 <lcd_data>
     67a:	ed cf       	rjmp	.-38     	; 0x656 <DisplayValue+0xf2>



  /* display prefix and unit */

  if (Prefix != 0) {
     67c:	bb 20       	and	r11, r11
     67e:	19 f0       	breq	.+6      	; 0x686 <DisplayValue+0x122>
     lcd_data(Prefix);
     680:	8b 2d       	mov	r24, r11
     682:	0e 94 d4 00 	call	0x1a8	; 0x1a8 <lcd_data>
  }

  if (Unit != 0) {
     686:	cc 23       	and	r28, r28
     688:	19 f0       	breq	.+6      	; 0x690 <DisplayValue+0x12c>
      lcd_data(Unit);
     68a:	8c 2f       	mov	r24, r28
     68c:	0e 94 d4 00 	call	0x1a8	; 0x1a8 <lcd_data>
  }
  return;
}
     690:	cd b7       	in	r28, 0x3d	; 61
     692:	de b7       	in	r29, 0x3e	; 62
     694:	ec e0       	ldi	r30, 0x0C	; 12
     696:	0c 94 95 1f 	jmp	0x3f2a	; 0x3f2a <__epilogue_restores__+0xc>

0000069a <Display_mV>:

void Display_mV(uint16_t xx, uint8_t ll) {
     69a:	0f 93       	push	r16
     69c:	06 2f       	mov	r16, r22
 DisplayValue((long)xx,-3,'V',ll);
     69e:	bc 01       	movw	r22, r24
     6a0:	80 e0       	ldi	r24, 0x00	; 0
     6a2:	90 e0       	ldi	r25, 0x00	; 0
     6a4:	26 e5       	ldi	r18, 0x56	; 86
     6a6:	4d ef       	ldi	r20, 0xFD	; 253
     6a8:	0e 94 b2 02 	call	0x564	; 0x564 <DisplayValue>
}
     6ac:	0f 91       	pop	r16
     6ae:	08 95       	ret

000006b0 <uart_putc>:
		pop	bitcnt 		; restore register used for bit count
		pop	Txbyte		; restore character send
;   	out _SFR_IO_ADDR(SREG),temp
;   	pop bitcnt
#endif
		ret			;   return
     6b0:	08 95       	ret

000006b2 <wait5s>:
; Every wait call needs only one instruction (rcall).
; I see no way to implement this function with C-language (too tricky)


wait5s:
 rcall wait1s		;	12+x return-adresses
     6b2:	03 d0       	rcall	.+6      	; 0x6ba <wait1000ms>

000006b4 <wait4s>:
wait4s:
 rcall wait1s		;	12+x return-adresses
     6b4:	02 d0       	rcall	.+4      	; 0x6ba <wait1000ms>

000006b6 <wait3s>:
; run to wait3s

wait3s:
 rcall wait1s		;1s	12+x Return-Adresses
     6b6:	01 d0       	rcall	.+2      	; 0x6ba <wait1000ms>

000006b8 <wait2s>:
; run to wait2s		;3s

wait2s:
 rcall wait1s		;1s     12+x Return-Adresses
     6b8:	00 d0       	rcall	.+0      	; 0x6ba <wait1000ms>

000006ba <wait1000ms>:
; run to wait1s		,2s

wait1s:
wait1000ms:	
 rcall wait500ms	;500ms	11+x Return-Adresses
     6ba:	00 d0       	rcall	.+0      	; 0x6bc <wait500ms>

000006bc <wait500ms>:
;laueft in wait500ms	;1s	

wait500ms:
 rcall wait100ms	;100ms	10+x Return-Adresses
     6bc:	03 d0       	rcall	.+6      	; 0x6c4 <wait100ms>

000006be <wait400ms>:
wait400ms:
 rcall wait100ms	;200ms	10+x Return-Adresses
     6be:	02 d0       	rcall	.+4      	; 0x6c4 <wait100ms>

000006c0 <wait300ms>:

wait300ms:
 rcall wait100ms        ;300ms	10+x Return-Adresses
     6c0:	01 d0       	rcall	.+2      	; 0x6c4 <wait100ms>

000006c2 <wait200ms>:
; laeuft in wait200ms	;500ms	10+x Return-Adresses


wait200ms:
 rcall wait100ms	;100ms	10+x Return-Adresses
     6c2:	00 d0       	rcall	.+0      	; 0x6c4 <wait100ms>

000006c4 <wait100ms>:
; laeuft in wait100ms 	;200ms


wait100ms:
 wdr				; alle 100ms ein Watchdog reset!
     6c4:	a8 95       	wdr
 rcall wait50ms	    	; 50ms	9+x Return-Adresses
     6c6:	00 d0       	rcall	.+0      	; 0x6c8 <wait50ms>

000006c8 <wait50ms>:
;laeuft in wait50us 	;100ms

wait50ms:
 rcall wait10ms	    	;10ms	8+x Return-Adresses 
     6c8:	03 d0       	rcall	.+6      	; 0x6d0 <wait10ms>

000006ca <wait40ms>:
wait40ms:
 rcall wait10ms	    	;20ms	8+x Return-Adresses  
     6ca:	02 d0       	rcall	.+4      	; 0x6d0 <wait10ms>

000006cc <wait30ms>:
;laeuft in wait30us 	;50ms

wait30ms:
 rcall wait10ms	    	;10ms	8+x Return-Adresses 
     6cc:	01 d0       	rcall	.+2      	; 0x6d0 <wait10ms>

000006ce <wait20ms>:
;laeuft in wait20us 	;30ms

wait20ms:
 rcall wait10ms	    	;10ms	8+x Return-Adresses
     6ce:	00 d0       	rcall	.+0      	; 0x6d0 <wait10ms>

000006d0 <wait10ms>:
; laeuft in wait10ms	;20ms

wait10ms:
 rcall wait5ms	   	;5ms	7+x Return-Adresses
     6d0:	00 d0       	rcall	.+0      	; 0x6d2 <wait5ms>

000006d2 <wait5ms>:
; laueft in wait5ms	;10ms

wait5ms:
 rcall wait1ms	   	;1ms	6+x Return-Adresses
     6d2:	03 d0       	rcall	.+6      	; 0x6da <wait1ms>

000006d4 <wait4ms>:
wait4ms:
 rcall wait1ms	   	;2ms	6+x Return-Adresses
     6d4:	02 d0       	rcall	.+4      	; 0x6da <wait1ms>

000006d6 <wait3ms>:
; laueft in wait3ms	;5ms	

wait3ms:
 rcall wait1ms	   	;1ms	6+x Return-Adresses
     6d6:	01 d0       	rcall	.+2      	; 0x6da <wait1ms>

000006d8 <wait2ms>:
; laeuft in wait2ms	;3ms


wait2ms:
 rcall wait1ms	   	;1ms	6+x Return-Adresses
     6d8:	00 d0       	rcall	.+0      	; 0x6da <wait1ms>

000006da <wait1ms>:
; laeuft in wait1ms	;2ms

wait1ms:
 rcall wait500us    	;500us	5+x Return-Adresses
     6da:	00 d0       	rcall	.+0      	; 0x6dc <wait500us>

000006dc <wait500us>:
;laeuft in wait500us	;1ms

wait500us:
 rcall wait100us    	;100us	4+x Return-Adresses
     6dc:	03 d0       	rcall	.+6      	; 0x6e4 <wait100us>

000006de <wait400us>:
wait400us:
 rcall wait100us    	;200us	4+x Return-Adresses
     6de:	02 d0       	rcall	.+4      	; 0x6e4 <wait100us>

000006e0 <wait300us>:
;laeuft in wait300us	;500us

wait300us:
 rcall wait100us    	;100us	4+x Return-Adresses
     6e0:	01 d0       	rcall	.+2      	; 0x6e4 <wait100us>

000006e2 <wait200us>:
;laeuft in wait200us	;300us

wait200us:
 rcall wait100us    	;100us	4+x Return-Adresses
     6e2:	00 d0       	rcall	.+0      	; 0x6e4 <wait100us>

000006e4 <wait100us>:
; laeuft in wait100us	;200us	


wait100us:
 rcall wait50us	    	; 50us	3+x Return-Adresses
     6e4:	00 d0       	rcall	.+0      	; 0x6e6 <wait50us>

000006e6 <wait50us>:
; laeuft in wait50us	;100us	

wait50us:
 rcall wait10us     	;10us	2+x Return-Adresses
     6e6:	03 d0       	rcall	.+6      	; 0x6ee <wait10us>

000006e8 <wait40us>:
wait40us:
 rcall wait10us     	;20us
     6e8:	02 d0       	rcall	.+4      	; 0x6ee <wait10us>

000006ea <wait30us>:
; laeuft in wait30us	;50us

wait30us:
 rcall wait10us     	;10us	2+x Return-Adresses
     6ea:	01 d0       	rcall	.+2      	; 0x6ee <wait10us>

000006ec <wait20us>:
; laeuft in wait20us	;20us

wait20us:
 rcall wait10us		;10us	2+x Return-Adresses
     6ec:	00 d0       	rcall	.+0      	; 0x6ee <wait10us>

000006ee <wait10us>:
wait1us:
#endif

#if F_CPU == 8000000
; 8MHz Version			x = 2
 rcall wait5us		;5us
     6ee:	00 d0       	rcall	.+0      	; 0x6f0 <wait5us>

000006f0 <wait5us>:
; run directly to wait5us ;10us

wait5us:
 rcall wait1us		;1us
     6f0:	03 d0       	rcall	.+6      	; 0x6f8 <wait1us>

000006f2 <wait4us>:
wait4us:
 rcall wait1us		;2us
     6f2:	02 d0       	rcall	.+4      	; 0x6f8 <wait1us>

000006f4 <wait3us>:

wait3us:
 rcall wait1us		;3us
     6f4:	01 d0       	rcall	.+2      	; 0x6f8 <wait1us>

000006f6 <wait2us>:
wait2us:
 rcall wait1us
     6f6:	00 d0       	rcall	.+0      	; 0x6f8 <wait1us>

000006f8 <wait1us>:
; run directly to wait1us

wait1us:
 nop
     6f8:	00 00       	nop
wait500ns:
 nop
 #endif
#endif

 ret
     6fa:	08 95       	ret

000006fc <sleep_5ms>:

;/* set the processor to sleep state */
;/* wake up will be done with compare match interrupt of counter 2 */
; void sleep_5ms(uint8_t spause){
sleep_5ms:
 	ldi	r25, 0x00	;  pause = spause;
     6fc:	90 e0       	ldi	r25, 0x00	; 0
 	cpi	r24, 201
     6fe:	89 3c       	cpi	r24, 0xC9	; 201
 	brcs	wloop		; if (spause > 200) 
     700:	28 f0       	brcs	.+10     	; 0x70c <wloop>

;// spause = 202 = 2s
;// spause = 203 = 3s
;// spause = 204 = 4s
;// spause = 205 = 5s
 	subi	r24, 0xC8	; 200 pause = (spause-200) * 200;
     702:	88 5c       	subi	r24, 0xC8	; 200
 	ldi	r20, 0xC8	; 200
     704:	48 ec       	ldi	r20, 0xC8	; 200
 	mul	r24, r20	; (spause-200) * 200
     706:	84 9f       	mul	r24, r20
 	movw	r24, r0		; r24:25 = (spause-200) * 200
     708:	c0 01       	movw	r24, r0
 	eor	r1, r1
     70a:	11 24       	eor	r1, r1

0000070c <wloop>:

wloop:
 	sbiw	r24, 0x00	; 0 while (pause > 0)
     70c:	00 97       	sbiw	r24, 0x00	; 0
 	brne	check_remain 
     70e:	09 f4       	brne	.+2      	; 0x712 <check_remain>
#if 3000 <= RESTART_DELAY_US
 	sts	TIMSK2, r1	; TIMSK2 = (0<<OCIE2B) | (0<<OCIE2A) | (0<<TOIE2); /* disable output compare match A interrupt */ 
#endif
 	ret
     710:	08 95       	ret

00000712 <check_remain>:

check_remain:
#if 3000 > RESTART_DELAY_US
        lds	r18, TCCR1B	; if (TCCR1B & ((1<<CS12)|(1<<CS11)|(1<<CS10)) != 0) 
     712:	20 91 81 00 	lds	r18, 0x0081
	andi	r18, ((1<<CS12)|(1<<CS11)|(1<<CS10))	;
     716:	27 70       	andi	r18, 0x07	; 7
	breq	do_sleep
     718:	19 f0       	breq	.+6      	; 0x720 <do_sleep>
;  timer 1 is running, don't use sleep
	RCALL	wait5ms		; wait5ms();
     71a:	db df       	rcall	.-74     	; 0x6d2 <wait5ms>
	sbiw	r24, 1		; pause -= 1;
     71c:	01 97       	sbiw	r24, 0x01	; 1
	rjmp	next_loop
     71e:	16 c0       	rjmp	.+44     	; 0x74c <next_loop>

00000720 <do_sleep>:
do_sleep:
 	cpi	r24, 0x01	; 1
     720:	81 30       	cpi	r24, 0x01	; 1
 	cpc	r25, r1
     722:	91 05       	cpc	r25, r1
 	breq	only_one 		; if (pause > 1)
     724:	19 f0       	breq	.+6      	; 0x72c <only_one>
 	sbiw	r24, 0x02	; pause -= 2;
     726:	02 97       	sbiw	r24, 0x02	; 2
;     // Startup time is too long with 1MHz Clock!!!!
	ldi	r19, DELAY_10ms ; t2_offset =  (10000 - RESTART_DELAY_US) / T2_PERIOD;	/* set to 10ms above the actual counter */
     728:	3e e3       	ldi	r19, 0x3E	; 62
 	rjmp	set_cntr 
     72a:	03 c0       	rjmp	.+6      	; 0x732 <set_cntr>

0000072c <only_one>:

only_one:
	ldi	r19, DELAY_5ms	; t2_offset =  (5000 - RESTART_DELAY_US) / T2_PERIOD;	/* set to 5ms above the actual counter */
     72c:	37 e1       	ldi	r19, 0x17	; 23
 	ldi	r24, 0x00	;  pause = 0;
     72e:	80 e0       	ldi	r24, 0x00	; 0
 	ldi	r25, 0x00	; 0
     730:	90 e0       	ldi	r25, 0x00	; 0

00000732 <set_cntr>:
   
set_cntr:
 	lds	r18, TCNT2
     732:	20 91 b2 00 	lds	r18, 0x00B2
 	add	r18, r19	; + t2_offset
     736:	23 0f       	add	r18, r19
 	sts	OCR2A, r18	; OCR2A = TCNT2 + t2_offset;	/* set the compare value */
     738:	20 93 b3 00 	sts	0x00B3, r18
 	ldi	r20, ((0<<OCIE2B) | (1<<OCIE2A) | (0<<TOIE2)); /* enable output compare match A interrupt */ 
     73c:	42 e0       	ldi	r20, 0x02	; 2
 	sts	TIMSK2, r20	; TIMSK2 = (0<<OCIE2B) | (1<<OCIE2A) | (0<<TOIE2); /* enable output compare match A interrupt */ 
     73e:	40 93 70 00 	sts	0x0070, r20

;;	ldi	r18, (1 << SM1) | (1 << SM0) | (0 << SE); set_sleep_mode(SLEEP_MODE_PWR_SAVE)
;;	out	_SFR_IO_ADDR(SMCR), r18;        /*  SMCR = (1 <<SM1) | (1 << SM0) | (0 << SE); */
	ldi	r18, (1 << SM1) | (1 << SM0) | (1 << SE);
     742:	27 e0       	ldi	r18, 0x07	; 7
	out	_SFR_IO_ADDR(SMCR), r18;        /*  SMCR = (1 <<SM1) | (1 << SM0) | (1 << SE); */
     744:	23 bf       	out	0x33, r18	; 51
	sleep			;
     746:	88 95       	sleep
; // wake up after output compare match interrupt
	ldi	r18, (1 << SM1) | (1 << SM0) | (0 << SE);
     748:	26 e0       	ldi	r18, 0x06	; 6
	out	_SFR_IO_ADDR(SMCR), r18;        /*  SMCR = (1 << SM0) | (0 << SE); */
     74a:	23 bf       	out	0x33, r18	; 51

0000074c <next_loop>:
;    // restart delay ist too long, use normal delay of 5ms
	RCALL	wait5ms		; wait5ms();
	sbiw	r24, 1		; pause -= 1;
#endif
next_loop:
 	wdr			; wdt_reset();
     74c:	a8 95       	wdr
 	rjmp	wloop 
     74e:	de cf       	rjmp	.-68     	; 0x70c <wloop>

00000750 <W20msReadADC>:
W5msReadADC:
	ACALL wait5ms;
			;// runs directly to ReadADC, this will replace "ACALL ReadADC + ret"
#else
W20msReadADC:
	push	r24;
     750:	8f 93       	push	r24
	ldi	r24, 4;		/* 4 * 5ms */
     752:	84 e0       	ldi	r24, 0x04	; 4
	RCALL	sleep_5ms;
     754:	d3 df       	rcall	.-90     	; 0x6fc <sleep_5ms>
	rjmp   to_read;
     756:	07 c0       	rjmp	.+14     	; 0x766 <to_read>

00000758 <W10msReadADC>:
W10msReadADC:
	push	r24;
     758:	8f 93       	push	r24
	ldi	r24, 2;		/* 2 * 5ms */
     75a:	82 e0       	ldi	r24, 0x02	; 2
	RCALL	sleep_5ms;
     75c:	cf df       	rcall	.-98     	; 0x6fc <sleep_5ms>
	rjmp   to_read;
     75e:	03 c0       	rjmp	.+6      	; 0x766 <to_read>

00000760 <W5msReadADC>:
W5msReadADC:
	push	r24;
     760:	8f 93       	push	r24
	ldi	r24, 1;		/* 1 * 5ms */
     762:	81 e0       	ldi	r24, 0x01	; 1
	RCALL	sleep_5ms;
     764:	cb df       	rcall	.-106    	; 0x6fc <sleep_5ms>

00000766 <to_read>:

to_read:
	pop	r24;
     766:	8f 91       	pop	r24

00000768 <ReadADC>:

;unsigned int ReadADC(uint8_t Probe) 
ReadADC:
;  //returns result of ADC port Probe scaled to mV resolution (unsigned int)
;  unsigned long Value;
	push	r17;
     768:	1f 93       	push	r17
; unsigned int U; /* return value (mV) */
; uint8_t Samples; /* loop counter */
; unsigned long Value; /* ADC value */
	mov	r17, r24;	Probe
     76a:	18 2f       	mov	r17, r24
	ori	r17, (1 << REFS0)	; Probe |= (1 << REFS0); /* use internal reference anyway */
     76c:	10 64       	ori	r17, 0x40	; 64

0000076e <get_sample>:
get_sample:
        AOUT	ADMUX, r17		; ADMUX = Probe; /* set input channel and U reference */
     76e:	10 93 7c 00 	sts	0x007C, r17
#ifdef AUTOSCALE_ADC
 /* if voltage reference changed run a dummy conversion */
	mov	r30, r17;
     772:	e1 2f       	mov	r30, r17
       	andi	r30, (1 << REFS1)	; Samples = Probe & (1 << REFS1); /* get REFS1 bit flag */
     774:	e0 78       	andi	r30, 0x80	; 128
	lds	r24, ADCconfig+RefFlag	;
     776:	80 91 28 01 	lds	r24, 0x0128
       	cp	r30, r24;
     77a:	e8 17       	cp	r30, r24
       	breq	no_ref_change			; if (Samples != ADCconfig.RefFlag) 
     77c:	59 f0       	breq	.+22     	; 0x794 <no_ref_change>
	sts	ADCconfig+RefFlag, r30	; ADCconfig.RefFlag = Samples; /* update flag */
     77e:	e0 93 28 01 	sts	0x0128, r30
 #ifdef NO_AREF_CAP
	RCALL	wait100us		; wait100us(); /* time for voltage stabilization */
     782:	b0 df       	rcall	.-160    	; 0x6e4 <wait100us>
  #else
	ldi	r24, 2			; /* 2 * 5ms */
	RCALL	sleep_5ms		; wait_about10ms()
  #endif
 #endif		/* end NO_AREF_CAP */
	StartADCwait                    ; // allways do one dummy read of ADC, 112us
     784:	8e e9       	ldi	r24, 0x9E	; 158
     786:	80 93 7a 00 	sts	0x007A, r24
     78a:	83 e0       	ldi	r24, 0x03	; 3
     78c:	83 bf       	out	0x33, r24	; 51
     78e:	88 95       	sleep
     790:	82 e0       	ldi	r24, 0x02	; 2
     792:	83 bf       	out	0x33, r24	; 51

00000794 <no_ref_change>:
#endif		/* end AUTOSCALE_ADC */

;unsigned int ReadADC (uint8_t Probe) {
no_ref_change:
 /* * sample ADC readings */
	ldi	r18, 0x00;	 Value = 0UL; /* reset sampling variable */
     794:	20 e0       	ldi	r18, 0x00	; 0
	ldi	r19, 0x00; 
     796:	30 e0       	ldi	r19, 0x00	; 0
	movw	r20, r18;
     798:	a9 01       	movw	r20, r18
	ldi	r30, 0x00;	 Samples = 0; /* number of samples to take */
     79a:	e0 e0       	ldi	r30, 0x00	; 0
	rjmp	r2ae8 ;
     79c:	1f c0       	rjmp	.+62     	; 0x7dc <r2ae8>

0000079e <Loop>:
; while (Samples < ADCconfig.Samples) /* take samples */ 
Loop:
	StartADCwait                    /* start ADC and wait */
     79e:	8e e9       	ldi	r24, 0x9E	; 158
     7a0:	80 93 7a 00 	sts	0x007A, r24
     7a4:	83 e0       	ldi	r24, 0x03	; 3
     7a6:	83 bf       	out	0x33, r24	; 51
     7a8:	88 95       	sleep
     7aa:	82 e0       	ldi	r24, 0x02	; 2
     7ac:	83 bf       	out	0x33, r24	; 51

	lds	r22, ADCL;     Value += ADCW; /* add ADC reading */
     7ae:	60 91 78 00 	lds	r22, 0x0078
	lds	r23, ADCH;
     7b2:	70 91 79 00 	lds	r23, 0x0079
	add	r18, r22;
     7b6:	26 0f       	add	r18, r22
	adc	r19, r23;
     7b8:	37 1f       	adc	r19, r23
	adc	r20, r1;
     7ba:	41 1d       	adc	r20, r1
	adc	r21, r1;
     7bc:	51 1d       	adc	r21, r1
#ifdef AUTOSCALE_ADC
;    /* auto-switch voltage reference for low readings */
;    if ((Samples == 4) && (ADCconfig.U_Bandgap > 255) && ((uint16_t)Value < 1024) && !(Probe & (1 << REFS1))) {
	cpi	r30, 0x04;	Samples == 4
     7be:	e4 30       	cpi	r30, 0x04	; 4
	brne	cnt_next		; if ((Samples == 4) && 
     7c0:	61 f4       	brne	.+24     	; 0x7da <cnt_next>
	lds	r24, ADCconfig+3;
     7c2:	80 91 2a 01 	lds	r24, 0x012A
        cpi	r24,0;
     7c6:	80 30       	cpi	r24, 0x00	; 0
        breq	cnt_next		; if ( && (ADCconfig.U_Bandgap > 255) )
     7c8:	41 f0       	breq	.+16     	; 0x7da <cnt_next>
       	ldi	r24, hi8(1024)		; Value < 1024
     7ca:	84 e0       	ldi	r24, 0x04	; 4
	cpi	r18, lo8(1024)
     7cc:	20 30       	cpi	r18, 0x00	; 0
	cpc	r19, r24;
     7ce:	38 07       	cpc	r19, r24
	brcc	cnt_next		; if ( &&  && ((uint16_t)Value < 1024) )
     7d0:	20 f4       	brcc	.+8      	; 0x7da <cnt_next>
	sbrc	r17, REFS1;
     7d2:	17 fd       	sbrc	r17, 7
	rjmp	cnt_next		; if ( &&  &&  && !(Probe & (1 << REFS1))) 
     7d4:	02 c0       	rjmp	.+4      	; 0x7da <cnt_next>
	ori	r17, (1 << REFS1);   Probe |= (1 << REFS1); /* select internal bandgap reference */
     7d6:	10 68       	ori	r17, 0x80	; 128
 #if (PROCESSOR_TYP == 644) || (PROCESSOR_TYP == 1280)
	cbr	r17, (1<<REFS0); Probe &= ~(1 << REFS0);  /* ATmega640/1280/2560 1.1V Reference with REFS0=0 */
 #endif
	rjmp	get_sample ;       goto get_sample; /* re-run sampling */
     7d8:	ca cf       	rjmp	.-108    	; 0x76e <get_sample>

000007da <cnt_next>:
#endif		/* end AUTOSCALE_ADC */
cnt_next:
	subi	r30, 0xFF;	  Samples++; /* one more done */
     7da:	ef 5f       	subi	r30, 0xFF	; 255

000007dc <r2ae8>:
r2ae8:
	lds	r24, ADCconfig+Samples;
     7dc:	80 91 27 01 	lds	r24, 0x0127
	cp	r30, r24		; while (Samples < ADCconfig.Samples) /* take samples */ 
     7e0:	e8 17       	cp	r30, r24
	brcs	Loop ;
     7e2:	e8 f2       	brcs	.-70     	; 0x79e <Loop>
	lds	r22, ADCconfig+U_AVCC		; U = ADCconfig.U_AVCC; /* Vcc reference */
     7e4:	60 91 2b 01 	lds	r22, 0x012B
       	lds	r23, ADCconfig+U_AVCC+1;
     7e8:	70 91 2c 01 	lds	r23, 0x012C
#ifdef AUTOSCALE_ADC
; /* * convert ADC reading to voltage * - single sample: U = ADC reading * U_ref / 1024 */
; /* get voltage of reference used */
	sbrs	r17, REFS1			; if (Probe & (1 << REFS1))
     7ec:	17 ff       	sbrs	r17, 7
	rjmp	r2b02 ;
     7ee:	04 c0       	rjmp	.+8      	; 0x7f8 <r2b02>
	lds	r22, ADCconfig+U_Bandgap	; U = ADCconfig.U_Bandgap; /* bandgap reference */
     7f0:	60 91 29 01 	lds	r22, 0x0129
	lds	r23, ADCconfig+U_Bandgap+1;
     7f4:	70 91 2a 01 	lds	r23, 0x012A

000007f8 <r2b02>:
#endif		/* end AUTOSCALE_ADC */
; /* convert to voltage; */
r2b02:
	ldi	r24, 0x00			; Value *= U; /* ADC readings * U_ref */
     7f8:	80 e0       	ldi	r24, 0x00	; 0
	ldi	r25, 0x00; 0
     7fa:	90 e0       	ldi	r25, 0x00	; 0
	ACALL	__mulsi3;			; sum(ADCreads) * ADC_reference
     7fc:	0e 94 0e 1f 	call	0x3e1c	; 0x3e1c <__mulsi3>
	ldi	r18, lo8(1023)			; Value /= 1023; /* / 1024 for 10bit ADC */
     800:	2f ef       	ldi	r18, 0xFF	; 255
	ldi	r19, hi8(1023);
     802:	33 e0       	ldi	r19, 0x03	; 3
	ldi	r20, 0x00; 0
     804:	40 e0       	ldi	r20, 0x00	; 0
	ldi	r21, 0x00; 0
     806:	50 e0       	ldi	r21, 0x00	; 0
	ACALL	__udivmodsi4;			R22-25 / R18-21
     808:	0e 94 32 1f 	call	0x3e64	; 0x3e64 <__udivmodsi4>
	movw	r22, r18;
     80c:	b9 01       	movw	r22, r18
	movw	r24, r20;
     80e:	ca 01       	movw	r24, r20
; /* de-sample to get average voltage */
	lds	r18,ADCconfig+Samples			; Value /= ADCconfig.Samples;
     810:	20 91 27 01 	lds	r18, 0x0127
	ldi	r19, 0x00; 0
     814:	30 e0       	ldi	r19, 0x00	; 0
	ldi	r20, 0x00; 0
     816:	40 e0       	ldi	r20, 0x00	; 0
	ldi	r21, 0x00; 0
     818:	50 e0       	ldi	r21, 0x00	; 0
	ACALL	__udivmodsi4;			R22-25 / R18-21
     81a:	0e 94 32 1f 	call	0x3e64	; 0x3e64 <__udivmodsi4>
	movw	r24, r18			;;//   return ((unsigned int)(Value / (1023 * (unsigned long)ADCconfig.Samples)));
     81e:	c9 01       	movw	r24, r18
	pop	r17;
     820:	1f 91       	pop	r17
    	ret;
     822:	08 95       	ret

00000824 <wait_for_key_ms>:
;/* wait max_time or previous key press */
;/* max_time zero wait without time limit */
;/* return value: !=0 == key is pressed for xx*10ms, 0 == key is not pressed, time expired */
;uint8_t wait_for_key_ms(int max_time) 
wait_for_key_ms:
        push	r14
     824:	ef 92       	push	r14
	push	r15
     826:	ff 92       	push	r15
	push	r16
     828:	0f 93       	push	r16
        push	r17
     82a:	1f 93       	push	r17
 	push	r28		; save registers r28:29
     82c:	cf 93       	push	r28
 	push	r29
     82e:	df 93       	push	r29
 	movw	r14, r24	; r14:15 = max_time
     830:	7c 01       	movw	r14, r24
;  // if key is pressed, return 1
;  // if max_time == 0 , do not count, wait endless
	
	ldi	r28, 101	; kk = 100
     832:	c5 e6       	ldi	r28, 0x65	; 101

00000834 <wrelease>:
wrelease:
        sbic    _SFR_IO_ADDR(RST_PIN_REG), RST_PIN              ; if((RST_PIN_REG & (1<<RST_PIN)))
     834:	4f 99       	sbic	0x09, 7	; 9
        rjmp	no_w200
     836:	04 c0       	rjmp	.+8      	; 0x840 <no_w200>
#if INHIBIT_SLEEP_MODE
	RCALL	wait5ms		; wait5ms();
#else
 	ldi	r24,  1
     838:	81 e0       	ldi	r24, 0x01	; 1
 	RCALL	sleep_5ms	; wait_about5ms();
     83a:	60 df       	rcall	.-320    	; 0x6fc <sleep_5ms>
#endif
        subi	r28, 1		; kk--;
     83c:	c1 50       	subi	r28, 0x01	; 1
        brne	wrelease	; while (kk >= 0)
     83e:	d1 f7       	brne	.-12     	; 0x834 <wrelease>

00000840 <no_w200>:
no_w200:
	movw	r28,r14		; count_time = max_time
     840:	e7 01       	movw	r28, r14
	ldi	r16, 0x55	; key_pressed = 0x55;
     842:	05 e5       	ldi	r16, 0x55	; 85
	ldi	r17, 0		; key_cs = 0
     844:	10 e0       	ldi	r17, 0x00	; 0

00000846 <no_cnt>:
 	; wait max_time milliseconds or endless, if zero
no_cnt:
 	sbrc	r29, 7		; while (count_time >= 0) 
     846:	d7 fd       	sbrc	r29, 7
        rjmp	to_ret
     848:	1c c0       	rjmp	.+56     	; 0x882 <to_ret>

0000084a <wloop>:
wloop:
#if INHIBIT_SLEEP_MODE
	RCALL	wait10ms	; wait10ms();
#else
 	ldi	r24, 0x02	; 2
     84a:	82 e0       	ldi	r24, 0x02	; 2
 	RCALL	sleep_5ms	; wait_about10ms();
     84c:	57 df       	rcall	.-338    	; 0x6fc <sleep_5ms>
#endif
        add	r16, r16	; key_pressed += key_pressed; // multiply with 2 is shift to left
     84e:	00 0f       	add	r16, r16
 	sbis	_SFR_IO_ADDR(RST_PIN_REG), RST_PIN		; if((RST_PIN_REG & (1<<RST_PIN))) {
     850:	4f 9b       	sbis	0x09, 7	; 9
        subi	r16, 0xff	; key_pressed++; //append a 1
     852:	0f 5f       	subi	r16, 0xFF	; 255
        andi	r16, 0x3f	; key_pressed &= 0x3f;
     854:	0f 73       	andi	r16, 0x3F	; 63
	cpi	r16, 0x3f	; if (key_pressed == 0x3f) //63 all bits set
     856:	0f 33       	cpi	r16, 0x3F	; 63
        brne	not_pressed
     858:	41 f4       	brne	.+16     	; 0x86a <not_pressed>
	cpse	r17, r1		; if (key_cs == 0)
     85a:	11 11       	cpse	r17, r1
        rjmp	no_first
     85c:	02 c0       	rjmp	.+4      	; 0x862 <no_first>
	movw	r28,r14		; count_time = max_time;
     85e:	e7 01       	movw	r28, r14
	ldi	r17, 4		; key_cs = 4;
     860:	14 e0       	ldi	r17, 0x04	; 4

00000862 <no_first>:
no_first:
	subi	r17, 0xff	; key_cs++;
     862:	1f 5f       	subi	r17, 0xFF	; 255
        cpi	r17, MAX_CS	; if (key_cs >= MAX_CS)
     864:	16 39       	cpi	r17, 0x96	; 150
	brcs	cnt_loop	;
     866:	28 f0       	brcs	.+10     	; 0x872 <cnt_loop>
        rjmp	to_ret		;  break;
     868:	0c c0       	rjmp	.+24     	; 0x882 <to_ret>

0000086a <not_pressed>:
not_pressed:
	cpse	r16, r1		; if (( key_pressed == 0) &&
     86a:	01 11       	cpse	r16, r1
        rjmp	cnt_loop
     86c:	02 c0       	rjmp	.+4      	; 0x872 <cnt_loop>
	cpse	r17, r1		;  ( key_cs != 0))
     86e:	11 11       	cpse	r17, r1
        rjmp	to_ret		; break;
     870:	08 c0       	rjmp	.+16     	; 0x882 <to_ret>

00000872 <cnt_loop>:

cnt_loop:
 	wdr			; wdt_reset();
     872:	a8 95       	wdr
 	sbiw	r28, 0x00	; if (count_time > 0) 	// count only, if counter > 0
     874:	20 97       	sbiw	r28, 0x00	; 0
 	breq	no_cnt 		; special case zero, don't count
     876:	39 f3       	breq	.-50     	; 0x846 <no_cnt>
 	sbiw	r28, 0x0a	; count_time -= 10;			// 10 ms are done, count down
     878:	2a 97       	sbiw	r28, 0x0a	; 10
 	brne	no_cnt		; if (count_time == 0) count_time = -1;	// never count to zero, zero is endless!
     87a:	29 f7       	brne	.-54     	; 0x846 <no_cnt>
 	ldi	r28, 0xFF	; count_time = -1
     87c:	cf ef       	ldi	r28, 0xFF	; 255
 	ldi	r29, 0xFF	; 
     87e:	df ef       	ldi	r29, 0xFF	; 255
	rjmp	no_cnt
     880:	e2 cf       	rjmp	.-60     	; 0x846 <no_cnt>

00000882 <to_ret>:
to_ret:
        mov	r24, r17	; return(key_cs)
     882:	81 2f       	mov	r24, r17
 	pop	r29		; restore registers r29:28
     884:	df 91       	pop	r29
 	pop	r28
     886:	cf 91       	pop	r28
	pop	r17
     888:	1f 91       	pop	r17
	pop	r16
     88a:	0f 91       	pop	r16
	pop	r15
     88c:	ff 90       	pop	r15
	pop	r14
     88e:	ef 90       	pop	r14
 	ret
     890:	08 95       	ret

00000892 <wait_for_key_5s_line2>:

; /* wait 5 seconds or previous key press, then clear line 2 of LCD and */
; /* set the cursor to the beginning of line 2 */
; void wait_for_key_5s_line2(void) 
wait_for_key_5s_line2:
	ldi	r24, '+'
     892:	8b e2       	ldi	r24, 0x2B	; 43
	RCALL	lcd_data		; lcd_data('+');
     894:	89 dc       	rcall	.-1774   	; 0x1a8 <lcd_data>
 	ldi	r24, lo8(SHORT_WAIT_TIME)	; 0x88
     896:	80 e4       	ldi	r24, 0x40	; 64
 	ldi	r25, hi8(SHORT_WAIT_TIME)	; 0x13
     898:	9f e1       	ldi	r25, 0x1F	; 31
 	RCALL	wait_for_key_ms		;wait_for_key_ms(SHORT_WAIT_TIME);
     89a:	c4 df       	rcall	.-120    	; 0x824 <wait_for_key_ms>
#if (LCD_LINES < 4)
 	RCALL	lcd_line2	;              //2. row 
     89c:	b7 dc       	rcall	.-1682   	; 0x20c <lcd_line2>
 	RCALL	lcd_clear_line	; lcd_clear_line();	// clear the whole line
     89e:	82 dd       	rcall	.-1276   	; 0x3a4 <lcd_clear_line>
 	RCALL	lcd_line2	;              //2. row 
     8a0:	b5 dc       	rcall	.-1686   	; 0x20c <lcd_line2>
#else
 	RCALL	lcd_line4	;              //4. row 
 	RCALL	lcd_clear_line	; lcd_clear_line();	// clear the whole line
 	RCALL	lcd_line4	;              //4. row 
#endif
 	ret
     8a2:	08 95       	ret

000008a4 <RefVoltage>:
 

RefVoltage:

#ifdef AUTO_CAL
 	ldi	r24, lo8(ref_offset)	; 1
     8a4:	83 ec       	ldi	r24, 0xC3	; 195
 	ldi	r25, hi8(ref_offset)	; 0
     8a6:	91 e0       	ldi	r25, 0x01	; 1
;; 	ACALL	eeprom_read_word	; eeprom_read_word((uint16_t *)(&ref_offset));
;; 	lds	r18, ref_mv
;; 	lds	r19, ref_mv+1
;; 	add	r18, r24		; referenz =  ref_mv +
;; 	adc	r19, r25
	ACALL	eeprom_read_byte	; eeprom_read_word((uint16_t *)(&ref_offset)); done as two read_byte
     8a8:	0e 94 c0 1f 	call	0x3f80	; 0x3f80 <__eerd_byte_m168>
	mov	r19, r24
     8ac:	38 2f       	mov	r19, r24
	ldi	r24, lo8(ref_offset+1)
     8ae:	84 ec       	ldi	r24, 0xC4	; 196
	ldi	r25, hi8(ref_offset+1)
     8b0:	91 e0       	ldi	r25, 0x01	; 1
	ACALL	eeprom_read_byte
     8b2:	0e 94 c0 1f 	call	0x3f80	; 0x3f80 <__eerd_byte_m168>
 	lds	r18, ref_mv
     8b6:	20 91 2f 01 	lds	r18, 0x012F
	add	r18, r19
     8ba:	23 0f       	add	r18, r19
 	lds	r19, ref_mv+1
     8bc:	30 91 30 01 	lds	r19, 0x0130
	adc	r19, r24
     8c0:	38 1f       	adc	r19, r24
	lds	r18, ref_mv
	lds	r19, ref_mv+1
	subi	r18, -REF_C_KORR		; referenz = ref_mv + REF_C_KORR;
	adc	r19, zero_reg
#endif
        sts	ref_mv_offs, r18
     8c2:	20 93 14 01 	sts	0x0114, r18
        sts	ref_mv_offs+1, r19
     8c6:	30 93 15 01 	sts	0x0115, r19

#ifdef AUTO_RH 
 	ldi	r24, hi8(Ref_Tab_Beginn)	; 3
     8ca:	83 e0       	ldi	r24, 0x03	; 3
 	cpi	r18, lo8(Ref_Tab_Beginn)	; 232
     8cc:	28 3e       	cpi	r18, 0xE8	; 232
 	cpc	r19, r24
     8ce:	38 07       	cpc	r19, r24
 	brcs	ad210e 				; if (referenz >= Ref_Tab_Beginn) 
     8d0:	20 f0       	brcs	.+8      	; 0x8da <ad210e>
 	movw	r24, r18
     8d2:	c9 01       	movw	r24, r18
 	subi	r24, lo8(Ref_Tab_Beginn)	; 232 referenz -= Ref_Tab_Beginn;
     8d4:	88 5e       	subi	r24, 0xE8	; 232
 	sbci	r25, hi8(Ref_Tab_Beginn)	; 3
     8d6:	93 40       	sbci	r25, 0x03	; 3
 	rjmp	ad2112 
     8d8:	02 c0       	rjmp	.+4      	; 0x8de <ad2112>

000008da <ad210e>:
ad210e:
 	ldi	r24, 0x00	; referenz = 0;		// limit to begin of table
     8da:	80 e0       	ldi	r24, 0x00	; 0
 	ldi	r25, 0x00	; 0
     8dc:	90 e0       	ldi	r25, 0x00	; 0

000008de <ad2112>:
ad2112:
 	ldi	r22, lo8(Ref_Tab_Abstand)	; 50 tabind = referenz / Ref_Tab_Abstand;
     8de:	62 e3       	ldi	r22, 0x32	; 50
 	ldi	r23, hi8(Ref_Tab_Abstand)	; 0
     8e0:	70 e0       	ldi	r23, 0x00	; 0
 	ACALL	__udivmodhi4
     8e2:	0e 94 1e 1f 	call	0x3e3c	; 0x3e3c <__udivmodhi4>
;  r22 = tabind = referenz / Ref_Tab_Abstand;
;  r24 =  tabres = referenz % Ref_Tab_Abstand;
 	cpi	r22, 0x08	; if (tabind > 7) 
     8e6:	68 30       	cpi	r22, 0x08	; 8
 	brcs	ad2120 
     8e8:	08 f0       	brcs	.+2      	; 0x8ec <ad2120>
 	ldi	r22, 0x07	; tabind = 7;		// limit to end of table
     8ea:	67 e0       	ldi	r22, 0x07	; 7

000008ec <ad2120>:
ad2120:
; // interpolate the table of factors

	LDIZ	RHtab
     8ec:	e2 ea       	ldi	r30, 0xA2	; 162
     8ee:	f0 e0       	ldi	r31, 0x00	; 0
	add	r30, r22
     8f0:	e6 0f       	add	r30, r22
	adc	r31, zero_reg
     8f2:	f1 1d       	adc	r31, r1
	add	r30, r22
     8f4:	e6 0f       	add	r30, r22
	adc	r31, zero_reg
     8f6:	f1 1d       	adc	r31, r1

 	lpm	r20, Z+		; y1 = pgm_read_word(&RHtab[tabind]);
     8f8:	45 91       	lpm	r20, Z+
 	lpm	r21, Z+
     8fa:	55 91       	lpm	r21, Z+
 	lpm	r18, Z+		; y2 = pgm_read_word(&RHtab[tabind+1]);
     8fc:	25 91       	lpm	r18, Z+
 	lpm	r19, Z+
     8fe:	35 91       	lpm	r19, Z+
 	ldi	r22, Ref_Tab_Abstand	; 50
     900:	62 e3       	ldi	r22, 0x32	; 50
 	sub	r22, r24		; tabres = Ref_Tab_Abstand-tabres;
     902:	68 1b       	sub	r22, r24
;  // interpolate the table of factors
;  // RHmultip is the interpolated factor to compute capacity from load time with 470k
;; 	ldi	r23, 0x00	; 0
 	sub	r20, r18	; y1 - y2
     904:	42 1b       	sub	r20, r18
 #if FLASHEND > 0x1fff
	sbc	r21, r19	; hi8(y1 - y2) is usually allway zero
     906:	53 0b       	sbc	r21, r19
 #endif
 	mul	r22, r20	; lo8(tabres) * lo8(y1-y2)
     908:	64 9f       	mul	r22, r20
 	movw	r24, r0		; r24:25 = *
     90a:	c0 01       	movw	r24, r0
 #if FLASHEND > 0x1fff
 	mul	r22, r21	; lo8(tabres) * hi8(y1-y2)
     90c:	65 9f       	mul	r22, r21
 	add	r25, r0		; r25 + lo8(*)
     90e:	90 0d       	add	r25, r0
 #endif
;; 	mul	r23, r20	; hi8(tabres) * lo8(y1*y2) , allways zero
;; 	add	r25, r0		; r25 + lo8(*)

 	eor	r1, r1
     910:	11 24       	eor	r1, r1
 	adiw	r24, (Ref_Tab_Abstand/2)	; 25
     912:	49 96       	adiw	r24, 0x19	; 25
 	ldi	r22, lo8(Ref_Tab_Abstand)	; 50
     914:	62 e3       	ldi	r22, 0x32	; 50
 	ldi	r23, hi8(Ref_Tab_Abstand)	; 0
     916:	70 e0       	ldi	r23, 0x00	; 0
 	ACALL	__udivmodhi4	; ((y1 - y2) * tabres + (Ref_Tab_Abstand/2)) / Ref_Tab_Abstand 
     918:	0e 94 1e 1f 	call	0x3e3c	; 0x3e3c <__udivmodhi4>
 	add	r22, r18	; + y2
     91c:	62 0f       	add	r22, r18
 	adc	r23, r19
     91e:	73 1f       	adc	r23, r19
 	sts	RHmultip+1, r23
     920:	70 93 73 01 	sts	0x0173, r23
 	sts	RHmultip, r22
     924:	60 93 72 01 	sts	0x0172, r22
	ldi	r23, hi8(DEFAULT_RH_FAKT)
 	sts	RHmultip, r22
 	sts	RHmultip+1, r23
#endif 
#ifdef AUTO_CAL
	ldi	r24, lo8(RefDiff)
     928:	85 ec       	ldi	r24, 0xC5	; 197
	ldi	r25, hi8(RefDiff)
     92a:	91 e0       	ldi	r25, 0x01	; 1
	ACALL	eeprom_read_byte	; (int8_t)eeprom_read_byte((uint8_t *)&RefDiff));
     92c:	0e 94 c0 1f 	call	0x3f80	; 0x3f80 <__eerd_byte_m168>
	eor	r25, r25		; set zero for sign extend
     930:	99 27       	eor	r25, r25
        sbrc	r24, 7			; minus?
     932:	87 fd       	sbrc	r24, 7
	com	r25			; yes, set to 0xff
     934:	90 95       	com	r25
        lds	r22, ref_mv		; ADCconfig.U_Bandgap = (ref_mv + (int8_t)eeprom_read_byte((uint8_t *)&RefDiff));
     936:	60 91 2f 01 	lds	r22, 0x012F
        lds	r23, ref_mv+1
     93a:	70 91 30 01 	lds	r23, 0x0130
	add	r24, r22
     93e:	86 0f       	add	r24, r22
	adc	r25, r23
     940:	97 1f       	adc	r25, r23
        lds	r25, ref_mv+1
	add	r24, r22
        adc	r25, r23
#endif
#define U_Bandgap 2
        sts	ADCconfig+U_Bandgap+1, r25
     942:	90 93 2a 01 	sts	0x012A, r25
        sts	ADCconfig+U_Bandgap, r24
     946:	80 93 29 01 	sts	0x0129, r24
	sts	adc_internal_reference+1, r25		; adc_internal_reference = ADCconfig.U_Bandgap;
     94a:	90 93 6f 01 	sts	0x016F, r25
	sts	adc_internal_reference, r24
     94e:	80 93 6e 01 	sts	0x016E, r24


 	ret
     952:	08 95       	ret

00000954 <get_log>:
 .section .text

; // get_log interpolate a table with the function -log(1 - (permil/1000))
; uint16_t get_log(uint16_t permil) {
get_log:
 	push	r28
     954:	cf 93       	push	r28
 	push	r29
     956:	df 93       	push	r29

 	ldi	r18, lo8(Log_Tab_Distance)	;0x14
     958:	24 e1       	ldi	r18, 0x14	; 20
 	ldi	r19, hi8(Log_Tab_Distance)	;0x00	
     95a:	30 e0       	ldi	r19, 0x00	; 0
 	movw	r22, r18
     95c:	b9 01       	movw	r22, r18
 	call	__udivmodhi4		; tabind = permil / Log_Tab_Distance;	// index to table
     95e:	0e 94 1e 1f 	call	0x3e3c	; 0x3e3c <__udivmodhi4>
 	movw	r26, r24
     962:	dc 01       	movw	r26, r24
;  r26:27 = tabres = permil % Log_Tab_Distance;	// fraction of table distance
;  // interpolate the table of factors
;  y1 = pgm_read_word(&LogTab[tabind]);	// get the lower table value
	LDIZ	LogTab;
     964:	e4 eb       	ldi	r30, 0xB4	; 180
     966:	f0 e0       	ldi	r31, 0x00	; 0
        add	r30, r22
     968:	e6 0f       	add	r30, r22
        adc	r31, r23
     96a:	f7 1f       	adc	r31, r23
        add	r30, r22
     96c:	e6 0f       	add	r30, r22
	adc	r31, r23	; &LogTab[tabind]
     96e:	f7 1f       	adc	r31, r23
 	lpm	r28, Z+		; y1 = pgm_read_word(&LogTab[tabind]);	// get the lower table value
     970:	c5 91       	lpm	r28, Z+
 	lpm	r29, Z+
     972:	d5 91       	lpm	r29, Z+
 	lpm	r20, Z+		; y2 = pgm_read_word(&LogTab[tabind+1]); // get the higher table value
     974:	45 91       	lpm	r20, Z+
 	lpm	r21, Z+
     976:	55 91       	lpm	r21, Z+
;  result = ((y2 - y1) * tabres ) / Log_Tab_Distance + y1; // interpolate
 	sub	r20, r28	;  (y2 - y1) 
     978:	4c 1b       	sub	r20, r28
;;	sbc	r21, r29	;  hi8(y2 - y1) is allways zero
 	mul	r20, r26	; * tabres   (maximum 19)
     97a:	4a 9f       	mul	r20, r26
 	movw	r24, r0		;  r24:25 =  ((y2 - y1) * tabres )
     97c:	c0 01       	movw	r24, r0
;;	mul	r20, r27	; hi8(tabres) allways zero
;;	add	r25, r0
;;	mul	r21, r26	; hi8(y2 - Y1) always zero
;;	add	r25, r0
 	eor	r1, r1
     97e:	11 24       	eor	r1, r1
 	movw	r22, r18	; Log_Tab_Distance
     980:	b9 01       	movw	r22, r18
 	call	__udivmodhi4	;   ((y2 - y1) * tabres ) / Log_Tab_Distance
     982:	0e 94 1e 1f 	call	0x3e3c	; 0x3e3c <__udivmodhi4>
 	add	r22, r28	;  result = ((y2 - y1) * tabres ) / Log_Tab_Distance + y1; // interpolate
     986:	6c 0f       	add	r22, r28
 	adc	r23, r29
     988:	7d 1f       	adc	r23, r29
 	movw	r24, r22	; return(result);
     98a:	cb 01       	movw	r24, r22
 	pop	r29
     98c:	df 91       	pop	r29
 	pop	r28
     98e:	cf 91       	pop	r28
 	ret
     990:	08 95       	ret

00000992 <__vector_7>:
	#define MAIN_C
	#include "Transistortester.h"

	#ifndef INHIBIT_SLEEP_MODE
	  // prepare sleep mode
	  EMPTY_INTERRUPT(TIMER2_COMPA_vect);
     992:	18 95       	reti

00000994 <__vector_21>:
	  EMPTY_INTERRUPT(ADC_vect);
     994:	18 95       	reti

00000996 <init_parts>:

}   // end main

/* init_parts initialize all parts to nothing found */
void init_parts(void) {
  PartFound = PART_NONE;	// no part found
     996:	10 92 18 01 	sts	0x0118, r1
  NumOfDiodes = 0;		// Number of diodes = 0
     99a:	10 92 16 01 	sts	0x0116, r1
  ptrans.count = 0;		// Number of found P type transistors
     99e:	10 92 6d 01 	sts	0x016D, r1
  ntrans.count = 0;		// Number of found N type transistors
     9a2:	10 92 53 01 	sts	0x0153, r1
  PartMode = PART_MODE_NONE;
     9a6:	10 92 17 01 	sts	0x0117, r1
  WithReference = 0;		// no precision reference voltage
     9aa:	10 92 40 01 	sts	0x0140, r1
  ResistorsFound = 0;		// no resistors found
     9ae:	10 92 70 01 	sts	0x0170, r1
  ResistorChecked[0] = 0;
     9b2:	10 92 58 01 	sts	0x0158, r1
  ResistorChecked[1] = 0;
     9b6:	10 92 59 01 	sts	0x0159, r1
  ResistorChecked[2] = 0;
     9ba:	10 92 5a 01 	sts	0x015A, r1
  cap.ca = 0;
     9be:	10 92 84 01 	sts	0x0184, r1
  cap.cb = 0;
     9c2:	10 92 85 01 	sts	0x0185, r1
#if FLASHEND > 0x1fff
  inductor_lpre = 0;		// mark as zero
     9c6:	10 92 01 01 	sts	0x0101, r1
#endif
  cap.cval_max = 0;		// set max to zero
     9ca:	10 92 78 01 	sts	0x0178, r1
     9ce:	10 92 79 01 	sts	0x0179, r1
     9d2:	10 92 7a 01 	sts	0x017A, r1
     9d6:	10 92 7b 01 	sts	0x017B, r1
  cap.cpre_max = -12;	// set max to pF unit
     9da:	84 ef       	ldi	r24, 0xF4	; 244
     9dc:	80 93 87 01 	sts	0x0187, r24
     9e0:	08 95       	ret

000009e2 <ShortedProbes>:
 *  - 0 if not shorted
 *  - 1 if shorted
 */

uint8_t ShortedProbes(uint8_t Probe1, uint8_t Probe2)
{
     9e2:	a1 e0       	ldi	r26, 0x01	; 1
     9e4:	b0 e0       	ldi	r27, 0x00	; 0
     9e6:	e7 ef       	ldi	r30, 0xF7	; 247
     9e8:	f4 e0       	ldi	r31, 0x04	; 4
     9ea:	0c 94 81 1f 	jmp	0x3f02	; 0x3f02 <__prologue_saves__+0x1c>
   *  Set up a voltage divider between the two probes:
   *  - Probe1: Rl pull-up
   *  - Probe2: Rl pull-down
   */

  ADC_DDR =  TXD_MSK;		// all-Pins to Input
     9ee:	17 b8       	out	0x07, r1	; 7
  ADC_PORT = TXD_VAL;		// all ADC-Ports to GND
     9f0:	18 b8       	out	0x08, r1	; 8
  addr = &PinRLRHADCtab[Probe1];
     9f2:	e8 2f       	mov	r30, r24
     9f4:	f0 e0       	ldi	r31, 0x00	; 0
     9f6:	e2 58       	subi	r30, 0x82	; 130
     9f8:	ff 4f       	sbci	r31, 0xFF	; 255
  pp = pgm_read_byte(addr);
     9fa:	94 91       	lpm	r25, Z
  R_PORT = pp;
     9fc:	95 b9       	out	0x05, r25	; 5
  addr += (int8_t)(Probe2-Probe1);
     9fe:	26 2f       	mov	r18, r22
     a00:	28 1b       	sub	r18, r24
     a02:	e2 0f       	add	r30, r18
     a04:	f1 1d       	adc	r31, r1
     a06:	27 fd       	sbrc	r18, 7
     a08:	fa 95       	dec	r31
  R_DDR =  pp | pgm_read_byte(addr);	// pgm_read_byte(PinRHtab[Probe1]) | pgm_read_byte(PinRLtab[Probe2]);
     a0a:	e4 91       	lpm	r30, Z
     a0c:	e9 2b       	or	r30, r25
     a0e:	e4 b9       	out	0x04, r30	; 4

  /* read voltages */
  U1 = ReadADC(Probe1);
     a10:	69 83       	std	Y+1, r22	; 0x01
     a12:	0e 94 b4 03 	call	0x768	; 0x768 <ReadADC>
     a16:	8c 01       	movw	r16, r24
  U2 = ReadADC(Probe2);
     a18:	69 81       	ldd	r22, Y+1	; 0x01
     a1a:	86 2f       	mov	r24, r22
     a1c:	0e 94 b4 03 	call	0x768	; 0x768 <ReadADC>
   *  We expect both probe voltages to be about the same and
   *  to be half of Vcc (allowed difference +/- 20mV).
   */
  #define MAX_UH_DIFF 30

  URH = ADCconfig.U_AVCC / 2;
     a20:	20 91 2b 01 	lds	r18, 0x012B
     a24:	30 91 2c 01 	lds	r19, 0x012C
     a28:	36 95       	lsr	r19
     a2a:	27 95       	ror	r18
  URH -= ((long)U_VCC * (long)(PIN_RP-PIN_RM)) / (4*(unsigned long)(R_L_VAL+PIN_RM));			// differenz of Pin resistance high (22) and low (20)
  if ((U1 > (URH - MAX_UH_DIFF)) && (U1 < (URH + MAX_UH_DIFF)))
     a2c:	a9 01       	movw	r20, r18
     a2e:	42 52       	subi	r20, 0x22	; 34
     a30:	51 09       	sbc	r21, r1
     a32:	40 17       	cp	r20, r16
     a34:	51 07       	cpc	r21, r17
     a36:	60 f4       	brcc	.+24     	; 0xa50 <ShortedProbes+0x6e>
     a38:	26 5e       	subi	r18, 0xE6	; 230
     a3a:	3f 4f       	sbci	r19, 0xFF	; 255
     a3c:	02 17       	cp	r16, r18
     a3e:	13 07       	cpc	r17, r19
     a40:	38 f4       	brcc	.+14     	; 0xa50 <ShortedProbes+0x6e>
  {
    if ((U2 > (URH - MAX_UH_DIFF)) && (U2 < (URH + MAX_UH_DIFF)))
     a42:	48 17       	cp	r20, r24
     a44:	59 07       	cpc	r21, r25
     a46:	20 f4       	brcc	.+8      	; 0xa50 <ShortedProbes+0x6e>
     a48:	41 e0       	ldi	r20, 0x01	; 1
     a4a:	82 17       	cp	r24, r18
     a4c:	93 07       	cpc	r25, r19
     a4e:	08 f0       	brcs	.+2      	; 0xa52 <ShortedProbes+0x70>
 *  - 1 if shorted
 */

uint8_t ShortedProbes(uint8_t Probe1, uint8_t Probe2)
{
  uint8_t           Flag1 = 0;      /* return value */
     a50:	40 e0       	ldi	r20, 0x00	; 0
      Flag1 = 1;
    }
  }

  /* reset port */
  R_DDR = 0;
     a52:	14 b8       	out	0x04, r1	; 4

  return Flag1;
}
     a54:	84 2f       	mov	r24, r20
     a56:	21 96       	adiw	r28, 0x01	; 1
     a58:	e4 e0       	ldi	r30, 0x04	; 4
     a5a:	0c 94 9d 1f 	jmp	0x3f3a	; 0x3f3a <__epilogue_restores__+0x1c>

00000a5e <AllProbesShorted>:
 *  - 0 if no probes are short-circuited
 *  - number of probe pairs short-circuited (3 = all)
 */

uint8_t AllProbesShorted(void)
{
     a5e:	cf 93       	push	r28
  uint8_t           Flag2;      /* return value */

  /* check all possible combinations */
  Flag2 = ShortedProbes(TP1, TP2);
     a60:	61 e0       	ldi	r22, 0x01	; 1
     a62:	80 e0       	ldi	r24, 0x00	; 0
     a64:	0e 94 f1 04 	call	0x9e2	; 0x9e2 <ShortedProbes>
     a68:	c8 2f       	mov	r28, r24
  Flag2 += ShortedProbes(TP1, TP3);
     a6a:	62 e0       	ldi	r22, 0x02	; 2
     a6c:	80 e0       	ldi	r24, 0x00	; 0
     a6e:	0e 94 f1 04 	call	0x9e2	; 0x9e2 <ShortedProbes>
     a72:	c8 0f       	add	r28, r24
  Flag2 += ShortedProbes(TP2, TP3);
     a74:	62 e0       	ldi	r22, 0x02	; 2
     a76:	81 e0       	ldi	r24, 0x01	; 1
     a78:	0e 94 f1 04 	call	0x9e2	; 0x9e2 <ShortedProbes>

  return Flag2;
}
     a7c:	8c 0f       	add	r24, r28
     a7e:	cf 91       	pop	r28
     a80:	08 95       	ret

00000a82 <AutoCheck>:
// Selftest of the device and calibration 
#ifdef WITH_SELFTEST
void AutoCheck(uint8_t test_mode) {
     a82:	ae e0       	ldi	r26, 0x0E	; 14
     a84:	b0 e0       	ldi	r27, 0x00	; 0
     a86:	e7 e4       	ldi	r30, 0x47	; 71
     a88:	f5 e0       	ldi	r31, 0x05	; 5
     a8a:	0c 94 7b 1f 	jmp	0x3ef6	; 0x3ef6 <__prologue_saves__+0x10>
  #ifdef AUTOSCALE_ADC
int8_t udiff;		// difference between ADC Voltage with VCC or Bandgap reference
int8_t udiff2;
  #endif
 #endif
PartFound = PART_NONE;		// no part found before
     a8e:	10 92 18 01 	sts	0x0118, r1
if ((test_mode & 0xf0) == 0) {
     a92:	80 7f       	andi	r24, 0xF0	; 240
     a94:	39 f0       	breq	.+14     	; 0xaa4 <AutoCheck+0x22>
  if (tt < 150) goto begin_selftest;		// is shorted before time limit
  goto no_zero_resistance;			// skip measuring of the zero resistance
 #endif
}
// no key pressed for 2s
lcd_clear();
     a96:	0e 94 4d 01 	call	0x29a	; 0x29a <lcd_clear>
lcd_MEM2_string(VERSION_str);	//"Version ..."
     a9a:	84 e9       	ldi	r24, 0x94	; 148
     a9c:	90 e0       	ldi	r25, 0x00	; 0
     a9e:	0e 94 9c 01 	call	0x338	; 0x338 <lcd_pgm_string>
return;
     aa2:	64 c2       	rjmp	.+1224   	; 0xf6c <AutoCheck+0x4ea>
  #endif
 #endif
PartFound = PART_NONE;		// no part found before
if ((test_mode & 0xf0) == 0) {
  // probed should be shorted already to begin selftest
  if (AllProbesShorted() != 3) return;
     aa4:	0e 94 2f 05 	call	0xa5e	; 0xa5e <AllProbesShorted>
     aa8:	83 30       	cpi	r24, 0x03	; 3
     aaa:	09 f0       	breq	.+2      	; 0xaae <AutoCheck+0x2c>
     aac:	5f c2       	rjmp	.+1214   	; 0xf6c <AutoCheck+0x4ea>
  lcd_clear();
     aae:	0e 94 4d 01 	call	0x29a	; 0x29a <lcd_clear>
  lcd_MEM_string(SELFTEST);		// "Selftest mode.."
     ab2:	8c ee       	ldi	r24, 0xEC	; 236
     ab4:	90 e0       	ldi	r25, 0x00	; 0
     ab6:	0e 94 ab 01 	call	0x356	; 0x356 <lcd_fix_string>
  lcd_line2();
     aba:	0e 94 06 01 	call	0x20c	; 0x20c <lcd_line2>
  lcd_data('?');			// wait for key pressed for confirmation
     abe:	8f e3       	ldi	r24, 0x3F	; 63
     ac0:	0e 94 d4 00 	call	0x1a8	; 0x1a8 <lcd_data>
  if (wait_for_key_ms(2000) > 10) goto begin_selftest;	// key is pressed again
     ac4:	80 ed       	ldi	r24, 0xD0	; 208
     ac6:	97 e0       	ldi	r25, 0x07	; 7
     ac8:	0e 94 12 04 	call	0x824	; 0x824 <wait_for_key_ms>
     acc:	8b 30       	cpi	r24, 0x0B	; 11
     ace:	18 f3       	brcs	.-58     	; 0xa96 <AutoCheck+0x14>
lcd_clear();
lcd_MEM2_string(VERSION_str);	//"Version ..."
return;

begin_selftest:
lcd_line2();
     ad0:	0e 94 06 01 	call	0x20c	; 0x20c <lcd_line2>
lcd_MEM2_string(R0_str);		// "R0="
     ad4:	84 e8       	ldi	r24, 0x84	; 132
     ad6:	90 e0       	ldi	r25, 0x00	; 0
     ad8:	0e 94 9c 01 	call	0x338	; 0x338 <lcd_pgm_string>
eeprom_write_byte((uint8_t *)(&EE_ESR_ZEROtab[2]), (uint8_t)0);	// clear zero offset
     adc:	60 e0       	ldi	r22, 0x00	; 0
     ade:	8a eb       	ldi	r24, 0xBA	; 186
     ae0:	91 e0       	ldi	r25, 0x01	; 1
     ae2:	0e 94 c8 1f 	call	0x3f90	; 0x3f90 <__eewr_byte_m168>
eeprom_write_byte((uint8_t *)(&EE_ESR_ZEROtab[3]), (uint8_t)0);	// clear zero offset
     ae6:	60 e0       	ldi	r22, 0x00	; 0
     ae8:	8b eb       	ldi	r24, 0xBB	; 187
     aea:	91 e0       	ldi	r25, 0x01	; 1
     aec:	0e 94 c8 1f 	call	0x3f90	; 0x3f90 <__eewr_byte_m168>
eeprom_write_byte((uint8_t *)(&EE_ESR_ZEROtab[1]), (uint8_t)0);	// clear zero offset
     af0:	60 e0       	ldi	r22, 0x00	; 0
     af2:	89 eb       	ldi	r24, 0xB9	; 185
     af4:	91 e0       	ldi	r25, 0x01	; 1
     af6:	0e 94 c8 1f 	call	0x3f90	; 0x3f90 <__eewr_byte_m168>

adcmv[0] = GetESR(TP3, TP1);
     afa:	60 e0       	ldi	r22, 0x00	; 0
     afc:	82 e0       	ldi	r24, 0x02	; 2
     afe:	0e 94 fd 16 	call	0x2dfa	; 0x2dfa <GetESR>
     b02:	5c 01       	movw	r10, r24
     b04:	9a 83       	std	Y+2, r25	; 0x02
     b06:	89 83       	std	Y+1, r24	; 0x01
adcmv[1] = GetESR(TP3, TP2);
     b08:	61 e0       	ldi	r22, 0x01	; 1
     b0a:	82 e0       	ldi	r24, 0x02	; 2
     b0c:	0e 94 fd 16 	call	0x2dfa	; 0x2dfa <GetESR>
     b10:	6c 01       	movw	r12, r24
     b12:	9c 83       	std	Y+4, r25	; 0x04
     b14:	8b 83       	std	Y+3, r24	; 0x03
adcmv[2] = GetESR(TP2, TP1);
     b16:	60 e0       	ldi	r22, 0x00	; 0
     b18:	81 e0       	ldi	r24, 0x01	; 1
     b1a:	0e 94 fd 16 	call	0x2dfa	; 0x2dfa <GetESR>
     b1e:	7c 01       	movw	r14, r24
     b20:	9e 83       	std	Y+6, r25	; 0x06
     b22:	8d 83       	std	Y+5, r24	; 0x05
DisplayValue(adcmv[0],-2,' ',3);
     b24:	b5 01       	movw	r22, r10
     b26:	88 27       	eor	r24, r24
     b28:	77 fd       	sbrc	r23, 7
     b2a:	80 95       	com	r24
     b2c:	98 2f       	mov	r25, r24
     b2e:	03 e0       	ldi	r16, 0x03	; 3
     b30:	20 e2       	ldi	r18, 0x20	; 32
     b32:	4e ef       	ldi	r20, 0xFE	; 254
     b34:	0e 94 b2 02 	call	0x564	; 0x564 <DisplayValue>
DisplayValue(adcmv[1],-2,' ',3);
     b38:	b6 01       	movw	r22, r12
     b3a:	88 27       	eor	r24, r24
     b3c:	77 fd       	sbrc	r23, 7
     b3e:	80 95       	com	r24
     b40:	98 2f       	mov	r25, r24
     b42:	20 e2       	ldi	r18, 0x20	; 32
     b44:	4e ef       	ldi	r20, 0xFE	; 254
     b46:	0e 94 b2 02 	call	0x564	; 0x564 <DisplayValue>
DisplayValue(adcmv[2],-2,LCD_CHAR_OMEGA,3);
     b4a:	b7 01       	movw	r22, r14
     b4c:	88 27       	eor	r24, r24
     b4e:	77 fd       	sbrc	r23, 7
     b50:	80 95       	com	r24
     b52:	98 2f       	mov	r25, r24
     b54:	24 ef       	ldi	r18, 0xF4	; 244
     b56:	4e ef       	ldi	r20, 0xFE	; 254
     b58:	0e 94 b2 02 	call	0x564	; 0x564 <DisplayValue>
if (adcmv[0] >= 90) {
     b5c:	2a e5       	ldi	r18, 0x5A	; 90
     b5e:	a2 16       	cp	r10, r18
     b60:	b1 04       	cpc	r11, r1
     b62:	24 f0       	brlt	.+8      	; 0xb6c <AutoCheck+0xea>
  adcmv[0] = ESR_ZERO;	// set back to default value
     b64:	84 e1       	ldi	r24, 0x14	; 20
     b66:	90 e0       	ldi	r25, 0x00	; 0
     b68:	9a 83       	std	Y+2, r25	; 0x02
     b6a:	89 83       	std	Y+1, r24	; 0x01
}
eeprom_write_byte((uint8_t *)(&EE_ESR_ZEROtab[2]), (uint8_t)adcmv[0]);	// fix zero offset
     b6c:	69 81       	ldd	r22, Y+1	; 0x01
     b6e:	8a eb       	ldi	r24, 0xBA	; 186
     b70:	91 e0       	ldi	r25, 0x01	; 1
     b72:	0e 94 c8 1f 	call	0x3f90	; 0x3f90 <__eewr_byte_m168>
if (adcmv[1] >= 90) {
     b76:	8a e5       	ldi	r24, 0x5A	; 90
     b78:	c8 16       	cp	r12, r24
     b7a:	d1 04       	cpc	r13, r1
     b7c:	24 f0       	brlt	.+8      	; 0xb86 <AutoCheck+0x104>
  adcmv[1] = ESR_ZERO;	// set back to default value
     b7e:	84 e1       	ldi	r24, 0x14	; 20
     b80:	90 e0       	ldi	r25, 0x00	; 0
     b82:	9c 83       	std	Y+4, r25	; 0x04
     b84:	8b 83       	std	Y+3, r24	; 0x03
}
eeprom_write_byte((uint8_t *)(&EE_ESR_ZEROtab[3]), (uint8_t)adcmv[1]);	// fix zero offset
     b86:	6b 81       	ldd	r22, Y+3	; 0x03
     b88:	8b eb       	ldi	r24, 0xBB	; 187
     b8a:	91 e0       	ldi	r25, 0x01	; 1
     b8c:	0e 94 c8 1f 	call	0x3f90	; 0x3f90 <__eewr_byte_m168>
if (adcmv[2] >= 90) {
     b90:	9a e5       	ldi	r25, 0x5A	; 90
     b92:	e9 16       	cp	r14, r25
     b94:	f1 04       	cpc	r15, r1
     b96:	24 f0       	brlt	.+8      	; 0xba0 <AutoCheck+0x11e>
  adcmv[2] = ESR_ZERO;	// set back to default value
     b98:	84 e1       	ldi	r24, 0x14	; 20
     b9a:	90 e0       	ldi	r25, 0x00	; 0
     b9c:	9e 83       	std	Y+6, r25	; 0x06
     b9e:	8d 83       	std	Y+5, r24	; 0x05
}
eeprom_write_byte((uint8_t *)(&EE_ESR_ZEROtab[1]), (uint8_t)adcmv[2]);	// fix zero offset
     ba0:	6d 81       	ldd	r22, Y+5	; 0x05
     ba2:	89 eb       	ldi	r24, 0xB9	; 185
     ba4:	91 e0       	ldi	r25, 0x01	; 1
     ba6:	0e 94 c8 1f 	call	0x3f90	; 0x3f90 <__eewr_byte_m168>
last_line_used = 2;
     baa:	82 e0       	ldi	r24, 0x02	; 2
     bac:	80 93 43 01 	sts	0x0143, r24
wait_for_key_5s_line2();		// wait up to 5 seconds and clear line 2
     bb0:	0e 94 49 04 	call	0x892	; 0x892 <wait_for_key_5s_line2>
     bb4:	18 e7       	ldi	r17, 0x78	; 120
}	/* end if((test_mode & 0x0f) == 1) */
 #endif		/* end EXTENDED_TESTS */

for (ww=0;ww<120;ww++) {
  // wait up to 1 minute for releasing the probes
  if (AllProbesShorted() == 0) break;
     bb6:	0e 94 2f 05 	call	0xa5e	; 0xa5e <AllProbesShorted>
     bba:	81 11       	cpse	r24, r1
     bbc:	72 c0       	rjmp	.+228    	; 0xca2 <AutoCheck+0x220>
  wait_about500ms();
}



lcd_clear();
     bbe:	0e 94 4d 01 	call	0x29a	; 0x29a <lcd_clear>
lcd_MEM_string(RIHI);	// "RiHi="
     bc2:	80 e4       	ldi	r24, 0x40	; 64
     bc4:	90 e0       	ldi	r25, 0x00	; 0
     bc6:	0e 94 ab 01 	call	0x356	; 0x356 <lcd_fix_string>
DisplayValue(RRpinPL,-1,LCD_CHAR_OMEGA,3);
     bca:	60 91 2d 01 	lds	r22, 0x012D
     bce:	70 91 2e 01 	lds	r23, 0x012E
     bd2:	80 e0       	ldi	r24, 0x00	; 0
     bd4:	90 e0       	ldi	r25, 0x00	; 0
     bd6:	03 e0       	ldi	r16, 0x03	; 3
     bd8:	24 ef       	ldi	r18, 0xF4	; 244
     bda:	4f ef       	ldi	r20, 0xFF	; 255
     bdc:	0e 94 b2 02 	call	0x564	; 0x564 <DisplayValue>
lcd_line2();
     be0:	0e 94 06 01 	call	0x20c	; 0x20c <lcd_line2>
lcd_MEM_string(RILO);	// "RiLo="
     be4:	89 e3       	ldi	r24, 0x39	; 57
     be6:	90 e0       	ldi	r25, 0x00	; 0
     be8:	0e 94 ab 01 	call	0x356	; 0x356 <lcd_fix_string>
DisplayValue(RRpinMI,-1,LCD_CHAR_OMEGA,3);
     bec:	60 91 3e 01 	lds	r22, 0x013E
     bf0:	70 91 3f 01 	lds	r23, 0x013F
     bf4:	80 e0       	ldi	r24, 0x00	; 0
     bf6:	90 e0       	ldi	r25, 0x00	; 0
     bf8:	24 ef       	ldi	r18, 0xF4	; 244
     bfa:	4f ef       	ldi	r20, 0xFF	; 255
     bfc:	0e 94 b2 02 	call	0x564	; 0x564 <DisplayValue>
last_line_used = 2;
     c00:	82 e0       	ldi	r24, 0x02	; 2
     c02:	80 93 43 01 	sts	0x0143, r24
wait_for_key_5s_line2();		// wait up to 5 seconds and clear line 2
     c06:	0e 94 49 04 	call	0x892	; 0x892 <wait_for_key_5s_line2>

//measure Zero offset for Capacity measurement
PartFound = PART_NONE;
     c0a:	10 92 18 01 	sts	0x0118, r1
lcd_clear();
     c0e:	0e 94 4d 01 	call	0x29a	; 0x29a <lcd_clear>
lcd_MEM_string(C0_str);			//output "C0 "
     c12:	85 e3       	ldi	r24, 0x35	; 53
     c14:	90 e0       	ldi	r25, 0x00	; 0
     c16:	0e 94 ab 01 	call	0x356	; 0x356 <lcd_fix_string>
ReadCapacity(TP3, TP1);
     c1a:	60 e0       	ldi	r22, 0x00	; 0
     c1c:	82 e0       	ldi	r24, 0x02	; 2
     c1e:	0e 94 dc 10 	call	0x21b8	; 0x21b8 <ReadCapacity>
adcmv[5] = (unsigned int) cap.cval_uncorrected.dw;	//save capacity value of empty Pin 1:3
     c22:	00 91 7c 01 	lds	r16, 0x017C
     c26:	10 91 7d 01 	lds	r17, 0x017D
     c2a:	1c 87       	std	Y+12, r17	; 0x0c
     c2c:	0b 87       	std	Y+11, r16	; 0x0b
ReadCapacity(TP3, TP2);
     c2e:	61 e0       	ldi	r22, 0x01	; 1
     c30:	82 e0       	ldi	r24, 0x02	; 2
     c32:	0e 94 dc 10 	call	0x21b8	; 0x21b8 <ReadCapacity>
adcmv[6] = (unsigned int) cap.cval_uncorrected.dw;	//save capacity value of empty Pin 2:3
     c36:	c0 90 7c 01 	lds	r12, 0x017C
     c3a:	d0 90 7d 01 	lds	r13, 0x017D
     c3e:	de 86       	std	Y+14, r13	; 0x0e
     c40:	cd 86       	std	Y+13, r12	; 0x0d
ReadCapacity(TP2, TP1);
     c42:	60 e0       	ldi	r22, 0x00	; 0
     c44:	81 e0       	ldi	r24, 0x01	; 1
     c46:	0e 94 dc 10 	call	0x21b8	; 0x21b8 <ReadCapacity>
adcmv[2] = (unsigned int) cap.cval_uncorrected.dw;	//save capacity value of empty Pin 1:2
     c4a:	e0 90 7c 01 	lds	r14, 0x017C
     c4e:	f0 90 7d 01 	lds	r15, 0x017D
     c52:	fe 82       	std	Y+6, r15	; 0x06
     c54:	ed 82       	std	Y+5, r14	; 0x05
ReadCapacity(TP1, TP3);
     c56:	62 e0       	ldi	r22, 0x02	; 2
     c58:	80 e0       	ldi	r24, 0x00	; 0
     c5a:	0e 94 dc 10 	call	0x21b8	; 0x21b8 <ReadCapacity>
adcmv[1] = (unsigned int) cap.cval_uncorrected.dw;	//save capacity value of empty Pin 3:1
     c5e:	80 91 7c 01 	lds	r24, 0x017C
     c62:	90 91 7d 01 	lds	r25, 0x017D
     c66:	9c 83       	std	Y+4, r25	; 0x04
     c68:	8b 83       	std	Y+3, r24	; 0x03
ReadCapacity(TP2, TP3);
     c6a:	62 e0       	ldi	r22, 0x02	; 2
     c6c:	81 e0       	ldi	r24, 0x01	; 1
     c6e:	0e 94 dc 10 	call	0x21b8	; 0x21b8 <ReadCapacity>
adcmv[4] = (unsigned int) cap.cval_uncorrected.dw;	//save capacity value of empty Pin 3:2
     c72:	80 91 7c 01 	lds	r24, 0x017C
     c76:	90 91 7d 01 	lds	r25, 0x017D
     c7a:	9a 87       	std	Y+10, r25	; 0x0a
     c7c:	89 87       	std	Y+9, r24	; 0x09
ReadCapacity(TP1, TP2);
     c7e:	61 e0       	ldi	r22, 0x01	; 1
     c80:	80 e0       	ldi	r24, 0x00	; 0
     c82:	0e 94 dc 10 	call	0x21b8	; 0x21b8 <ReadCapacity>
adcmv[0] = (unsigned int) cap.cval_uncorrected.dw;	//save capacity value of empty Pin 2:1
     c86:	80 91 7c 01 	lds	r24, 0x017C
     c8a:	90 91 7d 01 	lds	r25, 0x017D
     c8e:	9a 83       	std	Y+2, r25	; 0x02
     c90:	89 83       	std	Y+1, r24	; 0x01
 #ifdef WITH_MENU
if (((test_mode & 0x0f) == 1) || (UnCalibrated == 2))
 #else
if (UnCalibrated == 2)
     c92:	20 91 3d 01 	lds	r18, 0x013D
     c96:	22 30       	cpi	r18, 0x02	; 2
     c98:	89 f4       	brne	.+34     	; 0xcbc <AutoCheck+0x23a>
 #endif
{
  adcmv[3] = adcmv[0] + 2;		// mark as uncalibrated until Cap > 100nF has success
     c9a:	02 96       	adiw	r24, 0x02	; 2
     c9c:	98 87       	std	Y+8, r25	; 0x08
     c9e:	8f 83       	std	Y+7, r24	; 0x07
     ca0:	14 c0       	rjmp	.+40     	; 0xcca <AutoCheck+0x248>
 #endif		/* end EXTENDED_TESTS */

for (ww=0;ww<120;ww++) {
  // wait up to 1 minute for releasing the probes
  if (AllProbesShorted() == 0) break;
  lcd_clear_line2();		// clear total line2
     ca2:	0e 94 dd 01 	call	0x3ba	; 0x3ba <lcd_clear_line2>
  lcd_MEM_string(RELPROBE);	// "Release Probes"
     ca6:	8c ed       	ldi	r24, 0xDC	; 220
     ca8:	90 e0       	ldi	r25, 0x00	; 0
     caa:	0e 94 ab 01 	call	0x356	; 0x356 <lcd_fix_string>
  lcd_refresh();		// write the pixels to display, ST7920 only
  wait_about500ms();
     cae:	84 e6       	ldi	r24, 0x64	; 100
     cb0:	0e 94 7e 03 	call	0x6fc	; 0x6fc <sleep_5ms>
     cb4:	11 50       	subi	r17, 0x01	; 1
wait_for_key_5s_line2();		// wait up to 5 seconds and clear line 2
  #endif	/* PROCESSOR_TYP == 1280 */
}	/* end if((test_mode & 0x0f) == 1) */
 #endif		/* end EXTENDED_TESTS */

for (ww=0;ww<120;ww++) {
     cb6:	09 f0       	breq	.+2      	; 0xcba <AutoCheck+0x238>
     cb8:	7e cf       	rjmp	.-260    	; 0xbb6 <AutoCheck+0x134>
     cba:	81 cf       	rjmp	.-254    	; 0xbbe <AutoCheck+0x13c>
if (UnCalibrated == 2)
 #endif
{
  adcmv[3] = adcmv[0] + 2;		// mark as uncalibrated until Cap > 100nF has success
} else {
  adcmv[3] = adcmv[0];			// mark as calibrated, short calibration is finished
     cbc:	98 87       	std	Y+8, r25	; 0x08
     cbe:	8f 83       	std	Y+7, r24	; 0x07
  UnCalibrated = 0;			// clear the UnCalibrated Flag
     cc0:	10 92 3d 01 	sts	0x013D, r1
  lcd_cursor_off();			// switch cursor off
     cc4:	8c e0       	ldi	r24, 0x0C	; 12
     cc6:	0e 94 f9 00 	call	0x1f2	; 0x1f2 <lcd_command>
}
DisplayValue(adcmv[5],0,' ',3);		//output cap0 1:3
     cca:	b8 01       	movw	r22, r16
     ccc:	88 27       	eor	r24, r24
     cce:	77 fd       	sbrc	r23, 7
     cd0:	80 95       	com	r24
     cd2:	98 2f       	mov	r25, r24
     cd4:	03 e0       	ldi	r16, 0x03	; 3
     cd6:	20 e2       	ldi	r18, 0x20	; 32
     cd8:	40 e0       	ldi	r20, 0x00	; 0
     cda:	0e 94 b2 02 	call	0x564	; 0x564 <DisplayValue>
DisplayValue(adcmv[6],0,' ',3);		//output cap0 2:3
     cde:	b6 01       	movw	r22, r12
     ce0:	88 27       	eor	r24, r24
     ce2:	77 fd       	sbrc	r23, 7
     ce4:	80 95       	com	r24
     ce6:	98 2f       	mov	r25, r24
     ce8:	20 e2       	ldi	r18, 0x20	; 32
     cea:	40 e0       	ldi	r20, 0x00	; 0
     cec:	0e 94 b2 02 	call	0x564	; 0x564 <DisplayValue>
DisplayValue(adcmv[2],-12,'F',3);		//output cap0 1:2
     cf0:	b7 01       	movw	r22, r14
     cf2:	88 27       	eor	r24, r24
     cf4:	77 fd       	sbrc	r23, 7
     cf6:	80 95       	com	r24
     cf8:	98 2f       	mov	r25, r24
     cfa:	26 e4       	ldi	r18, 0x46	; 70
     cfc:	44 ef       	ldi	r20, 0xF4	; 244
     cfe:	0e 94 b2 02 	call	0x564	; 0x564 <DisplayValue>
     d02:	6e 01       	movw	r12, r28
     d04:	ef e0       	ldi	r30, 0x0F	; 15
     d06:	ce 0e       	add	r12, r30
     d08:	d1 1c       	adc	r13, r1
     d0a:	fe 01       	movw	r30, r28
     d0c:	31 96       	adiw	r30, 0x01	; 1
 #ifdef AUTO_CAL
for (ww=0;ww<7;ww++) {			//checking loop
if ((adcmv[ww] > 190) || (adcmv[ww] < 10)) goto no_c0save;
     d0e:	81 91       	ld	r24, Z+
     d10:	91 91       	ld	r25, Z+
     d12:	0a 97       	sbiw	r24, 0x0a	; 10
     d14:	85 3b       	cpi	r24, 0xB5	; 181
     d16:	91 05       	cpc	r25, r1
     d18:	e0 f4       	brcc	.+56     	; 0xd52 <AutoCheck+0x2d0>
}
DisplayValue(adcmv[5],0,' ',3);		//output cap0 1:3
DisplayValue(adcmv[6],0,' ',3);		//output cap0 2:3
DisplayValue(adcmv[2],-12,'F',3);		//output cap0 1:2
 #ifdef AUTO_CAL
for (ww=0;ww<7;ww++) {			//checking loop
     d1a:	ec 15       	cp	r30, r12
     d1c:	fd 05       	cpc	r31, r13
     d1e:	b9 f7       	brne	.-18     	; 0xd0e <AutoCheck+0x28c>
     d20:	0c eb       	ldi	r16, 0xBC	; 188
     d22:	11 e0       	ldi	r17, 0x01	; 1
     d24:	ce 01       	movw	r24, r28
     d26:	01 96       	adiw	r24, 0x01	; 1
     d28:	7c 01       	movw	r14, r24
if ((adcmv[ww] > 190) || (adcmv[ww] < 10)) goto no_c0save;
}
for (ww=0;ww<7;ww++) {
  // write all zero offsets to the EEprom 
  (void) eeprom_write_byte((uint8_t *)(&c_zero_tab[ww]),adcmv[ww]+(COMP_SLEW1 / (CC0 + CABLE_CAP + COMP_SLEW2)));
     d2a:	f7 01       	movw	r30, r14
     d2c:	60 81       	ld	r22, Z
     d2e:	f2 e0       	ldi	r31, 0x02	; 2
     d30:	ef 0e       	add	r14, r31
     d32:	f1 1c       	adc	r15, r1
     d34:	61 5f       	subi	r22, 0xF1	; 241
     d36:	c8 01       	movw	r24, r16
     d38:	0e 94 c8 1f 	call	0x3f90	; 0x3f90 <__eewr_byte_m168>
     d3c:	0f 5f       	subi	r16, 0xFF	; 255
     d3e:	1f 4f       	sbci	r17, 0xFF	; 255
DisplayValue(adcmv[2],-12,'F',3);		//output cap0 1:2
 #ifdef AUTO_CAL
for (ww=0;ww<7;ww++) {			//checking loop
if ((adcmv[ww] > 190) || (adcmv[ww] < 10)) goto no_c0save;
}
for (ww=0;ww<7;ww++) {
     d40:	ec 14       	cp	r14, r12
     d42:	fd 04       	cpc	r15, r13
     d44:	91 f7       	brne	.-28     	; 0xd2a <AutoCheck+0x2a8>
  // write all zero offsets to the EEprom 
  (void) eeprom_write_byte((uint8_t *)(&c_zero_tab[ww]),adcmv[ww]+(COMP_SLEW1 / (CC0 + CABLE_CAP + COMP_SLEW2)));
}
lcd_line2();
     d46:	0e 94 06 01 	call	0x20c	; 0x20c <lcd_line2>
lcd_MEM_string(OK_str);		// output "OK"
     d4a:	8a ec       	ldi	r24, 0xCA	; 202
     d4c:	90 e0       	ldi	r25, 0x00	; 0
     d4e:	0e 94 ab 01 	call	0x356	; 0x356 <lcd_fix_string>
no_c0save:
 #endif
last_line_used = 2;
     d52:	82 e0       	ldi	r24, 0x02	; 2
     d54:	80 93 43 01 	sts	0x0143, r24
wait_for_key_5s_line2();		// wait up to 5 seconds and clear line 2
     d58:	0e 94 49 04 	call	0x892	; 0x892 <wait_for_key_5s_line2>
     d5c:	70 e4       	ldi	r23, 0x40	; 64
     d5e:	b7 2e       	mov	r11, r23
// calibration (UnCalibrated = 2) or for the full selftest call (test_mode = 1) 
// of the menu function, not with the automatically call (test_mode = 1).
{
// for full test or first time calibration, use external capacitor
// Message C > 100nF at TP1 and TP3
cap_found = 0;
     d60:	10 e0       	ldi	r17, 0x00	; 0
  //measure  offset Voltage of analog Comparator for Capacity measurement
  ReadCapacity(TP3, TP1);	// look for capacitor > 100nF
  #endif
  while (cap.cpre < -9) {
   cap.cpre++;
   cap.cval /= 10;
     d62:	ea e0       	ldi	r30, 0x0A	; 10
     d64:	ce 2e       	mov	r12, r30
     d66:	d1 2c       	mov	r13, r1
     d68:	e1 2c       	mov	r14, r1
     d6a:	f1 2c       	mov	r15, r1
for (ww=0;ww<64;ww++) {
  #if (TPCAP >= 0)
  PartFound = PART_NONE;
  CalibrationCap();	// measure with internal calibration capacitor
  #else
  lcd_clear();
     d6c:	0e 94 4d 01 	call	0x29a	; 0x29a <lcd_clear>
  lcd_testpin(TP1);
     d70:	80 e0       	ldi	r24, 0x00	; 0
     d72:	0e 94 db 00 	call	0x1b6	; 0x1b6 <lcd_testpin>
  lcd_MEM_string(CapZeich);	// "-||-"
     d76:	80 e8       	ldi	r24, 0x80	; 128
     d78:	90 e0       	ldi	r25, 0x00	; 0
     d7a:	0e 94 ab 01 	call	0x356	; 0x356 <lcd_fix_string>
  lcd_testpin(TP3);
     d7e:	82 e0       	ldi	r24, 0x02	; 2
     d80:	0e 94 db 00 	call	0x1b6	; 0x1b6 <lcd_testpin>
  lcd_MEM2_string(MinCap_str); // " >100nF!"
     d84:	86 e7       	ldi	r24, 0x76	; 118
     d86:	90 e0       	ldi	r25, 0x00	; 0
     d88:	0e 94 9c 01 	call	0x338	; 0x338 <lcd_pgm_string>
  PartFound = PART_NONE;
     d8c:	10 92 18 01 	sts	0x0118, r1
  //measure  offset Voltage of analog Comparator for Capacity measurement
  ReadCapacity(TP3, TP1);	// look for capacitor > 100nF
     d90:	60 e0       	ldi	r22, 0x00	; 0
     d92:	82 e0       	ldi	r24, 0x02	; 2
     d94:	0e 94 dc 10 	call	0x21b8	; 0x21b8 <ReadCapacity>
     d98:	00 91 86 01 	lds	r16, 0x0186
     d9c:	60 91 74 01 	lds	r22, 0x0174
     da0:	70 91 75 01 	lds	r23, 0x0175
     da4:	80 91 76 01 	lds	r24, 0x0176
     da8:	90 91 77 01 	lds	r25, 0x0177
  #endif
  while (cap.cpre < -9) {
     dac:	07 3f       	cpi	r16, 0xF7	; 247
     dae:	44 f4       	brge	.+16     	; 0xdc0 <AutoCheck+0x33e>
   cap.cpre++;
   cap.cval /= 10;
     db0:	a7 01       	movw	r20, r14
     db2:	96 01       	movw	r18, r12
     db4:	0e 94 32 1f 	call	0x3e64	; 0x3e64 <__udivmodsi4>
  PartFound = PART_NONE;
  //measure  offset Voltage of analog Comparator for Capacity measurement
  ReadCapacity(TP3, TP1);	// look for capacitor > 100nF
  #endif
  while (cap.cpre < -9) {
   cap.cpre++;
     db8:	0f 5f       	subi	r16, 0xFF	; 255
   cap.cval /= 10;
     dba:	b9 01       	movw	r22, r18
     dbc:	ca 01       	movw	r24, r20
     dbe:	f6 cf       	rjmp	.-20     	; 0xdac <AutoCheck+0x32a>
     dc0:	00 93 86 01 	sts	0x0186, r16
     dc4:	60 93 74 01 	sts	0x0174, r22
     dc8:	70 93 75 01 	sts	0x0175, r23
     dcc:	80 93 76 01 	sts	0x0176, r24
     dd0:	90 93 77 01 	sts	0x0177, r25
  }
  if ((cap.cpre == -9) && (cap.cval > 95) && (cap.cval < 22000) &&
     dd4:	07 3f       	cpi	r16, 0xF7	; 247
     dd6:	09 f0       	breq	.+2      	; 0xdda <AutoCheck+0x358>
     dd8:	9c c0       	rjmp	.+312    	; 0xf12 <AutoCheck+0x490>
     dda:	dc 01       	movw	r26, r24
     ddc:	cb 01       	movw	r24, r22
     dde:	80 56       	subi	r24, 0x60	; 96
     de0:	91 09       	sbc	r25, r1
     de2:	a1 09       	sbc	r26, r1
     de4:	b1 09       	sbc	r27, r1
     de6:	80 39       	cpi	r24, 0x90	; 144
     de8:	95 45       	sbci	r25, 0x55	; 85
     dea:	a1 05       	cpc	r26, r1
     dec:	b1 05       	cpc	r27, r1
     dee:	08 f0       	brcs	.+2      	; 0xdf2 <AutoCheck+0x370>
     df0:	90 c0       	rjmp	.+288    	; 0xf12 <AutoCheck+0x490>
    (load_diff > -150) && (load_diff < 150)) {
     df2:	60 91 88 01 	lds	r22, 0x0188
     df6:	70 91 89 01 	lds	r23, 0x0189
     dfa:	cb 01       	movw	r24, r22
     dfc:	8b 56       	subi	r24, 0x6B	; 107
     dfe:	9f 4f       	sbci	r25, 0xFF	; 255
     e00:	8b 32       	cpi	r24, 0x2B	; 43
     e02:	91 40       	sbci	r25, 0x01	; 1
     e04:	08 f0       	brcs	.+2      	; 0xe08 <AutoCheck+0x386>
     e06:	85 c0       	rjmp	.+266    	; 0xf12 <AutoCheck+0x490>
   cap_found++;
     e08:	1f 5f       	subi	r17, 0xFF	; 255
  } else {
   cap_found = 0;		// wait for stable connection
  }
  if (cap_found > 4) {
     e0a:	15 30       	cpi	r17, 0x05	; 5
     e0c:	08 f4       	brcc	.+2      	; 0xe10 <AutoCheck+0x38e>
     e0e:	82 c0       	rjmp	.+260    	; 0xf14 <AutoCheck+0x492>
     // value of capacitor is correct
     (void) eeprom_write_word((uint16_t *)(&ref_offset), load_diff);	// hold zero offset + slew rate dependend offset
     e10:	83 ec       	ldi	r24, 0xC3	; 195
     e12:	91 e0       	ldi	r25, 0x01	; 1
     e14:	0e 94 d6 1f 	call	0x3fac	; 0x3fac <__eewr_word_m168>
     lcd_clear();
     e18:	0e 94 4d 01 	call	0x29a	; 0x29a <lcd_clear>
     lcd_MEM2_string(REF_C_str);	// "REF_C="
     e1c:	8f e6       	ldi	r24, 0x6F	; 111
     e1e:	90 e0       	ldi	r25, 0x00	; 0
     e20:	0e 94 9c 01 	call	0x338	; 0x338 <lcd_pgm_string>
     i2lcd(load_diff);		// lcd_string(itoa(load_diff, outval, 10));	//output REF_C_KORR
     e24:	80 91 88 01 	lds	r24, 0x0188
     e28:	90 91 89 01 	lds	r25, 0x0189
     e2c:	0e 94 ff 01 	call	0x3fe	; 0x3fe <i2lcd>
     RefVoltage();			// new ref_mv_offs and RHmultip
     e30:	0e 94 52 04 	call	0x8a4	; 0x8a4 <RefVoltage>
    #define CAP_ADC TPCAP	/* Cap >100nF is integrated at TPCAP */
   TCAP_PORT &= ~(1<<TCAP_RH);	// 470k resistor to GND
   TCAP_DDR |= (1<<TCAP_RH);	// enable output
   #else
    #define CAP_ADC TP3		/* Cap >100nF at TP3 */
   ADC_PORT =  TXD_VAL;	//ADC-Port 1 to GND
     e34:	18 b8       	out	0x08, r1	; 8
   ADC_DDR = 1<<TP1 | TXD_MSK;	//ADC-Pin  1 to output 0V
     e36:	81 e0       	ldi	r24, 0x01	; 1
     e38:	87 b9       	out	0x07, r24	; 7
   R_DDR = 1<<PIN_RH3;		//Pin 3 over R_H to GND
     e3a:	80 e2       	ldi	r24, 0x20	; 32
     e3c:	84 b9       	out	0x04, r24	; 4
   #endif
   do {
      adcmv[0] = ReadADC(CAP_ADC);
     e3e:	82 e0       	ldi	r24, 0x02	; 2
     e40:	0e 94 b4 03 	call	0x768	; 0x768 <ReadADC>
   } while (adcmv[0] > 980);
     e44:	85 3d       	cpi	r24, 0xD5	; 213
     e46:	93 40       	sbci	r25, 0x03	; 3
     e48:	d4 f7       	brge	.-12     	; 0xe3e <AutoCheck+0x3bc>
   #if (TPCAP >= 0)
   TCAP_DDR &= ~(1<<TCAP_RH);	// 470k resistor port to input mode
   #else
   R_DDR = 0;		//all Pins to input 
     e4a:	14 b8       	out	0x04, r1	; 4
   #endif
   ADCconfig.U_Bandgap = 0;	// do not use internal Ref
     e4c:	10 92 2a 01 	sts	0x012A, r1
     e50:	10 92 29 01 	sts	0x0129, r1
   adcmv[0] = ReadADC(CAP_ADC);  // get cap voltage with VCC reference
     e54:	82 e0       	ldi	r24, 0x02	; 2
     e56:	0e 94 b4 03 	call	0x768	; 0x768 <ReadADC>
     e5a:	7c 01       	movw	r14, r24
   ADCconfig.U_Bandgap = adc_internal_reference;
     e5c:	80 91 6e 01 	lds	r24, 0x016E
     e60:	90 91 6f 01 	lds	r25, 0x016F
     e64:	90 93 2a 01 	sts	0x012A, r25
     e68:	80 93 29 01 	sts	0x0129, r24
   adcmv[1] = ReadADC(CAP_ADC);	// get cap voltage with internal reference
     e6c:	82 e0       	ldi	r24, 0x02	; 2
     e6e:	0e 94 b4 03 	call	0x768	; 0x768 <ReadADC>
   adcmv[1] += adcmv[1];		// double the value
     e72:	8c 01       	movw	r16, r24
     e74:	00 0f       	add	r16, r16
     e76:	11 1f       	adc	r17, r17
   ADCconfig.U_Bandgap = 0;	// do not use internal Ref
     e78:	10 92 2a 01 	sts	0x012A, r1
     e7c:	10 92 29 01 	sts	0x0129, r1
   adcmv[2] = ReadADC(CAP_ADC);  // get cap voltage with VCC reference
     e80:	82 e0       	ldi	r24, 0x02	; 2
     e82:	0e 94 b4 03 	call	0x768	; 0x768 <ReadADC>
   ADCconfig.U_Bandgap = adc_internal_reference;
     e86:	c0 90 6e 01 	lds	r12, 0x016E
     e8a:	d0 90 6f 01 	lds	r13, 0x016F
     e8e:	d0 92 2a 01 	sts	0x012A, r13
     e92:	c0 92 29 01 	sts	0x0129, r12
   udiff = (int8_t)(((signed long)(adcmv[0] + adcmv[2] - adcmv[1])) * adc_internal_reference / adcmv[1])+REF_R_KORR;
     e96:	e8 0e       	add	r14, r24
     e98:	f9 1e       	adc	r15, r25
     e9a:	e0 1a       	sub	r14, r16
     e9c:	f1 0a       	sbc	r15, r17
   lcd_line2();
     e9e:	0e 94 06 01 	call	0x20c	; 0x20c <lcd_line2>
   lcd_MEM2_string(REF_R_str);	// "REF_R="
     ea2:	88 e6       	ldi	r24, 0x68	; 104
     ea4:	90 e0       	ldi	r25, 0x00	; 0
     ea6:	0e 94 9c 01 	call	0x338	; 0x338 <lcd_pgm_string>
   udiff2 = udiff + (int8_t)eeprom_read_byte((uint8_t *)(&RefDiff));
     eaa:	85 ec       	ldi	r24, 0xC5	; 197
     eac:	91 e0       	ldi	r25, 0x01	; 1
     eae:	0e 94 c0 1f 	call	0x3f80	; 0x3f80 <__eerd_byte_m168>
   adcmv[1] = ReadADC(CAP_ADC);	// get cap voltage with internal reference
   adcmv[1] += adcmv[1];		// double the value
   ADCconfig.U_Bandgap = 0;	// do not use internal Ref
   adcmv[2] = ReadADC(CAP_ADC);  // get cap voltage with VCC reference
   ADCconfig.U_Bandgap = adc_internal_reference;
   udiff = (int8_t)(((signed long)(adcmv[0] + adcmv[2] - adcmv[1])) * adc_internal_reference / adcmv[1])+REF_R_KORR;
     eb2:	63 e0       	ldi	r22, 0x03	; 3
     eb4:	b6 2e       	mov	r11, r22
     eb6:	b8 0e       	add	r11, r24
     eb8:	96 01       	movw	r18, r12
     eba:	d7 01       	movw	r26, r14
     ebc:	0e 94 fc 1e 	call	0x3df8	; 0x3df8 <__usmulhisi3>
     ec0:	98 01       	movw	r18, r16
     ec2:	44 27       	eor	r20, r20
     ec4:	37 fd       	sbrc	r19, 7
     ec6:	40 95       	com	r20
     ec8:	54 2f       	mov	r21, r20
     eca:	0e 94 54 1f 	call	0x3ea8	; 0x3ea8 <__divmodsi4>
   lcd_line2();
   lcd_MEM2_string(REF_R_str);	// "REF_R="
   udiff2 = udiff + (int8_t)eeprom_read_byte((uint8_t *)(&RefDiff));
     ece:	b2 0e       	add	r11, r18
   (void) eeprom_write_byte((uint8_t *)(&RefDiff), (uint8_t)udiff2);	// hold offset for true reference Voltage
     ed0:	6b 2d       	mov	r22, r11
     ed2:	85 ec       	ldi	r24, 0xC5	; 197
     ed4:	91 e0       	ldi	r25, 0x01	; 1
     ed6:	0e 94 c8 1f 	call	0x3f90	; 0x3f90 <__eewr_byte_m168>
   i2lcd(udiff2);		// output correction voltage
     eda:	8b 2d       	mov	r24, r11
     edc:	99 27       	eor	r25, r25
     ede:	87 fd       	sbrc	r24, 7
     ee0:	90 95       	com	r25
     ee2:	0e 94 ff 01 	call	0x3fe	; 0x3fe <i2lcd>
   RefVoltage();			// set new ADCconfig.U_Bandgap
     ee6:	0e 94 52 04 	call	0x8a4	; 0x8a4 <RefVoltage>
  #endif	/* end AUTOSCALE_ADC */
     last_line_used = 2;
     eea:	82 e0       	ldi	r24, 0x02	; 2
     eec:	80 93 43 01 	sts	0x0143, r24
   wait_for_key_5s_line2();		// wait up to 5 seconds and clear line 2
     ef0:	0e 94 49 04 	call	0x892	; 0x892 <wait_for_key_5s_line2>
   UnCalibrated = 0;		// clear the UnCalibrated Flag
     ef4:	10 92 3d 01 	sts	0x013D, r1
   lcd_cursor_off();		// switch cursor off
     ef8:	8c e0       	ldi	r24, 0x0C	; 12
     efa:	0e 94 f9 00 	call	0x1f2	; 0x1f2 <lcd_command>
   cap_found = eeprom_read_byte((uint8_t *)&c_zero_tab[0]);	// read first capacity zero offset
     efe:	8c eb       	ldi	r24, 0xBC	; 188
     f00:	91 e0       	ldi	r25, 0x01	; 1
     f02:	0e 94 c0 1f 	call	0x3f80	; 0x3f80 <__eerd_byte_m168>
   eeprom_write_byte((uint8_t *)&c_zero_tab[3], cap_found);	// mark as calibrated permanent
     f06:	68 2f       	mov	r22, r24
     f08:	8f eb       	ldi	r24, 0xBF	; 191
     f0a:	91 e0       	ldi	r25, 0x01	; 1
     f0c:	0e 94 c8 1f 	call	0x3f90	; 0x3f90 <__eewr_byte_m168>
     f10:	17 c0       	rjmp	.+46     	; 0xf40 <AutoCheck+0x4be>
  while (cap.cpre < -9) {
   cap.cpre++;
   cap.cval /= 10;
  }
  if ((cap.cpre == -9) && (cap.cval > 95) && (cap.cval < 22000) &&
    (load_diff > -150) && (load_diff < 150)) {
     f12:	10 e0       	ldi	r17, 0x00	; 0
   lcd_cursor_off();		// switch cursor off
   cap_found = eeprom_read_byte((uint8_t *)&c_zero_tab[0]);	// read first capacity zero offset
   eeprom_write_byte((uint8_t *)&c_zero_tab[3], cap_found);	// mark as calibrated permanent
   break;			// leave the ww for loop
  }  /* end if (cap_found > 4) */
  lcd_line2();
     f14:	0e 94 06 01 	call	0x20c	; 0x20c <lcd_line2>
  DisplayValue(cap.cval,cap.cpre,'F',4);
     f18:	60 91 74 01 	lds	r22, 0x0174
     f1c:	70 91 75 01 	lds	r23, 0x0175
     f20:	80 91 76 01 	lds	r24, 0x0176
     f24:	90 91 77 01 	lds	r25, 0x0177
     f28:	04 e0       	ldi	r16, 0x04	; 4
     f2a:	26 e4       	ldi	r18, 0x46	; 70
     f2c:	40 91 86 01 	lds	r20, 0x0186
     f30:	0e 94 b2 02 	call	0x564	; 0x564 <DisplayValue>
  lcd_refresh();		// write the pixels to display, ST7920 only
  wait_about200ms();			// wait additional time
     f34:	88 e2       	ldi	r24, 0x28	; 40
     f36:	0e 94 7e 03 	call	0x6fc	; 0x6fc <sleep_5ms>
     f3a:	ba 94       	dec	r11
// of the menu function, not with the automatically call (test_mode = 1).
{
// for full test or first time calibration, use external capacitor
// Message C > 100nF at TP1 and TP3
cap_found = 0;
for (ww=0;ww<64;ww++) {
     f3c:	09 f0       	breq	.+2      	; 0xf40 <AutoCheck+0x4be>
     f3e:	16 cf       	rjmp	.-468    	; 0xd6c <AutoCheck+0x2ea>
} // end for ww
}	/* end if((test_mode & 0x0f) == 1) */
 #endif  /* end AUTO_CAL */


ADCconfig.Samples = ANZ_MESS;	// set to configured number of ADC samples
     f40:	89 e1       	ldi	r24, 0x19	; 25
     f42:	80 93 27 01 	sts	0x0127, r24
      // if key is pressed, don't repeat
      break;
   }
 } /* end for ww */
 #endif		/* end FREQUENCY_50HZ */
lcd_clear();
     f46:	0e 94 4d 01 	call	0x29a	; 0x29a <lcd_clear>
lcd_MEM2_string(VERSION_str);	//"Version ..."
     f4a:	84 e9       	ldi	r24, 0x94	; 148
     f4c:	90 e0       	ldi	r25, 0x00	; 0
     f4e:	0e 94 9c 01 	call	0x338	; 0x338 <lcd_pgm_string>
lcd_line2();
     f52:	0e 94 06 01 	call	0x20c	; 0x20c <lcd_line2>
lcd_MEM_string(ATE);		//"Selftest End"
     f56:	83 ed       	ldi	r24, 0xD3	; 211
     f58:	90 e0       	ldi	r25, 0x00	; 0
     f5a:	0e 94 ab 01 	call	0x356	; 0x356 <lcd_fix_string>
PartFound = PART_NONE;
     f5e:	10 92 18 01 	sts	0x0118, r1
     last_line_used = 2;
     f62:	82 e0       	ldi	r24, 0x02	; 2
     f64:	80 93 43 01 	sts	0x0143, r24
wait_for_key_5s_line2();		// wait up to 5 seconds and clear line 2
     f68:	0e 94 49 04 	call	0x892	; 0x892 <wait_for_key_5s_line2>
} /* end AutoCheck */ 
     f6c:	2e 96       	adiw	r28, 0x0e	; 14
     f6e:	ea e0       	ldi	r30, 0x0A	; 10
     f70:	0c 94 97 1f 	jmp	0x3f2e	; 0x3f2e <__epilogue_restores__+0x10>

00000f74 <mark_as_uncalibrated>:
void mark_as_uncalibrated( void) {
 uint8_t ii;
 if (!UnCalibrated) {
     f74:	80 91 3d 01 	lds	r24, 0x013D
     f78:	81 11       	cpse	r24, r1
     f7a:	0d c0       	rjmp	.+26     	; 0xf96 <mark_as_uncalibrated+0x22>
    // equipment has changed, zero capacity value is too high or zero resistance is too high
    // but the device is marked as Calibrated.
    ii = eeprom_read_byte((uint8_t *)&c_zero_tab[0]);	// read first zero offset
     f7c:	8c eb       	ldi	r24, 0xBC	; 188
     f7e:	91 e0       	ldi	r25, 0x01	; 1
     f80:	0e 94 c0 1f 	call	0x3f80	; 0x3f80 <__eerd_byte_m168>
    ii++;
     f84:	61 e0       	ldi	r22, 0x01	; 1
     f86:	68 0f       	add	r22, r24
    // make the unused c_zero_tab[3] different to c_zero_tab[0] to mark uncalibrated 
    eeprom_write_byte((uint8_t *)&c_zero_tab[3], ii);	// mark uncalibrated permanent
     f88:	8f eb       	ldi	r24, 0xBF	; 191
     f8a:	91 e0       	ldi	r25, 0x01	; 1
     f8c:	0e 94 c8 1f 	call	0x3f90	; 0x3f90 <__eewr_byte_m168>
    UnCalibrated = 1;		// set back to uncalibrated
     f90:	81 e0       	ldi	r24, 0x01	; 1
     f92:	80 93 3d 01 	sts	0x013D, r24
     f96:	08 95       	ret

00000f98 <GetIr>:
/* Get residual current in reverse direction of a diode */ 



//=================================================================
void GetIr(uint8_t hipin, uint8_t lopin) {
     f98:	cf 92       	push	r12
     f9a:	df 92       	push	r13
     f9c:	ff 92       	push	r15
     f9e:	0f 93       	push	r16
     fa0:	1f 93       	push	r17
     fa2:	cf 93       	push	r28
     fa4:	df 93       	push	r29
     fa6:	1f 92       	push	r1
     fa8:	cd b7       	in	r28, 0x3d	; 61
     faa:	de b7       	in	r29, 0x3e	; 62
  ADC_DDR = HiADC | TXD_MSK;		// switch High Pin direct to VCC
  R_PORT = 0;				// switch R-Port to GND
  LoPinR_L = pgm_read_byte(&PinRHRLADCtab[lopin]);  //R_L mask for LowPin R_L load
#else
  uint8_t LoPinR_L;
  HiADC = pgm_read_byte(&PinRLRHADCtab[hipin]+3);	// Table of ADC pins including | TXD_VAL
     fac:	e8 2f       	mov	r30, r24
     fae:	f0 e0       	ldi	r31, 0x00	; 0
     fb0:	ef 57       	subi	r30, 0x7F	; 127
     fb2:	ff 4f       	sbci	r31, 0xFF	; 255
     fb4:	e4 91       	lpm	r30, Z
  ADC_PORT = HiADC;		 	// switch ADC port to high level
     fb6:	e8 b9       	out	0x08, r30	; 8
  ADC_DDR = HiADC | TXD_MSK;		// switch High Pin direct to VCC
     fb8:	e7 b9       	out	0x07, r30	; 7
  R_PORT = 0;				// switch R-Port to GND
     fba:	15 b8       	out	0x05, r1	; 5
  LoPinR_L = pgm_read_byte(&PinRLRHADCtab[lopin]);  //R_L mask for LowPin R_L load
     fbc:	e6 2f       	mov	r30, r22
     fbe:	f0 e0       	ldi	r31, 0x00	; 0
     fc0:	e2 58       	subi	r30, 0x82	; 130
     fc2:	ff 4f       	sbci	r31, 0xFF	; 255
     fc4:	e4 91       	lpm	r30, Z
  // R_H Pin must always be one pin number higher
#endif
  R_DDR = LoPinR_L;		// switch R_L port for LowPin to output (GND)
     fc6:	e4 b9       	out	0x04, r30	; 4
  u_res = U_VCC;
     fc8:	08 e8       	ldi	r16, 0x88	; 136
     fca:	13 e1       	ldi	r17, 0x13	; 19
     u_res_old = u_res;
     u_res = W20msReadADC(lopin);		// read voltage
#if (((PIN_RL1 + 1) != PIN_RH1) || ((PIN_RL2 + 1) != PIN_RH2) || ((PIN_RL3 + 1) != PIN_RH3))
     R_DDR = pgm_read_byte(&PinRHRLADCtab[lopin+3]);  //R_H mask for LowPin R_H load
#else
     R_DDR = LoPinR_L + LoPinR_L;		// switch R_H port for LowPin to output (GND)
     fcc:	fe 2e       	mov	r15, r30
     fce:	ff 0c       	add	r15, r15
  R_DDR = LoPinR_L;		// switch R_L port for LowPin to output (GND)
  u_res = U_VCC;
  // first load the parallel capacity with 680 Ohm resistor, then measure current with 470k
  do {
     u_res_old = u_res;
     u_res = W20msReadADC(lopin);		// read voltage
     fd0:	86 2f       	mov	r24, r22
     fd2:	69 83       	std	Y+1, r22	; 0x01
     fd4:	0e 94 a8 03 	call	0x750	; 0x750 <W20msReadADC>
     fd8:	6c 01       	movw	r12, r24
#if (((PIN_RL1 + 1) != PIN_RH1) || ((PIN_RL2 + 1) != PIN_RH2) || ((PIN_RL3 + 1) != PIN_RH3))
     R_DDR = pgm_read_byte(&PinRHRLADCtab[lopin+3]);  //R_H mask for LowPin R_H load
#else
     R_DDR = LoPinR_L + LoPinR_L;		// switch R_H port for LowPin to output (GND)
     fda:	f4 b8       	out	0x04, r15	; 4
#endif
  } while (u_res < u_res_old);
     fdc:	69 81       	ldd	r22, Y+1	; 0x01
     fde:	80 17       	cp	r24, r16
     fe0:	91 07       	cpc	r25, r17
     fe2:	10 f4       	brcc	.+4      	; 0xfe8 <GetIr+0x50>
  R_DDR = LoPinR_L;		// switch R_L port for LowPin to output (GND)
  u_res = U_VCC;
  // first load the parallel capacity with 680 Ohm resistor, then measure current with 470k
  do {
     u_res_old = u_res;
     u_res = W20msReadADC(lopin);		// read voltage
     fe4:	8c 01       	movw	r16, r24
     fe6:	f4 cf       	rjmp	.-24     	; 0xfd0 <GetIr+0x38>
     R_DDR = pgm_read_byte(&PinRHRLADCtab[lopin+3]);  //R_H mask for LowPin R_H load
#else
     R_DDR = LoPinR_L + LoPinR_L;		// switch R_H port for LowPin to output (GND)
#endif
  } while (u_res < u_res_old);
  if (u_res == 0) return;		// no Output, if no current in reverse direction
     fe8:	00 97       	sbiw	r24, 0x00	; 0
     fea:	e9 f0       	breq	.+58     	; 0x1026 <GetIr+0x8e>
 #define IR_DIGITS 3
  lcd_line4();				// use Line 4 for Ir output
  lcd_MEM_string(Ir_str);		// output text "Ir="
#else
 #define IR_DIGITS 2
  lcd_MEM_string(Ir_str);		// output text "  Ir="
     fec:	8e e5       	ldi	r24, 0x5E	; 94
     fee:	90 e0       	ldi	r25, 0x00	; 0
     ff0:	0e 94 ab 01 	call	0x356	; 0x356 <lcd_fix_string>
#ifdef WITH_IRMICRO
  unsigned int ir_micro;
  if (u_res < 2500) {
#endif
     /* R_H_VAL has units of 10 Ohm, u_res has units of mV, ir_nano has units of nA */
     ir_nano = (unsigned long)(u_res * 100000UL) / R_H_VAL;
     ff4:	d6 01       	movw	r26, r12
     ff6:	20 ea       	ldi	r18, 0xA0	; 160
     ff8:	36 e8       	ldi	r19, 0x86	; 134
     ffa:	41 e0       	ldi	r20, 0x01	; 1
     ffc:	50 e0       	ldi	r21, 0x00	; 0
     ffe:	0e 94 03 1f 	call	0x3e06	; 0x3e06 <__muluhisi3>
    1002:	28 e9       	ldi	r18, 0x98	; 152
    1004:	37 eb       	ldi	r19, 0xB7	; 183
    1006:	40 e0       	ldi	r20, 0x00	; 0
    1008:	50 e0       	ldi	r21, 0x00	; 0
    100a:	0e 94 32 1f 	call	0x3e64	; 0x3e64 <__udivmodsi4>
    100e:	ca 01       	movw	r24, r20
    1010:	b9 01       	movw	r22, r18
     DisplayValue(ir_nano,-9,'A',2);	// output two digits of current with nA units
    1012:	88 27       	eor	r24, r24
    1014:	99 27       	eor	r25, r25
    1016:	02 e0       	ldi	r16, 0x02	; 2
    1018:	21 e4       	ldi	r18, 0x41	; 65
    101a:	47 ef       	ldi	r20, 0xF7	; 247
    101c:	0e 94 b2 02 	call	0x564	; 0x564 <DisplayValue>
     /* RR680MI has units of 0.1 Ohm, u_res has units of mV, ir_micro has units of uA */
     ir_micro = (unsigned long)(u_res * 10000UL) / RR680MI;
     DisplayValue(ir_micro,-6,'A',IR_DIGITS);	// output 2 or 3 digits of current in uA units
  }
#endif
  ADC_DDR = TXD_MSK;			// switch off
    1020:	17 b8       	out	0x07, r1	; 7
  ADC_PORT = TXD_VAL;			// switch off
    1022:	18 b8       	out	0x08, r1	; 8
  R_DDR = 0;				// switch off current
    1024:	14 b8       	out	0x04, r1	; 4

  return ;
}
    1026:	0f 90       	pop	r0
    1028:	df 91       	pop	r29
    102a:	cf 91       	pop	r28
    102c:	1f 91       	pop	r17
    102e:	0f 91       	pop	r16
    1030:	ff 90       	pop	r15
    1032:	df 90       	pop	r13
    1034:	cf 90       	pop	r12
    1036:	08 95       	ret

00001038 <Battery_check>:

//	  Calibrate_UR();		// get Ref Voltages and Pin resistance
//        lcd_line1();			// Cursor to 1. row, column 1
	  
#ifdef BAT_CHECK
void Battery_check(void) {
    1038:	0f 93       	push	r16
    103a:	1f 93       	push	r17
    103c:	cf 93       	push	r28
    103e:	df 93       	push	r29
 uint16_t bat_voltage;
 uint16_t bat_adc;
  // Battery check is selected
  ReadADC(TPBAT);	//Dummy-Readout
    1040:	85 e0       	ldi	r24, 0x05	; 5
    1042:	0e 94 b4 03 	call	0x768	; 0x768 <ReadADC>
  bat_adc = W5msReadADC(TPBAT); 	//with 5V reference
    1046:	85 e0       	ldi	r24, 0x05	; 5
    1048:	0e 94 b0 03 	call	0x760	; 0x760 <W5msReadADC>
    104c:	ec 01       	movw	r28, r24
  // A good result can be get with multiply by 4 and divide by 10 (about 0.75%).
  #if BAT_NUMERATOR <= (0xffff/U_VCC)
	  bat_voltage = (bat_adc*BAT_NUMERATOR)/BAT_DENOMINATOR + BAT_OUT;
  #else
   #if (BAT_NUMERATOR == 133) && (BAT_DENOMINATOR == 33)
	  bat_voltage = (bat_adc*4)+BAT_OUT;		// usually output only 2 digits
    104e:	8c 01       	movw	r16, r24
    1050:	00 0f       	add	r16, r16
    1052:	11 1f       	adc	r17, r17
    1054:	00 0f       	add	r16, r16
    1056:	11 1f       	adc	r17, r17
    1058:	0a 56       	subi	r16, 0x6A	; 106
    105a:	1f 4f       	sbci	r17, 0xFF	; 255
   #else
	  bat_voltage = ((unsigned long)bat_adc*BAT_NUMERATOR)/BAT_DENOMINATOR + BAT_OUT;
   #endif
  #endif
  #if FLASHEND > 0x1fff
          DC_Pwr_mode = 0;
    105c:	10 92 31 01 	sts	0x0131, r1
   #ifdef DC_PWR
          if ((bat_voltage < 900) || (bat_voltage > DC_PWR))
   #else
          if (bat_voltage < 900) 
    1060:	04 38       	cpi	r16, 0x84	; 132
    1062:	83 e0       	ldi	r24, 0x03	; 3
    1064:	18 07       	cpc	r17, r24
    1066:	40 f4       	brcc	.+16     	; 0x1078 <Battery_check+0x40>
   #endif
          {
             // no battery present, don't check,
	     lcd_MEM_string(DC_Pwr_Mode_str);	// "DC Pwr Mode"
    1068:	8e eb       	ldi	r24, 0xBE	; 190
    106a:	90 e0       	ldi	r25, 0x00	; 0
    106c:	0e 94 ab 01 	call	0x356	; 0x356 <lcd_fix_string>
             DC_Pwr_mode = 1;
    1070:	81 e0       	ldi	r24, 0x01	; 1
    1072:	80 93 31 01 	sts	0x0131, r24
             return;
    1076:	24 c0       	rjmp	.+72     	; 0x10c0 <Battery_check+0x88>
          }
  #endif
          lcd_MEM_string(Bat_str);		//output: "Bat. "
    1078:	8d ec       	ldi	r24, 0xCD	; 205
    107a:	90 e0       	ldi	r25, 0x00	; 0
    107c:	0e 94 ab 01 	call	0x356	; 0x356 <lcd_fix_string>
	  Display_mV(bat_voltage,2);		// Display 2 Digits of this 10mV units
    1080:	62 e0       	ldi	r22, 0x02	; 2
    1082:	c8 01       	movw	r24, r16
    1084:	0e 94 4d 03 	call	0x69a	; 0x69a <Display_mV>
	  lcd_space();
    1088:	0e 94 df 00 	call	0x1be	; 0x1be <lcd_space>
  #define WARN_LEVEL (((unsigned long)(BAT_POOR+100)*(unsigned long)BAT_DENOMINATOR)/BAT_NUMERATOR)
 #endif
 #define POOR_LEVEL (((unsigned long)(BAT_POOR)*(unsigned long)BAT_DENOMINATOR)/BAT_NUMERATOR)

  // check the battery voltage
  if (bat_adc <  WARN_LEVEL) {
    108c:	ca 3f       	cpi	r28, 0xFA	; 250
    108e:	86 e0       	ldi	r24, 0x06	; 6
    1090:	d8 07       	cpc	r29, r24
    1092:	90 f4       	brcc	.+36     	; 0x10b8 <Battery_check+0x80>
     //Vcc < 7,3V; show Warning 
     if(bat_adc < POOR_LEVEL) {	
    1094:	c3 33       	cpi	r28, 0x33	; 51
    1096:	d6 40       	sbci	r29, 0x06	; 6
    1098:	60 f4       	brcc	.+24     	; 0x10b2 <Battery_check+0x7a>
	//Vcc <6,3V; no proper operation is possible
	lcd_MEM_string(BatEmpty);	//Battery empty!
    109a:	87 e4       	ldi	r24, 0x47	; 71
    109c:	91 e0       	ldi	r25, 0x01	; 1
    109e:	0e 94 ab 01 	call	0x356	; 0x356 <lcd_fix_string>
	lcd_refresh();			// write the pixels to display, ST7920 only
	wait_about5s();
    10a2:	8d ec       	ldi	r24, 0xCD	; 205
    10a4:	0e 94 7e 03 	call	0x6fc	; 0x6fc <sleep_5ms>
	PORTD = 0;			//switch power off
    10a8:	1b b8       	out	0x0b, r1	; 11
	wait_about2s();
    10aa:	8a ec       	ldi	r24, 0xCA	; 202
    10ac:	0e 94 7e 03 	call	0x6fc	; 0x6fc <sleep_5ms>
	return;
    10b0:	07 c0       	rjmp	.+14     	; 0x10c0 <Battery_check+0x88>
     }
     lcd_MEM_string(BatWeak);		//Battery weak
    10b2:	8e e4       	ldi	r24, 0x4E	; 78
    10b4:	91 e0       	ldi	r25, 0x01	; 1
    10b6:	02 c0       	rjmp	.+4      	; 0x10bc <Battery_check+0x84>
  } else { // Battery-voltage OK
     lcd_MEM_string(OK_str); 		// "OK"
    10b8:	8a ec       	ldi	r24, 0xCA	; 202
    10ba:	90 e0       	ldi	r25, 0x00	; 0
    10bc:	0e 94 ab 01 	call	0x356	; 0x356 <lcd_fix_string>
  }
};
    10c0:	df 91       	pop	r29
    10c2:	cf 91       	pop	r28
    10c4:	1f 91       	pop	r17
    10c6:	0f 91       	pop	r16
    10c8:	08 95       	ret

000010ca <CheckPins>:
#include <stdlib.h>
#include "Transistortester.h"

//******************************************************************
void CheckPins(uint8_t HighPin, uint8_t LowPin, uint8_t TristatePin)
  {
    10ca:	a6 e1       	ldi	r26, 0x16	; 22
    10cc:	b0 e0       	ldi	r27, 0x00	; 0
    10ce:	eb e6       	ldi	r30, 0x6B	; 107
    10d0:	f8 e0       	ldi	r31, 0x08	; 8
    10d2:	0c 94 73 1f 	jmp	0x3ee6	; 0x3ee6 <__prologue_saves__>
    10d6:	98 2e       	mov	r9, r24
    10d8:	86 2e       	mov	r8, r22
    10da:	44 2e       	mov	r4, r20
  /*
    switch HighPin directls to VCC 
    switch R_L port for LowPin to GND 
    TristatePin remains switched to input , no action required 
  */
  wdt_reset();
    10dc:	a8 95       	wdr
  addr = &PinRLRHADCtab[LowPin];		// Address of combined RL / RH / ADC pin table
    10de:	e6 2f       	mov	r30, r22
    10e0:	f0 e0       	ldi	r31, 0x00	; 0
    10e2:	e2 58       	subi	r30, 0x82	; 130
    10e4:	ff 4f       	sbci	r31, 0xFF	; 255
  LoPinRL = pgm_read_byte(addr);		// instruction for LowPin R_L
    10e6:	54 90       	lpm	r5, Z
  addr += 3;			// address of PinRHtab[LowPin]
  LoPinRH = pgm_read_byte(addr);		// instruction for LowPin R_H
 #else
  LoPinRH = LoPinRL + LoPinRL;				// instruction for LowPin R_H
 #endif
  addr += 3;			// address of PinADCtab[LowPin]
    10e8:	33 96       	adiw	r30, 0x03	; 3
  addr += 6;			// address of PinADCtab[LowPin]
 #else
  addr += 3;			// address of PinADCtab[LowPin], table PinRHtab is missing
 #endif
#endif
  LoADCp = pgm_read_byte(addr);		// instruction for ADC Low-Pin, including | TXD_VAL
    10ea:	e4 90       	lpm	r14, Z

  addr = &PinRLRHADCtab[TristatePin];
    10ec:	e4 2f       	mov	r30, r20
    10ee:	f0 e0       	ldi	r31, 0x00	; 0
    10f0:	e2 58       	subi	r30, 0x82	; 130
    10f2:	ff 4f       	sbci	r31, 0xFF	; 255
  TriPinRL = pgm_read_byte(addr);	// instruction for TristatePin R_L
    10f4:	64 90       	lpm	r6, Z
  TriPinRH = pgm_read_byte(addr);	// instruction for TristatePin R_H
#else
  TriPinRH = TriPinRL + TriPinRL;			// instruction for TristatePin R_H
#endif

  addr = &PinRLRHADCtab[HighPin];
    10f6:	e8 2f       	mov	r30, r24
    10f8:	f0 e0       	ldi	r31, 0x00	; 0
    10fa:	e2 58       	subi	r30, 0x82	; 130
    10fc:	ff 4f       	sbci	r31, 0xFF	; 255
  HiPinRL = pgm_read_byte(addr);		// instruction for HighPin R_L
    10fe:	f4 90       	lpm	r15, Z
  addr += 3;			// address of PinRHtab[HighPin]
  HiPinRH = pgm_read_byte(addr);		// instruction for HighPin R_H
#else
  HiPinRH = HiPinRL + HiPinRL;				// instruction for HighPin R_H
#endif
  addr += 3;			// address of PinADCtab[HighPin]
    1100:	33 96       	adiw	r30, 0x03	; 3
  HiADCp = pgm_read_byte(addr);		// instruction for ADC High-Pin, including | TXD_VAL 
    1102:	74 90       	lpm	r7, Z
     adc.vCEs = adc.lp2;
  } else {
     if ((adc.vCEs+288) > adc.lp2) goto checkDiode;	// no significant change
  }
#else
  R_PORT = TriPinRL;			//resistor-Port TriState to 1
    1104:	65 b8       	out	0x05, r6	; 5
  R_DDR = LoPinRL | TriPinRL;		// resistor-Port Low-Pin to 0
    1106:	26 2d       	mov	r18, r6
    1108:	25 29       	or	r18, r5
    110a:	2e 8b       	std	Y+22, r18	; 0x16
    110c:	24 b9       	out	0x04, r18	; 4
  ADC_DDR = HiADCm;		//High-Pin to output
    110e:	77 b8       	out	0x07, r7	; 7
  ADC_PORT = HiADCp;		//High-Pin fix to Vcc
    1110:	78 b8       	out	0x08, r7	; 8
  //for some MOSFET the gate (TristatePin) must be discharged
  adc.vCEs = W5msReadADC(LowPin);	// lp1 is the voltage at 680 Ohm with + Gate
    1112:	86 2f       	mov	r24, r22
    1114:	0e 94 b0 03 	call	0x760	; 0x760 <W5msReadADC>
    1118:	9e 83       	std	Y+6, r25	; 0x06
    111a:	8d 83       	std	Y+5, r24	; 0x05
  R_DDR = LoPinRL;	
    111c:	54 b8       	out	0x04, r5	; 4
  adc.lp_otr = W5msReadADC(LowPin);	//read voltage of Low-Pin  , without Gate current (+)
    111e:	88 2d       	mov	r24, r8
    1120:	0e 94 b0 03 	call	0x760	; 0x760 <W5msReadADC>
    1124:	1c 01       	movw	r2, r24
  R_DDR = 0;
    1126:	14 b8       	out	0x04, r1	; 4
  wait5ms();				// release all current (clear TRIAC and Thyristor)
    1128:	0e 94 69 03 	call	0x6d2	; 0x6d2 <wait5ms>
  R_PORT = 0;
    112c:	15 b8       	out	0x05, r1	; 5
  R_DDR = LoPinRL | TriPinRL;		// start current again
    112e:	3e 89       	ldd	r19, Y+22	; 0x16
    1130:	34 b9       	out	0x04, r19	; 4
  adc.lp2 = W5msReadADC(LowPin);	// lp2 is the voltage at 680 Ohm with - Gate
    1132:	88 2d       	mov	r24, r8
    1134:	0e 94 b0 03 	call	0x760	; 0x760 <W5msReadADC>
  if (adc.lp2 < adc.vCEs) {
    1138:	4d 81       	ldd	r20, Y+5	; 0x05
    113a:	5e 81       	ldd	r21, Y+6	; 0x06
    113c:	84 17       	cp	r24, r20
    113e:	95 07       	cpc	r25, r21
    1140:	30 f5       	brcc	.+76     	; 0x118e <CheckPins+0xc4>
     // current is lower with Gate switched to 0
     if ((adc.lp2+288) > adc.vCEs) goto checkDiode;	// no significant change
    1142:	80 5e       	subi	r24, 0xE0	; 224
    1144:	9e 4f       	sbci	r25, 0xFE	; 254
    1146:	48 17       	cp	r20, r24
    1148:	59 07       	cpc	r21, r25
    114a:	08 f4       	brcc	.+2      	; 0x114e <CheckPins+0x84>
    114c:	90 c4       	rjmp	.+2336   	; 0x1a6e <CheckPins+0x9a4>
     // switch to common emitter for NPN or N-channel FET
     ADC_DDR = LoADCm;		//Low-Pin to output
    114e:	e7 b8       	out	0x07, r14	; 7
     ADC_PORT = TXD_VAL;		//Low-Pin fix to GND
    1150:	18 b8       	out	0x08, r1	; 8
     R_PORT = HiPinRL;			//resistor-Port High-Pin to +, TriState to 0
    1152:	f5 b8       	out	0x05, r15	; 5
     R_DDR = HiPinRL | TriPinRL;	// resistor-Port High-Pin to 1
    1154:	8f 2d       	mov	r24, r15
    1156:	86 29       	or	r24, r6
    1158:	84 b9       	out	0x04, r24	; 4
     adc.vCEs = ADCconfig.U_AVCC - W5msReadADC(HighPin);	// voltage at 680 Ohm with - Gate
    115a:	60 91 2b 01 	lds	r22, 0x012B
    115e:	70 91 2c 01 	lds	r23, 0x012C
    1162:	7e 83       	std	Y+6, r23	; 0x06
    1164:	6d 83       	std	Y+5, r22	; 0x05
    1166:	89 2d       	mov	r24, r9
    1168:	0e 94 b0 03 	call	0x760	; 0x760 <W5msReadADC>
    116c:	ad 81       	ldd	r26, Y+5	; 0x05
    116e:	be 81       	ldd	r27, Y+6	; 0x06
    1170:	a8 1b       	sub	r26, r24
    1172:	b9 0b       	sbc	r27, r25
    1174:	be 83       	std	Y+6, r27	; 0x06
    1176:	ad 83       	std	Y+5, r26	; 0x05
     R_DDR = HiPinRL;			// resistor-Port High-Pin to 1, TriState open
    1178:	f4 b8       	out	0x04, r15	; 4
     adc.lp_otr = ADCconfig.U_AVCC - W5msReadADC(HighPin); // voltage at 680 Ohm with open Gate
    117a:	20 90 2b 01 	lds	r2, 0x012B
    117e:	30 90 2c 01 	lds	r3, 0x012C
    1182:	89 2d       	mov	r24, r9
    1184:	0e 94 b0 03 	call	0x760	; 0x760 <W5msReadADC>
    1188:	28 1a       	sub	r2, r24
    118a:	39 0a       	sbc	r3, r25
    118c:	08 c0       	rjmp	.+16     	; 0x119e <CheckPins+0xd4>
  } else {
     if ((adc.vCEs+288) > adc.lp2) goto checkDiode;	// no significant change
    118e:	2d 81       	ldd	r18, Y+5	; 0x05
    1190:	3e 81       	ldd	r19, Y+6	; 0x06
    1192:	20 5e       	subi	r18, 0xE0	; 224
    1194:	3e 4f       	sbci	r19, 0xFE	; 254
    1196:	82 17       	cp	r24, r18
    1198:	93 07       	cpc	r25, r19
    119a:	08 f4       	brcc	.+2      	; 0x119e <CheckPins+0xd4>
    119c:	68 c4       	rjmp	.+2256   	; 0x1a6e <CheckPins+0x9a4>
  // a TRIAC is marked as two transistors at least (2 or 3)
  // both of NPN transistors (normal and inverse) are found, if ntrans.count == 2
  // both of PNP transistors (normal and inverse) are found, if ptrans.count == 2
  // If Transistor with protection diode is checked, all results are found,
  // if ntrans.count == 1 and ptrans.count == 1
  if ((ntrans.count + ptrans.count) > 1) {
    119e:	20 91 53 01 	lds	r18, 0x0153
    11a2:	80 91 6d 01 	lds	r24, 0x016D
    11a6:	90 e0       	ldi	r25, 0x00	; 0
    11a8:	82 0f       	add	r24, r18
    11aa:	91 1d       	adc	r25, r1
    11ac:	02 97       	sbiw	r24, 0x02	; 2
    11ae:	4c f0       	brlt	.+18     	; 0x11c2 <CheckPins+0xf8>
     // all transistors found, no more search is needed
     // but TRIAC can be detected as NPNp with same pins as PNPn
     if (!((ntrans.count == 1) && (ntrans.b == ptrans.b))) {
    11b0:	21 30       	cpi	r18, 0x01	; 1
    11b2:	09 f0       	breq	.+2      	; 0x11b6 <CheckPins+0xec>
    11b4:	5c c4       	rjmp	.+2232   	; 0x1a6e <CheckPins+0x9a4>
    11b6:	90 91 50 01 	lds	r25, 0x0150
    11ba:	80 91 6a 01 	lds	r24, 0x016A
    11be:	98 13       	cpse	r25, r24
    11c0:	56 c4       	rjmp	.+2220   	; 0x1a6e <CheckPins+0x9a4>
  TriPinRL = pgm_read_byte(addr);	// instruction for TristatePin R_L
#if (((PIN_RL1 + 1) != PIN_RH1) || ((PIN_RL2 + 1) != PIN_RH2) || ((PIN_RL3 + 1) != PIN_RH3))
  addr += 3;			// address of PinRLtab[TristatePin]
  TriPinRH = pgm_read_byte(addr);	// instruction for TristatePin R_H
#else
  TriPinRH = TriPinRL + TriPinRL;			// instruction for TristatePin R_H
    11c2:	16 2d       	mov	r17, r6
    11c4:	11 0f       	add	r17, r17
  // Additional checking of adc.lp1 will prevent to detect a PNP as P-JFET.
//  if((PartMode <= PART_MODE_P_JFET) && (adc.lp_otr > 455)  && (adc.vCEs > 455))
  
//  if((adc.lp_otr > 455)  && (adc.vCEs > 455))
//  if((adc.vCEs > 115)  && ((adc.vCEs+100) > adc.lp_otr))
  if((adc.vCEs > 115)  && ((adc.vCEs+adc.vCEs+20) > adc.lp_otr))
    11c6:	ed 81       	ldd	r30, Y+5	; 0x05
    11c8:	fe 81       	ldd	r31, Y+6	; 0x06
    11ca:	e4 37       	cpi	r30, 0x74	; 116
    11cc:	f1 05       	cpc	r31, r1
    11ce:	08 f4       	brcc	.+2      	; 0x11d2 <CheckPins+0x108>
    11d0:	a4 c0       	rjmp	.+328    	; 0x131a <CheckPins+0x250>
    11d2:	cf 01       	movw	r24, r30
    11d4:	88 0f       	add	r24, r24
    11d6:	99 1f       	adc	r25, r25
    11d8:	44 96       	adiw	r24, 0x14	; 20
    11da:	28 16       	cp	r2, r24
    11dc:	39 06       	cpc	r3, r25
    11de:	08 f0       	brcs	.+2      	; 0x11e2 <CheckPins+0x118>
    11e0:	9c c0       	rjmp	.+312    	; 0x131a <CheckPins+0x250>
     {  //there is more than 650uA current without TristatePin current 
     // can be JFET or D-FET
     //Test if N-JFET or if self-conducting N-MOSFET
#ifdef EXACT_OTR
     ADC_DDR = HiADCm;		//High-Pin to output
    11e2:	77 b8       	out	0x07, r7	; 7
     ADC_PORT = HiADCp;		//High-Pin fix to Vcc
    11e4:	78 b8       	out	0x08, r7	; 8
#endif
     R_DDR = LoPinRL | TriPinRH;	//switch R_H for Tristate-Pin (probably Gate) to GND
    11e6:	81 2f       	mov	r24, r17
    11e8:	85 29       	or	r24, r5
    11ea:	84 b9       	out	0x04, r24	; 4
     adc.lp1 = W10msReadADC(LowPin);	//measure voltage at the assumed Source 
    11ec:	88 2d       	mov	r24, r8
    11ee:	0e 94 ac 03 	call	0x758	; 0x758 <W10msReadADC>
    11f2:	6c 01       	movw	r12, r24
     adc.tp1 = ReadADC(TristatePin);	// measure Gate voltage
    11f4:	84 2d       	mov	r24, r4
    11f6:	0e 94 b4 03 	call	0x768	; 0x768 <ReadADC>
    11fa:	5c 01       	movw	r10, r24
     R_PORT = TriPinRH;			//switch R_H for Tristate-Pin (probably Gate) to VCC
    11fc:	15 b9       	out	0x05, r17	; 5
     adc.lp2 = W10msReadADC(LowPin);	//measure voltage at the assumed Source again
    11fe:	88 2d       	mov	r24, r8
    1200:	0e 94 ac 03 	call	0x758	; 0x758 <W10msReadADC>
     lcd_space();
     DisplayValue(adc.lp2,-3,' ',3);
     DisplayValue(adc.lp1,-3,' ',3);
#endif
     //If it is a self-conducting MOSFET or JFET, then must be: adc.lp2 > adc.lp1 
     if(adc.lp2>(adc.lp1+599)) {
    1204:	96 01       	movw	r18, r12
    1206:	29 5a       	subi	r18, 0xA9	; 169
    1208:	3d 4f       	sbci	r19, 0xFD	; 253
    120a:	1f 29       	or	r17, r15
        //measure voltage at the  Gate, differ between MOSFET and JFET
        ADC_PORT = TXD_VAL;
    120c:	18 b8       	out	0x08, r1	; 8
        ADC_DDR = LoADCm;	//Low-Pin fix to GND
    120e:	e7 b8       	out	0x07, r14	; 7
        R_DDR = TriPinRH | HiPinRL;	//High-Pin to output
    1210:	14 b9       	out	0x04, r17	; 4
        R_PORT = TriPinRH | HiPinRL;	//switch R_L for High-Pin to VCC
    1212:	15 b9       	out	0x05, r17	; 5
     lcd_space();
     DisplayValue(adc.lp2,-3,' ',3);
     DisplayValue(adc.lp1,-3,' ',3);
#endif
     //If it is a self-conducting MOSFET or JFET, then must be: adc.lp2 > adc.lp1 
     if(adc.lp2>(adc.lp1+599)) {
    1214:	28 17       	cp	r18, r24
    1216:	39 07       	cpc	r19, r25
    1218:	b0 f5       	brcc	.+108    	; 0x1286 <CheckPins+0x1bc>
        //measure voltage at the  Gate, differ between MOSFET and JFET
        ADC_PORT = TXD_VAL;
        ADC_DDR = LoADCm;	//Low-Pin fix to GND
        R_DDR = TriPinRH | HiPinRL;	//High-Pin to output
        R_PORT = TriPinRH | HiPinRL;	//switch R_L for High-Pin to VCC
        adc.lp2 = W10msReadADC(TristatePin); //read voltage of assumed Gate 
    121a:	84 2d       	mov	r24, r4
    121c:	0e 94 ac 03 	call	0x758	; 0x758 <W10msReadADC>
        if(adc.lp2>3911) {  //MOSFET
    1220:	88 34       	cpi	r24, 0x48	; 72
    1222:	9f 40       	sbci	r25, 0x0F	; 15
    1224:	28 f0       	brcs	.+10     	; 0x1230 <CheckPins+0x166>
           PartFound = PART_FET;	//N-Kanal-MOSFET
    1226:	84 e0       	ldi	r24, 0x04	; 4
    1228:	80 93 18 01 	sts	0x0118, r24
           PartMode = PART_MODE_MOS|N_CHANNEL|D_MODE; //Depletion-MOSFET
    122c:	82 e2       	ldi	r24, 0x22	; 34
    122e:	04 c0       	rjmp	.+8      	; 0x1238 <CheckPins+0x16e>
        } else {  //JFET (pn-passage between Gate and Source is conducting )
           PartFound = PART_FET;	//N-Kanal-JFET
    1230:	84 e0       	ldi	r24, 0x04	; 4
    1232:	80 93 18 01 	sts	0x0118, r24
           PartMode = PART_MODE_JFET|N_CHANNEL|D_MODE;
    1236:	84 e2       	ldi	r24, 0x24	; 36
    1238:	80 93 17 01 	sts	0x0117, r24
        lcd_data('N');
        lcd_data('J');
#endif
//      if ((PartReady == 0) || (adc.lp1 > ntrans.uBE)) 
//      there is no way to find out the right Source / Drain
        ntrans.uBE = adc.lp1;
    123c:	d0 92 49 01 	sts	0x0149, r13
    1240:	c0 92 48 01 	sts	0x0148, r12
        if(adc.lp1 > adc.tp1) {
    1244:	ac 14       	cp	r10, r12
    1246:	bd 04       	cpc	r11, r13
    1248:	40 f4       	brcc	.+16     	; 0x125a <CheckPins+0x190>
          ntrans.gthvoltage = adc.lp1 - adc.tp1;	//voltage GS (Source - Gate)
    124a:	c6 01       	movw	r24, r12
    124c:	8a 19       	sub	r24, r10
    124e:	9b 09       	sbc	r25, r11
    1250:	90 93 4f 01 	sts	0x014F, r25
    1254:	80 93 4e 01 	sts	0x014E, r24
    1258:	04 c0       	rjmp	.+8      	; 0x1262 <CheckPins+0x198>
        } else {
          ntrans.gthvoltage = 0;	//voltage GS (Source - Gate)
    125a:	10 92 4f 01 	sts	0x014F, r1
    125e:	10 92 4e 01 	sts	0x014E, r1
        }
        ntrans.current = (unsigned int)(((unsigned long)adc.lp1 * 10000) / RR680MI); // Id 1uA
    1262:	96 01       	movw	r18, r12
    1264:	a0 e1       	ldi	r26, 0x10	; 16
    1266:	b7 e2       	ldi	r27, 0x27	; 39
    1268:	0e 94 ed 1e 	call	0x3dda	; 0x3dda <__umulhisi3>
    126c:	20 91 12 01 	lds	r18, 0x0112
    1270:	30 91 13 01 	lds	r19, 0x0113
    1274:	40 e0       	ldi	r20, 0x00	; 0
    1276:	50 e0       	ldi	r21, 0x00	; 0
    1278:	0e 94 32 1f 	call	0x3e64	; 0x3e64 <__udivmodsi4>
    127c:	30 93 4b 01 	sts	0x014B, r19
    1280:	20 93 4a 01 	sts	0x014A, r18
    1284:	ec c3       	rjmp	.+2008   	; 0x1a5e <CheckPins+0x994>
     //Test, if P-JFET or if self-conducting P-MOSFET
     ADC_DDR = LoADCm;		//switch Low-Pin (assumed Drain) direct to GND,
				//R_H for Tristate-Pin (assumed Gate) is already switched to VCC
     R_DDR = TriPinRH | HiPinRL;	//High-Pin to output
     R_PORT = TriPinRH | HiPinRL;	//High-Pin across R_L to Vcc
     adc.hp1 = W10msReadADC(HighPin);	//measure voltage at assumed Source 
    1286:	89 2d       	mov	r24, r9
    1288:	0e 94 ac 03 	call	0x758	; 0x758 <W10msReadADC>
    128c:	8c 01       	movw	r16, r24
     adc.tp1 = ReadADC(TristatePin);	// measure Gate voltage
    128e:	84 2d       	mov	r24, r4
    1290:	0e 94 b4 03 	call	0x768	; 0x768 <ReadADC>
    1294:	6c 01       	movw	r12, r24
     R_PORT = HiPinRL;			//switch R_H for Tristate-Pin (assumed Gate) to GND
    1296:	f5 b8       	out	0x05, r15	; 5
     adc.hp2 = W10msReadADC(HighPin);	//read voltage at assumed Source again
    1298:	89 2d       	mov	r24, r9
    129a:	0e 94 ac 03 	call	0x758	; 0x758 <W10msReadADC>
     //if it is a self-conducting P_MOSFET or P-JFET , then must be:  adc.hp1 > adc.hp2 
     if(adc.hp1>(adc.hp2+599)) {
    129e:	89 5a       	subi	r24, 0xA9	; 169
    12a0:	9d 4f       	sbci	r25, 0xFD	; 253
    12a2:	80 17       	cp	r24, r16
    12a4:	91 07       	cpc	r25, r17
    12a6:	08 f0       	brcs	.+2      	; 0x12aa <CheckPins+0x1e0>
    12a8:	e2 c3       	rjmp	.+1988   	; 0x1a6e <CheckPins+0x9a4>
        //read voltage at the Gate , to differ between MOSFET and JFET
        ADC_PORT = HiADCp;	//switch High-Pin directly to VCC
    12aa:	78 b8       	out	0x08, r7	; 8
        ADC_DDR = HiADCm;	//switch High-Pin to output
    12ac:	77 b8       	out	0x07, r7	; 7
        adc.tp2 = W10msReadADC(TristatePin); //read voltage at the assumed Gate 
    12ae:	84 2d       	mov	r24, r4
    12b0:	0e 94 ac 03 	call	0x758	; 0x758 <W10msReadADC>
        if(adc.tp2<977) { 		//MOSFET
    12b4:	81 3d       	cpi	r24, 0xD1	; 209
    12b6:	93 40       	sbci	r25, 0x03	; 3
    12b8:	28 f4       	brcc	.+10     	; 0x12c4 <CheckPins+0x1fa>
           PartFound = PART_FET;	//P-Kanal-MOSFET
    12ba:	84 e0       	ldi	r24, 0x04	; 4
    12bc:	80 93 18 01 	sts	0x0118, r24
           PartMode = PART_MODE_MOS|P_CHANNEL|D_MODE; //Depletion-MOSFET
    12c0:	82 e3       	ldi	r24, 0x32	; 50
    12c2:	04 c0       	rjmp	.+8      	; 0x12cc <CheckPins+0x202>
        } else { 			//JFET (pn-passage between Gate and Source is conducting)
           PartFound = PART_FET;	//P-Kanal-JFET
    12c4:	84 e0       	ldi	r24, 0x04	; 4
    12c6:	80 93 18 01 	sts	0x0118, r24
           PartMode = PART_MODE_JFET|P_CHANNEL|D_MODE;
    12ca:	84 e3       	ldi	r24, 0x34	; 52
    12cc:	80 93 17 01 	sts	0x0117, r24
        }
#if DebugOut == 5
        lcd_data('P');
        lcd_data('J');
#endif
        if(adc.tp1 > adc.hp1) {
    12d0:	0c 15       	cp	r16, r12
    12d2:	1d 05       	cpc	r17, r13
    12d4:	38 f4       	brcc	.+14     	; 0x12e4 <CheckPins+0x21a>
          ptrans.gthvoltage = adc.tp1 - adc.hp1;	//voltage GS (Gate - Source)
    12d6:	c0 1a       	sub	r12, r16
    12d8:	d1 0a       	sbc	r13, r17
    12da:	d0 92 69 01 	sts	0x0169, r13
    12de:	c0 92 68 01 	sts	0x0168, r12
    12e2:	04 c0       	rjmp	.+8      	; 0x12ec <CheckPins+0x222>
        } else {
          ptrans.gthvoltage = 0;
    12e4:	10 92 69 01 	sts	0x0169, r1
    12e8:	10 92 68 01 	sts	0x0168, r1
        }
        ptrans.current = (unsigned int)(((unsigned long)(ADCconfig.U_AVCC - adc.hp1) * 10000) / RR680PL); // Id 1uA
    12ec:	20 91 2b 01 	lds	r18, 0x012B
    12f0:	30 91 2c 01 	lds	r19, 0x012C
    12f4:	20 1b       	sub	r18, r16
    12f6:	31 0b       	sbc	r19, r17
    12f8:	a0 e1       	ldi	r26, 0x10	; 16
    12fa:	b7 e2       	ldi	r27, 0x27	; 39
    12fc:	0e 94 ed 1e 	call	0x3dda	; 0x3dda <__umulhisi3>
    1300:	20 91 19 01 	lds	r18, 0x0119
    1304:	30 91 1a 01 	lds	r19, 0x011A
    1308:	40 e0       	ldi	r20, 0x00	; 0
    130a:	50 e0       	ldi	r21, 0x00	; 0
    130c:	0e 94 32 1f 	call	0x3e64	; 0x3e64 <__udivmodsi4>
    1310:	30 93 65 01 	sts	0x0165, r19
    1314:	20 93 64 01 	sts	0x0164, r18
    1318:	97 c1       	rjmp	.+814    	; 0x1648 <CheckPins+0x57e>


  //there is more than 650uA current without TristatePin current 
#ifdef COMMON_COLLECTOR
  // Test circuit with common collector (Emitter follower) PNP
  ADC_PORT = TXD_VAL;
    131a:	18 b8       	out	0x08, r1	; 8
  ADC_DDR = LoADCm;			// Collector direct to GND
    131c:	e7 b8       	out	0x07, r14	; 7
  R_PORT = HiPinRL;			// switch R_L port for HighPin (Emitter) to VCC
    131e:	f5 b8       	out	0x05, r15	; 5
  R_DDR = TriPinRL | HiPinRL;		// Base resistor  R_L to GND
    1320:	0f 2d       	mov	r16, r15
    1322:	06 29       	or	r16, r6
    1324:	04 b9       	out	0x04, r16	; 4
  adc.hp1 = W5msReadADC(HighPin);	// voltage at the Emitter resistor
    1326:	89 2d       	mov	r24, r9
    1328:	0e 94 b0 03 	call	0x760	; 0x760 <W5msReadADC>
    132c:	9c 87       	std	Y+12, r25	; 0x0c
    132e:	8b 87       	std	Y+11, r24	; 0x0b
  adc.rhp = ADCconfig.U_AVCC - adc.hp1;	// voltage at the Emitter resistor
    1330:	c0 90 2b 01 	lds	r12, 0x012B
    1334:	d0 90 2c 01 	lds	r13, 0x012C
  adc.tp1 = ReadADC(TristatePin);	// voltage at the base resistor
    1338:	84 2d       	mov	r24, r4
    133a:	0e 94 b4 03 	call	0x768	; 0x768 <ReadADC>
    133e:	9a 83       	std	Y+2, r25	; 0x02
    1340:	89 83       	std	Y+1, r24	; 0x01

  if (adc.tp1 < 10) {
    1342:	0a 97       	sbiw	r24, 0x0a	; 10
    1344:	a0 f5       	brcc	.+104    	; 0x13ae <CheckPins+0x2e4>
     R_DDR = 0;
    1346:	14 b8       	out	0x04, r1	; 4
     wait_about5ms();		// clear TRIAC and Thyristor
    1348:	81 e0       	ldi	r24, 0x01	; 1
    134a:	0e 94 7e 03 	call	0x6fc	; 0x6fc <sleep_5ms>
     R_DDR =  TriPinRH | HiPinRL;	// Tripin=RH-
    134e:	81 2f       	mov	r24, r17
    1350:	8f 29       	or	r24, r15
    1352:	84 b9       	out	0x04, r24	; 4
     adc.hp1 = W5msReadADC(HighPin);
    1354:	89 2d       	mov	r24, r9
    1356:	0e 94 b0 03 	call	0x760	; 0x760 <W5msReadADC>
    135a:	9c 87       	std	Y+12, r25	; 0x0c
    135c:	8b 87       	std	Y+11, r24	; 0x0b
     adc.rhp = ADCconfig.U_AVCC - adc.hp1;	// voltage at the Emitter resistor
    135e:	40 91 2b 01 	lds	r20, 0x012B
    1362:	50 91 2c 01 	lds	r21, 0x012C
    1366:	48 1b       	sub	r20, r24
    1368:	59 0b       	sbc	r21, r25
    136a:	5c 83       	std	Y+4, r21	; 0x04
    136c:	4b 83       	std	Y+3, r20	; 0x03
     adc.tp1 = ReadADC(TristatePin);	// voltage at base resistor 
    136e:	84 2d       	mov	r24, r4
    1370:	0e 94 b4 03 	call	0x768	; 0x768 <ReadADC>
    1374:	9a 83       	std	Y+2, r25	; 0x02
    1376:	89 83       	std	Y+1, r24	; 0x01
 #ifdef LONG_HFE
     c_hfe = ((unsigned long)adc.rhp * (unsigned long)(((unsigned long)R_H_VAL * 100) / 
    1378:	80 91 19 01 	lds	r24, 0x0119
    137c:	90 91 1a 01 	lds	r25, 0x011A
    1380:	9c 01       	movw	r18, r24
    1382:	40 e0       	ldi	r20, 0x00	; 0
    1384:	50 e0       	ldi	r21, 0x00	; 0
    1386:	60 e6       	ldi	r22, 0x60	; 96
    1388:	77 eb       	ldi	r23, 0xB7	; 183
    138a:	87 e4       	ldi	r24, 0x47	; 71
    138c:	90 e0       	ldi	r25, 0x00	; 0
    138e:	0e 94 32 1f 	call	0x3e64	; 0x3e64 <__udivmodsi4>
    1392:	ab 81       	ldd	r26, Y+3	; 0x03
    1394:	bc 81       	ldd	r27, Y+4	; 0x04
    1396:	0e 94 03 1f 	call	0x3e06	; 0x3e06 <__muluhisi3>
              (unsigned int)RR680PL)) / (unsigned int)adc.tp1;	
    139a:	a9 81       	ldd	r26, Y+1	; 0x01
    139c:	ba 81       	ldd	r27, Y+2	; 0x02
    139e:	9d 01       	movw	r18, r26
    13a0:	40 e0       	ldi	r20, 0x00	; 0
    13a2:	50 e0       	ldi	r21, 0x00	; 0
     R_DDR =  TriPinRH | HiPinRL;	// Tripin=RH-
     adc.hp1 = W5msReadADC(HighPin);
     adc.rhp = ADCconfig.U_AVCC - adc.hp1;	// voltage at the Emitter resistor
     adc.tp1 = ReadADC(TristatePin);	// voltage at base resistor 
 #ifdef LONG_HFE
     c_hfe = ((unsigned long)adc.rhp * (unsigned long)(((unsigned long)R_H_VAL * 100) / 
    13a4:	0e 94 32 1f 	call	0x3e64	; 0x3e64 <__udivmodsi4>
    13a8:	59 01       	movw	r10, r18
    13aa:	6a 01       	movw	r12, r20
    13ac:	12 c0       	rjmp	.+36     	; 0x13d2 <CheckPins+0x308>
  ADC_PORT = TXD_VAL;
  ADC_DDR = LoADCm;			// Collector direct to GND
  R_PORT = HiPinRL;			// switch R_L port for HighPin (Emitter) to VCC
  R_DDR = TriPinRL | HiPinRL;		// Base resistor  R_L to GND
  adc.hp1 = W5msReadADC(HighPin);	// voltage at the Emitter resistor
  adc.rhp = ADCconfig.U_AVCC - adc.hp1;	// voltage at the Emitter resistor
    13ae:	f6 01       	movw	r30, r12
    13b0:	2b 85       	ldd	r18, Y+11	; 0x0b
    13b2:	3c 85       	ldd	r19, Y+12	; 0x0c
    13b4:	e2 1b       	sub	r30, r18
    13b6:	f3 0b       	sbc	r31, r19
    13b8:	fc 83       	std	Y+4, r31	; 0x04
    13ba:	eb 83       	std	Y+3, r30	; 0x03
              (unsigned int)RR680PL)) / (unsigned int)adc.tp1;	
 #else
     c_hfe = ((adc.rhp / ((RR680PL+500)/1000)) * (R_H_VAL/500)) / (adc.tp1/500);
 #endif
  } else {
     c_hfe = (unsigned long)((adc.rhp - adc.tp1) / adc.tp1);
    13bc:	cf 01       	movw	r24, r30
    13be:	49 81       	ldd	r20, Y+1	; 0x01
    13c0:	5a 81       	ldd	r21, Y+2	; 0x02
    13c2:	84 1b       	sub	r24, r20
    13c4:	95 0b       	sbc	r25, r21
    13c6:	ba 01       	movw	r22, r20
    13c8:	0e 94 1e 1f 	call	0x3e3c	; 0x3e3c <__udivmodhi4>
    13cc:	5b 01       	movw	r10, r22
    13ce:	c1 2c       	mov	r12, r1
    13d0:	d1 2c       	mov	r13, r1
  }
#endif

  //set Pins again for circuit with common Emitter PNP
  R_DDR = 0;			//all Resistor Ports to Input
    13d2:	14 b8       	out	0x04, r1	; 4
  R_PORT = 0;			//switch all resistor ports to GND
    13d4:	15 b8       	out	0x05, r1	; 5
  ADC_PORT = HiADCp;		//switch High-Pin to VCC
    13d6:	78 b8       	out	0x08, r7	; 8
  ADC_DDR = HiADCm;		//switch High-Pin to output
    13d8:	77 b8       	out	0x07, r7	; 7
//  R_DDR = LoPinRL;		//switch R_L port for Low-Pin to output (GND)
  wait_about5ms();
    13da:	81 e0       	ldi	r24, 0x01	; 1
    13dc:	0e 94 7e 03 	call	0x6fc	; 0x6fc <sleep_5ms>
  
  if(adc.lp_otr < 1977) {
    13e0:	59 eb       	ldi	r21, 0xB9	; 185
    13e2:	25 16       	cp	r2, r21
    13e4:	57 e0       	ldi	r21, 0x07	; 7
    13e6:	35 06       	cpc	r3, r21
    13e8:	08 f0       	brcs	.+2      	; 0x13ec <CheckPins+0x322>
    13ea:	41 c3       	rjmp	.+1666   	; 0x1a6e <CheckPins+0x9a4>
     lcd_data('E');
     lcd_testpin(HighPin);
     lcd_space();
#endif
     //Test to PNP
     R_DDR = LoPinRL | TriPinRL;	//switch R_L port for Tristate-Pin to output (GND), for Test of PNP
    13ec:	6e 89       	ldd	r22, Y+22	; 0x16
    13ee:	64 b9       	out	0x04, r22	; 4
     adc.lp1 = W5msReadADC(LowPin);	//measure voltage at LowPin
    13f0:	88 2d       	mov	r24, r8
    13f2:	0e 94 b0 03 	call	0x760	; 0x760 <W5msReadADC>
     if(adc.lp1 > 3422) {
    13f6:	8f 35       	cpi	r24, 0x5F	; 95
    13f8:	9d 40       	sbci	r25, 0x0D	; 13
    13fa:	08 f4       	brcc	.+2      	; 0x13fe <CheckPins+0x334>
    13fc:	2b c1       	rjmp	.+598    	; 0x1654 <CheckPins+0x58a>
        //component has current => PNP-Transistor or equivalent
        R_DDR = 0;
    13fe:	14 b8       	out	0x04, r1	; 4
        wait_about5ms();		// clear TRIAC and Thyristor
    1400:	81 e0       	ldi	r24, 0x01	; 1
    1402:	0e 94 7e 03 	call	0x6fc	; 0x6fc <sleep_5ms>
        //compute current amplification factor in both directions
        R_DDR = LoPinRL | TriPinRH;	//switch R_H port for Tristate-Pin (Base) to output (GND)
    1406:	21 2f       	mov	r18, r17
    1408:	25 29       	or	r18, r5
    140a:	2d 8b       	std	Y+21, r18	; 0x15
    140c:	24 b9       	out	0x04, r18	; 4

        adc.lp1 = W5msReadADC(LowPin);	//measure voltage at LowPin (assumed Collector)
    140e:	88 2d       	mov	r24, r8
    1410:	0e 94 b0 03 	call	0x760	; 0x760 <W5msReadADC>
    1414:	98 87       	std	Y+8, r25	; 0x08
    1416:	8f 83       	std	Y+7, r24	; 0x07
        adc.tp2 = ReadADC(TristatePin);	//measure voltage at TristatePin (Base) 
    1418:	84 2d       	mov	r24, r4
    141a:	0e 94 b4 03 	call	0x768	; 0x768 <ReadADC>
    141e:	9e 87       	std	Y+14, r25	; 0x0e
    1420:	8d 87       	std	Y+13, r24	; 0x0d
        adc.hp2 = ReadADC(HighPin);	//measure voltage at HighPin (assumed Emitter)
    1422:	89 2d       	mov	r24, r9
    1424:	0e 94 b4 03 	call	0x768	; 0x768 <ReadADC>
    1428:	98 8b       	std	Y+16, r25	; 0x10
    142a:	8f 87       	std	Y+15, r24	; 0x0f

        if(adc.tp2 > 2000) {
    142c:	4d 85       	ldd	r20, Y+13	; 0x0d
    142e:	5e 85       	ldd	r21, Y+14	; 0x0e
    1430:	41 3d       	cpi	r20, 0xD1	; 209
    1432:	57 40       	sbci	r21, 0x07	; 7
    1434:	08 f4       	brcc	.+2      	; 0x1438 <CheckPins+0x36e>
    1436:	b1 c0       	rjmp	.+354    	; 0x159a <CheckPins+0x4d0>
           //PNP-Transistor is found (Base voltage moves with Emitter to VCC)
           PartFound = PART_TRANSISTOR;
    1438:	83 e0       	ldi	r24, 0x03	; 3
    143a:	80 93 18 01 	sts	0x0118, r24
           PartMode = PART_MODE_PNP;
    143e:	8d e0       	ldi	r24, 0x0D	; 13
    1440:	80 93 17 01 	sts	0x0117, r24
           update_pins = 0;		// only update pins, if hFE is higher or Thyristor 
#ifdef COMMON_EMITTER
           //compute current amplification factor for circuit with common Emitter
           //e_hFE = B = Collector current / Base current
           tmp16 = adc.lp1;
           if (tmp16 > adc.lp_otr) {
    1444:	8f 81       	ldd	r24, Y+7	; 0x07
    1446:	98 85       	ldd	r25, Y+8	; 0x08
    1448:	28 16       	cp	r2, r24
    144a:	39 06       	cpc	r3, r25
    144c:	20 f4       	brcc	.+8      	; 0x1456 <CheckPins+0x38c>
              tmp16 -= adc.lp_otr;
    144e:	3c 01       	movw	r6, r24
    1450:	62 18       	sub	r6, r2
    1452:	73 08       	sbc	r7, r3
    1454:	02 c0       	rjmp	.+4      	; 0x145a <CheckPins+0x390>
    1456:	6f 80       	ldd	r6, Y+7	; 0x07
    1458:	78 84       	ldd	r7, Y+8	; 0x08
           }

 #ifdef LONG_HFE
           e_hfe = ((unsigned int)tmp16 * (unsigned long)(((unsigned long)R_H_VAL * 100) / 
    145a:	e0 90 12 01 	lds	r14, 0x0112
    145e:	f0 90 13 01 	lds	r15, 0x0113
    1462:	00 e0       	ldi	r16, 0x00	; 0
    1464:	10 e0       	ldi	r17, 0x00	; 0
    1466:	60 e6       	ldi	r22, 0x60	; 96
    1468:	77 eb       	ldi	r23, 0xB7	; 183
    146a:	87 e4       	ldi	r24, 0x47	; 71
    146c:	90 e0       	ldi	r25, 0x00	; 0
    146e:	a8 01       	movw	r20, r16
    1470:	97 01       	movw	r18, r14
    1472:	0e 94 32 1f 	call	0x3e64	; 0x3e64 <__udivmodsi4>
    1476:	d3 01       	movw	r26, r6
    1478:	0e 94 03 1f 	call	0x3e06	; 0x3e06 <__muluhisi3>
              (unsigned int)RR680MI)) / (unsigned int)adc.tp2;	
    147c:	ad 85       	ldd	r26, Y+13	; 0x0d
    147e:	be 85       	ldd	r27, Y+14	; 0x0e
    1480:	9d 01       	movw	r18, r26
    1482:	40 e0       	ldi	r20, 0x00	; 0
    1484:	50 e0       	ldi	r21, 0x00	; 0
           if (tmp16 > adc.lp_otr) {
              tmp16 -= adc.lp_otr;
           }

 #ifdef LONG_HFE
           e_hfe = ((unsigned int)tmp16 * (unsigned long)(((unsigned long)R_H_VAL * 100) / 
    1486:	0e 94 32 1f 	call	0x3e64	; 0x3e64 <__udivmodsi4>
              (unsigned int)RR680MI)) / (unsigned int)adc.tp2;	
 #else
           e_hfe = ((tmp16 / ((RR680MI+500)/1000)) * (R_H_VAL/500)) / (adc.tp2/500);
 #endif
           // first hFE or e_hfe is greater than last hfe ?
           if ((ptrans.count == 0) || (e_hfe > ptrans.hfe)){
    148a:	80 91 6d 01 	lds	r24, 0x016D
    148e:	88 23       	and	r24, r24
    1490:	69 f0       	breq	.+26     	; 0x14ac <CheckPins+0x3e2>
    1492:	80 91 5e 01 	lds	r24, 0x015E
    1496:	90 91 5f 01 	lds	r25, 0x015F
    149a:	a0 91 60 01 	lds	r26, 0x0160
    149e:	b0 91 61 01 	lds	r27, 0x0161
    14a2:	82 17       	cp	r24, r18
    14a4:	93 07       	cpc	r25, r19
    14a6:	a4 07       	cpc	r26, r20
    14a8:	b5 07       	cpc	r27, r21
    14aa:	10 f5       	brcc	.+68     	; 0x14f0 <CheckPins+0x426>
              ptrans.hfe = e_hfe;				// hFE with common emitter
    14ac:	20 93 5e 01 	sts	0x015E, r18
    14b0:	30 93 5f 01 	sts	0x015F, r19
    14b4:	40 93 60 01 	sts	0x0160, r20
    14b8:	50 93 61 01 	sts	0x0161, r21
 #if FLASHEND > 0x1fff  /* at least ATmega16 */
              ptrans.current = (unsigned int)(((unsigned long)adc.lp1 * 10000) / RR680MI); // Ic 1uA
    14bc:	2f 81       	ldd	r18, Y+7	; 0x07
    14be:	38 85       	ldd	r19, Y+8	; 0x08
    14c0:	a0 e1       	ldi	r26, 0x10	; 16
    14c2:	b7 e2       	ldi	r27, 0x27	; 39
    14c4:	0e 94 ed 1e 	call	0x3dda	; 0x3dda <__umulhisi3>
    14c8:	a8 01       	movw	r20, r16
    14ca:	97 01       	movw	r18, r14
    14cc:	0e 94 32 1f 	call	0x3e64	; 0x3e64 <__udivmodsi4>
    14d0:	30 93 65 01 	sts	0x0165, r19
    14d4:	20 93 64 01 	sts	0x0164, r18
 #endif
              ptrans.uBE = adc.hp2 - adc.tp2;	// Base Emitter Voltage
    14d8:	8f 85       	ldd	r24, Y+15	; 0x0f
    14da:	98 89       	ldd	r25, Y+16	; 0x10
    14dc:	ed 85       	ldd	r30, Y+13	; 0x0d
    14de:	fe 85       	ldd	r31, Y+14	; 0x0e
    14e0:	8e 1b       	sub	r24, r30
    14e2:	9f 0b       	sbc	r25, r31
    14e4:	90 93 63 01 	sts	0x0163, r25
    14e8:	80 93 62 01 	sts	0x0162, r24
              update_pins = 1;		// trans.ebc must be updated
    14ec:	21 e0       	ldi	r18, 0x01	; 1
    14ee:	01 c0       	rjmp	.+2      	; 0x14f2 <CheckPins+0x428>

        if(adc.tp2 > 2000) {
           //PNP-Transistor is found (Base voltage moves with Emitter to VCC)
           PartFound = PART_TRANSISTOR;
           PartMode = PART_MODE_PNP;
           update_pins = 0;		// only update pins, if hFE is higher or Thyristor 
    14f0:	20 e0       	ldi	r18, 0x00	; 0
#ifdef COMMON_COLLECTOR
           //current amplification factor for common  Collector (Emitter follower)
           // c_hFE = (Emitter current - Base current) / Base current
 #ifdef COMMON_EMITTER
           // also with COMMON_EMITTER, is c_hfe greater than the last hFE?
           if (c_hfe > ptrans.hfe)  // trans.hfe is allready e_hfe or last c_hFE
    14f2:	80 91 5e 01 	lds	r24, 0x015E
    14f6:	90 91 5f 01 	lds	r25, 0x015F
    14fa:	a0 91 60 01 	lds	r26, 0x0160
    14fe:	b0 91 61 01 	lds	r27, 0x0161
    1502:	8a 15       	cp	r24, r10
    1504:	9b 05       	cpc	r25, r11
    1506:	ac 05       	cpc	r26, r12
    1508:	bd 05       	cpc	r27, r13
    150a:	38 f5       	brcc	.+78     	; 0x155a <CheckPins+0x490>
 #else
           // without COMMON_EMITTER , c_hFE is first or greater than the old one?
           if ((ptrans.count == 0) || (c_hfe > ptrans.hfe)) 
 #endif
           {
              ptrans.hfe = c_hfe;		// c_hfe is the best
    150c:	a0 92 5e 01 	sts	0x015E, r10
    1510:	b0 92 5f 01 	sts	0x015F, r11
    1514:	c0 92 60 01 	sts	0x0160, r12
    1518:	d0 92 61 01 	sts	0x0161, r13
              ptrans.uBE = adc.hp1 - adc.tp1;	// Base Emitter Voltage common collector
    151c:	8b 85       	ldd	r24, Y+11	; 0x0b
    151e:	9c 85       	ldd	r25, Y+12	; 0x0c
    1520:	29 81       	ldd	r18, Y+1	; 0x01
    1522:	3a 81       	ldd	r19, Y+2	; 0x02
    1524:	82 1b       	sub	r24, r18
    1526:	93 0b       	sbc	r25, r19
    1528:	90 93 63 01 	sts	0x0163, r25
    152c:	80 93 62 01 	sts	0x0162, r24
 #if FLASHEND > 0x1fff  /* at least ATmega16 */
              ptrans.current = (unsigned int)(((unsigned long)adc.rhp * 10000) / RR680PL); // Ie 1uA
    1530:	2b 81       	ldd	r18, Y+3	; 0x03
    1532:	3c 81       	ldd	r19, Y+4	; 0x04
    1534:	a0 e1       	ldi	r26, 0x10	; 16
    1536:	b7 e2       	ldi	r27, 0x27	; 39
    1538:	0e 94 ed 1e 	call	0x3dda	; 0x3dda <__umulhisi3>
    153c:	20 91 19 01 	lds	r18, 0x0119
    1540:	30 91 1a 01 	lds	r19, 0x011A
    1544:	40 e0       	ldi	r20, 0x00	; 0
    1546:	50 e0       	ldi	r21, 0x00	; 0
    1548:	0e 94 32 1f 	call	0x3e64	; 0x3e64 <__udivmodsi4>
              ptrans.current += 10000;		// current at emitter!
    154c:	20 5f       	subi	r18, 0xF0	; 240
    154e:	38 4d       	sbci	r19, 0xD8	; 216
    1550:	30 93 65 01 	sts	0x0165, r19
    1554:	20 93 64 01 	sts	0x0164, r18
    1558:	03 c0       	rjmp	.+6      	; 0x1560 <CheckPins+0x496>
#endif
#if DebugOut == 5
           lcd_data('B');
#endif
#ifdef SHOW_ICE
           if (update_pins != 0) {
    155a:	22 23       	and	r18, r18
    155c:	09 f4       	brne	.+2      	; 0x1560 <CheckPins+0x496>
    155e:	50 c3       	rjmp	.+1696   	; 0x1c00 <CheckPins+0xb36>
	      // update residual collector current without base current
              ptrans.ice0 = (unsigned int)(((unsigned long)adc.lp_otr * 10000) / RR680MI); // ICE0 0.01mA
    1560:	91 01       	movw	r18, r2
    1562:	a0 e1       	ldi	r26, 0x10	; 16
    1564:	b7 e2       	ldi	r27, 0x27	; 39
    1566:	0e 94 ed 1e 	call	0x3dda	; 0x3dda <__umulhisi3>
    156a:	a8 01       	movw	r20, r16
    156c:	97 01       	movw	r18, r14
    156e:	0e 94 32 1f 	call	0x3e64	; 0x3e64 <__udivmodsi4>
    1572:	30 93 67 01 	sts	0x0167, r19
    1576:	20 93 66 01 	sts	0x0166, r18
              ptrans.ices = (unsigned int)(((unsigned long)adc.vCEs * 10000) / RR680MI); // ICEs 0.01mA
    157a:	2d 81       	ldd	r18, Y+5	; 0x05
    157c:	3e 81       	ldd	r19, Y+6	; 0x06
    157e:	a0 e1       	ldi	r26, 0x10	; 16
    1580:	b7 e2       	ldi	r27, 0x27	; 39
    1582:	0e 94 ed 1e 	call	0x3dda	; 0x3dda <__umulhisi3>
    1586:	a8 01       	movw	r20, r16
    1588:	97 01       	movw	r18, r14
    158a:	0e 94 32 1f 	call	0x3e64	; 0x3e64 <__udivmodsi4>
    158e:	30 93 69 01 	sts	0x0169, r19
    1592:	20 93 68 01 	sts	0x0168, r18
    1596:	21 e0       	ldi	r18, 0x01	; 1
    1598:	33 c3       	rjmp	.+1638   	; 0x1c00 <CheckPins+0xb36>
           }
#endif
           goto savePresult;		// marke P type, save Pins and exit
        }
        // is probably a P-E-MOS, check voltage
        if((adc.lp_otr < 97) && (adc.lp1 > 2000)) {
    159a:	31 e6       	ldi	r19, 0x61	; 97
    159c:	23 16       	cp	r2, r19
    159e:	31 04       	cpc	r3, r1
    15a0:	08 f0       	brcs	.+2      	; 0x15a4 <CheckPins+0x4da>
    15a2:	58 c0       	rjmp	.+176    	; 0x1654 <CheckPins+0x58a>
    15a4:	4f 81       	ldd	r20, Y+7	; 0x07
    15a6:	58 85       	ldd	r21, Y+8	; 0x08
    15a8:	41 3d       	cpi	r20, 0xD1	; 209
    15aa:	67 e0       	ldi	r22, 0x07	; 7
    15ac:	56 07       	cpc	r21, r22
    15ae:	08 f4       	brcc	.+2      	; 0x15b2 <CheckPins+0x4e8>
    15b0:	51 c0       	rjmp	.+162    	; 0x1654 <CheckPins+0x58a>
           //is flow voltage low enough in the closed  state?
           //(since D-Mode-FET would be by mistake detected as E-Mode )
           PartFound = PART_FET;		//P-Kanal-MOSFET is found (Basis/Gate moves not to VCC)
    15b2:	84 e0       	ldi	r24, 0x04	; 4
    15b4:	80 93 18 01 	sts	0x0118, r24
           PartMode = PART_MODE_MOS|P_CHANNEL|E_MODE;
           if (adc.hp2 > (adc.lp1+250)) {
    15b8:	ca 01       	movw	r24, r20
    15ba:	86 50       	subi	r24, 0x06	; 6
    15bc:	9f 4f       	sbci	r25, 0xFF	; 255
    15be:	af 85       	ldd	r26, Y+15	; 0x0f
    15c0:	b8 89       	ldd	r27, Y+16	; 0x10
    15c2:	8a 17       	cp	r24, r26
    15c4:	9b 07       	cpc	r25, r27
    15c6:	10 f0       	brcs	.+4      	; 0x15cc <CheckPins+0x502>
        // is probably a P-E-MOS, check voltage
        if((adc.lp_otr < 97) && (adc.lp1 > 2000)) {
           //is flow voltage low enough in the closed  state?
           //(since D-Mode-FET would be by mistake detected as E-Mode )
           PartFound = PART_FET;		//P-Kanal-MOSFET is found (Basis/Gate moves not to VCC)
           PartMode = PART_MODE_MOS|P_CHANNEL|E_MODE;
    15c8:	82 e1       	ldi	r24, 0x12	; 18
    15ca:	01 c0       	rjmp	.+2      	; 0x15ce <CheckPins+0x504>
           if (adc.hp2 > (adc.lp1+250)) {
              //Drain-Source Voltage to high, must be a IGBT
              PartMode = PART_MODE_IGBT|P_CHANNEL|E_MODE;
    15cc:	83 e1       	ldi	r24, 0x13	; 19
    15ce:	80 93 17 01 	sts	0x0117, r24
           }  /* end if (adc.hp2 > (adc.lp1+250)) */
       	   //measure the Gate threshold voltage
           //Switching of Drain is monitored with digital input
           // Low level is specified up to 0.3 * VCC
           // High level is specified above 0.6 * VCC
           PinMSK = LoADCm & 7;
    15d2:	be 2d       	mov	r27, r14
    15d4:	b7 70       	andi	r27, 0x07	; 7
    15d6:	eb 2e       	mov	r14, r27
       	   ADMUX = TristatePin | (1<<REFS0);	// switch to TristatePin, Ref. VCC
    15d8:	84 2d       	mov	r24, r4
    15da:	80 64       	ori	r24, 0x40	; 64
    15dc:	80 93 7c 00 	sts	0x007C, r24
    15e0:	7b e0       	ldi	r23, 0x0B	; 11
    15e2:	f7 2e       	mov	r15, r23
       	   tmp16 = 1;			// round up ((1*4)/9)
    15e4:	01 e0       	ldi	r16, 0x01	; 1
    15e6:	10 e0       	ldi	r17, 0x00	; 0
       	      while (!(ADC_PIN&PinMSK));		// Wait, until the MOSFET switches and Drain moves to VCC
                  			// 1 is detected with more than 2.5V (up to 2.57V) with tests of mega168 and mega328
       	      R_DDR = LoPinRL;
       	      ADCSRA |= (1<<ADSC);		// Start Conversion
       	      while (ADCSRA&(1<<ADSC));		// wait
      	      tmp16 += (1023 - ADCW);	// Add Tristatepin-Voltage
    15e8:	cc 24       	eor	r12, r12
    15ea:	ca 94       	dec	r12
    15ec:	e3 e0       	ldi	r30, 0x03	; 3
    15ee:	de 2e       	mov	r13, r30
           // High level is specified above 0.6 * VCC
           PinMSK = LoADCm & 7;
       	   ADMUX = TristatePin | (1<<REFS0);	// switch to TristatePin, Ref. VCC
       	   tmp16 = 1;			// round up ((1*4)/9)
       	   for(ii=0;ii<11;ii++) {
       	      wdt_reset();
    15f0:	a8 95       	wdr
       	      ChargePin10ms(TriPinRL,1);
    15f2:	61 e0       	ldi	r22, 0x01	; 1
    15f4:	86 2d       	mov	r24, r6
    15f6:	0e 94 05 10 	call	0x200a	; 0x200a <ChargePin10ms>
                R_DDR = LoPinRL | TriPinRH;		//switch R_H for Tristate-Pin (Basis) to GND
    15fa:	2d 89       	ldd	r18, Y+21	; 0x15
    15fc:	24 b9       	out	0x04, r18	; 4
       	      while (!(ADC_PIN&PinMSK));		// Wait, until the MOSFET switches and Drain moves to VCC
    15fe:	86 b1       	in	r24, 0x06	; 6
    1600:	8e 21       	and	r24, r14
    1602:	e9 f3       	breq	.-6      	; 0x15fe <CheckPins+0x534>
                  			// 1 is detected with more than 2.5V (up to 2.57V) with tests of mega168 and mega328
       	      R_DDR = LoPinRL;
    1604:	54 b8       	out	0x04, r5	; 4
       	      ADCSRA |= (1<<ADSC);		// Start Conversion
    1606:	80 91 7a 00 	lds	r24, 0x007A
    160a:	80 64       	ori	r24, 0x40	; 64
    160c:	80 93 7a 00 	sts	0x007A, r24
       	      while (ADCSRA&(1<<ADSC));		// wait
    1610:	80 91 7a 00 	lds	r24, 0x007A
    1614:	86 fd       	sbrc	r24, 6
    1616:	fc cf       	rjmp	.-8      	; 0x1610 <CheckPins+0x546>
      	      tmp16 += (1023 - ADCW);	// Add Tristatepin-Voltage
    1618:	80 91 78 00 	lds	r24, 0x0078
    161c:	90 91 79 00 	lds	r25, 0x0079
    1620:	a6 01       	movw	r20, r12
    1622:	48 1b       	sub	r20, r24
    1624:	59 0b       	sbc	r21, r25
    1626:	04 0f       	add	r16, r20
    1628:	15 1f       	adc	r17, r21
    162a:	fa 94       	dec	r15
           // Low level is specified up to 0.3 * VCC
           // High level is specified above 0.6 * VCC
           PinMSK = LoADCm & 7;
       	   ADMUX = TristatePin | (1<<REFS0);	// switch to TristatePin, Ref. VCC
       	   tmp16 = 1;			// round up ((1*4)/9)
       	   for(ii=0;ii<11;ii++) {
    162c:	09 f7       	brne	.-62     	; 0x15f0 <CheckPins+0x526>
       	      R_DDR = LoPinRL;
       	      ADCSRA |= (1<<ADSC);		// Start Conversion
       	      while (ADCSRA&(1<<ADSC));		// wait
      	      tmp16 += (1023 - ADCW);	// Add Tristatepin-Voltage
           }
           tmp16 *= 4;		// is equal to 44*ADCW
    162e:	c8 01       	movw	r24, r16
    1630:	88 0f       	add	r24, r24
    1632:	99 1f       	adc	r25, r25
    1634:	88 0f       	add	r24, r24
    1636:	99 1f       	adc	r25, r25
           ptrans.gthvoltage = tmp16 / 9;		// gives resolution in mV
    1638:	69 e0       	ldi	r22, 0x09	; 9
    163a:	70 e0       	ldi	r23, 0x00	; 0
    163c:	0e 94 1e 1f 	call	0x3e3c	; 0x3e3c <__udivmodhi4>
    1640:	70 93 69 01 	sts	0x0169, r23
    1644:	60 93 68 01 	sts	0x0168, r22
           ptrans.count++;		// count FET as two for accelerate searching
    1648:	80 91 6d 01 	lds	r24, 0x016D
    164c:	8f 5f       	subi	r24, 0xFF	; 255
    164e:	80 93 6d 01 	sts	0x016D, r24
    1652:	a1 cf       	rjmp	.-190    	; 0x1596 <CheckPins+0x4cc>
        }
    } // end component has current => PNP

#ifdef COMMON_COLLECTOR
    // Low-Pin=RL- HighPin=VCC
    R_DDR = LoPinRL | TriPinRL;
    1654:	5e 89       	ldd	r21, Y+22	; 0x16
    1656:	54 b9       	out	0x04, r21	; 4
    R_PORT = TriPinRL;			// TriPin=RL+  NPN with common Collector
    1658:	65 b8       	out	0x05, r6	; 5
    adc.lp1 = W5msReadADC(LowPin);	// voltage at Emitter resistor
    165a:	88 2d       	mov	r24, r8
    165c:	0e 94 b0 03 	call	0x760	; 0x760 <W5msReadADC>
    1660:	5c 01       	movw	r10, r24
    adc.tp1 = ReadADC(TristatePin);	// voltage at the Base 
    1662:	84 2d       	mov	r24, r4
    1664:	0e 94 b4 03 	call	0x768	; 0x768 <ReadADC>
    1668:	9c 83       	std	Y+4, r25	; 0x04
    166a:	8b 83       	std	Y+3, r24	; 0x03
    adc.rtp = ADCconfig.U_AVCC - adc.tp1;	// voltage at Base resistor
    166c:	60 91 2b 01 	lds	r22, 0x012B
    1670:	70 91 2c 01 	lds	r23, 0x012C
    1674:	68 1b       	sub	r22, r24
    1676:	79 0b       	sbc	r23, r25
    if (adc.rtp < 10) { 
    1678:	6a 30       	cpi	r22, 0x0A	; 10
    167a:	71 05       	cpc	r23, r1
    167c:	70 f5       	brcc	.+92     	; 0x16da <CheckPins+0x610>
       R_DDR = 0;
    167e:	14 b8       	out	0x04, r1	; 4
       wait_about5ms();		// clear TRIAC and Thyristor
    1680:	81 e0       	ldi	r24, 0x01	; 1
    1682:	0e 94 7e 03 	call	0x6fc	; 0x6fc <sleep_5ms>
       R_DDR = LoPinRL | TriPinRH;
    1686:	81 2f       	mov	r24, r17
    1688:	85 29       	or	r24, r5
    168a:	84 b9       	out	0x04, r24	; 4
       R_PORT = TriPinRH;		// Tripin=RH+
    168c:	15 b9       	out	0x05, r17	; 5
       adc.lp1 = W5msReadADC(LowPin);
    168e:	88 2d       	mov	r24, r8
    1690:	0e 94 b0 03 	call	0x760	; 0x760 <W5msReadADC>
    1694:	5c 01       	movw	r10, r24
       adc.tp1 = ReadADC(TristatePin);	// voltage at the Base 
    1696:	84 2d       	mov	r24, r4
    1698:	0e 94 b4 03 	call	0x768	; 0x768 <ReadADC>
    169c:	9c 83       	std	Y+4, r25	; 0x04
    169e:	8b 83       	std	Y+3, r24	; 0x03
       adc.rtp = ADCconfig.U_AVCC - adc.tp1;	// voltage at Base resistor
 #ifdef LONG_HFE
       c_hfe = ((unsigned long)adc.lp1 * (unsigned long)(((unsigned long)R_H_VAL * 100) / 
    16a0:	80 91 12 01 	lds	r24, 0x0112
    16a4:	90 91 13 01 	lds	r25, 0x0113
    16a8:	9c 01       	movw	r18, r24
    16aa:	40 e0       	ldi	r20, 0x00	; 0
    16ac:	50 e0       	ldi	r21, 0x00	; 0
    16ae:	60 e6       	ldi	r22, 0x60	; 96
    16b0:	77 eb       	ldi	r23, 0xB7	; 183
    16b2:	87 e4       	ldi	r24, 0x47	; 71
    16b4:	90 e0       	ldi	r25, 0x00	; 0
    16b6:	0e 94 32 1f 	call	0x3e64	; 0x3e64 <__udivmodsi4>
    16ba:	d5 01       	movw	r26, r10
    16bc:	0e 94 03 1f 	call	0x3e06	; 0x3e06 <__muluhisi3>
       wait_about5ms();		// clear TRIAC and Thyristor
       R_DDR = LoPinRL | TriPinRH;
       R_PORT = TriPinRH;		// Tripin=RH+
       adc.lp1 = W5msReadADC(LowPin);
       adc.tp1 = ReadADC(TristatePin);	// voltage at the Base 
       adc.rtp = ADCconfig.U_AVCC - adc.tp1;	// voltage at Base resistor
    16c0:	20 91 2b 01 	lds	r18, 0x012B
    16c4:	30 91 2c 01 	lds	r19, 0x012C
    16c8:	ab 81       	ldd	r26, Y+3	; 0x03
    16ca:	bc 81       	ldd	r27, Y+4	; 0x04
    16cc:	2a 1b       	sub	r18, r26
    16ce:	3b 0b       	sbc	r19, r27
 #ifdef LONG_HFE
       c_hfe = ((unsigned long)adc.lp1 * (unsigned long)(((unsigned long)R_H_VAL * 100) / 
              (unsigned int)RR680MI)) / (unsigned int)adc.rtp;	
    16d0:	40 e0       	ldi	r20, 0x00	; 0
    16d2:	50 e0       	ldi	r21, 0x00	; 0
       R_PORT = TriPinRH;		// Tripin=RH+
       adc.lp1 = W5msReadADC(LowPin);
       adc.tp1 = ReadADC(TristatePin);	// voltage at the Base 
       adc.rtp = ADCconfig.U_AVCC - adc.tp1;	// voltage at Base resistor
 #ifdef LONG_HFE
       c_hfe = ((unsigned long)adc.lp1 * (unsigned long)(((unsigned long)R_H_VAL * 100) / 
    16d4:	0e 94 32 1f 	call	0x3e64	; 0x3e64 <__udivmodsi4>
    16d8:	08 c0       	rjmp	.+16     	; 0x16ea <CheckPins+0x620>
              (unsigned int)RR680MI)) / (unsigned int)adc.rtp;	
 #else
       c_hfe = ((adc.lp1 / ((RR680MI+500)/1000)) * (R_H_VAL/500)) / (adc.tp2/500);
 #endif
    } else {
       c_hfe = (adc.lp1 - adc.rtp) / adc.rtp;
    16da:	c5 01       	movw	r24, r10
    16dc:	86 1b       	sub	r24, r22
    16de:	97 0b       	sbc	r25, r23
    16e0:	0e 94 1e 1f 	call	0x3e3c	; 0x3e3c <__udivmodhi4>
    16e4:	9b 01       	movw	r18, r22
    16e6:	40 e0       	ldi	r20, 0x00	; 0
    16e8:	50 e0       	ldi	r21, 0x00	; 0
    16ea:	2f 83       	std	Y+7, r18	; 0x07
    16ec:	38 87       	std	Y+8, r19	; 0x08
    16ee:	49 87       	std	Y+9, r20	; 0x09
    16f0:	5a 87       	std	Y+10, r21	; 0x0a
    }
#endif
    //Tristate (can be Base) to VCC, Test if NPN
    ADC_DDR = LoADCm;		//Low-Pin to output 0V
    16f2:	e7 b8       	out	0x07, r14	; 7
    ADC_PORT = TXD_VAL;			//switch Low-Pin to GND
    16f4:	18 b8       	out	0x08, r1	; 8
    R_DDR = TriPinRL | HiPinRL;		//RL port for High-Pin and Tristate-Pin to output
    16f6:	04 b9       	out	0x04, r16	; 4
    // vCEs is already measured correctly with common emitter circuit
//#ifdef SHOW_ICE
//    R_PORT =  HiPinRL;	//RL port for High-Pin and Tristate-Pin to GND
//    adc.vCEs = ADCconfig.U_AVCC - W5msReadADC(HighPin); // measure voltage a High-Pin, Base low
//#endif
    R_PORT = TriPinRL | HiPinRL;	//RL port for High-Pin and Tristate-Pin to Vcc
    16f8:	05 b9       	out	0x05, r16	; 5
    adc.hp1 = W5msReadADC(HighPin);	//measure voltage at High-Pin  (Collector)
    16fa:	89 2d       	mov	r24, r9
    16fc:	0e 94 b0 03 	call	0x760	; 0x760 <W5msReadADC>
    1700:	9c 87       	std	Y+12, r25	; 0x0c
    1702:	8b 87       	std	Y+11, r24	; 0x0b
#ifdef WITH_THYRISTOR_GATE_V
    adc.tp2 = ReadADC(TristatePin);	//voltage of gate
    1704:	84 2d       	mov	r24, r4
    1706:	0e 94 b4 03 	call	0x768	; 0x768 <ReadADC>
    170a:	9a 83       	std	Y+2, r25	; 0x02
    170c:	89 83       	std	Y+1, r24	; 0x01
    adc.lp2 = ReadADC(LowPin);		//voltage of Cathode
    170e:	88 2d       	mov	r24, r8
    1710:	0e 94 b4 03 	call	0x768	; 0x768 <ReadADC>
    1714:	6c 01       	movw	r12, r24
#endif
    if(adc.hp1 < 1600) {
    1716:	4b 85       	ldd	r20, Y+11	; 0x0b
    1718:	5c 85       	ldd	r21, Y+12	; 0x0c
    171a:	40 34       	cpi	r20, 0x40	; 64
    171c:	56 40       	sbci	r21, 0x06	; 6
    171e:	08 f0       	brcs	.+2      	; 0x1722 <CheckPins+0x658>
    1720:	a4 c1       	rjmp	.+840    	; 0x1a6a <CheckPins+0x9a0>
       //Gate discharge
//      ChargePin10ms(TriPinRL,0);	//Tristate-Pin (Gate) across R_L 10ms to GND
       // TRIAC's can be triggered with gate and A1 (C) swapped. The current remains after triggering 
       // from gate to A2 (A) instead of A1 to A2. I have found that in this state the current will be lower,
       // if the Tristatepin (A1) is switched to GND.
       R_PORT = HiPinRL;
    1722:	f5 b8       	out	0x05, r15	; 5
       adc.hp4 = W5msReadADC(HighPin);  //read voltage with switched back base
    1724:	89 2d       	mov	r24, r9
    1726:	0e 94 b0 03 	call	0x760	; 0x760 <W5msReadADC>
    172a:	ac 01       	movw	r20, r24
       R_DDR = HiPinRL;			// base to input
    172c:	f4 b8       	out	0x04, r15	; 4
       adc.hp3 = W5msReadADC(HighPin);	//read voltage at High-Pin (probably Anode) again
    172e:	89 2d       	mov	r24, r9
    1730:	4a 8b       	std	Y+18, r20	; 0x12
    1732:	5b 8b       	std	Y+19, r21	; 0x13
    1734:	0e 94 b0 03 	call	0x760	; 0x760 <W5msReadADC>
    1738:	9c 01       	movw	r18, r24
					//current should still flow, if not,
					// no Thyristor or holding current to low 
		 	
       R_PORT = 0;			//switch R_L for High-Pin (probably Anode) to GND (turn off)
    173a:	15 b8       	out	0x05, r1	; 5
       wait_about5ms();
    173c:	81 e0       	ldi	r24, 0x01	; 1
    173e:	2c 8b       	std	Y+20, r18	; 0x14
    1740:	39 8b       	std	Y+17, r19	; 0x11
    1742:	0e 94 7e 03 	call	0x6fc	; 0x6fc <sleep_5ms>
       R_PORT = HiPinRL;		//switch R_L for High-Pin (probably Anode) again to VCC
    1746:	f5 b8       	out	0x05, r15	; 5
       adc.hp2 = W5msReadADC(HighPin);	//measure voltage at the High-Pin (probably Anode) again
    1748:	89 2d       	mov	r24, r9
    174a:	0e 94 b0 03 	call	0x760	; 0x760 <W5msReadADC>
       if((adc.hp3 < 1600) && (adc.hp2 > 4400)
    174e:	2c 89       	ldd	r18, Y+20	; 0x14
    1750:	39 89       	ldd	r19, Y+17	; 0x11
    1752:	4a 89       	ldd	r20, Y+18	; 0x12
    1754:	5b 89       	ldd	r21, Y+19	; 0x13
    1756:	20 34       	cpi	r18, 0x40	; 64
    1758:	36 40       	sbci	r19, 0x06	; 6
    175a:	08 f0       	brcs	.+2      	; 0x175e <CheckPins+0x694>
    175c:	59 c0       	rjmp	.+178    	; 0x1810 <CheckPins+0x746>
    175e:	81 33       	cpi	r24, 0x31	; 49
    1760:	91 41       	sbci	r25, 0x11	; 17
    1762:	08 f4       	brcc	.+2      	; 0x1766 <CheckPins+0x69c>
    1764:	55 c0       	rjmp	.+170    	; 0x1810 <CheckPins+0x746>
           // additional check the voltage hp4 at A with gate hold at GND level
           && ((adc.hp1+150) > adc.hp4)
    1766:	8b 85       	ldd	r24, Y+11	; 0x0b
    1768:	9c 85       	ldd	r25, Y+12	; 0x0c
    176a:	8a 56       	subi	r24, 0x6A	; 106
    176c:	9f 4f       	sbci	r25, 0xFF	; 255
    176e:	48 17       	cp	r20, r24
    1770:	59 07       	cpc	r21, r25
    1772:	08 f0       	brcs	.+2      	; 0x1776 <CheckPins+0x6ac>
    1774:	4d c0       	rjmp	.+154    	; 0x1810 <CheckPins+0x746>
                                              ) {
          //if the holding current was switched off the thyristor must be switched off too. 
          //if Thyristor was still swiched on, if gate was switched off => Thyristor
          PartFound = PART_THYRISTOR;
    1776:	85 e0       	ldi	r24, 0x05	; 5
    1778:	80 93 18 01 	sts	0x0118, r24
     lcd_data('Y');
     lcd_testpin(HighPin);
     lcd_space();
#endif
 
          ntrans.count++;		// mark as two N-type transistors
    177c:	80 91 53 01 	lds	r24, 0x0153
    1780:	8f 5f       	subi	r24, 0xFF	; 255
    1782:	80 93 53 01 	sts	0x0153, r24
#ifdef WITH_THYRISTOR_GATE_V
          ntrans.uBE = adc.tp2 - adc.lp2;	// Gate - Cathode Voltage 
    1786:	89 81       	ldd	r24, Y+1	; 0x01
    1788:	9a 81       	ldd	r25, Y+2	; 0x02
    178a:	8c 19       	sub	r24, r12
    178c:	9d 09       	sbc	r25, r13
    178e:	90 93 49 01 	sts	0x0149, r25
    1792:	80 93 48 01 	sts	0x0148, r24
          ntrans.gthvoltage = adc.hp1 - adc.lp2;	// Anode-Cathode Voltage
    1796:	2b 84       	ldd	r2, Y+11	; 0x0b
    1798:	3c 84       	ldd	r3, Y+12	; 0x0c
    179a:	2c 18       	sub	r2, r12
    179c:	3d 08       	sbc	r3, r13
    179e:	30 92 4f 01 	sts	0x014F, r3
    17a2:	20 92 4e 01 	sts	0x014E, r2
#endif
          //Test if Triac
          R_DDR = 0;
    17a6:	14 b8       	out	0x04, r1	; 4
          R_PORT = 0;
    17a8:	15 b8       	out	0x05, r1	; 5
          ADC_PORT = LoADCp;	//Low-Pin fix to VCC
    17aa:	e8 b8       	out	0x08, r14	; 8
          wait_about5ms();
    17ac:	81 e0       	ldi	r24, 0x01	; 1
    17ae:	0e 94 7e 03 	call	0x6fc	; 0x6fc <sleep_5ms>
          R_DDR = HiPinRL;		//switch R_L port HighPin to output (GND)
    17b2:	f4 b8       	out	0x04, r15	; 4
          if(W5msReadADC(HighPin) > 244) {
    17b4:	89 2d       	mov	r24, r9
    17b6:	0e 94 b0 03 	call	0x760	; 0x760 <W5msReadADC>
    17ba:	85 3f       	cpi	r24, 0xF5	; 245
    17bc:	91 05       	cpc	r25, r1
    17be:	08 f0       	brcs	.+2      	; 0x17c2 <CheckPins+0x6f8>
    17c0:	2d c2       	rjmp	.+1114   	; 0x1c1c <CheckPins+0xb52>
     lcd_space();
#endif
             goto saveNresult;		//measure voltage at the  High-Pin (probably A2); if too high:
                                	//component has current => kein Triac
          }
          R_DDR = HiPinRL | TriPinRL;	//switch R_L port for TristatePin (Gate) to output (GND) => Triac should be triggered 
    17c2:	04 b9       	out	0x04, r16	; 4
          if(W5msReadADC(TristatePin) < 977) {
    17c4:	84 2d       	mov	r24, r4
    17c6:	0e 94 b0 03 	call	0x760	; 0x760 <W5msReadADC>
    17ca:	81 3d       	cpi	r24, 0xD1	; 209
    17cc:	93 40       	sbci	r25, 0x03	; 3
    17ce:	08 f4       	brcc	.+2      	; 0x17d2 <CheckPins+0x708>
    17d0:	25 c2       	rjmp	.+1098   	; 0x1c1c <CheckPins+0xb52>
     lcd_space();
#endif
             goto saveNresult; 		//measure voltage at the Tristate-Pin (probably Gate) ;
                              		// if to low, abort 
          }
          if(ReadADC(HighPin) < 733) {
    17d2:	89 2d       	mov	r24, r9
    17d4:	0e 94 b4 03 	call	0x768	; 0x768 <ReadADC>
    17d8:	8d 3d       	cpi	r24, 0xDD	; 221
    17da:	92 40       	sbci	r25, 0x02	; 2
    17dc:	08 f4       	brcc	.+2      	; 0x17e0 <CheckPins+0x716>
    17de:	1e c2       	rjmp	.+1084   	; 0x1c1c <CheckPins+0xb52>
     lcd_data('7');
     lcd_space();
#endif
             goto saveNresult; 		//component has no current => no Triac => abort
          }
          R_DDR = HiPinRL;		//TristatePin (Gate) to input 
    17e0:	f4 b8       	out	0x04, r15	; 4
          if(W5msReadADC(HighPin) < 733) {
    17e2:	89 2d       	mov	r24, r9
    17e4:	0e 94 b0 03 	call	0x760	; 0x760 <W5msReadADC>
    17e8:	8d 3d       	cpi	r24, 0xDD	; 221
    17ea:	92 40       	sbci	r25, 0x02	; 2
    17ec:	08 f4       	brcc	.+2      	; 0x17f0 <CheckPins+0x726>
    17ee:	16 c2       	rjmp	.+1068   	; 0x1c1c <CheckPins+0xb52>
     lcd_data('3');
     lcd_space();
#endif
             goto saveNresult; 		//component has no current without base current => no Triac => abort
          }
          R_PORT = HiPinRL;		//switch R_L port for HighPin to VCC => switch off holding current 
    17f0:	f5 b8       	out	0x05, r15	; 5
          wait_about5ms();
    17f2:	81 e0       	ldi	r24, 0x01	; 1
    17f4:	0e 94 7e 03 	call	0x6fc	; 0x6fc <sleep_5ms>
          R_PORT = 0;			//switch R_L port for HighPin again to GND; Triac should now switched off
    17f8:	15 b8       	out	0x05, r1	; 5
          if(W5msReadADC(HighPin) > 244) {
    17fa:	89 2d       	mov	r24, r9
    17fc:	0e 94 b0 03 	call	0x760	; 0x760 <W5msReadADC>
    1800:	85 3f       	cpi	r24, 0xF5	; 245
    1802:	91 05       	cpc	r25, r1
    1804:	08 f0       	brcs	.+2      	; 0x1808 <CheckPins+0x73e>
    1806:	0a c2       	rjmp	.+1044   	; 0x1c1c <CheckPins+0xb52>
     lcd_space();
#endif
             goto saveNresult;		//measure voltage at the High-Pin (probably A2) ;
                                	//if to high, component is not switched off => no Triac, abort
          }
          PartFound = PART_TRIAC;
    1808:	86 e0       	ldi	r24, 0x06	; 6
    180a:	80 93 18 01 	sts	0x0118, r24
    180e:	06 c2       	rjmp	.+1036   	; 0x1c1c <CheckPins+0xb52>
          goto saveNresult;
        }
      //Test if NPN Transistor or MOSFET
      // ADC_DDR = LoADCm;	//Low-Pin to output 0V
      R_DDR = HiPinRL | TriPinRH;	//R_H port of Tristate-Pin (Basis) to output
    1810:	21 2f       	mov	r18, r17
    1812:	2f 29       	or	r18, r15
    1814:	24 b9       	out	0x04, r18	; 4
      R_PORT = HiPinRL | TriPinRH;	//R_H port of Tristate-Pin (Basis) to VCC
    1816:	25 b9       	out	0x05, r18	; 5
      adc.hp2 = W20msReadADC(HighPin);	//measure the voltage at the collector  
    1818:	89 2d       	mov	r24, r9
    181a:	2c 8b       	std	Y+20, r18	; 0x14
    181c:	0e 94 a8 03 	call	0x750	; 0x750 <W20msReadADC>
    1820:	6c 01       	movw	r12, r24
      adc.rhp = ADCconfig.U_AVCC - adc.hp2;	// voltage at the collector resistor
    1822:	00 91 2b 01 	lds	r16, 0x012B
    1826:	10 91 2c 01 	lds	r17, 0x012C
    182a:	08 1b       	sub	r16, r24
    182c:	19 0b       	sbc	r17, r25
      adc.tp2 = ReadADC(TristatePin);	//measure the voltage at the base 
    182e:	84 2d       	mov	r24, r4
    1830:	0e 94 b4 03 	call	0x768	; 0x768 <ReadADC>
    1834:	9c 87       	std	Y+12, r25	; 0x0c
    1836:	8b 87       	std	Y+11, r24	; 0x0b
      adc.rtp = ADCconfig.U_AVCC - adc.tp2;	// voltage at the base resistor
    1838:	40 91 2b 01 	lds	r20, 0x012B
    183c:	50 91 2c 01 	lds	r21, 0x012C
    1840:	48 1b       	sub	r20, r24
    1842:	59 0b       	sbc	r21, r25
    1844:	5a 83       	std	Y+2, r21	; 0x02
    1846:	49 83       	std	Y+1, r20	; 0x01
      adc.lp2 = ReadADC(LowPin);
    1848:	88 2d       	mov	r24, r8
    184a:	0e 94 b4 03 	call	0x768	; 0x768 <ReadADC>
    184e:	9e 87       	std	Y+14, r25	; 0x0e
    1850:	8d 87       	std	Y+13, r24	; 0x0d

//      if((PartFound == PART_TRANSISTOR) || (PartFound == PART_FET)) {
//         PartReady = 1;	//check, if test is already done once
//      }

      if(adc.rtp > 2557) {		// Basis-voltage R_H is low enough
    1852:	2c 89       	ldd	r18, Y+20	; 0x14
    1854:	69 81       	ldd	r22, Y+1	; 0x01
    1856:	7a 81       	ldd	r23, Y+2	; 0x02
    1858:	6e 3f       	cpi	r22, 0xFE	; 254
    185a:	79 40       	sbci	r23, 0x09	; 9
    185c:	08 f4       	brcc	.+2      	; 0x1860 <CheckPins+0x796>
    185e:	b0 c0       	rjmp	.+352    	; 0x19c0 <CheckPins+0x8f6>
         PartFound = PART_TRANSISTOR;	//NPN-Transistor is found (Base is near GND)
    1860:	83 e0       	ldi	r24, 0x03	; 3
    1862:	80 93 18 01 	sts	0x0118, r24
         PartMode = PART_MODE_NPN;
    1866:	8c e0       	ldi	r24, 0x0C	; 12
    1868:	80 93 17 01 	sts	0x0117, r24

         //compute current amplification factor for common Emitter
         //hFE = B = Collector current / Base current
         tmp16 = adc.rhp;
         if (tmp16 > adc.lp_otr) {
            tmp16 -= adc.lp_otr;
    186c:	38 01       	movw	r6, r16
 #ifdef COMMON_EMITTER

         //compute current amplification factor for common Emitter
         //hFE = B = Collector current / Base current
         tmp16 = adc.rhp;
         if (tmp16 > adc.lp_otr) {
    186e:	20 16       	cp	r2, r16
    1870:	31 06       	cpc	r3, r17
    1872:	10 f4       	brcc	.+4      	; 0x1878 <CheckPins+0x7ae>
            tmp16 -= adc.lp_otr;
    1874:	62 18       	sub	r6, r2
    1876:	73 08       	sbc	r7, r3
         }

  #ifdef LONG_HFE
         e_hfe = ((unsigned int)tmp16 * (unsigned long)(((unsigned long)R_H_VAL * 100) / 
    1878:	80 91 19 01 	lds	r24, 0x0119
    187c:	90 91 1a 01 	lds	r25, 0x011A
    1880:	6c 01       	movw	r12, r24
    1882:	e1 2c       	mov	r14, r1
    1884:	f1 2c       	mov	r15, r1
    1886:	60 e6       	ldi	r22, 0x60	; 96
    1888:	77 eb       	ldi	r23, 0xB7	; 183
    188a:	87 e4       	ldi	r24, 0x47	; 71
    188c:	90 e0       	ldi	r25, 0x00	; 0
    188e:	a7 01       	movw	r20, r14
    1890:	96 01       	movw	r18, r12
    1892:	0e 94 32 1f 	call	0x3e64	; 0x3e64 <__udivmodsi4>
    1896:	d3 01       	movw	r26, r6
    1898:	0e 94 03 1f 	call	0x3e06	; 0x3e06 <__muluhisi3>
              (unsigned int)RR680PL)) / (unsigned int)adc.rtp;	
    189c:	a9 81       	ldd	r26, Y+1	; 0x01
    189e:	ba 81       	ldd	r27, Y+2	; 0x02
    18a0:	9d 01       	movw	r18, r26
    18a2:	40 e0       	ldi	r20, 0x00	; 0
    18a4:	50 e0       	ldi	r21, 0x00	; 0
         if (tmp16 > adc.lp_otr) {
            tmp16 -= adc.lp_otr;
         }

  #ifdef LONG_HFE
         e_hfe = ((unsigned int)tmp16 * (unsigned long)(((unsigned long)R_H_VAL * 100) / 
    18a6:	0e 94 32 1f 	call	0x3e64	; 0x3e64 <__udivmodsi4>
              (unsigned int)RR680PL)) / (unsigned int)adc.rtp;	
  #else
         e_hfe = ((tmp16 / ((RR680PL+500)/1000)) * (R_H_VAL/500)) / (adc.rtp/500);
  #endif
         if ((ntrans.count == 0) || (e_hfe > ntrans.hfe)){
    18aa:	80 91 53 01 	lds	r24, 0x0153
    18ae:	88 23       	and	r24, r24
    18b0:	69 f0       	breq	.+26     	; 0x18cc <CheckPins+0x802>
    18b2:	80 91 44 01 	lds	r24, 0x0144
    18b6:	90 91 45 01 	lds	r25, 0x0145
    18ba:	a0 91 46 01 	lds	r26, 0x0146
    18be:	b0 91 47 01 	lds	r27, 0x0147
    18c2:	82 17       	cp	r24, r18
    18c4:	93 07       	cpc	r25, r19
    18c6:	a4 07       	cpc	r26, r20
    18c8:	b5 07       	cpc	r27, r21
    18ca:	08 f5       	brcc	.+66     	; 0x190e <CheckPins+0x844>
            ntrans.hfe = e_hfe;
    18cc:	20 93 44 01 	sts	0x0144, r18
    18d0:	30 93 45 01 	sts	0x0145, r19
    18d4:	40 93 46 01 	sts	0x0146, r20
    18d8:	50 93 47 01 	sts	0x0147, r21
            ntrans.uBE = adc.tp2 - adc.lp2;
    18dc:	8b 85       	ldd	r24, Y+11	; 0x0b
    18de:	9c 85       	ldd	r25, Y+12	; 0x0c
    18e0:	ed 85       	ldd	r30, Y+13	; 0x0d
    18e2:	fe 85       	ldd	r31, Y+14	; 0x0e
    18e4:	8e 1b       	sub	r24, r30
    18e6:	9f 0b       	sbc	r25, r31
    18e8:	90 93 49 01 	sts	0x0149, r25
    18ec:	80 93 48 01 	sts	0x0148, r24
  #if FLASHEND > 0x1fff  /* at least ATmega16 */
            ntrans.current = (unsigned int)(((unsigned long)adc.rhp * 10000) / RR680PL); // Ic 1uA
    18f0:	98 01       	movw	r18, r16
    18f2:	a0 e1       	ldi	r26, 0x10	; 16
    18f4:	b7 e2       	ldi	r27, 0x27	; 39
    18f6:	0e 94 ed 1e 	call	0x3dda	; 0x3dda <__umulhisi3>
    18fa:	a7 01       	movw	r20, r14
    18fc:	96 01       	movw	r18, r12
    18fe:	0e 94 32 1f 	call	0x3e64	; 0x3e64 <__udivmodsi4>
    1902:	30 93 4b 01 	sts	0x014B, r19
    1906:	20 93 4a 01 	sts	0x014A, r18
  #endif
            update_pins = 1;
    190a:	21 e0       	ldi	r18, 0x01	; 1
    190c:	01 c0       	rjmp	.+2      	; 0x1910 <CheckPins+0x846>
//      }

      if(adc.rtp > 2557) {		// Basis-voltage R_H is low enough
         PartFound = PART_TRANSISTOR;	//NPN-Transistor is found (Base is near GND)
         PartMode = PART_MODE_NPN;
         update_pins = 0;		// only update pins, if better hFE
    190e:	20 e0       	ldi	r18, 0x00	; 0
 #endif
#ifdef COMMON_COLLECTOR
          //compare current amplification factor for common Collector (Emitter follower)
          // hFE = (Emitterstrom - Basisstrom) / Basisstrom
 #ifdef COMMON_EMITTER
          if (c_hfe >  ntrans.hfe)
    1910:	80 91 44 01 	lds	r24, 0x0144
    1914:	90 91 45 01 	lds	r25, 0x0145
    1918:	a0 91 46 01 	lds	r26, 0x0146
    191c:	b0 91 47 01 	lds	r27, 0x0147
    1920:	4f 81       	ldd	r20, Y+7	; 0x07
    1922:	58 85       	ldd	r21, Y+8	; 0x08
    1924:	69 85       	ldd	r22, Y+9	; 0x09
    1926:	7a 85       	ldd	r23, Y+10	; 0x0a
    1928:	84 17       	cp	r24, r20
    192a:	95 07       	cpc	r25, r21
    192c:	a6 07       	cpc	r26, r22
    192e:	b7 07       	cpc	r27, r23
    1930:	20 f5       	brcc	.+72     	; 0x197a <CheckPins+0x8b0>
 #else
          if ((ntrans.count == 0) || (c_hfe >  ntrans.hfe))
 #endif
          {
            ntrans.hfe = c_hfe;
    1932:	40 93 44 01 	sts	0x0144, r20
    1936:	50 93 45 01 	sts	0x0145, r21
    193a:	60 93 46 01 	sts	0x0146, r22
    193e:	70 93 47 01 	sts	0x0147, r23
            ntrans.uBE = adc.tp1 - adc.lp1;
    1942:	8b 81       	ldd	r24, Y+3	; 0x03
    1944:	9c 81       	ldd	r25, Y+4	; 0x04
    1946:	8a 19       	sub	r24, r10
    1948:	9b 09       	sbc	r25, r11
    194a:	90 93 49 01 	sts	0x0149, r25
    194e:	80 93 48 01 	sts	0x0148, r24
 #if FLASHEND > 0x1fff  /* at least ATmega16 */
            ntrans.current = (unsigned int)(((unsigned long)adc.lp1 * 10000) / RR680MI); // Ie 1uA
    1952:	95 01       	movw	r18, r10
    1954:	a0 e1       	ldi	r26, 0x10	; 16
    1956:	b7 e2       	ldi	r27, 0x27	; 39
    1958:	0e 94 ed 1e 	call	0x3dda	; 0x3dda <__umulhisi3>
    195c:	20 91 12 01 	lds	r18, 0x0112
    1960:	30 91 13 01 	lds	r19, 0x0113
    1964:	40 e0       	ldi	r20, 0x00	; 0
    1966:	50 e0       	ldi	r21, 0x00	; 0
    1968:	0e 94 32 1f 	call	0x3e64	; 0x3e64 <__udivmodsi4>
            ntrans.current += 10000;	// mark current at emitter!
    196c:	20 5f       	subi	r18, 0xF0	; 240
    196e:	38 4d       	sbci	r19, 0xD8	; 216
    1970:	30 93 4b 01 	sts	0x014B, r19
    1974:	20 93 4a 01 	sts	0x014A, r18
    1978:	03 c0       	rjmp	.+6      	; 0x1980 <CheckPins+0x8b6>
#endif
#if DebugOut == 5
         lcd_data('B');
#endif
#ifdef SHOW_ICE
         if (update_pins != 0) {
    197a:	22 23       	and	r18, r18
    197c:	09 f4       	brne	.+2      	; 0x1980 <CheckPins+0x8b6>
    197e:	4f c1       	rjmp	.+670    	; 0x1c1e <CheckPins+0xb54>
	    // update residual collector (emitter) current without base current
            ntrans.ice0 = (unsigned int)(((unsigned long)adc.lp_otr * 10000) / RR680MI); // ICE0 0.01mA
    1980:	91 01       	movw	r18, r2
    1982:	a0 e1       	ldi	r26, 0x10	; 16
    1984:	b7 e2       	ldi	r27, 0x27	; 39
    1986:	0e 94 ed 1e 	call	0x3dda	; 0x3dda <__umulhisi3>
    198a:	20 91 12 01 	lds	r18, 0x0112
    198e:	30 91 13 01 	lds	r19, 0x0113
    1992:	40 e0       	ldi	r20, 0x00	; 0
    1994:	50 e0       	ldi	r21, 0x00	; 0
    1996:	0e 94 32 1f 	call	0x3e64	; 0x3e64 <__udivmodsi4>
    199a:	30 93 4d 01 	sts	0x014D, r19
    199e:	20 93 4c 01 	sts	0x014C, r18
            ntrans.ices = (unsigned int)(((unsigned long)adc.vCEs * 10000) / RR680PL); // ICEs 0.01mA
    19a2:	2d 81       	ldd	r18, Y+5	; 0x05
    19a4:	3e 81       	ldd	r19, Y+6	; 0x06
    19a6:	a0 e1       	ldi	r26, 0x10	; 16
    19a8:	b7 e2       	ldi	r27, 0x27	; 39
    19aa:	0e 94 ed 1e 	call	0x3dda	; 0x3dda <__umulhisi3>
    19ae:	a7 01       	movw	r20, r14
    19b0:	96 01       	movw	r18, r12
    19b2:	0e 94 32 1f 	call	0x3e64	; 0x3e64 <__udivmodsi4>
    19b6:	30 93 4f 01 	sts	0x014F, r19
    19ba:	20 93 4e 01 	sts	0x014E, r18
    19be:	2e c1       	rjmp	.+604    	; 0x1c1c <CheckPins+0xb52>
         }
#endif
         goto saveNresult;		// count the found N-Type and exit
      } 
      // Base has low current
      if((adc.lp_otr < 97) && (adc.rhp > 3400)) {
    19c0:	51 e6       	ldi	r21, 0x61	; 97
    19c2:	25 16       	cp	r2, r21
    19c4:	31 04       	cpc	r3, r1
    19c6:	08 f0       	brcs	.+2      	; 0x19ca <CheckPins+0x900>
    19c8:	50 c0       	rjmp	.+160    	; 0x1a6a <CheckPins+0x9a0>
    19ca:	09 34       	cpi	r16, 0x49	; 73
    19cc:	6d e0       	ldi	r22, 0x0D	; 13
    19ce:	16 07       	cpc	r17, r22
    19d0:	08 f4       	brcc	.+2      	; 0x19d4 <CheckPins+0x90a>
    19d2:	4b c0       	rjmp	.+150    	; 0x1a6a <CheckPins+0x9a0>
         //if flow voltage in switched off mode low enough?
         //(since D-Mode-FET will be detected in error as E-Mode )
         PartFound = PART_FET;	//N-Kanal-MOSFET is found (Basis/Gate will Not be pulled down)
    19d4:	84 e0       	ldi	r24, 0x04	; 4
    19d6:	80 93 18 01 	sts	0x0118, r24
         PartMode = PART_MODE_MOS|N_CHANNEL|E_MODE;
    19da:	82 e0       	ldi	r24, 0x02	; 2
    19dc:	80 93 17 01 	sts	0x0117, r24
         if (adc.hp2 > (250+adc.lp2)) {
    19e0:	8d 85       	ldd	r24, Y+13	; 0x0d
    19e2:	9e 85       	ldd	r25, Y+14	; 0x0e
    19e4:	86 50       	subi	r24, 0x06	; 6
    19e6:	9f 4f       	sbci	r25, 0xFF	; 255
    19e8:	8c 15       	cp	r24, r12
    19ea:	9d 05       	cpc	r25, r13
    19ec:	18 f4       	brcc	.+6      	; 0x19f4 <CheckPins+0x92a>
            // Drain-Source Voltage is too high for N_E_MOS
            PartMode = PART_MODE_IGBT|N_CHANNEL|E_MODE;
    19ee:	83 e0       	ldi	r24, 0x03	; 3
    19f0:	80 93 17 01 	sts	0x0117, r24
         lcd_data('F');
#endif
         //Switching of Drain is monitored with digital input
         // Low level is specified up to 0.3 * VCC
         // High level is specified above 0.6 * VCC
         PinMSK = HiADCm & 7;
    19f4:	07 2d       	mov	r16, r7
    19f6:	07 70       	andi	r16, 0x07	; 7
         // measure Threshold voltage of Gate
         ADMUX = TristatePin | (1<<REFS0);	// measure TristatePin, Ref. VCC
    19f8:	84 2d       	mov	r24, r4
    19fa:	80 64       	ori	r24, 0x40	; 64
    19fc:	80 93 7c 00 	sts	0x007C, r24
    1a00:	1b e0       	ldi	r17, 0x0B	; 11
         tmp16 = 1;			// round up ((1*4)/9)
    1a02:	cc 24       	eor	r12, r12
    1a04:	c3 94       	inc	r12
    1a06:	d1 2c       	mov	r13, r1
         for(ii=0;ii<11;ii++) {
            wdt_reset();
    1a08:	a8 95       	wdr
            ChargePin10ms(TriPinRL,0);	// discharge Gate 10ms with RL 
    1a0a:	60 e0       	ldi	r22, 0x00	; 0
    1a0c:	86 2d       	mov	r24, r6
    1a0e:	2c 8b       	std	Y+20, r18	; 0x14
    1a10:	0e 94 05 10 	call	0x200a	; 0x200a <ChargePin10ms>
            R_DDR = HiPinRL | TriPinRH;	// slowly charge Gate 
    1a14:	2c 89       	ldd	r18, Y+20	; 0x14
    1a16:	24 b9       	out	0x04, r18	; 4
            R_PORT = HiPinRL | TriPinRH;
    1a18:	25 b9       	out	0x05, r18	; 5
            while ((ADC_PIN&PinMSK));	// Wait, until the MOSFET switch and Drain moved to low 
    1a1a:	86 b1       	in	r24, 0x06	; 6
    1a1c:	80 23       	and	r24, r16
    1a1e:	e9 f7       	brne	.-6      	; 0x1a1a <CheckPins+0x950>
             		// 0 is detected with input voltage of 2.12V to 2.24V (tested with mega168 & mega328)
            R_DDR = HiPinRL;		// switch off current
    1a20:	f4 b8       	out	0x04, r15	; 4
            ADCSRA |= (1<<ADSC);		// start ADC conversion
    1a22:	80 91 7a 00 	lds	r24, 0x007A
    1a26:	80 64       	ori	r24, 0x40	; 64
    1a28:	80 93 7a 00 	sts	0x007A, r24
            while (ADCSRA&(1<<ADSC));	// wait until ADC finished
    1a2c:	80 91 7a 00 	lds	r24, 0x007A
    1a30:	86 fd       	sbrc	r24, 6
    1a32:	fc cf       	rjmp	.-8      	; 0x1a2c <CheckPins+0x962>
            tmp16 += ADCW;		// add result of ADC
    1a34:	80 91 78 00 	lds	r24, 0x0078
    1a38:	90 91 79 00 	lds	r25, 0x0079
    1a3c:	c8 0e       	add	r12, r24
    1a3e:	d9 1e       	adc	r13, r25
    1a40:	11 50       	subi	r17, 0x01	; 1
         // High level is specified above 0.6 * VCC
         PinMSK = HiADCm & 7;
         // measure Threshold voltage of Gate
         ADMUX = TristatePin | (1<<REFS0);	// measure TristatePin, Ref. VCC
         tmp16 = 1;			// round up ((1*4)/9)
         for(ii=0;ii<11;ii++) {
    1a42:	11 f7       	brne	.-60     	; 0x1a08 <CheckPins+0x93e>
            R_DDR = HiPinRL;		// switch off current
            ADCSRA |= (1<<ADSC);		// start ADC conversion
            while (ADCSRA&(1<<ADSC));	// wait until ADC finished
            tmp16 += ADCW;		// add result of ADC
         }
         tmp16 *= 4;	//is equal to 44 * ADCW
    1a44:	c6 01       	movw	r24, r12
    1a46:	88 0f       	add	r24, r24
    1a48:	99 1f       	adc	r25, r25
    1a4a:	88 0f       	add	r24, r24
    1a4c:	99 1f       	adc	r25, r25
         ntrans.gthvoltage = tmp16/ 9;	//scale to mV
    1a4e:	69 e0       	ldi	r22, 0x09	; 9
    1a50:	70 e0       	ldi	r23, 0x00	; 0
    1a52:	0e 94 1e 1f 	call	0x3e3c	; 0x3e3c <__udivmodhi4>
    1a56:	70 93 4f 01 	sts	0x014F, r23
    1a5a:	60 93 4e 01 	sts	0x014E, r22
         ntrans.count++;		// count FET as two to accelerate  searching
    1a5e:	80 91 53 01 	lds	r24, 0x0153
    1a62:	8f 5f       	subi	r24, 0xFF	; 255
    1a64:	80 93 53 01 	sts	0x0153, r24
    1a68:	d9 c0       	rjmp	.+434    	; 0x1c1c <CheckPins+0xb52>
         goto saveNresult;
      }
   } // end component conduct => npn
   ADC_DDR = TXD_MSK;		// switch all ADC-Ports to input
    1a6a:	17 b8       	out	0x07, r1	; 7
   ADC_PORT = TXD_VAL;		// switch all ADC-Ports to 0 (no Pull up)
    1a6c:	18 b8       	out	0x08, r1	; 8
  }
//##########################################################################################
// Search for diodes
//##########################################################################################
checkDiode:
  R_DDR = 0;			//switch off resistor current
    1a6e:	14 b8       	out	0x04, r1	; 4
  R_PORT = 0;
    1a70:	15 b8       	out	0x05, r1	; 5
  ADC_DDR = TXD_MSK;		// switch ADC ports to input
    1a72:	17 b8       	out	0x07, r1	; 7
//  if (adc.lp_otr < 977) 
  if (adc.lp_otr < 455) {
    1a74:	77 ec       	ldi	r23, 0xC7	; 199
    1a76:	27 16       	cp	r2, r23
    1a78:	71 e0       	ldi	r23, 0x01	; 1
    1a7a:	37 06       	cpc	r3, r23
    1a7c:	08 f4       	brcc	.+2      	; 0x1a80 <CheckPins+0x9b6>
    1a7e:	b4 c0       	rjmp	.+360    	; 0x1be8 <CheckPins+0xb1e>
#endif
     goto widmes;
  }
  // component has current
  //Test if Diode
  ADC_PORT = TXD_VAL;
    1a80:	18 b8       	out	0x08, r1	; 8
    1a82:	18 ec       	ldi	r17, 0xC8	; 200
  for (ii=0;ii<200;ii++) {
     ADC_DDR = LoADCm | HiADCm; // discharge by short of Low and High side
    1a84:	07 2d       	mov	r16, r7
    1a86:	0e 29       	or	r16, r14
    1a88:	07 b9       	out	0x07, r16	; 7
     wait_about5ms();		// Low and Highpin to GND for discharge
    1a8a:	81 e0       	ldi	r24, 0x01	; 1
    1a8c:	0e 94 7e 03 	call	0x6fc	; 0x6fc <sleep_5ms>
     ADC_DDR = LoADCm;		// switch only Low-Pin fix to GND
    1a90:	e7 b8       	out	0x07, r14	; 7
     adc.hp1 = ReadADC(HighPin); // read voltage at High-Pin
    1a92:	89 2d       	mov	r24, r9
    1a94:	0e 94 b4 03 	call	0x768	; 0x768 <ReadADC>
     if (adc.hp1 < (150/8)) break;
    1a98:	42 97       	sbiw	r24, 0x12	; 18
    1a9a:	10 f0       	brcs	.+4      	; 0x1aa0 <CheckPins+0x9d6>
    1a9c:	11 50       	subi	r17, 0x01	; 1
     goto widmes;
  }
  // component has current
  //Test if Diode
  ADC_PORT = TXD_VAL;
  for (ii=0;ii<200;ii++) {
    1a9e:	a1 f7       	brne	.-24     	; 0x1a88 <CheckPins+0x9be>
#if FLASHEND > 0x1fff
 #if (((PIN_RL1 + 1) != PIN_RH1) || ((PIN_RL2 + 1) != PIN_RH2) || ((PIN_RL3 + 1) != PIN_RH3))
  addr += 3;			// address of PinRHtab[LowPin]
  LoPinRH = pgm_read_byte(addr);		// instruction for LowPin R_H
 #else
  LoPinRH = LoPinRL + LoPinRL;				// instruction for LowPin R_H
    1aa0:	45 2c       	mov	r4, r5
    1aa2:	44 0c       	add	r4, r4
  HiPinRL = pgm_read_byte(addr);		// instruction for HighPin R_L
#if (((PIN_RL1 + 1) != PIN_RH1) || ((PIN_RL2 + 1) != PIN_RH2) || ((PIN_RL3 + 1) != PIN_RH3))
  addr += 3;			// address of PinRHtab[HighPin]
  HiPinRH = pgm_read_byte(addr);		// instruction for HighPin R_H
#else
  HiPinRH = HiPinRL + HiPinRL;				// instruction for HighPin R_H
    1aa4:	3f 2c       	mov	r3, r15
    1aa6:	33 0c       	add	r3, r3
 #if FLASHEND > 0x1fff
  /* It is difficult to detect the protection diode of D-mode MOSFET . */
  /* We have to generate a negative gate voltage to isolate the diode. */
  /* For P-mode the resistors must reside on the VCC side. */
  /* For N-mode the resistors must be moved to the GND side. */
  R_DDR = HiPinRH;		//switch R_H port for High-Pin output (VCC)
    1aa8:	34 b8       	out	0x04, r3	; 4
  R_PORT = HiPinRH;
    1aaa:	35 b8       	out	0x05, r3	; 5
  ChargePin10ms(TriPinRL,1);	//discharge of P-Kanal-MOSFET gate
    1aac:	61 e0       	ldi	r22, 0x01	; 1
    1aae:	86 2d       	mov	r24, r6
    1ab0:	0e 94 05 10 	call	0x200a	; 0x200a <ChargePin10ms>
  adc.hp2 = W5msReadADC(HighPin); 		// GND--|<--HP--R_H--VCC
    1ab4:	89 2d       	mov	r24, r9
    1ab6:	0e 94 b0 03 	call	0x760	; 0x760 <W5msReadADC>
    1aba:	8c 01       	movw	r16, r24
  // now the resistor is moved to the Low side
  R_DDR = LoPinRH;
    1abc:	44 b8       	out	0x04, r4	; 4
  R_PORT = 0;
    1abe:	15 b8       	out	0x05, r1	; 5
  ADC_DDR = HiADCm;		// switch High-Pin fix to VCC
    1ac0:	77 b8       	out	0x07, r7	; 7
  ADC_PORT = HiADCp;
    1ac2:	78 b8       	out	0x08, r7	; 8
  ChargePin10ms(TriPinRL,0);	//discharge for N-Kanal-MOSFET gate
    1ac4:	60 e0       	ldi	r22, 0x00	; 0
    1ac6:	86 2d       	mov	r24, r6
    1ac8:	0e 94 05 10 	call	0x200a	; 0x200a <ChargePin10ms>
  adc.hp3 = ADCconfig.U_AVCC - W5msReadADC(LowPin); // GND--R_H--LP--|<--VCC
    1acc:	a0 90 2b 01 	lds	r10, 0x012B
    1ad0:	b0 90 2c 01 	lds	r11, 0x012C
    1ad4:	88 2d       	mov	r24, r8
    1ad6:	0e 94 b0 03 	call	0x760	; 0x760 <W5msReadADC>
    1ada:	6c 01       	movw	r12, r24
  /* check with higher current (R_L=680) */
  R_DDR = LoPinRL;
    1adc:	54 b8       	out	0x04, r5	; 4
  adc.hp1 = W5msReadADC(HighPin) - ReadADC(LowPin); // GND--R_L--LP--|<--VCC
    1ade:	89 2d       	mov	r24, r9
    1ae0:	0e 94 b0 03 	call	0x760	; 0x760 <W5msReadADC>
    1ae4:	9a 83       	std	Y+2, r25	; 0x02
    1ae6:	89 83       	std	Y+1, r24	; 0x01
    1ae8:	88 2d       	mov	r24, r8
    1aea:	0e 94 b4 03 	call	0x768	; 0x768 <ReadADC>
    1aee:	29 81       	ldd	r18, Y+1	; 0x01
    1af0:	3a 81       	ldd	r19, Y+2	; 0x02
    1af2:	28 1b       	sub	r18, r24
    1af4:	39 0b       	sbc	r19, r25
    1af6:	3a 83       	std	Y+2, r19	; 0x02
    1af8:	29 83       	std	Y+1, r18	; 0x01
  //  the resistor is moved back to the High side
  ADC_PORT = TXD_VAL;
    1afa:	18 b8       	out	0x08, r1	; 8
  ADC_DDR = LoADCm;		// switch only Low-Pin fix to GND
    1afc:	e7 b8       	out	0x07, r14	; 7
  R_DDR = HiPinRL;		//switch R_L port for High-Pin output (VCC)
    1afe:	f4 b8       	out	0x04, r15	; 4
  R_PORT = HiPinRL;
    1b00:	f5 b8       	out	0x05, r15	; 5
  ChargePin10ms(TriPinRL,1);	//discharge for P-Kanal-MOSFET gate
    1b02:	61 e0       	ldi	r22, 0x01	; 1
    1b04:	86 2d       	mov	r24, r6
    1b06:	0e 94 05 10 	call	0x200a	; 0x200a <ChargePin10ms>
  adc.lp_otr = W5msReadADC(HighPin) - ReadADC(LowPin); // GND--|<--HP--R_L--VCC
    1b0a:	89 2d       	mov	r24, r9
    1b0c:	0e 94 b0 03 	call	0x760	; 0x760 <W5msReadADC>
    1b10:	7c 01       	movw	r14, r24
    1b12:	88 2d       	mov	r24, r8
    1b14:	0e 94 b4 03 	call	0x768	; 0x768 <ReadADC>
    1b18:	e8 1a       	sub	r14, r24
    1b1a:	f9 0a       	sbc	r15, r25
  if(adc.lp_otr > adc.hp1) {
    1b1c:	49 81       	ldd	r20, Y+1	; 0x01
    1b1e:	5a 81       	ldd	r21, Y+2	; 0x02
    1b20:	4e 15       	cp	r20, r14
    1b22:	5f 05       	cpc	r21, r15
    1b24:	40 f4       	brcc	.+16     	; 0x1b36 <CheckPins+0xa6c>
      adc.hp1 = adc.lp_otr;	//the higher value wins
      adc.hp3 = adc.hp2;
      R_DDR = HiPinRH;		//switch R_H port for High-Pin output (VCC)
    1b26:	34 b8       	out	0x04, r3	; 4
      R_PORT = HiPinRH;
    1b28:	35 b8       	out	0x05, r3	; 5
      adc.hp2 = W5msReadADC(HighPin); 		// GND--|<--HP--R_H--VCC
    1b2a:	89 2d       	mov	r24, r9
    1b2c:	0e 94 b0 03 	call	0x760	; 0x760 <W5msReadADC>
    1b30:	fa 82       	std	Y+2, r15	; 0x02
    1b32:	e9 82       	std	Y+1, r14	; 0x01
    1b34:	16 c0       	rjmp	.+44     	; 0x1b62 <CheckPins+0xa98>
  R_DDR = LoPinRH;
  R_PORT = 0;
  ADC_DDR = HiADCm;		// switch High-Pin fix to VCC
  ADC_PORT = HiADCp;
  ChargePin10ms(TriPinRL,0);	//discharge for N-Kanal-MOSFET gate
  adc.hp3 = ADCconfig.U_AVCC - W5msReadADC(LowPin); // GND--R_H--LP--|<--VCC
    1b36:	85 01       	movw	r16, r10
    1b38:	0c 19       	sub	r16, r12
    1b3a:	1d 09       	sbc	r17, r13
      adc.hp3 = adc.hp2;
      R_DDR = HiPinRH;		//switch R_H port for High-Pin output (VCC)
      R_PORT = HiPinRH;
      adc.hp2 = W5msReadADC(HighPin); 		// GND--|<--HP--R_H--VCC
  } else {
      R_DDR = LoPinRH;
    1b3c:	44 b8       	out	0x04, r4	; 4
      R_PORT = 0;
    1b3e:	15 b8       	out	0x05, r1	; 5
      ADC_DDR = HiADCm;		// switch High-Pin fix to VCC
    1b40:	77 b8       	out	0x07, r7	; 7
      ADC_PORT = HiADCp;
    1b42:	78 b8       	out	0x08, r7	; 8
      ChargePin10ms(TriPinRL,0);	//discharge for N-Kanal-MOSFET gate
    1b44:	60 e0       	ldi	r22, 0x00	; 0
    1b46:	86 2d       	mov	r24, r6
    1b48:	0e 94 05 10 	call	0x200a	; 0x200a <ChargePin10ms>
      adc.hp2 = ADCconfig.U_AVCC - W5msReadADC(LowPin); // GND--R_H--LP--|<--VCC
    1b4c:	e0 90 2b 01 	lds	r14, 0x012B
    1b50:	f0 90 2c 01 	lds	r15, 0x012C
    1b54:	88 2d       	mov	r24, r8
    1b56:	0e 94 b0 03 	call	0x760	; 0x760 <W5msReadADC>
    1b5a:	b7 01       	movw	r22, r14
    1b5c:	68 1b       	sub	r22, r24
    1b5e:	79 0b       	sbc	r23, r25
    1b60:	cb 01       	movw	r24, r22
  DisplayValue(adc.hp2,-3,' ',2);
#endif
  volt_dif = adc.hp3/8;
  if (volt_dif > 200) volt_dif = 200;

  if((adc.hp1 > 150) && (adc.hp1 < 4640) && (adc.hp2 < adc.hp1) && (adc.hp1 > (adc.hp3+volt_dif)) && (adc.hp3 > adc.hp1/16)) {
    1b62:	29 81       	ldd	r18, Y+1	; 0x01
    1b64:	3a 81       	ldd	r19, Y+2	; 0x02
    1b66:	27 59       	subi	r18, 0x97	; 151
    1b68:	31 09       	sbc	r19, r1
    1b6a:	29 38       	cpi	r18, 0x89	; 137
    1b6c:	31 41       	sbci	r19, 0x11	; 17
    1b6e:	e0 f5       	brcc	.+120    	; 0x1be8 <CheckPins+0xb1e>
    1b70:	29 81       	ldd	r18, Y+1	; 0x01
    1b72:	3a 81       	ldd	r19, Y+2	; 0x02
    1b74:	82 17       	cp	r24, r18
    1b76:	93 07       	cpc	r25, r19
    1b78:	b8 f5       	brcc	.+110    	; 0x1be8 <CheckPins+0xb1e>
  lcd_data('L');
  DisplayValue(adc.hp1,-3,' ',2);
  lcd_data('H');
  DisplayValue(adc.hp2,-3,' ',2);
#endif
  volt_dif = adc.hp3/8;
    1b7a:	c8 01       	movw	r24, r16
    1b7c:	33 e0       	ldi	r19, 0x03	; 3
    1b7e:	96 95       	lsr	r25
    1b80:	87 95       	ror	r24
    1b82:	3a 95       	dec	r19
    1b84:	e1 f7       	brne	.-8      	; 0x1b7e <CheckPins+0xab4>
    1b86:	89 3c       	cpi	r24, 0xC9	; 201
    1b88:	91 05       	cpc	r25, r1
    1b8a:	10 f0       	brcs	.+4      	; 0x1b90 <CheckPins+0xac6>
    1b8c:	88 ec       	ldi	r24, 0xC8	; 200
    1b8e:	90 e0       	ldi	r25, 0x00	; 0
  if (volt_dif > 200) volt_dif = 200;

  if((adc.hp1 > 150) && (adc.hp1 < 4640) && (adc.hp2 < adc.hp1) && (adc.hp1 > (adc.hp3+volt_dif)) && (adc.hp3 > adc.hp1/16)) {
    1b90:	80 0f       	add	r24, r16
    1b92:	91 1f       	adc	r25, r17
    1b94:	49 81       	ldd	r20, Y+1	; 0x01
    1b96:	5a 81       	ldd	r21, Y+2	; 0x02
    1b98:	84 17       	cp	r24, r20
    1b9a:	95 07       	cpc	r25, r21
    1b9c:	28 f5       	brcc	.+74     	; 0x1be8 <CheckPins+0xb1e>
    1b9e:	ca 01       	movw	r24, r20
    1ba0:	24 e0       	ldi	r18, 0x04	; 4
    1ba2:	96 95       	lsr	r25
    1ba4:	87 95       	ror	r24
    1ba6:	2a 95       	dec	r18
    1ba8:	e1 f7       	brne	.-8      	; 0x1ba2 <CheckPins+0xad8>
    1baa:	80 17       	cp	r24, r16
    1bac:	91 07       	cpc	r25, r17
    1bae:	e0 f4       	brcc	.+56     	; 0x1be8 <CheckPins+0xb1e>
     //voltage is above 0,15V and below 4,64V => Ok
     // hp2 >= hp1 is only possible with capacitor, not with a diode, hp2 is measured with 470k
//     if((PartFound == PART_NONE) || (PartFound == PART_RESISTOR)) {
     if(PartFound < PART_DIODE) {
    1bb0:	80 91 18 01 	lds	r24, 0x0118
    1bb4:	82 30       	cpi	r24, 0x02	; 2
    1bb6:	18 f4       	brcc	.+6      	; 0x1bbe <CheckPins+0xaf4>
        PartFound = PART_DIODE;	//mark for diode only, if no other component is found
    1bb8:	82 e0       	ldi	r24, 0x02	; 2
    1bba:	80 93 18 01 	sts	0x0118, r24
				//since there is a problem with Transistors with a protection diode
#if DebugOut == 4
        lcd_data('D');
#endif
     }
     diodes.Anode[NumOfDiodes] = HighPin;
    1bbe:	80 91 16 01 	lds	r24, 0x0116
    1bc2:	e8 2f       	mov	r30, r24
    1bc4:	f0 e0       	ldi	r31, 0x00	; 0
    1bc6:	df 01       	movw	r26, r30
    1bc8:	a6 57       	subi	r26, 0x76	; 118
    1bca:	be 4f       	sbci	r27, 0xFE	; 254
    1bcc:	9c 92       	st	X, r9
     diodes.Cathode[NumOfDiodes] = LowPin;
    1bce:	16 96       	adiw	r26, 0x06	; 6
    1bd0:	8c 92       	st	X, r8
     diodes.Voltage[NumOfDiodes] = adc.hp1;	// voltage in Millivolt 
    1bd2:	ee 0f       	add	r30, r30
    1bd4:	ff 1f       	adc	r31, r31
    1bd6:	ea 56       	subi	r30, 0x6A	; 106
    1bd8:	fe 4f       	sbci	r31, 0xFE	; 254
    1bda:	29 81       	ldd	r18, Y+1	; 0x01
    1bdc:	3a 81       	ldd	r19, Y+2	; 0x02
    1bde:	31 83       	std	Z+1, r19	; 0x01
    1be0:	20 83       	st	Z, r18
     NumOfDiodes++;
    1be2:	8f 5f       	subi	r24, 0xFF	; 255
    1be4:	80 93 16 01 	sts	0x0116, r24

//##########################################################################################
// Search for resistors
//##########################################################################################
widmes:
  GetResistance(HighPin, LowPin);
    1be8:	68 2d       	mov	r22, r8
    1bea:	89 2d       	mov	r24, r9
    1bec:	0e 94 1d 0e 	call	0x1c3a	; 0x1c3a <GetResistance>
#ifdef DebugOut
 #if DebugOut < 10
  wait_for_key_5s_line2();
 #endif
#endif
  ADC_DDR = TXD_MSK;		// all ADC-Pins Input
    1bf0:	17 b8       	out	0x07, r1	; 7
  ADC_PORT = TXD_VAL;		// all ADC outputs to Ground, keine Pull up
    1bf2:	18 b8       	out	0x08, r1	; 8
  R_DDR = 0;			// all resistor-outputs to Input
    1bf4:	14 b8       	out	0x04, r1	; 4
  R_PORT = 0;			// all resistor-outputs to Ground, no Pull up
    1bf6:	15 b8       	out	0x05, r1	; 5
    ntrans.c = HighPin;
    ntrans.e = LowPin;
 }
 goto clean_ports;

} // end CheckPins()
    1bf8:	66 96       	adiw	r28, 0x16	; 22
    1bfa:	e2 e1       	ldi	r30, 0x12	; 18
    1bfc:	0c 94 8f 1f 	jmp	0x3f1e	; 0x3f1e <__epilogue_restores__>
//---------------------------------------------------------------------------
savePresult:
#if DebugOut == 5
 lcd_data('P');
#endif
 ptrans.count++;
    1c00:	80 91 6d 01 	lds	r24, 0x016D
    1c04:	8f 5f       	subi	r24, 0xFF	; 255
    1c06:	80 93 6d 01 	sts	0x016D, r24
 if (update_pins != 0) {
    1c0a:	22 23       	and	r18, r18
    1c0c:	89 f3       	breq	.-30     	; 0x1bf0 <CheckPins+0xb26>
    ptrans.b = TristatePin;	// save Pin-constellation
    1c0e:	40 92 6a 01 	sts	0x016A, r4
    ptrans.c = LowPin;
    1c12:	80 92 6b 01 	sts	0x016B, r8
    ptrans.e = HighPin;
    1c16:	90 92 6c 01 	sts	0x016C, r9
    1c1a:	ea cf       	rjmp	.-44     	; 0x1bf0 <CheckPins+0xb26>
//  }

#if DebugOut == 5
  lcd_clear_line2();
#endif
  update_pins = 1;			// if a part is found, always update the pins
    1c1c:	21 e0       	ldi	r18, 0x01	; 1
//---------------------------------------------------------------------------
saveNresult:
#if DebugOut == 5
 lcd_data('N');
#endif
 ntrans.count++;
    1c1e:	80 91 53 01 	lds	r24, 0x0153
    1c22:	8f 5f       	subi	r24, 0xFF	; 255
    1c24:	80 93 53 01 	sts	0x0153, r24
 if (update_pins != 0) {
    1c28:	22 23       	and	r18, r18
    1c2a:	11 f3       	breq	.-60     	; 0x1bf0 <CheckPins+0xb26>
    ntrans.b = TristatePin;	// save Pin-constellation
    1c2c:	40 92 50 01 	sts	0x0150, r4
    ntrans.c = HighPin;
    1c30:	90 92 51 01 	sts	0x0151, r9
    ntrans.e = LowPin;
    1c34:	80 92 52 01 	sts	0x0152, r8
    1c38:	db cf       	rjmp	.-74     	; 0x1bf0 <CheckPins+0xb26>

00001c3a <GetResistance>:
#include <stdlib.h>
#include "Transistortester.h"

//******************************************************************
void GetResistance(uint8_t HighPin, uint8_t LowPin)
  {
    1c3a:	a0 e0       	ldi	r26, 0x00	; 0
    1c3c:	b0 e0       	ldi	r27, 0x00	; 0
    1c3e:	e3 e2       	ldi	r30, 0x23	; 35
    1c40:	fe e0       	ldi	r31, 0x0E	; 14
    1c42:	0c 94 75 1f 	jmp	0x3eea	; 0x3eea <__prologue_saves__+0x4>
    1c46:	98 2e       	mov	r9, r24
    1c48:	86 2e       	mov	r8, r22
  /*
    switch HighPin directls to VCC 
    switch R_L port for LowPin to GND 
    TristatePin remains switched to input , no action required 
  */
  wdt_reset();
    1c4a:	a8 95       	wdr
  addr = &PinRLRHADCtab[LowPin];		// address of the combined RL / RH / ADC pin table
    1c4c:	e6 2f       	mov	r30, r22
    1c4e:	f0 e0       	ldi	r31, 0x00	; 0
    1c50:	e2 58       	subi	r30, 0x82	; 130
    1c52:	ff 4f       	sbci	r31, 0xFF	; 255
  LoPinRL = pgm_read_byte(addr);		// instruction for LowPin R_L
    1c54:	b4 90       	lpm	r11, Z
  addr += 3;			// address of PinRHtab[LowPin]
  LoPinRH = pgm_read_byte(addr);		// instruction for LowPin R_H
#else
  LoPinRH = (LoPinRL + LoPinRL);
#endif
  addr += 3;			// address of PinADCtab[LowPin]
    1c56:	33 96       	adiw	r30, 0x03	; 3
  LoADCp = pgm_read_byte(addr);		// instruction for ADC Low-Pin, including | TXD_VAL
    1c58:	24 91       	lpm	r18, Z

  addr = &PinRLRHADCtab[HighPin];
    1c5a:	e8 2f       	mov	r30, r24
    1c5c:	f0 e0       	ldi	r31, 0x00	; 0
    1c5e:	e2 58       	subi	r30, 0x82	; 130
    1c60:	ff 4f       	sbci	r31, 0xFF	; 255
  HiPinRL = pgm_read_byte(addr);		// instruction for HighPin R_L
    1c62:	e4 90       	lpm	r14, Z
  addr += 3;			// address of PinRLtab[HighPin]
  HiPinRH = pgm_read_byte(addr);		// instruction for HighPin R_H
#else
  HiPinRH = (HiPinRL + HiPinRL);
#endif
  addr += 3;			// address of PinADCtab[HighPin]
    1c64:	33 96       	adiw	r30, 0x03	; 3
  HiADCp = pgm_read_byte(addr);		// instruction for ADC High-Pin, including | TXD_VAL
    1c66:	f4 90       	lpm	r15, Z

//##########################################################################################
// Search for resistors
//##########################################################################################
  if ((ptrans.count  + ntrans.count) > 0) {
    1c68:	30 91 6d 01 	lds	r19, 0x016D
    1c6c:	80 91 53 01 	lds	r24, 0x0153
    1c70:	90 e0       	ldi	r25, 0x00	; 0
    1c72:	83 0f       	add	r24, r19
    1c74:	91 1d       	adc	r25, r1
    1c76:	89 2b       	or	r24, r25
    1c78:	09 f0       	breq	.+2      	; 0x1c7c <GetResistance+0x42>
    1c7a:	c2 c1       	rjmp	.+900    	; 0x2000 <GetResistance+0x3c6>
     return;	// no resistors are searched, if transistors are detected
  }
  resnum = (LowPin + HighPin -1);	// resistor-Number 0:1 = 0, 0:2 = 1, 1:2 = 2
  // resistor measurement
  wdt_reset();
    1c7c:	a8 95       	wdr
// U_SCALE can be set to 4 for better resolution of ReadADC result
#if U_SCALE != 1
  ADCconfig.U_AVCC *= U_SCALE;	// scale to higher resolution, mV scale is not required
    1c7e:	80 91 2b 01 	lds	r24, 0x012B
    1c82:	90 91 2c 01 	lds	r25, 0x012C
    1c86:	88 0f       	add	r24, r24
    1c88:	99 1f       	adc	r25, r25
    1c8a:	88 0f       	add	r24, r24
    1c8c:	99 1f       	adc	r25, r25
    1c8e:	90 93 2c 01 	sts	0x012C, r25
    1c92:	80 93 2b 01 	sts	0x012B, r24
  ADCconfig.U_Bandgap *= U_SCALE;
    1c96:	80 91 29 01 	lds	r24, 0x0129
    1c9a:	90 91 2a 01 	lds	r25, 0x012A
    1c9e:	88 0f       	add	r24, r24
    1ca0:	99 1f       	adc	r25, r25
    1ca2:	88 0f       	add	r24, r24
    1ca4:	99 1f       	adc	r25, r25
    1ca6:	90 93 2a 01 	sts	0x012A, r25
    1caa:	80 93 29 01 	sts	0x0129, r24
#endif
#if R_ANZ_MESS != ANZ_MESS
  ADCconfig.Samples = R_ANZ_MESS;	// switch to special number of repetitions
    1cae:	8e eb       	ldi	r24, 0xBE	; 190
    1cb0:	80 93 27 01 	sts	0x0127, r24
#endif
  #define MAX_REPEAT (700 / (5 + R_ANZ_MESS/8))
  ADC_PORT = TXD_VAL;
    1cb4:	18 b8       	out	0x08, r1	; 8
  ADC_DDR = LoADCp | TXD_MSK;		//switch Low-Pin to output (GND)
    1cb6:	27 b9       	out	0x07, r18	; 7
  R_DDR = HiPinRL;		//switch R_L port for High-Pin to output (VCC)
    1cb8:	e4 b8       	out	0x04, r14	; 4
  R_PORT = HiPinRL;	
    1cba:	e5 b8       	out	0x05, r14	; 5
    1cbc:	58 e1       	ldi	r21, 0x18	; 24
    1cbe:	d5 2e       	mov	r13, r21
#if FLASHEND > 0x1fff
  adc.hp2 = 0;
    1cc0:	c0 e0       	ldi	r28, 0x00	; 0
    1cc2:	d0 e0       	ldi	r29, 0x00	; 0
  for (ii=1;ii<MAX_REPEAT;ii++) {
     // wait until voltage is stable
     adc.tp1 = W5msReadADC(LowPin);	// low-voltage at Rx with load
    1cc4:	88 2d       	mov	r24, r8
    1cc6:	0e 94 b0 03 	call	0x760	; 0x760 <W5msReadADC>
    1cca:	58 2e       	mov	r5, r24
    1ccc:	49 2e       	mov	r4, r25
     adc.hp1 = ReadADC(HighPin);		// voltage at resistor Rx with R_L
    1cce:	89 2d       	mov	r24, r9
    1cd0:	0e 94 b4 03 	call	0x768	; 0x768 <ReadADC>
    1cd4:	8c 01       	movw	r16, r24
    1cd6:	8c 1b       	sub	r24, r28
    1cd8:	9d 0b       	sbc	r25, r29
    1cda:	97 ff       	sbrs	r25, 7
    1cdc:	03 c0       	rjmp	.+6      	; 0x1ce4 <GetResistance+0xaa>
    1cde:	91 95       	neg	r25
    1ce0:	81 95       	neg	r24
    1ce2:	91 09       	sbc	r25, r1
     udiff = adc.hp1 - adc.hp2;
     if (udiff < 0) udiff = -udiff;
     if (udiff < 3) break;
    1ce4:	03 97       	sbiw	r24, 0x03	; 3
    1ce6:	2c f0       	brlt	.+10     	; 0x1cf2 <GetResistance+0xb8>
     adc.hp2 = adc.hp1;
     wdt_reset();
    1ce8:	a8 95       	wdr
    1cea:	da 94       	dec	r13
  ADC_DDR = LoADCp | TXD_MSK;		//switch Low-Pin to output (GND)
  R_DDR = HiPinRL;		//switch R_L port for High-Pin to output (VCC)
  R_PORT = HiPinRL;	
#if FLASHEND > 0x1fff
  adc.hp2 = 0;
  for (ii=1;ii<MAX_REPEAT;ii++) {
    1cec:	c1 f1       	breq	.+112    	; 0x1d5e <GetResistance+0x124>
     // wait until voltage is stable
     adc.tp1 = W5msReadADC(LowPin);	// low-voltage at Rx with load
     adc.hp1 = ReadADC(HighPin);		// voltage at resistor Rx with R_L
    1cee:	e8 01       	movw	r28, r16
    1cf0:	e9 cf       	rjmp	.-46     	; 0x1cc4 <GetResistance+0x8a>
  HiPinRL = pgm_read_byte(addr);		// instruction for HighPin R_L
#if (((PIN_RL1 + 1) != PIN_RH1) || ((PIN_RL2 + 1) != PIN_RH2) || ((PIN_RL3 + 1) != PIN_RH3))
  addr += 3;			// address of PinRLtab[HighPin]
  HiPinRH = pgm_read_byte(addr);		// instruction for HighPin R_H
#else
  HiPinRH = (HiPinRL + HiPinRL);
    1cf2:	ee 0c       	add	r14, r14
  adc.hp1 = ReadADC(HighPin);		// voltage at resistor Rx with R_L
#endif
  if (adc.tp1 > adc.hp1) {
     adc.tp1 = adc.hp1;
  }
  R_PORT = 0;
    1cf4:	15 b8       	out	0x05, r1	; 5
  R_DDR = HiPinRH;		//switch R_H port for High-Pin to output (GND)
    1cf6:	e4 b8       	out	0x04, r14	; 4
  adc.hp2 = W5msReadADC(HighPin);	// read voltage, should be down
    1cf8:	89 2d       	mov	r24, r9
    1cfa:	0e 94 b0 03 	call	0x760	; 0x760 <W5msReadADC>
  if (adc.hp2 > (20*U_SCALE)) {
    1cfe:	81 35       	cpi	r24, 0x51	; 81
    1d00:	91 05       	cpc	r25, r1
    1d02:	68 f5       	brcc	.+90     	; 0x1d5e <GetResistance+0x124>
     // if resistor, voltage should be down
     goto testend;
  }
  R_PORT = HiPinRH;		//switch R_H for High-Pin to VCC
    1d04:	e5 b8       	out	0x05, r14	; 5
  adc.hp2 = W5msReadADC(HighPin);	// voltage at resistor Rx with R_H
    1d06:	89 2d       	mov	r24, r9
    1d08:	0e 94 b0 03 	call	0x760	; 0x760 <W5msReadADC>
    1d0c:	ec 01       	movw	r28, r24

  ADC_DDR = HiADCp | TXD_MSK;		//switch High-Pin to output
    1d0e:	f7 b8       	out	0x07, r15	; 7
  ADC_PORT = HiADCp;		//switch High-Pin to VCC
    1d10:	f8 b8       	out	0x08, r15	; 8
  R_PORT = 0;
    1d12:	15 b8       	out	0x05, r1	; 5
  R_DDR = LoPinRL;			//switch R_L for Low-Pin to GND
    1d14:	b4 b8       	out	0x04, r11	; 4
    1d16:	88 e1       	ldi	r24, 0x18	; 24
    1d18:	a8 2e       	mov	r10, r24
#if FLASHEND > 0x1fff
  adc.lp2 = 0;
    1d1a:	c1 2c       	mov	r12, r1
    1d1c:	d1 2c       	mov	r13, r1
  for (ii=1;ii<MAX_REPEAT;ii++) {
     // wait until voltage is stable
     adc.tp2 = W5msReadADC(HighPin);	//high voltage with load
    1d1e:	89 2d       	mov	r24, r9
    1d20:	0e 94 b0 03 	call	0x760	; 0x760 <W5msReadADC>
    1d24:	78 2e       	mov	r7, r24
    1d26:	69 2e       	mov	r6, r25
     adc.lp1 = ReadADC(LowPin);		//voltage at the other end of Rx
    1d28:	88 2d       	mov	r24, r8
    1d2a:	0e 94 b4 03 	call	0x768	; 0x768 <ReadADC>
    1d2e:	7c 01       	movw	r14, r24
    1d30:	8c 19       	sub	r24, r12
    1d32:	9d 09       	sbc	r25, r13
    1d34:	97 ff       	sbrs	r25, 7
    1d36:	03 c0       	rjmp	.+6      	; 0x1d3e <GetResistance+0x104>
    1d38:	91 95       	neg	r25
    1d3a:	81 95       	neg	r24
    1d3c:	91 09       	sbc	r25, r1
     udiff = adc.lp1 - adc.lp2;
     if (udiff < 0) udiff = -udiff;
     if (udiff < 3) break;
    1d3e:	03 97       	sbiw	r24, 0x03	; 3
    1d40:	34 f5       	brge	.+76     	; 0x1d8e <GetResistance+0x154>
  LoPinRL = pgm_read_byte(addr);		// instruction for LowPin R_L
#if (((PIN_RL1 + 1) != PIN_RH1) || ((PIN_RL2 + 1) != PIN_RH2) || ((PIN_RL3 + 1) != PIN_RH3))
  addr += 3;			// address of PinRHtab[LowPin]
  LoPinRH = pgm_read_byte(addr);		// instruction for LowPin R_H
#else
  LoPinRH = (LoPinRL + LoPinRL);
    1d42:	bb 0c       	add	r11, r11
  adc.lp1 = ReadADC(LowPin);		//voltage at the other end of Rx
#endif
  if (adc.tp2 < adc.lp1) {
     adc.tp2 = adc.lp1;
  }
  R_DDR = LoPinRH;			//switch R_H for Low-Pin to GND
    1d44:	b4 b8       	out	0x04, r11	; 4
  adc.lp2 = W5msReadADC(LowPin);
    1d46:	88 2d       	mov	r24, r8
    1d48:	0e 94 b0 03 	call	0x760	; 0x760 <W5msReadADC>
    1d4c:	5c 01       	movw	r10, r24
		
  if((adc.hp1 < (4400*U_SCALE)) && (adc.hp2 > (97*U_SCALE))) {
    1d4e:	00 3c       	cpi	r16, 0xC0	; 192
    1d50:	94 e4       	ldi	r25, 0x44	; 68
    1d52:	19 07       	cpc	r17, r25
    1d54:	08 f5       	brcc	.+66     	; 0x1d98 <GetResistance+0x15e>
    1d56:	c5 38       	cpi	r28, 0x85	; 133
    1d58:	81 e0       	ldi	r24, 0x01	; 1
    1d5a:	d8 07       	cpc	r29, r24
    1d5c:	08 f1       	brcs	.+66     	; 0x1da0 <GetResistance+0x166>
        } // end  ResistorChecked[] != 0
     }	/* end if (PartFound < PART_TRANSISTOR) */
  }
  testend:			// end of resistor measurement
#if U_SCALE != 1
  ADCconfig.U_AVCC /= U_SCALE;		// scale back to mV resolution
    1d5e:	80 91 2b 01 	lds	r24, 0x012B
    1d62:	90 91 2c 01 	lds	r25, 0x012C
    1d66:	96 95       	lsr	r25
    1d68:	87 95       	ror	r24
    1d6a:	96 95       	lsr	r25
    1d6c:	87 95       	ror	r24
    1d6e:	90 93 2c 01 	sts	0x012C, r25
    1d72:	80 93 2b 01 	sts	0x012B, r24
  ADCconfig.U_Bandgap = adc_internal_reference;	// set back to normal resolution
    1d76:	80 91 6e 01 	lds	r24, 0x016E
    1d7a:	90 91 6f 01 	lds	r25, 0x016F
    1d7e:	90 93 2a 01 	sts	0x012A, r25
    1d82:	80 93 29 01 	sts	0x0129, r24
#endif
#if R_ANZ_MESS != ANZ_MESS
  ADCconfig.Samples = ANZ_MESS;		// switch back to standard number of repetition
    1d86:	89 e1       	ldi	r24, 0x19	; 25
    1d88:	80 93 27 01 	sts	0x0127, r24
#endif

  return;
    1d8c:	39 c1       	rjmp	.+626    	; 0x2000 <GetResistance+0x3c6>
     adc.lp1 = ReadADC(LowPin);		//voltage at the other end of Rx
     udiff = adc.lp1 - adc.lp2;
     if (udiff < 0) udiff = -udiff;
     if (udiff < 3) break;
     adc.lp2 = adc.lp1;
     wdt_reset();
    1d8e:	a8 95       	wdr
    1d90:	aa 94       	dec	r10
  ADC_PORT = HiADCp;		//switch High-Pin to VCC
  R_PORT = 0;
  R_DDR = LoPinRL;			//switch R_L for Low-Pin to GND
#if FLASHEND > 0x1fff
  adc.lp2 = 0;
  for (ii=1;ii<MAX_REPEAT;ii++) {
    1d92:	29 f3       	breq	.-54     	; 0x1d5e <GetResistance+0x124>
     // wait until voltage is stable
     adc.tp2 = W5msReadADC(HighPin);	//high voltage with load
     adc.lp1 = ReadADC(LowPin);		//voltage at the other end of Rx
    1d94:	67 01       	movw	r12, r14
    1d96:	c3 cf       	rjmp	.-122    	; 0x1d1e <GetResistance+0xe4>
  if((adc.hp1 < (4400*U_SCALE)) && (adc.hp2 > (97*U_SCALE))) {
     //voltage break down isn't insufficient 
     goto testend; 
  }
//    if((adc.hp2 + (adc.hp2 / 61)) < adc.hp1)
  if (adc.hp2 < (4972*U_SCALE)) { 
    1d98:	c0 3b       	cpi	r28, 0xB0	; 176
    1d9a:	9d e4       	ldi	r25, 0x4D	; 77
    1d9c:	d9 07       	cpc	r29, r25
    1d9e:	f8 f6       	brcc	.-66     	; 0x1d5e <GetResistance+0x124>
    1da0:	c0 90 2b 01 	lds	r12, 0x012B
    1da4:	d0 90 2c 01 	lds	r13, 0x012C
     // voltage breaks down with low test current and it is not nearly shorted  => resistor
//     if (adc.lp1 < 120)  // take measurement with R_H 
     if (adc.lp1 < (169*U_SCALE)) { // take measurement with R_H 
    1da8:	84 ea       	ldi	r24, 0xA4	; 164
    1daa:	e8 16       	cp	r14, r24
    1dac:	82 e0       	ldi	r24, 0x02	; 2
    1dae:	f8 06       	cpc	r15, r24
    1db0:	08 f0       	brcs	.+2      	; 0x1db4 <GetResistance+0x17a>
    1db2:	5f c0       	rjmp	.+190    	; 0x1e72 <GetResistance+0x238>
        if (adc.lp2 < (38*U_SCALE)) {
    1db4:	98 e9       	ldi	r25, 0x98	; 152
    1db6:	a9 16       	cp	r10, r25
    1db8:	b1 04       	cpc	r11, r1
    1dba:	88 f2       	brcs	.-94     	; 0x1d5e <GetResistance+0x124>
           // measurement > 60MOhm too big resistance
           goto testend;
        }
        // two measurements with R_H resistors (470k) are made:
        // lirx1 (measurement at HighPin)
        lirx1 = (unsigned long)((unsigned int)R_H_VAL) * (unsigned long)adc.hp2 / (ADCconfig.U_AVCC - adc.hp2);
    1dbc:	9e 01       	movw	r18, r28
    1dbe:	a8 e9       	ldi	r26, 0x98	; 152
    1dc0:	b7 eb       	ldi	r27, 0xB7	; 183
    1dc2:	0e 94 ed 1e 	call	0x3dda	; 0x3dda <__umulhisi3>
    1dc6:	96 01       	movw	r18, r12
    1dc8:	2c 1b       	sub	r18, r28
    1dca:	3d 0b       	sbc	r19, r29
    1dcc:	40 e0       	ldi	r20, 0x00	; 0
    1dce:	50 e0       	ldi	r21, 0x00	; 0
    1dd0:	0e 94 32 1f 	call	0x3e64	; 0x3e64 <__udivmodsi4>
    1dd4:	29 01       	movw	r4, r18
    1dd6:	3a 01       	movw	r6, r20
        // lirx2 (measurement at LowPin)
        lirx2 = (unsigned long)((unsigned int)R_H_VAL) * (unsigned long)(ADCconfig.U_AVCC - adc.lp2) / adc.lp2;
    1dd8:	96 01       	movw	r18, r12
    1dda:	2a 19       	sub	r18, r10
    1ddc:	3b 09       	sbc	r19, r11
    1dde:	a8 e9       	ldi	r26, 0x98	; 152
    1de0:	b7 eb       	ldi	r27, 0xB7	; 183
    1de2:	0e 94 ed 1e 	call	0x3dda	; 0x3dda <__umulhisi3>
    1de6:	85 01       	movw	r16, r10
    1de8:	20 e0       	ldi	r18, 0x00	; 0
    1dea:	30 e0       	ldi	r19, 0x00	; 0
    1dec:	a9 01       	movw	r20, r18
    1dee:	98 01       	movw	r18, r16
    1df0:	0e 94 32 1f 	call	0x3e64	; 0x3e64 <__udivmodsi4>
#define FAKT_LOW 2		//resolution is about twice as good
#else
#define FAKT_LOW 4		//resolution is about four times better
#endif
#ifdef AUTOSCALE_ADC
        if (adc.hp2 < U_INT_LIMIT) {
    1df4:	c8 37       	cpi	r28, 0x78	; 120
    1df6:	df 40       	sbci	r29, 0x0F	; 15
    1df8:	70 f4       	brcc	.+28     	; 0x1e16 <GetResistance+0x1dc>
           lrx1 = (lirx1*FAKT_LOW + lirx2) / (FAKT_LOW+1);	//weighted average of both R_H measurements
    1dfa:	c3 01       	movw	r24, r6
    1dfc:	b2 01       	movw	r22, r4
    1dfe:	b2 e0       	ldi	r27, 0x02	; 2
    1e00:	66 0f       	add	r22, r22
    1e02:	77 1f       	adc	r23, r23
    1e04:	88 1f       	adc	r24, r24
    1e06:	99 1f       	adc	r25, r25
    1e08:	ba 95       	dec	r27
    1e0a:	d1 f7       	brne	.-12     	; 0x1e00 <GetResistance+0x1c6>
    1e0c:	62 0f       	add	r22, r18
    1e0e:	73 1f       	adc	r23, r19
    1e10:	84 1f       	adc	r24, r20
    1e12:	95 1f       	adc	r25, r21
    1e14:	12 c0       	rjmp	.+36     	; 0x1e3a <GetResistance+0x200>
        } else if (adc.lp2 < U_INT_LIMIT){
    1e16:	98 e7       	ldi	r25, 0x78	; 120
    1e18:	a9 16       	cp	r10, r25
    1e1a:	9f e0       	ldi	r25, 0x0F	; 15
    1e1c:	b9 06       	cpc	r11, r25
    1e1e:	a0 f4       	brcc	.+40     	; 0x1e48 <GetResistance+0x20e>
           lrx1 = (lirx2*FAKT_LOW + lirx1) / (FAKT_LOW+1);	//weighted average of both R_H measurements
    1e20:	ca 01       	movw	r24, r20
    1e22:	b9 01       	movw	r22, r18
    1e24:	a2 e0       	ldi	r26, 0x02	; 2
    1e26:	66 0f       	add	r22, r22
    1e28:	77 1f       	adc	r23, r23
    1e2a:	88 1f       	adc	r24, r24
    1e2c:	99 1f       	adc	r25, r25
    1e2e:	aa 95       	dec	r26
    1e30:	d1 f7       	brne	.-12     	; 0x1e26 <GetResistance+0x1ec>
    1e32:	64 0d       	add	r22, r4
    1e34:	75 1d       	adc	r23, r5
    1e36:	86 1d       	adc	r24, r6
    1e38:	97 1d       	adc	r25, r7
    1e3a:	25 e0       	ldi	r18, 0x05	; 5
    1e3c:	30 e0       	ldi	r19, 0x00	; 0
    1e3e:	40 e0       	ldi	r20, 0x00	; 0
    1e40:	50 e0       	ldi	r21, 0x00	; 0
    1e42:	0e 94 32 1f 	call	0x3e64	; 0x3e64 <__udivmodsi4>
    1e46:	08 c0       	rjmp	.+16     	; 0x1e58 <GetResistance+0x21e>
        } else 
#endif
        {
           lrx1 = (lirx1 + lirx2) / 2;		//average of both R_H measurements
    1e48:	24 0d       	add	r18, r4
    1e4a:	35 1d       	adc	r19, r5
    1e4c:	46 1d       	adc	r20, r6
    1e4e:	57 1d       	adc	r21, r7
    1e50:	56 95       	lsr	r21
    1e52:	47 95       	ror	r20
    1e54:	37 95       	ror	r19
    1e56:	27 95       	ror	r18
        }
        lrx1 *= 100;
    1e58:	a4 e6       	ldi	r26, 0x64	; 100
    1e5a:	b0 e0       	ldi	r27, 0x00	; 0
    1e5c:	0e 94 03 1f 	call	0x3e06	; 0x3e06 <__muluhisi3>
    1e60:	6b 01       	movw	r12, r22
    1e62:	7c 01       	movw	r14, r24
        lrx1 += RH_OFFSET;			// add constant for correction of systematic error
    1e64:	8c ea       	ldi	r24, 0xAC	; 172
    1e66:	c8 0e       	add	r12, r24
    1e68:	8d e0       	ldi	r24, 0x0D	; 13
    1e6a:	d8 1e       	adc	r13, r24
    1e6c:	e1 1c       	adc	r14, r1
    1e6e:	f1 1c       	adc	r15, r1
    1e70:	70 c0       	rjmp	.+224    	; 0x1f52 <GetResistance+0x318>
    1e72:	25 2d       	mov	r18, r5
    1e74:	34 2d       	mov	r19, r4
    1e76:	02 17       	cp	r16, r18
    1e78:	13 07       	cpc	r17, r19
    1e7a:	08 f4       	brcc	.+2      	; 0x1e7e <GetResistance+0x244>
    1e7c:	98 01       	movw	r18, r16
    1e7e:	c7 2d       	mov	r28, r7
    1e80:	d6 2d       	mov	r29, r6
    1e82:	ce 15       	cp	r28, r14
    1e84:	df 05       	cpc	r29, r15
    1e86:	08 f4       	brcc	.+2      	; 0x1e8a <GetResistance+0x250>
    1e88:	e7 01       	movw	r28, r14
    1e8a:	59 01       	movw	r10, r18
    1e8c:	20 17       	cp	r18, r16
    1e8e:	31 07       	cpc	r19, r17
    1e90:	08 f4       	brcc	.+2      	; 0x1e94 <GetResistance+0x25a>
    1e92:	58 01       	movw	r10, r16
        // two measurements with R_L resistors (680) are made:
        // lirx1 (measurement at HighPin)
        if (adc.tp1 > adc.hp1) {
           adc.hp1 = adc.tp1;		//diff negativ is illegal
        }
        lirx1 =(unsigned long)RR680PL * (unsigned long)(adc.hp1 - adc.tp1) / (ADCconfig.U_AVCC - adc.hp1);
    1e94:	a0 91 19 01 	lds	r26, 0x0119
    1e98:	b0 91 1a 01 	lds	r27, 0x011A
    1e9c:	c5 01       	movw	r24, r10
    1e9e:	82 1b       	sub	r24, r18
    1ea0:	93 0b       	sbc	r25, r19
    1ea2:	9c 01       	movw	r18, r24
    1ea4:	0e 94 ed 1e 	call	0x3dda	; 0x3dda <__umulhisi3>
    1ea8:	96 01       	movw	r18, r12
    1eaa:	2a 19       	sub	r18, r10
    1eac:	3b 09       	sbc	r19, r11
    1eae:	40 e0       	ldi	r20, 0x00	; 0
    1eb0:	50 e0       	ldi	r21, 0x00	; 0
    1eb2:	0e 94 32 1f 	call	0x3e64	; 0x3e64 <__udivmodsi4>
    1eb6:	29 01       	movw	r4, r18
    1eb8:	3a 01       	movw	r6, r20
    1eba:	8e 01       	movw	r16, r28
    1ebc:	ec 16       	cp	r14, r28
    1ebe:	fd 06       	cpc	r15, r29
    1ec0:	08 f4       	brcc	.+2      	; 0x1ec4 <GetResistance+0x28a>
    1ec2:	87 01       	movw	r16, r14
        if (adc.tp2 < adc.lp1) {
           adc.lp1 = adc.tp2;		//diff negativ is illegal
        }
        // lirx2 (Measurement at LowPin)
        lirx2 =(unsigned long)RR680MI * (unsigned long)(adc.tp2 -adc.lp1) / adc.lp1;
    1ec4:	a0 91 12 01 	lds	r26, 0x0112
    1ec8:	b0 91 13 01 	lds	r27, 0x0113
    1ecc:	9e 01       	movw	r18, r28
    1ece:	20 1b       	sub	r18, r16
    1ed0:	31 0b       	sbc	r19, r17
    1ed2:	0e 94 ed 1e 	call	0x3dda	; 0x3dda <__umulhisi3>
    1ed6:	68 01       	movw	r12, r16
    1ed8:	e1 2c       	mov	r14, r1
    1eda:	f1 2c       	mov	r15, r1
    1edc:	a7 01       	movw	r20, r14
    1ede:	96 01       	movw	r18, r12
    1ee0:	0e 94 32 1f 	call	0x3e64	; 0x3e64 <__udivmodsi4>

#ifdef AUTOSCALE_ADC
        if (adc.hp1 < U_INT_LIMIT) {
    1ee4:	98 e7       	ldi	r25, 0x78	; 120
    1ee6:	a9 16       	cp	r10, r25
    1ee8:	9f e0       	ldi	r25, 0x0F	; 15
    1eea:	b9 06       	cpc	r11, r25
    1eec:	70 f4       	brcc	.+28     	; 0x1f0a <GetResistance+0x2d0>
           lrx1 = (lirx1*FAKT_LOW + lirx2) / (FAKT_LOW+1);	//weighted average of both R_L measurements
    1eee:	c3 01       	movw	r24, r6
    1ef0:	b2 01       	movw	r22, r4
    1ef2:	e2 e0       	ldi	r30, 0x02	; 2
    1ef4:	66 0f       	add	r22, r22
    1ef6:	77 1f       	adc	r23, r23
    1ef8:	88 1f       	adc	r24, r24
    1efa:	99 1f       	adc	r25, r25
    1efc:	ea 95       	dec	r30
    1efe:	d1 f7       	brne	.-12     	; 0x1ef4 <GetResistance+0x2ba>
    1f00:	62 0f       	add	r22, r18
    1f02:	73 1f       	adc	r23, r19
    1f04:	84 1f       	adc	r24, r20
    1f06:	95 1f       	adc	r25, r21
    1f08:	11 c0       	rjmp	.+34     	; 0x1f2c <GetResistance+0x2f2>
        } else if (adc.lp1 < U_INT_LIMIT) {
    1f0a:	08 37       	cpi	r16, 0x78	; 120
    1f0c:	8f e0       	ldi	r24, 0x0F	; 15
    1f0e:	18 07       	cpc	r17, r24
    1f10:	b0 f4       	brcc	.+44     	; 0x1f3e <GetResistance+0x304>
           lrx1 = (lirx2*FAKT_LOW + lirx1) / (FAKT_LOW+1);	//weighted average of both R_L measurements
    1f12:	ca 01       	movw	r24, r20
    1f14:	b9 01       	movw	r22, r18
    1f16:	52 e0       	ldi	r21, 0x02	; 2
    1f18:	66 0f       	add	r22, r22
    1f1a:	77 1f       	adc	r23, r23
    1f1c:	88 1f       	adc	r24, r24
    1f1e:	99 1f       	adc	r25, r25
    1f20:	5a 95       	dec	r21
    1f22:	d1 f7       	brne	.-12     	; 0x1f18 <GetResistance+0x2de>
    1f24:	64 0d       	add	r22, r4
    1f26:	75 1d       	adc	r23, r5
    1f28:	86 1d       	adc	r24, r6
    1f2a:	97 1d       	adc	r25, r7
    1f2c:	25 e0       	ldi	r18, 0x05	; 5
    1f2e:	30 e0       	ldi	r19, 0x00	; 0
    1f30:	40 e0       	ldi	r20, 0x00	; 0
    1f32:	50 e0       	ldi	r21, 0x00	; 0
    1f34:	0e 94 32 1f 	call	0x3e64	; 0x3e64 <__udivmodsi4>
    1f38:	69 01       	movw	r12, r18
    1f3a:	7a 01       	movw	r14, r20
    1f3c:	0a c0       	rjmp	.+20     	; 0x1f52 <GetResistance+0x318>
        } else
#endif
        {
           lrx1 = (lirx1 + lirx2) / 2;		//average of both R_L measurements
    1f3e:	69 01       	movw	r12, r18
    1f40:	7a 01       	movw	r14, r20
    1f42:	c4 0c       	add	r12, r4
    1f44:	d5 1c       	adc	r13, r5
    1f46:	e6 1c       	adc	r14, r6
    1f48:	f7 1c       	adc	r15, r7
    1f4a:	f6 94       	lsr	r15
    1f4c:	e7 94       	ror	r14
    1f4e:	d7 94       	ror	r13
    1f50:	c7 94       	ror	r12
        }
     }
     // measurement is finished, lrx1 is the resistance value of one direction
     if(PartFound < PART_TRANSISTOR) {
    1f52:	10 91 18 01 	lds	r17, 0x0118
    1f56:	13 30       	cpi	r17, 0x03	; 3
    1f58:	08 f0       	brcs	.+2      	; 0x1f5c <GetResistance+0x322>
    1f5a:	01 cf       	rjmp	.-510    	; 0x1d5e <GetResistance+0x124>
// Search for resistors
//##########################################################################################
  if ((ptrans.count  + ntrans.count) > 0) {
     return;	// no resistors are searched, if transistors are detected
  }
  resnum = (LowPin + HighPin -1);	// resistor-Number 0:1 = 0, 0:2 = 1, 1:2 = 2
    1f5c:	9a 94       	dec	r9
    1f5e:	98 0c       	add	r9, r8
           lrx1 = (lirx1 + lirx2) / 2;		//average of both R_L measurements
        }
     }
     // measurement is finished, lrx1 is the resistance value of one direction
     if(PartFound < PART_TRANSISTOR) {
        if (ResistorChecked[resnum] != 0) {
    1f60:	89 2d       	mov	r24, r9
    1f62:	90 e0       	ldi	r25, 0x00	; 0
    1f64:	ec 01       	movw	r28, r24
    1f66:	c8 5a       	subi	r28, 0xA8	; 168
    1f68:	de 4f       	sbci	r29, 0xFE	; 254
    1f6a:	28 81       	ld	r18, Y
    1f6c:	88 0f       	add	r24, r24
    1f6e:	99 1f       	adc	r25, r25
    1f70:	88 0f       	add	r24, r24
    1f72:	99 1f       	adc	r25, r25
           // must be measurement with inverse polarity 
           // resolution is 0.1 Ohm, 1 Ohm = 10 !
           lirx1 = (labs((long)lrx1 - (long)ResistorVal[resnum]) * 10) / (lrx1 + ResistorVal[resnum] + 100);
    1f74:	fc 01       	movw	r30, r24
    1f76:	ee 55       	subi	r30, 0x5E	; 94
    1f78:	fe 4f       	sbci	r31, 0xFE	; 254
           lrx1 = (lirx1 + lirx2) / 2;		//average of both R_L measurements
        }
     }
     // measurement is finished, lrx1 is the resistance value of one direction
     if(PartFound < PART_TRANSISTOR) {
        if (ResistorChecked[resnum] != 0) {
    1f7a:	22 23       	and	r18, r18
    1f7c:	d1 f1       	breq	.+116    	; 0x1ff2 <GetResistance+0x3b8>
           // must be measurement with inverse polarity 
           // resolution is 0.1 Ohm, 1 Ohm = 10 !
           lirx1 = (labs((long)lrx1 - (long)ResistorVal[resnum]) * 10) / (lrx1 + ResistorVal[resnum] + 100);
    1f7e:	40 80       	ld	r4, Z
    1f80:	51 80       	ldd	r5, Z+1	; 0x01
    1f82:	62 80       	ldd	r6, Z+2	; 0x02
    1f84:	73 80       	ldd	r7, Z+3	; 0x03
    1f86:	a7 01       	movw	r20, r14
    1f88:	96 01       	movw	r18, r12
    1f8a:	24 19       	sub	r18, r4
    1f8c:	35 09       	sbc	r19, r5
    1f8e:	46 09       	sbc	r20, r6
    1f90:	57 09       	sbc	r21, r7
    1f92:	57 ff       	sbrs	r21, 7
    1f94:	07 c0       	rjmp	.+14     	; 0x1fa4 <GetResistance+0x36a>
    1f96:	50 95       	com	r21
    1f98:	40 95       	com	r20
    1f9a:	30 95       	com	r19
    1f9c:	21 95       	neg	r18
    1f9e:	3f 4f       	sbci	r19, 0xFF	; 255
    1fa0:	4f 4f       	sbci	r20, 0xFF	; 255
    1fa2:	5f 4f       	sbci	r21, 0xFF	; 255
    1fa4:	aa e0       	ldi	r26, 0x0A	; 10
    1fa6:	b0 e0       	ldi	r27, 0x00	; 0
    1fa8:	0e 94 03 1f 	call	0x3e06	; 0x3e06 <__muluhisi3>
    1fac:	a3 01       	movw	r20, r6
    1fae:	92 01       	movw	r18, r4
    1fb0:	2c 59       	subi	r18, 0x9C	; 156
    1fb2:	3f 4f       	sbci	r19, 0xFF	; 255
    1fb4:	4f 4f       	sbci	r20, 0xFF	; 255
    1fb6:	5f 4f       	sbci	r21, 0xFF	; 255
    1fb8:	2c 0d       	add	r18, r12
    1fba:	3d 1d       	adc	r19, r13
    1fbc:	4e 1d       	adc	r20, r14
    1fbe:	5f 1d       	adc	r21, r15
    1fc0:	0e 94 32 1f 	call	0x3e64	; 0x3e64 <__udivmodsi4>
           if (lirx1  > 0) {
    1fc4:	23 2b       	or	r18, r19
    1fc6:	24 2b       	or	r18, r20
    1fc8:	25 2b       	or	r18, r21
    1fca:	09 f0       	breq	.+2      	; 0x1fce <GetResistance+0x394>
    1fcc:	c8 ce       	rjmp	.-624    	; 0x1d5e <GetResistance+0x124>
              // mismatch of the two measurements
//              ResistorsFound--;		// this one isn't a resistor
//              goto testend; // <10% mismatch
           } else {
              // resistor has the same value in both directions
              if (PartFound < PART_DIODE) {
    1fce:	12 30       	cpi	r17, 0x02	; 2
    1fd0:	19 f0       	breq	.+6      	; 0x1fd8 <GetResistance+0x39e>
                 PartFound = PART_RESISTOR;	// only mark as resistor, if no other part found
    1fd2:	81 e0       	ldi	r24, 0x01	; 1
    1fd4:	80 93 18 01 	sts	0x0118, r24
              }
              ResistorChecked[resnum] = 2;		// mark as checked in both direction
    1fd8:	82 e0       	ldi	r24, 0x02	; 2
    1fda:	88 83       	st	Y, r24
              ResistorList[ResistorsFound] = resnum;	// save number of this resistor
    1fdc:	80 91 70 01 	lds	r24, 0x0170
    1fe0:	e8 2f       	mov	r30, r24
    1fe2:	f0 e0       	ldi	r31, 0x00	; 0
    1fe4:	e5 5a       	subi	r30, 0xA5	; 165
    1fe6:	fe 4f       	sbci	r31, 0xFE	; 254
    1fe8:	90 82       	st	Z, r9
              ResistorsFound++;			// 1 more resistor found
    1fea:	8f 5f       	subi	r24, 0xFF	; 255
    1fec:	80 93 70 01 	sts	0x0170, r24
    1ff0:	b6 ce       	rjmp	.-660    	; 0x1d5e <GetResistance+0x124>
           }
              goto testend;
        } else {		// resistor is never checked before
           // must be a new one with other pins
           ResistorVal[resnum] = lrx1;	// save register value
    1ff2:	c0 82       	st	Z, r12
    1ff4:	d1 82       	std	Z+1, r13	; 0x01
    1ff6:	e2 82       	std	Z+2, r14	; 0x02
    1ff8:	f3 82       	std	Z+3, r15	; 0x03
           ResistorChecked[resnum] = 1;		// is checked in one direction
    1ffa:	81 e0       	ldi	r24, 0x01	; 1
    1ffc:	88 83       	st	Y, r24
    1ffe:	af ce       	rjmp	.-674    	; 0x1d5e <GetResistance+0x124>
#if R_ANZ_MESS != ANZ_MESS
  ADCconfig.Samples = ANZ_MESS;		// switch back to standard number of repetition
#endif

  return;
} // end GetResistance()
    2000:	cd b7       	in	r28, 0x3d	; 61
    2002:	de b7       	in	r29, 0x3e	; 62
    2004:	e0 e1       	ldi	r30, 0x10	; 16
    2006:	0c 94 91 1f 	jmp	0x3f22	; 0x3f22 <__epilogue_restores__+0x4>

0000200a <ChargePin10ms>:
#include "Transistortester.h"


//******************************************************************

void ChargePin10ms(uint8_t PinToCharge, uint8_t ChargeDirection) {
    200a:	cf 93       	push	r28
    200c:	c8 2f       	mov	r28, r24
    200e:	c0 95       	com	r28
   //Parameters:
   //PinToCharge: specifies the pin as mask for R-Port
   //ChargeDirection: 0 = switch to GND (N-Kanal-FET), 1= switch to VCC(P-Kanal-FET)

   if(ChargeDirection&1) {
      R_PORT |= PinToCharge;	//R_PORT to 1 (VCC) 
    2010:	95 b1       	in	r25, 0x05	; 5
   //Will be used by discharge of MOSFET Gates or to load big capacities.
   //Parameters:
   //PinToCharge: specifies the pin as mask for R-Port
   //ChargeDirection: 0 = switch to GND (N-Kanal-FET), 1= switch to VCC(P-Kanal-FET)

   if(ChargeDirection&1) {
    2012:	60 ff       	sbrs	r22, 0
    2014:	02 c0       	rjmp	.+4      	; 0x201a <ChargePin10ms+0x10>
      R_PORT |= PinToCharge;	//R_PORT to 1 (VCC) 
    2016:	98 2b       	or	r25, r24
    2018:	01 c0       	rjmp	.+2      	; 0x201c <ChargePin10ms+0x12>
   } else {
      R_PORT &= ~PinToCharge; // or 0 (GND)
    201a:	9c 23       	and	r25, r28
    201c:	95 b9       	out	0x05, r25	; 5
   }
   R_DDR |= PinToCharge;		//switch Pin to output, across R to GND or VCC
    201e:	94 b1       	in	r25, 0x04	; 4
    2020:	98 2b       	or	r25, r24
    2022:	94 b9       	out	0x04, r25	; 4
   wait_about10ms();			// wait about 10ms
    2024:	82 e0       	ldi	r24, 0x02	; 2
    2026:	0e 94 7e 03 	call	0x6fc	; 0x6fc <sleep_5ms>
   // switch back Input, no current
   R_DDR &= ~PinToCharge;	// switch back to input
    202a:	84 b1       	in	r24, 0x04	; 4
    202c:	8c 23       	and	r24, r28
    202e:	84 b9       	out	0x04, r24	; 4
   R_PORT &= ~PinToCharge;	// no Pull up
    2030:	85 b1       	in	r24, 0x05	; 5
    2032:	8c 23       	and	r24, r28
    2034:	85 b9       	out	0x05, r24	; 5
}
    2036:	cf 91       	pop	r28
    2038:	08 95       	ret

0000203a <EntladePins>:
#include <avr/pgmspace.h>
#include "Transistortester.h"


// first discharge any charge of capacitors
void EntladePins() {
    203a:	a0 e0       	ldi	r26, 0x00	; 0
    203c:	b0 e0       	ldi	r27, 0x00	; 0
    203e:	e3 e2       	ldi	r30, 0x23	; 35
    2040:	f0 e1       	ldi	r31, 0x10	; 16
    2042:	0c 94 7c 1f 	jmp	0x3ef8	; 0x3ef8 <__prologue_saves__+0x12>
    2046:	8a e0       	ldi	r24, 0x0A	; 10
    2048:	d8 2e       	mov	r13, r24
     adc_gnd = TXD_MSK;		// put all ADC to Input
     ADC_DDR = adc_gnd;
     ADC_PORT = TXD_VAL;		// ADC-outputs auf 0
     R_PORT = 0;			// R-outputs auf 0
//     R_DDR = (1<<PIN_RH3) | (1<<PIN_RH2) | (1<<PIN_RH1); // R_H for all Pins to GND
     R_DDR = (1<<PIN_RH3) | (1<<PIN_RL3) | (1<<PIN_RH2) | (1<<PIN_RL2) | (1<<PIN_RH1) | (1<<PIN_RL1); // R_H and R_L for all Pins to GND
    204a:	9f e3       	ldi	r25, 0x3F	; 63
    204c:	b9 2e       	mov	r11, r25
        if ((adcmv[0] < (CAP_EMPTY_LEVEL+2)) && (adcmv[1] < (CAP_EMPTY_LEVEL+2)) && (adcmv[2] < (CAP_EMPTY_LEVEL+2))) {
           break;
        }
     }
     if (clr_cnt == MAX_ENTLADE_ZEIT) {
        PartFound = PART_CELL;	// mark as Battery
    204e:	28 e0       	ldi	r18, 0x08	; 8
    2050:	c2 2e       	mov	r12, r18
// max. time of discharge in ms  (10000/20) == 10s
#define MAX_ENTLADE_ZEIT  (10000/20)

  for(lop_cnt=0;lop_cnt<10;lop_cnt++) {
     adc_gnd = TXD_MSK;		// put all ADC to Input
     ADC_DDR = adc_gnd;
    2052:	17 b8       	out	0x07, r1	; 7
     ADC_PORT = TXD_VAL;		// ADC-outputs auf 0
    2054:	18 b8       	out	0x08, r1	; 8
     R_PORT = 0;			// R-outputs auf 0
    2056:	15 b8       	out	0x05, r1	; 5
//     R_DDR = (1<<PIN_RH3) | (1<<PIN_RH2) | (1<<PIN_RH1); // R_H for all Pins to GND
     R_DDR = (1<<PIN_RH3) | (1<<PIN_RL3) | (1<<PIN_RH2) | (1<<PIN_RL2) | (1<<PIN_RH1) | (1<<PIN_RL1); // R_H and R_L for all Pins to GND
    2058:	b4 b8       	out	0x04, r11	; 4
     adcmv[0] = W5msReadADC(PC0);	// which voltage has Pin 1?
    205a:	80 e0       	ldi	r24, 0x00	; 0
    205c:	0e 94 b0 03 	call	0x760	; 0x760 <W5msReadADC>
    2060:	8c 01       	movw	r16, r24
     adcmv[1] = ReadADC(PC1);	// which voltage has Pin 2?
    2062:	81 e0       	ldi	r24, 0x01	; 1
    2064:	0e 94 b4 03 	call	0x768	; 0x768 <ReadADC>
    2068:	ec 01       	movw	r28, r24
     adcmv[2] = ReadADC(PC2);	// which voltage has Pin 3?
    206a:	82 e0       	ldi	r24, 0x02	; 2
    206c:	0e 94 b4 03 	call	0x768	; 0x768 <ReadADC>
     if ((PartFound == PART_CELL) || (adcmv[0] < CAP_EMPTY_LEVEL) & (adcmv[1] < CAP_EMPTY_LEVEL) & (adcmv[2] < CAP_EMPTY_LEVEL)) {
    2070:	20 91 18 01 	lds	r18, 0x0118
    2074:	28 30       	cpi	r18, 0x08	; 8
    2076:	79 f0       	breq	.+30     	; 0x2096 <EntladePins+0x5c>
    2078:	31 e0       	ldi	r19, 0x01	; 1
    207a:	c4 30       	cpi	r28, 0x04	; 4
    207c:	d1 05       	cpc	r29, r1
    207e:	08 f0       	brcs	.+2      	; 0x2082 <EntladePins+0x48>
    2080:	30 e0       	ldi	r19, 0x00	; 0
    2082:	21 e0       	ldi	r18, 0x01	; 1
    2084:	04 30       	cpi	r16, 0x04	; 4
    2086:	11 05       	cpc	r17, r1
    2088:	08 f0       	brcs	.+2      	; 0x208c <EntladePins+0x52>
    208a:	20 e0       	ldi	r18, 0x00	; 0
    208c:	23 23       	and	r18, r19
    208e:	31 f0       	breq	.+12     	; 0x209c <EntladePins+0x62>
    2090:	84 30       	cpi	r24, 0x04	; 4
    2092:	91 05       	cpc	r25, r1
    2094:	18 f4       	brcc	.+6      	; 0x209c <EntladePins+0x62>
        ADC_DDR = TXD_MSK;		// switch all ADC-Pins to input
    2096:	17 b8       	out	0x07, r1	; 7
        R_DDR = 0;			// switch all R_L Ports (and R_H) to input
    2098:	14 b8       	out	0x04, r1	; 4
    209a:	49 c0       	rjmp	.+146    	; 0x212e <EntladePins+0xf4>
        cell_mv[2] = adcmv[2];		// save the voltage of pin 3
#endif
        return;			// all is discharged
     }
     // all Pins with voltage lower than 1V can be connected directly to GND (ADC-Port)
     if (adcmv[0] < 1000) {
    209c:	21 e0       	ldi	r18, 0x01	; 1
    209e:	08 3e       	cpi	r16, 0xE8	; 232
    20a0:	13 40       	sbci	r17, 0x03	; 3
    20a2:	08 f0       	brcs	.+2      	; 0x20a6 <EntladePins+0x6c>
    20a4:	20 e0       	ldi	r18, 0x00	; 0
        adc_gnd |= (1<<PC0);	//Pin 1 directly to GND
     }
     if (adcmv[1] < 1000) {
    20a6:	c8 3e       	cpi	r28, 0xE8	; 232
    20a8:	d3 40       	sbci	r29, 0x03	; 3
    20aa:	08 f4       	brcc	.+2      	; 0x20ae <EntladePins+0x74>
        adc_gnd |= (1<<PC1);	//Pin 2 directly to GND
    20ac:	22 60       	ori	r18, 0x02	; 2
     }
     if (adcmv[2] < 1000) {
    20ae:	88 3e       	cpi	r24, 0xE8	; 232
    20b0:	93 40       	sbci	r25, 0x03	; 3
    20b2:	08 f4       	brcc	.+2      	; 0x20b6 <EntladePins+0x7c>
        adc_gnd |= (1<<PC2);	//Pin 3 directly to  GND
    20b4:	24 60       	ori	r18, 0x04	; 4
     }
     ADC_DDR = adc_gnd;		// switch all selected ADC-Ports at the same time
    20b6:	27 b9       	out	0x07, r18	; 7

     // additionally switch the leaving Ports with R_L to GND.
     // since there is no disadvantage for the already directly switched pins, we can
     // simply switch all  R_L resistors to GND
//     R_DDR = (1<<PIN_RL3) | (1<<PIN_RL2) | (1<<PIN_RL1);	// Pins across R_L resistors to GND
     for(clr_cnt=0;clr_cnt<MAX_ENTLADE_ZEIT;clr_cnt++) {
    20b8:	c0 e0       	ldi	r28, 0x00	; 0
    20ba:	d0 e0       	ldi	r29, 0x00	; 0
        wdt_reset();
    20bc:	a8 95       	wdr
        adcmv[0] = W20msReadADC(PC0);	// which voltage has Pin 1?
    20be:	80 e0       	ldi	r24, 0x00	; 0
    20c0:	0e 94 a8 03 	call	0x750	; 0x750 <W20msReadADC>
    20c4:	7c 01       	movw	r14, r24
        adcmv[1] = ReadADC(PC1);	// which voltage has Pin 2?
    20c6:	81 e0       	ldi	r24, 0x01	; 1
    20c8:	0e 94 b4 03 	call	0x768	; 0x768 <ReadADC>
    20cc:	8c 01       	movw	r16, r24
        adcmv[2] = ReadADC(PC2);	// which voltage has Pin 3?
    20ce:	82 e0       	ldi	r24, 0x02	; 2
    20d0:	0e 94 b4 03 	call	0x768	; 0x768 <ReadADC>
        if (adcmv[0] < 1300) {
    20d4:	24 e1       	ldi	r18, 0x14	; 20
    20d6:	e2 16       	cp	r14, r18
    20d8:	25 e0       	ldi	r18, 0x05	; 5
    20da:	f2 06       	cpc	r15, r18
    20dc:	08 f4       	brcc	.+2      	; 0x20e0 <EntladePins+0xa6>
           ADC_DDR |= (1<<PC0);	// below 1.3V , switch directly with ADC-Port to GND
    20de:	38 9a       	sbi	0x07, 0	; 7
        }
        if (adcmv[1] < 1300) {
    20e0:	04 31       	cpi	r16, 0x14	; 20
    20e2:	35 e0       	ldi	r19, 0x05	; 5
    20e4:	13 07       	cpc	r17, r19
    20e6:	08 f4       	brcc	.+2      	; 0x20ea <EntladePins+0xb0>
           ADC_DDR |= (1<<PC1);	// below 1.3V, switch directly with ADC-Port to GND
    20e8:	39 9a       	sbi	0x07, 1	; 7
        }
        if (adcmv[2] < 1300) {
    20ea:	84 31       	cpi	r24, 0x14	; 20
    20ec:	25 e0       	ldi	r18, 0x05	; 5
    20ee:	92 07       	cpc	r25, r18
    20f0:	08 f4       	brcc	.+2      	; 0x20f4 <EntladePins+0xba>
           ADC_DDR |= (1<<PC2);	// below 1.3V, switch directly with ADC-Port to GND
    20f2:	3a 9a       	sbi	0x07, 2	; 7
        }
        if ((adcmv[0] < (CAP_EMPTY_LEVEL+2)) && (adcmv[1] < (CAP_EMPTY_LEVEL+2)) && (adcmv[2] < (CAP_EMPTY_LEVEL+2))) {
    20f4:	36 e0       	ldi	r19, 0x06	; 6
    20f6:	e3 16       	cp	r14, r19
    20f8:	f1 04       	cpc	r15, r1
    20fa:	28 f4       	brcc	.+10     	; 0x2106 <EntladePins+0xcc>
    20fc:	06 30       	cpi	r16, 0x06	; 6
    20fe:	11 05       	cpc	r17, r1
    2100:	10 f4       	brcc	.+4      	; 0x2106 <EntladePins+0xcc>
    2102:	06 97       	sbiw	r24, 0x06	; 6
    2104:	38 f0       	brcs	.+14     	; 0x2114 <EntladePins+0xda>

     // additionally switch the leaving Ports with R_L to GND.
     // since there is no disadvantage for the already directly switched pins, we can
     // simply switch all  R_L resistors to GND
//     R_DDR = (1<<PIN_RL3) | (1<<PIN_RL2) | (1<<PIN_RL1);	// Pins across R_L resistors to GND
     for(clr_cnt=0;clr_cnt<MAX_ENTLADE_ZEIT;clr_cnt++) {
    2106:	21 96       	adiw	r28, 0x01	; 1
    2108:	c4 3f       	cpi	r28, 0xF4	; 244
    210a:	81 e0       	ldi	r24, 0x01	; 1
    210c:	d8 07       	cpc	r29, r24
    210e:	b1 f6       	brne	.-84     	; 0x20bc <EntladePins+0x82>
        if ((adcmv[0] < (CAP_EMPTY_LEVEL+2)) && (adcmv[1] < (CAP_EMPTY_LEVEL+2)) && (adcmv[2] < (CAP_EMPTY_LEVEL+2))) {
           break;
        }
     }
     if (clr_cnt == MAX_ENTLADE_ZEIT) {
        PartFound = PART_CELL;	// mark as Battery
    2110:	c0 92 18 01 	sts	0x0118, r12

     // additionally switch the leaving Ports with R_L to GND.
     // since there is no disadvantage for the already directly switched pins, we can
     // simply switch all  R_L resistors to GND
//     R_DDR = (1<<PIN_RL3) | (1<<PIN_RL2) | (1<<PIN_RL1);	// Pins across R_L resistors to GND
     for(clr_cnt=0;clr_cnt<MAX_ENTLADE_ZEIT;clr_cnt++) {
    2114:	00 e0       	ldi	r16, 0x00	; 0
    2116:	10 e0       	ldi	r17, 0x00	; 0
        lcd_space();
        u2lcd(adcmv[1];		// lcd_string(utoa(adcmv[1], outval, 10));
        lcd_space();
        u2lcd(adcmv[2];		// lcd_string(utoa(adcmv[2], outval, 10));
#endif
     for(adcmv[0]=0;adcmv[0]<clr_cnt;adcmv[0]++) {
    2118:	0c 17       	cp	r16, r28
    211a:	1d 07       	cpc	r17, r29
    211c:	29 f0       	breq	.+10     	; 0x2128 <EntladePins+0xee>
        // for safety, discharge 5% of discharge  time
        wait1ms();
    211e:	0e 94 6d 03 	call	0x6da	; 0x6da <wait1ms>
    2122:	0f 5f       	subi	r16, 0xFF	; 255
    2124:	1f 4f       	sbci	r17, 0xFF	; 255
    2126:	f8 cf       	rjmp	.-16     	; 0x2118 <EntladePins+0xde>
    2128:	da 94       	dec	r13
  unsigned int clr_cnt;		// Clear Counter
  uint8_t lop_cnt;		// loop counter
// max. time of discharge in ms  (10000/20) == 10s
#define MAX_ENTLADE_ZEIT  (10000/20)

  for(lop_cnt=0;lop_cnt<10;lop_cnt++) {
    212a:	09 f0       	breq	.+2      	; 0x212e <EntladePins+0xf4>
    212c:	92 cf       	rjmp	.-220    	; 0x2052 <EntladePins+0x18>
     for(adcmv[0]=0;adcmv[0]<clr_cnt;adcmv[0]++) {
        // for safety, discharge 5% of discharge  time
        wait1ms();
     }
  } // end for lop_cnt
 }
    212e:	cd b7       	in	r28, 0x3d	; 61
    2130:	de b7       	in	r29, 0x3e	; 62
    2132:	e9 e0       	ldi	r30, 0x09	; 9
    2134:	0c 94 98 1f 	jmp	0x3f30	; 0x3f30 <__epilogue_restores__+0x12>

00002138 <Scale_C_with_vcc>:
  R_PORT = 0; 			// switch all resistor outputs to GND, no pull up
  return;
 } // end ReadCapacity()


void Scale_C_with_vcc(void) {
    2138:	cf 92       	push	r12
    213a:	df 92       	push	r13
    213c:	ef 92       	push	r14
    213e:	ff 92       	push	r15
    2140:	cf 93       	push	r28
    2142:	20 91 74 01 	lds	r18, 0x0174
    2146:	30 91 75 01 	lds	r19, 0x0175
    214a:	40 91 76 01 	lds	r20, 0x0176
    214e:	50 91 77 01 	lds	r21, 0x0177
    2152:	c0 91 86 01 	lds	r28, 0x0186
   while (cap.cval > 100000) {
      cap.cval /= 10;
    2156:	8a e0       	ldi	r24, 0x0A	; 10
    2158:	c8 2e       	mov	r12, r24
    215a:	d1 2c       	mov	r13, r1
    215c:	e1 2c       	mov	r14, r1
    215e:	f1 2c       	mov	r15, r1
    2160:	8c 2f       	mov	r24, r28
    2162:	cf 5f       	subi	r28, 0xFF	; 255
  return;
 } // end ReadCapacity()


void Scale_C_with_vcc(void) {
   while (cap.cval > 100000) {
    2164:	21 3a       	cpi	r18, 0xA1	; 161
    2166:	96 e8       	ldi	r25, 0x86	; 134
    2168:	39 07       	cpc	r19, r25
    216a:	91 e0       	ldi	r25, 0x01	; 1
    216c:	49 07       	cpc	r20, r25
    216e:	51 05       	cpc	r21, r1
    2170:	38 f0       	brcs	.+14     	; 0x2180 <Scale_C_with_vcc+0x48>
      cap.cval /= 10;
    2172:	ca 01       	movw	r24, r20
    2174:	b9 01       	movw	r22, r18
    2176:	a7 01       	movw	r20, r14
    2178:	96 01       	movw	r18, r12
    217a:	0e 94 32 1f 	call	0x3e64	; 0x3e64 <__udivmodsi4>
    217e:	f0 cf       	rjmp	.-32     	; 0x2160 <Scale_C_with_vcc+0x28>
    2180:	80 93 86 01 	sts	0x0186, r24
      cap.cpre ++;			// prevent overflow
   }
   cap.cval *= ADCconfig.U_AVCC;	// scale with measured voltage
    2184:	a0 91 2b 01 	lds	r26, 0x012B
    2188:	b0 91 2c 01 	lds	r27, 0x012C
    218c:	0e 94 03 1f 	call	0x3e06	; 0x3e06 <__muluhisi3>
   cap.cval /= U_VCC;			// Factors are computed for U_VCC
    2190:	28 e8       	ldi	r18, 0x88	; 136
    2192:	33 e1       	ldi	r19, 0x13	; 19
    2194:	40 e0       	ldi	r20, 0x00	; 0
    2196:	50 e0       	ldi	r21, 0x00	; 0
    2198:	0e 94 32 1f 	call	0x3e64	; 0x3e64 <__udivmodsi4>
    219c:	20 93 74 01 	sts	0x0174, r18
    21a0:	30 93 75 01 	sts	0x0175, r19
    21a4:	40 93 76 01 	sts	0x0176, r20
    21a8:	50 93 77 01 	sts	0x0177, r21
}
    21ac:	cf 91       	pop	r28
    21ae:	ff 90       	pop	r15
    21b0:	ef 90       	pop	r14
    21b2:	df 90       	pop	r13
    21b4:	cf 90       	pop	r12
    21b6:	08 95       	ret

000021b8 <ReadCapacity>:
#include <stdlib.h>
#include "Transistortester.h"


//=================================================================
void ReadCapacity(uint8_t HighPin, uint8_t LowPin) {
    21b8:	a0 e0       	ldi	r26, 0x00	; 0
    21ba:	b0 e0       	ldi	r27, 0x00	; 0
    21bc:	e2 ee       	ldi	r30, 0xE2	; 226
    21be:	f0 e1       	ldi	r31, 0x10	; 16
    21c0:	0c 94 7b 1f 	jmp	0x3ef6	; 0x3ef6 <__prologue_saves__+0x10>
    21c4:	c8 2f       	mov	r28, r24
    21c6:	d6 2f       	mov	r29, r22
     residual_voltage = ReadADC(HighPin);		// voltage before any load 
  }
#endif

#ifdef AUTO_CAL
  pin_combination = (HighPin * 3) + LowPin - 1;	// coded Pin combination for capacity zero offset
    21c8:	8f ef       	ldi	r24, 0xFF	; 255
    21ca:	86 0f       	add	r24, r22
    21cc:	9c 2f       	mov	r25, r28
    21ce:	99 0f       	add	r25, r25
    21d0:	9c 0f       	add	r25, r28
    21d2:	89 0f       	add	r24, r25
    21d4:	80 93 55 01 	sts	0x0155, r24
#endif

  HiPinR_L = pgm_read_byte(&PinRLRHADCtab[HighPin]);	//R_L mask for HighPin R_L load
    21d8:	ec 2f       	mov	r30, r28
    21da:	f0 e0       	ldi	r31, 0x00	; 0
    21dc:	e2 58       	subi	r30, 0x82	; 130
    21de:	ff 4f       	sbci	r31, 0xFF	; 255
    21e0:	14 91       	lpm	r17, Z
  LoPinR_L = pgm_read_byte(&PinRLRHADCtab[LowPin]);	//R_L mask for LowPin R_L load
    21e2:	86 2f       	mov	r24, r22
    21e4:	90 e0       	ldi	r25, 0x00	; 0
    21e6:	fc 01       	movw	r30, r24
    21e8:	e2 58       	subi	r30, 0x82	; 130
    21ea:	ff 4f       	sbci	r31, 0xFF	; 255
    21ec:	f4 90       	lpm	r15, Z
#if (((PIN_RL1 + 1) != PIN_RH1) || ((PIN_RL2 + 1) != PIN_RH2) || ((PIN_RL3 + 1) != PIN_RH3))
  HiPinR_H = pgm_read_byte((&PinRLRHADCtab[3])+HighPin);	//R_H mask for HighPin R_H load
  LoADC = pgm_read_byte((&PinRLRHADCtab[6])+LowPin) | TXD_MSK;
#else
  HiPinR_H = HiPinR_L + HiPinR_L;	//double for HighPin R_H load
  LoADC = pgm_read_byte((&PinRLRHADCtab[3])+LowPin) | TXD_MSK;
    21ee:	fc 01       	movw	r30, r24
    21f0:	ef 57       	subi	r30, 0x7F	; 127
    21f2:	ff 4f       	sbci	r31, 0xFF	; 255
    21f4:	04 91       	lpm	r16, Z
  lcd_testpin(LowPin);
  lcd_data('C');
  lcd_testpin(HighPin);
  lcd_space();
#endif
  if(PartFound == PART_RESISTOR) {
    21f6:	80 91 18 01 	lds	r24, 0x0118
    21fa:	81 30       	cpi	r24, 0x01	; 1
    21fc:	09 f4       	brne	.+2      	; 0x2200 <ReadCapacity+0x48>
    21fe:	7d c2       	rjmp	.+1274   	; 0x26fa <ReadCapacity+0x542>
     lcd_data('R');
     wait_about2s();
#endif
     return;	//We have found a resistor already 
  }
  for (ii=0;ii<NumOfDiodes;ii++) {
    2200:	40 91 16 01 	lds	r20, 0x0116
    2204:	80 e9       	ldi	r24, 0x90	; 144
    2206:	91 e0       	ldi	r25, 0x01	; 1
    2208:	66 e9       	ldi	r22, 0x96	; 150
    220a:	71 e0       	ldi	r23, 0x01	; 1
    220c:	dc 01       	movw	r26, r24
    220e:	2a 2f       	mov	r18, r26
    2210:	28 1b       	sub	r18, r24
    2212:	24 17       	cp	r18, r20
    2214:	a0 f4       	brcc	.+40     	; 0x223e <ReadCapacity+0x86>
     if ((diodes.Cathode[ii] == LowPin) && (diodes.Anode[ii] == HighPin) && (diodes.Voltage[ii] < 1500)) {
    2216:	2d 91       	ld	r18, X+
    2218:	2d 13       	cpse	r18, r29
    221a:	0e c0       	rjmp	.+28     	; 0x2238 <ReadCapacity+0x80>
    221c:	9d 01       	movw	r18, r26
    221e:	27 50       	subi	r18, 0x07	; 7
    2220:	31 09       	sbc	r19, r1
    2222:	f9 01       	movw	r30, r18
    2224:	20 81       	ld	r18, Z
    2226:	2c 13       	cpse	r18, r28
    2228:	07 c0       	rjmp	.+14     	; 0x2238 <ReadCapacity+0x80>
    222a:	fb 01       	movw	r30, r22
    222c:	20 81       	ld	r18, Z
    222e:	31 81       	ldd	r19, Z+1	; 0x01
    2230:	2c 3d       	cpi	r18, 0xDC	; 220
    2232:	35 40       	sbci	r19, 0x05	; 5
    2234:	08 f4       	brcc	.+2      	; 0x2238 <ReadCapacity+0x80>
    2236:	61 c2       	rjmp	.+1218   	; 0x26fa <ReadCapacity+0x542>
    2238:	6e 5f       	subi	r22, 0xFE	; 254
    223a:	7f 4f       	sbci	r23, 0xFF	; 255
    223c:	e8 cf       	rjmp	.-48     	; 0x220e <ReadCapacity+0x56>
     }
  }
  
#if FLASHEND > 0x1fff
  unsigned int vloss;	// lost voltage after load pulse in 0.1% 
  cap.esr = 0;				// set ESR of capacitor to zero
    223e:	10 92 81 01 	sts	0x0181, r1
    2242:	10 92 80 01 	sts	0x0180, r1
  vloss = 0;				// set lost voltage to zero
#endif
  cap.cval = 0;				// set capacity value to zero
    2246:	10 92 74 01 	sts	0x0174, r1
    224a:	10 92 75 01 	sts	0x0175, r1
    224e:	10 92 76 01 	sts	0x0176, r1
    2252:	10 92 77 01 	sts	0x0177, r1
  cap.cpre = 0;			// mark for no cap
    2256:	10 92 86 01 	sts	0x0186, r1
  EntladePins();			// discharge capacitor
    225a:	0e 94 1d 10 	call	0x203a	; 0x203a <EntladePins>
  ADC_PORT = TXD_VAL;			// switch ADC-Port to GND
    225e:	18 b8       	out	0x08, r1	; 8
// The polarity of residual voltage of the capacitor depends on the measurement
// history. For the normal test cycle the residual voltage is negative
// at the HighPin. Because the ADC can not measure a negative Voltage,
// the HighPin is grounded and the voltage is measured at the Lowpin to
// detect a negative voltage of the Highpin
  ADC_DDR = LoADC;			// switch Low-Pin to output (GND)
    2260:	07 b9       	out	0x07, r16	; 7
  R_DDR = LoPinR_L;			// switch R_L Port of LoPin to VCC
    2262:	f4 b8       	out	0x04, r15	; 4
  R_PORT = LoPinR_L;			// switch R_L Port of LoPin to VCC
    2264:	f5 b8       	out	0x05, r15	; 5
  residual_voltage = ReadADC(HighPin) - ReadADC(LowPin); // voltage at HighPin before any load 
    2266:	8c 2f       	mov	r24, r28
    2268:	0e 94 b4 03 	call	0x768	; 0x768 <ReadADC>
    226c:	6c 01       	movw	r12, r24
    226e:	8d 2f       	mov	r24, r29
    2270:	0e 94 b4 03 	call	0x768	; 0x768 <ReadADC>
    2274:	c8 1a       	sub	r12, r24
    2276:	d9 0a       	sbc	r13, r25
  cap_voltage1 = 0;			// preset to prevent compiler warning
#define MAX_LOAD_TIME 500
#define MIN_VOLTAGE 300
  for (ovcnt16=0;ovcnt16<MAX_LOAD_TIME;ovcnt16++) {
    2278:	10 92 57 01 	sts	0x0157, r1
    227c:	10 92 56 01 	sts	0x0156, r1
// detect a negative voltage of the Highpin
  ADC_DDR = LoADC;			// switch Low-Pin to output (GND)
  R_DDR = LoPinR_L;			// switch R_L Port of LoPin to VCC
  R_PORT = LoPinR_L;			// switch R_L Port of LoPin to VCC
  residual_voltage = ReadADC(HighPin) - ReadADC(LowPin); // voltage at HighPin before any load 
  cap_voltage1 = 0;			// preset to prevent compiler warning
    2280:	e1 2c       	mov	r14, r1
    2282:	f1 2c       	mov	r15, r1
#define MAX_LOAD_TIME 500
#define MIN_VOLTAGE 300
  for (ovcnt16=0;ovcnt16<MAX_LOAD_TIME;ovcnt16++) {
    2284:	20 91 56 01 	lds	r18, 0x0156
    2288:	30 91 57 01 	lds	r19, 0x0157
    228c:	24 3f       	cpi	r18, 0xF4	; 244
    228e:	31 40       	sbci	r19, 0x01	; 1
    2290:	50 f5       	brcc	.+84     	; 0x22e6 <ReadCapacity+0x12e>
     R_PORT = HiPinR_L;			//R_L to 1 (VCC) 
    2292:	15 b9       	out	0x05, r17	; 5
     R_DDR = HiPinR_L;			//switch Pin to output, across R to GND or VCC
    2294:	14 b9       	out	0x04, r17	; 4
     wait10ms();			// wait exactly 10ms, do not sleep
    2296:	0e 94 68 03 	call	0x6d0	; 0x6d0 <wait10ms>
     R_DDR = 0;				// switch back to input
    229a:	14 b8       	out	0x04, r1	; 4
     R_PORT = 0;			// no Pull up
    229c:	15 b8       	out	0x05, r1	; 5
     wait500us();			//wait a little time
    229e:	0e 94 6e 03 	call	0x6dc	; 0x6dc <wait500us>
     wdt_reset();
    22a2:	a8 95       	wdr
     // read voltage without current, is already charged enough?
     cap_voltage1 = ReadADC(HighPin) - residual_voltage; // voltage of capacitor
    22a4:	8c 2f       	mov	r24, r28
    22a6:	0e 94 b4 03 	call	0x768	; 0x768 <ReadADC>
    22aa:	7c 01       	movw	r14, r24
    22ac:	ec 18       	sub	r14, r12
    22ae:	fd 08       	sbc	r15, r13
     if ((ovcnt16 > (MAX_LOAD_TIME/4)) && (cap_voltage1 < (MIN_VOLTAGE/4))) {
    22b0:	80 91 56 01 	lds	r24, 0x0156
    22b4:	90 91 57 01 	lds	r25, 0x0157
    22b8:	8e 37       	cpi	r24, 0x7E	; 126
    22ba:	91 05       	cpc	r25, r1
    22bc:	28 f0       	brcs	.+10     	; 0x22c8 <ReadCapacity+0x110>
    22be:	2b e4       	ldi	r18, 0x4B	; 75
    22c0:	e2 16       	cp	r14, r18
    22c2:	f1 04       	cpc	r15, r1
    22c4:	0c f4       	brge	.+2      	; 0x22c8 <ReadCapacity+0x110>
    22c6:	15 c2       	rjmp	.+1066   	; 0x26f2 <ReadCapacity+0x53a>
        // 300mV can not be reached well-timed 
        break;		// don't try to load any more
     }
     // probably 100mF can be charged well-timed 
     if (cap_voltage1 > MIN_VOLTAGE) {
    22c8:	5d e2       	ldi	r21, 0x2D	; 45
    22ca:	e5 16       	cp	r14, r21
    22cc:	51 e0       	ldi	r21, 0x01	; 1
    22ce:	f5 06       	cpc	r15, r21
    22d0:	84 f4       	brge	.+32     	; 0x22f2 <ReadCapacity+0x13a>
  R_PORT = LoPinR_L;			// switch R_L Port of LoPin to VCC
  residual_voltage = ReadADC(HighPin) - ReadADC(LowPin); // voltage at HighPin before any load 
  cap_voltage1 = 0;			// preset to prevent compiler warning
#define MAX_LOAD_TIME 500
#define MIN_VOLTAGE 300
  for (ovcnt16=0;ovcnt16<MAX_LOAD_TIME;ovcnt16++) {
    22d2:	80 91 56 01 	lds	r24, 0x0156
    22d6:	90 91 57 01 	lds	r25, 0x0157
    22da:	01 96       	adiw	r24, 0x01	; 1
    22dc:	90 93 57 01 	sts	0x0157, r25
    22e0:	80 93 56 01 	sts	0x0156, r24
    22e4:	cf cf       	rjmp	.-98     	; 0x2284 <ReadCapacity+0xcc>
  // wait 5ms and read voltage again, does the capacitor keep the voltage?
#if DebugOut == 10
  DisplayValue(ovcnt16,0,' ',4);
  Display_mV(cap_voltage1,4);
#endif
  if (cap_voltage1 <= MIN_VOLTAGE) {
    22e6:	ed e2       	ldi	r30, 0x2D	; 45
    22e8:	ee 16       	cp	r14, r30
    22ea:	e1 e0       	ldi	r30, 0x01	; 1
    22ec:	fe 06       	cpc	r15, r30
    22ee:	0c f4       	brge	.+2      	; 0x22f2 <ReadCapacity+0x13a>
    22f0:	00 c2       	rjmp	.+1024   	; 0x26f2 <ReadCapacity+0x53a>
#endif
//     if (NumOfDiodes != 0) goto messe_mit_rh; /* ****************************** */
     goto keinC;		// was never charged enough, >100mF or shorted
  }
  //voltage is rised properly and keeps the voltage enough
  if ((ovcnt16 == 0 ) && (cap_voltage1 > 1300)) {
    22f2:	20 91 56 01 	lds	r18, 0x0156
    22f6:	30 91 57 01 	lds	r19, 0x0157
    22fa:	23 2b       	or	r18, r19
    22fc:	21 f0       	breq	.+8      	; 0x2306 <ReadCapacity+0x14e>
    22fe:	c7 01       	movw	r24, r14
    2300:	00 e0       	ldi	r16, 0x00	; 0
    2302:	10 e0       	ldi	r17, 0x00	; 0
    2304:	06 c0       	rjmp	.+12     	; 0x2312 <ReadCapacity+0x15a>
    2306:	f5 e1       	ldi	r31, 0x15	; 21
    2308:	ef 16       	cp	r14, r31
    230a:	f5 e0       	ldi	r31, 0x05	; 5
    230c:	ff 06       	cpc	r15, r31
    230e:	bc f3       	brlt	.-18     	; 0x22fe <ReadCapacity+0x146>
    2310:	77 c0       	rjmp	.+238    	; 0x2400 <ReadCapacity+0x248>
  cap.cval_uncorrected.dw = ovcnt16 + 1;
  cap.cval_uncorrected.dw *= GetRLmultip(cap_voltage1);		// get factor to convert time to capacity from table
#else
  // wait the half the time which was required for loading
  cap_voltage2 = cap_voltage1;			// preset to prevent compiler warning
  for (tmpint=0;tmpint<=ovcnt16;tmpint++) {
    2312:	20 91 56 01 	lds	r18, 0x0156
    2316:	30 91 57 01 	lds	r19, 0x0157
    231a:	20 17       	cp	r18, r16
    231c:	31 07       	cpc	r19, r17
    231e:	58 f0       	brcs	.+22     	; 0x2336 <ReadCapacity+0x17e>
     wait5ms();
    2320:	0e 94 69 03 	call	0x6d2	; 0x6d2 <wait5ms>
     cap_voltage2 = ReadADC(HighPin) - residual_voltage;	// read voltage again, is discharged only a little bit ?
    2324:	8c 2f       	mov	r24, r28
    2326:	0e 94 b4 03 	call	0x768	; 0x768 <ReadADC>
    232a:	8c 19       	sub	r24, r12
    232c:	9d 09       	sbc	r25, r13
     wdt_reset();
    232e:	a8 95       	wdr
  cap.cval_uncorrected.dw = ovcnt16 + 1;
  cap.cval_uncorrected.dw *= GetRLmultip(cap_voltage1);		// get factor to convert time to capacity from table
#else
  // wait the half the time which was required for loading
  cap_voltage2 = cap_voltage1;			// preset to prevent compiler warning
  for (tmpint=0;tmpint<=ovcnt16;tmpint++) {
    2330:	0f 5f       	subi	r16, 0xFF	; 255
    2332:	1f 4f       	sbci	r17, 0xFF	; 255
    2334:	ee cf       	rjmp	.-36     	; 0x2312 <ReadCapacity+0x15a>
     wait5ms();
     cap_voltage2 = ReadADC(HighPin) - residual_voltage;	// read voltage again, is discharged only a little bit ?
     wdt_reset();
  }
     cap_voltage2 = cap_voltage1 - cap_voltage2; 	// lost voltage during load time wait
    2336:	87 01       	movw	r16, r14
    2338:	08 1b       	sub	r16, r24
    233a:	19 0b       	sbc	r17, r25
#if FLASHEND > 0x1fff
  // compute equivalent parallel resistance from voltage drop
  if (cap_voltage2 > 0) {
    233c:	10 16       	cp	r1, r16
    233e:	11 06       	cpc	r1, r17
    2340:	94 f4       	brge	.+36     	; 0x2366 <ReadCapacity+0x1ae>
     // there is any voltage drop !
     // cap_voltage1 is the loaded voltage.
     vloss = (unsigned long)(cap_voltage2 * 1000UL) / cap_voltage1;
  }
#endif
  if (cap_voltage2 > 200) {
    2342:	09 3c       	cpi	r16, 0xC9	; 201
    2344:	11 05       	cpc	r17, r1
    2346:	0c f0       	brlt	.+2      	; 0x234a <ReadCapacity+0x192>
    2348:	d4 c1       	rjmp	.+936    	; 0x26f2 <ReadCapacity+0x53a>
#if FLASHEND > 0x1fff
  // compute equivalent parallel resistance from voltage drop
  if (cap_voltage2 > 0) {
     // there is any voltage drop !
     // cap_voltage1 is the loaded voltage.
     vloss = (unsigned long)(cap_voltage2 * 1000UL) / cap_voltage1;
    234a:	28 ee       	ldi	r18, 0xE8	; 232
    234c:	33 e0       	ldi	r19, 0x03	; 3
    234e:	d8 01       	movw	r26, r16
    2350:	0e 94 fc 1e 	call	0x3df8	; 0x3df8 <__usmulhisi3>
    2354:	97 01       	movw	r18, r14
    2356:	44 27       	eor	r20, r20
    2358:	37 fd       	sbrc	r19, 7
    235a:	40 95       	com	r20
    235c:	54 2f       	mov	r21, r20
    235e:	0e 94 32 1f 	call	0x3e64	; 0x3e64 <__udivmodsi4>
    2362:	69 01       	movw	r12, r18
    2364:	02 c0       	rjmp	.+4      	; 0x236a <ReadCapacity+0x1b2>
  }
  
#if FLASHEND > 0x1fff
  unsigned int vloss;	// lost voltage after load pulse in 0.1% 
  cap.esr = 0;				// set ESR of capacitor to zero
  vloss = 0;				// set lost voltage to zero
    2366:	c1 2c       	mov	r12, r1
    2368:	d1 2c       	mov	r13, r1
//     if (ovcnt16 == 0 )  {
//        goto messe_mit_rh;		// Voltage of more than 300mV is reached in one pulse, but not hold
//     }
     goto keinC;			// capacitor does not keep the voltage about 5ms
  }
  cap.cval_uncorrected.dw = ovcnt16 + 1;
    236a:	a0 90 56 01 	lds	r10, 0x0156
    236e:	b0 90 57 01 	lds	r11, 0x0157
    2372:	2f ef       	ldi	r18, 0xFF	; 255
    2374:	a2 1a       	sub	r10, r18
    2376:	b2 0a       	sbc	r11, r18
    2378:	c5 01       	movw	r24, r10
    237a:	a0 e0       	ldi	r26, 0x00	; 0
    237c:	b0 e0       	ldi	r27, 0x00	; 0
    237e:	80 93 7c 01 	sts	0x017C, r24
    2382:	90 93 7d 01 	sts	0x017D, r25
    2386:	a0 93 7e 01 	sts	0x017E, r26
    238a:	b0 93 7f 01 	sts	0x017F, r27
  // compute factor with load voltage + lost voltage during the voltage load time
  cap.cval_uncorrected.dw *= GetRLmultip(cap_voltage1+cap_voltage2);	// get factor to convert time to capacity from table
    238e:	c7 01       	movw	r24, r14
    2390:	80 0f       	add	r24, r16
    2392:	91 1f       	adc	r25, r17
    2394:	0e 94 ca 13 	call	0x2794	; 0x2794 <GetRLmultip>
    2398:	9c 01       	movw	r18, r24
    239a:	d5 01       	movw	r26, r10
    239c:	0e 94 ed 1e 	call	0x3dda	; 0x3dda <__umulhisi3>
    23a0:	60 93 7c 01 	sts	0x017C, r22
    23a4:	70 93 7d 01 	sts	0x017D, r23
    23a8:	80 93 7e 01 	sts	0x017E, r24
    23ac:	90 93 7f 01 	sts	0x017F, r25
#endif
   cap.cval = cap.cval_uncorrected.dw;	// set result to uncorrected
    23b0:	60 93 74 01 	sts	0x0174, r22
    23b4:	70 93 75 01 	sts	0x0175, r23
    23b8:	80 93 76 01 	sts	0x0176, r24
    23bc:	90 93 77 01 	sts	0x0177, r25
   cap.cpre = -9;		// switch units to nF 
    23c0:	87 ef       	ldi	r24, 0xF7	; 247
    23c2:	80 93 86 01 	sts	0x0186, r24
   Scale_C_with_vcc();
    23c6:	0e 94 9c 10 	call	0x2138	; 0x2138 <Scale_C_with_vcc>
   // cap.cval for this type is at least 40000nF, so the last digit will be never shown
   cap.cval *= (1000 - C_H_KORR);	// correct with C_H_KORR with 0.1% resolution, but prevent overflow
    23ca:	20 91 74 01 	lds	r18, 0x0174
    23ce:	30 91 75 01 	lds	r19, 0x0175
    23d2:	40 91 76 01 	lds	r20, 0x0176
    23d6:	50 91 77 01 	lds	r21, 0x0177
    23da:	a8 ee       	ldi	r26, 0xE8	; 232
    23dc:	b3 e0       	ldi	r27, 0x03	; 3
    23de:	0e 94 03 1f 	call	0x3e06	; 0x3e06 <__muluhisi3>
   cap.cval /= 100;
    23e2:	24 e6       	ldi	r18, 0x64	; 100
    23e4:	30 e0       	ldi	r19, 0x00	; 0
    23e6:	40 e0       	ldi	r20, 0x00	; 0
    23e8:	50 e0       	ldi	r21, 0x00	; 0
    23ea:	0e 94 32 1f 	call	0x3e64	; 0x3e64 <__udivmodsi4>
    23ee:	20 93 74 01 	sts	0x0174, r18
    23f2:	30 93 75 01 	sts	0x0175, r19
    23f6:	40 93 76 01 	sts	0x0176, r20
    23fa:	50 93 77 01 	sts	0x0177, r21
   DisplayValue(cap.cval,cap.cpre,'F',4);
   lcd_space();
   u2lcd(ovcnt16);
   wait_about3s();
#endif
   goto checkDiodes;
    23fe:	37 c1       	rjmp	.+622    	; 0x266e <ReadCapacity+0x4b6>

//==================================================================================
// Measurement of little capacity values
messe_mit_rh:
  //little capacity value, about  < 50 F
  EntladePins();			// discharge capacitor
    2400:	0e 94 1d 10 	call	0x203a	; 0x203a <EntladePins>
  //measure with the R_H (470kOhm) resistor 
  R_PORT = 0;		// R_DDR ist HiPinR_L
    2404:	15 b8       	out	0x05, r1	; 5
  ADC_DDR = (1<<TP1) | (1<<TP2) | (1<<TP3) | TXD_MSK;	//switch all Pins to output
    2406:	87 e0       	ldi	r24, 0x07	; 7
    2408:	87 b9       	out	0x07, r24	; 7
  ADC_PORT = TXD_VAL;		//switch all ADC Pins to GND
    240a:	18 b8       	out	0x08, r1	; 8
  R_DDR = HiPinR_H;   		// switch R_H resistor port for HighPin to output (GND)
    240c:	f1 2e       	mov	r15, r17
    240e:	ff 0c       	add	r15, r15
    2410:	f4 b8       	out	0x04, r15	; 4
// setup Analog Comparator
  ADC_COMP_CONTROL = (1<<ACME);			//enable Analog Comparator Multiplexer
    2412:	80 e4       	ldi	r24, 0x40	; 64
    2414:	80 93 7b 00 	sts	0x007B, r24
  ACSR =  (1<<ACBG) | (1<<ACI)  | (1<<ACIC);	// enable, 1.3V, no Interrupt, Connect to Timer1 
    2418:	84 e5       	ldi	r24, 0x54	; 84
    241a:	80 bf       	out	0x30, r24	; 48
  ADMUX = (1<<REFS0) | HighPin;			// switch Mux to High-Pin
    241c:	8c 2f       	mov	r24, r28
    241e:	80 64       	ori	r24, 0x40	; 64
    2420:	80 93 7c 00 	sts	0x007C, r24
  ADCSRA = (1<<ADIF) | AUTO_CLOCK_DIV; //disable ADC
    2424:	86 e1       	ldi	r24, 0x16	; 22
    2426:	80 93 7a 00 	sts	0x007A, r24
  wait200us();			//wait for bandgap to start up
    242a:	0e 94 71 03 	call	0x6e2	; 0x6e2 <wait200us>

// setup Counter1
  ovcnt16 = 0;
    242e:	10 92 57 01 	sts	0x0157, r1
    2432:	10 92 56 01 	sts	0x0156, r1
  TCCR1A = 0;			// set Counter1 to normal Mode
    2436:	10 92 80 00 	sts	0x0080, r1
  TCNT1 = 0;			//set Counter to 0
    243a:	10 92 85 00 	sts	0x0085, r1
    243e:	10 92 84 00 	sts	0x0084, r1
  TI1_INT_FLAGS = (1<<ICF1) | (1<<OCF1B) | (1<<OCF1A) | (1<<TOV1);	// clear interrupt flags
    2442:	87 e2       	ldi	r24, 0x27	; 39
    2444:	86 bb       	out	0x16, r24	; 22
#ifndef INHIBIT_SLEEP_MODE
  TIMSK1 = (1<<TOIE1) | (1<<ICIE1);	// enable Timer overflow interrupt and input capture interrupt
    2446:	81 e2       	ldi	r24, 0x21	; 33
    2448:	80 93 6f 00 	sts	0x006F, r24
  unfinished = 1;
    244c:	81 e0       	ldi	r24, 0x01	; 1
    244e:	80 93 71 01 	sts	0x0171, r24
#endif
  R_PORT = HiPinR_H;           	// switch R_H resistor port for HighPin to VCC
    2452:	f5 b8       	out	0x05, r15	; 5
  if(PartFound == PART_FET) {
    2454:	90 91 18 01 	lds	r25, 0x0118
     // charge capacitor with R_H resistor
     TCCR1B = (0<<ICNC1) | (1<<CS10);	//Start counter 1MHz or 8MHz without Noise Canceler
    2458:	80 93 81 00 	sts	0x0081, r24
#ifndef INHIBIT_SLEEP_MODE
  TIMSK1 = (1<<TOIE1) | (1<<ICIE1);	// enable Timer overflow interrupt and input capture interrupt
  unfinished = 1;
#endif
  R_PORT = HiPinR_H;           	// switch R_H resistor port for HighPin to VCC
  if(PartFound == PART_FET) {
    245c:	94 30       	cpi	r25, 0x04	; 4
    245e:	59 f4       	brne	.+22     	; 0x2476 <ReadCapacity+0x2be>
     // charge capacitor with R_H resistor
     TCCR1B = (0<<ICNC1) | (1<<CS10);	//Start counter 1MHz or 8MHz without Noise Canceler
     ADC_DDR = (((1<<TP1) | (1<<TP2) | (1<<TP3) | TXD_MSK) & ~(1<<HighPin));	// release only HighPin ADC port
    2460:	81 e0       	ldi	r24, 0x01	; 1
    2462:	90 e0       	ldi	r25, 0x00	; 0
    2464:	0c 2e       	mov	r0, r28
    2466:	01 c0       	rjmp	.+2      	; 0x246a <ReadCapacity+0x2b2>
    2468:	88 0f       	add	r24, r24
    246a:	0a 94       	dec	r0
    246c:	ea f7       	brpl	.-6      	; 0x2468 <ReadCapacity+0x2b0>
    246e:	80 95       	com	r24
    2470:	87 70       	andi	r24, 0x07	; 7
    2472:	87 b9       	out	0x07, r24	; 7
    2474:	01 c0       	rjmp	.+2      	; 0x2478 <ReadCapacity+0x2c0>
  } else {
     TCCR1B =  (0<<ICNC1) | (1<<CS10);	//start counter 1MHz or 8MHz without Noise Canceler
     ADC_DDR = LoADC;		// stay LoADC Pin switched to GND, charge capacitor with R_H slowly
    2476:	07 b9       	out	0x07, r16	; 7
     // this OV was not counted, but was before the Input Capture
     TI1_INT_FLAGS = (1<<TOV1);		// Reset OV Flag
     ovcnt16++;
  }
#else
  cli();		// disable interrupts to prevent wakeup Interrupts before sleeping
    2478:	f8 94       	cli
  set_sleep_mode(SLEEP_MODE_IDLE);
    247a:	83 b7       	in	r24, 0x33	; 51
    247c:	81 7f       	andi	r24, 0xF1	; 241
    247e:	83 bf       	out	0x33, r24	; 51
  while(unfinished) {
    2480:	80 91 71 01 	lds	r24, 0x0171
    2484:	88 23       	and	r24, r24
    2486:	89 f0       	breq	.+34     	; 0x24aa <ReadCapacity+0x2f2>
    sleep_enable();
    2488:	83 b7       	in	r24, 0x33	; 51
    248a:	81 60       	ori	r24, 0x01	; 1
    248c:	83 bf       	out	0x33, r24	; 51
    sei();		// enable interrupts after next instruction
    248e:	78 94       	sei
    sleep_cpu();	// only enable interrupts during sleeping
    2490:	88 95       	sleep
    sleep_disable();
    2492:	83 b7       	in	r24, 0x33	; 51
    2494:	8e 7f       	andi	r24, 0xFE	; 254
    2496:	83 bf       	out	0x33, r24	; 51
    cli();		// disable interrupts again
    2498:	f8 94       	cli
    wdt_reset();	// reset watch dog during waiting
    249a:	a8 95       	wdr
    if(ovcnt16 == (F_CPU/5000)) {
    249c:	80 91 56 01 	lds	r24, 0x0156
    24a0:	90 91 57 01 	lds	r25, 0x0157
    24a4:	80 34       	cpi	r24, 0x40	; 64
    24a6:	96 40       	sbci	r25, 0x06	; 6
    24a8:	59 f7       	brne	.-42     	; 0x2480 <ReadCapacity+0x2c8>
       break; 		//Timeout for Charging, above 12 s
    }
  }
  sei();		// enable interrupts again
    24aa:	78 94       	sei
  TCCR1B = (0<<ICNC1) | (0<<ICES1) | (0<<CS10);  // stop counter
    24ac:	10 92 81 00 	sts	0x0081, r1
  tmpint = ICR1;		// get previous Input Capture Counter flag
    24b0:	e0 90 86 00 	lds	r14, 0x0086
    24b4:	f0 90 87 00 	lds	r15, 0x0087
  TIMSK1 = (0<<TOIE1) | (0<<ICIE1);	// disable Timer overflow interrupt and input capture interrupt
    24b8:	10 92 6f 00 	sts	0x006F, r1
    u2lcd(tmpint);
  }
#endif

//############################################################
  ADCSRA = (1<<ADEN) | (1<<ADIF) | AUTO_CLOCK_DIV; //enable ADC
    24bc:	86 e9       	ldi	r24, 0x96	; 150
    24be:	80 93 7a 00 	sts	0x007A, r24
  R_DDR = 0;			// switch R_H resistor port for input
    24c2:	14 b8       	out	0x04, r1	; 4
  R_PORT = 0;			// switch R_H resistor port pull up for HighPin off
    24c4:	15 b8       	out	0x05, r1	; 5
  load_diff = ReadADC(HighPin) + REF_C_KORR - ref_mv;	// build difference of capacitor voltage to Reference Voltage
    24c6:	8c 2f       	mov	r24, r28
    24c8:	0e 94 b4 03 	call	0x768	; 0x768 <ReadADC>
    24cc:	20 91 2f 01 	lds	r18, 0x012F
    24d0:	30 91 30 01 	lds	r19, 0x0130
    24d4:	82 1b       	sub	r24, r18
    24d6:	93 0b       	sbc	r25, r19
    24d8:	0c 96       	adiw	r24, 0x0c	; 12
    24da:	90 93 89 01 	sts	0x0189, r25
    24de:	80 93 88 01 	sts	0x0188, r24
//############################################################
  if (ovcnt16 >= (F_CPU/10000)) {
    24e2:	80 91 56 01 	lds	r24, 0x0156
    24e6:	90 91 57 01 	lds	r25, 0x0157
    24ea:	80 32       	cpi	r24, 0x20	; 32
    24ec:	93 40       	sbci	r25, 0x03	; 3
    24ee:	08 f0       	brcs	.+2      	; 0x24f2 <ReadCapacity+0x33a>
    24f0:	00 c1       	rjmp	.+512    	; 0x26f2 <ReadCapacity+0x53a>
     wait_about1s();
#endif
     goto keinC;	// no normal end
  }
//  cap.cval_uncorrected = CombineII2Long(ovcnt16, tmpint);
  cap.cval_uncorrected.w[1] = ovcnt16;
    24f2:	80 91 56 01 	lds	r24, 0x0156
    24f6:	90 91 57 01 	lds	r25, 0x0157
    24fa:	90 93 7f 01 	sts	0x017F, r25
    24fe:	80 93 7e 01 	sts	0x017E, r24
  cap.cval_uncorrected.w[0] = tmpint;
    2502:	f0 92 7d 01 	sts	0x017D, r15
    2506:	e0 92 7c 01 	sts	0x017C, r14

  cap.cpre = -12;			// cap.cval unit is pF 
    250a:	84 ef       	ldi	r24, 0xF4	; 244
    250c:	80 93 86 01 	sts	0x0186, r24
  if (ovcnt16 > 65) {
    2510:	80 91 56 01 	lds	r24, 0x0156
    2514:	90 91 57 01 	lds	r25, 0x0157
    2518:	82 34       	cpi	r24, 0x42	; 66
    251a:	91 05       	cpc	r25, r1
    251c:	c8 f0       	brcs	.+50     	; 0x2550 <ReadCapacity+0x398>
     cap.cval_uncorrected.dw /= 100;	// switch to next unit
    251e:	60 91 7c 01 	lds	r22, 0x017C
    2522:	70 91 7d 01 	lds	r23, 0x017D
    2526:	80 91 7e 01 	lds	r24, 0x017E
    252a:	90 91 7f 01 	lds	r25, 0x017F
    252e:	24 e6       	ldi	r18, 0x64	; 100
    2530:	30 e0       	ldi	r19, 0x00	; 0
    2532:	40 e0       	ldi	r20, 0x00	; 0
    2534:	50 e0       	ldi	r21, 0x00	; 0
    2536:	0e 94 32 1f 	call	0x3e64	; 0x3e64 <__udivmodsi4>
    253a:	20 93 7c 01 	sts	0x017C, r18
    253e:	30 93 7d 01 	sts	0x017D, r19
    2542:	40 93 7e 01 	sts	0x017E, r20
    2546:	50 93 7f 01 	sts	0x017F, r21
     cap.cpre += 2;			// set unit, prevent overflow
    254a:	86 ef       	ldi	r24, 0xF6	; 246
    254c:	80 93 86 01 	sts	0x0186, r24
  }
  cap.cval_uncorrected.dw *= RHmultip;		// 708
    2550:	a0 91 72 01 	lds	r26, 0x0172
    2554:	b0 91 73 01 	lds	r27, 0x0173
    2558:	20 91 7c 01 	lds	r18, 0x017C
    255c:	30 91 7d 01 	lds	r19, 0x017D
    2560:	40 91 7e 01 	lds	r20, 0x017E
    2564:	50 91 7f 01 	lds	r21, 0x017F
    2568:	0e 94 03 1f 	call	0x3e06	; 0x3e06 <__muluhisi3>
  cap.cval_uncorrected.dw /= (F_CPU / 10000);	// divide by 100 (@ 1MHz clock), 800 (@ 8MHz clock)
    256c:	20 e2       	ldi	r18, 0x20	; 32
    256e:	33 e0       	ldi	r19, 0x03	; 3
    2570:	40 e0       	ldi	r20, 0x00	; 0
    2572:	50 e0       	ldi	r21, 0x00	; 0
    2574:	0e 94 32 1f 	call	0x3e64	; 0x3e64 <__udivmodsi4>
    2578:	20 93 7c 01 	sts	0x017C, r18
    257c:	30 93 7d 01 	sts	0x017D, r19
    2580:	40 93 7e 01 	sts	0x017E, r20
    2584:	50 93 7f 01 	sts	0x017F, r21
  cap.cval = cap.cval_uncorrected.dw;		// set the corrected cap.cval
    2588:	20 93 74 01 	sts	0x0174, r18
    258c:	30 93 75 01 	sts	0x0175, r19
    2590:	40 93 76 01 	sts	0x0176, r20
    2594:	50 93 77 01 	sts	0x0177, r21
  Scale_C_with_vcc();
    2598:	0e 94 9c 10 	call	0x2138	; 0x2138 <Scale_C_with_vcc>
  if (cap.cpre == -12) {
    259c:	80 91 86 01 	lds	r24, 0x0186
    25a0:	84 3f       	cpi	r24, 0xF4	; 244
    25a2:	09 f0       	breq	.+2      	; 0x25a6 <ReadCapacity+0x3ee>
    25a4:	54 c0       	rjmp	.+168    	; 0x264e <ReadCapacity+0x496>
#if COMP_SLEW1 > COMP_SLEW2
     if (cap.cval < COMP_SLEW1) {
    25a6:	c0 90 74 01 	lds	r12, 0x0174
    25aa:	d0 90 75 01 	lds	r13, 0x0175
    25ae:	e0 90 76 01 	lds	r14, 0x0176
    25b2:	f0 90 77 01 	lds	r15, 0x0177
    25b6:	f0 ea       	ldi	r31, 0xA0	; 160
    25b8:	cf 16       	cp	r12, r31
    25ba:	ff e0       	ldi	r31, 0x0F	; 15
    25bc:	df 06       	cpc	r13, r31
    25be:	e1 04       	cpc	r14, r1
    25c0:	f1 04       	cpc	r15, r1
    25c2:	c0 f4       	brcc	.+48     	; 0x25f4 <ReadCapacity+0x43c>
        // add slew rate dependent offset
        cap.cval += (COMP_SLEW1 / (cap.cval+COMP_SLEW2 ));
    25c4:	a7 01       	movw	r20, r14
    25c6:	96 01       	movw	r18, r12
    25c8:	24 52       	subi	r18, 0x24	; 36
    25ca:	3f 4f       	sbci	r19, 0xFF	; 255
    25cc:	4f 4f       	sbci	r20, 0xFF	; 255
    25ce:	5f 4f       	sbci	r21, 0xFF	; 255
    25d0:	60 ea       	ldi	r22, 0xA0	; 160
    25d2:	7f e0       	ldi	r23, 0x0F	; 15
    25d4:	80 e0       	ldi	r24, 0x00	; 0
    25d6:	90 e0       	ldi	r25, 0x00	; 0
    25d8:	0e 94 32 1f 	call	0x3e64	; 0x3e64 <__udivmodsi4>
    25dc:	2c 0d       	add	r18, r12
    25de:	3d 1d       	adc	r19, r13
    25e0:	4e 1d       	adc	r20, r14
    25e2:	5f 1d       	adc	r21, r15
    25e4:	20 93 74 01 	sts	0x0174, r18
    25e8:	30 93 75 01 	sts	0x0175, r19
    25ec:	40 93 76 01 	sts	0x0176, r20
    25f0:	50 93 77 01 	sts	0x0177, r21
     }
#endif
#ifdef AUTO_CAL
     // auto calibration mode, cap_null can be updated in selftest section
     tmpint = eeprom_read_byte(&c_zero_tab[pin_combination]);	// read zero offset
    25f4:	80 91 55 01 	lds	r24, 0x0155
    25f8:	90 e0       	ldi	r25, 0x00	; 0
    25fa:	84 54       	subi	r24, 0x44	; 68
    25fc:	9e 4f       	sbci	r25, 0xFE	; 254
    25fe:	0e 94 c0 1f 	call	0x3f80	; 0x3f80 <__eerd_byte_m168>
     if (cap.cval > tmpint) {
    2602:	c0 90 74 01 	lds	r12, 0x0174
    2606:	d0 90 75 01 	lds	r13, 0x0175
    260a:	e0 90 76 01 	lds	r14, 0x0176
    260e:	f0 90 77 01 	lds	r15, 0x0177
    2612:	48 2f       	mov	r20, r24
    2614:	50 e0       	ldi	r21, 0x00	; 0
    2616:	60 e0       	ldi	r22, 0x00	; 0
    2618:	70 e0       	ldi	r23, 0x00	; 0
    261a:	4c 15       	cp	r20, r12
    261c:	5d 05       	cpc	r21, r13
    261e:	6e 05       	cpc	r22, r14
    2620:	7f 05       	cpc	r23, r15
    2622:	68 f4       	brcc	.+26     	; 0x263e <ReadCapacity+0x486>
         cap.cval -= tmpint;		//subtract zero offset (pF)
    2624:	c4 1a       	sub	r12, r20
    2626:	d5 0a       	sbc	r13, r21
    2628:	e6 0a       	sbc	r14, r22
    262a:	f7 0a       	sbc	r15, r23
    262c:	c0 92 74 01 	sts	0x0174, r12
    2630:	d0 92 75 01 	sts	0x0175, r13
    2634:	e0 92 76 01 	sts	0x0176, r14
    2638:	f0 92 77 01 	sts	0x0177, r15
    263c:	08 c0       	rjmp	.+16     	; 0x264e <ReadCapacity+0x496>
         lcd_testpin(HighPin);
         lcd_space();
#endif
       }
#endif
         cap.cval = 0;			//unsigned long may not reach negativ value
    263e:	10 92 74 01 	sts	0x0174, r1
    2642:	10 92 75 01 	sts	0x0175, r1
    2646:	10 92 76 01 	sts	0x0176, r1
    264a:	10 92 77 01 	sts	0x0177, r1
  lcd_testpin(HighPin);
  lcd_space();
  DisplayValue(cap.cval,cap.cpre,'F',4);
  wait_about3s();
#endif
  R_DDR = HiPinR_L; 		//switch R_L for High-Pin to GND
    264e:	14 b9       	out	0x04, r17	; 4
#if F_CPU < 2000001
   if(cap.cval < 50)
#else 
   if(cap.cval < 25)
    2650:	80 91 74 01 	lds	r24, 0x0174
    2654:	90 91 75 01 	lds	r25, 0x0175
    2658:	a0 91 76 01 	lds	r26, 0x0176
    265c:	b0 91 77 01 	lds	r27, 0x0177
    2660:	49 97       	sbiw	r24, 0x19	; 25
    2662:	a1 05       	cpc	r26, r1
    2664:	b1 05       	cpc	r27, r1
    2666:	08 f4       	brcc	.+2      	; 0x266a <ReadCapacity+0x4b2>
    2668:	44 c0       	rjmp	.+136    	; 0x26f2 <ReadCapacity+0x53a>
  }
  
#if FLASHEND > 0x1fff
  unsigned int vloss;	// lost voltage after load pulse in 0.1% 
  cap.esr = 0;				// set ESR of capacitor to zero
  vloss = 0;				// set lost voltage to zero
    266a:	c1 2c       	mov	r12, r1
    266c:	d1 2c       	mov	r13, r1
#endif
      goto keinC;	//capacity to low, < 50pF @1MHz (25pF @8MHz)
   }
   // end low capacity 
checkDiodes:
   if((NumOfDiodes > 0)  && (PartFound != PART_FET)) {
    266e:	80 91 16 01 	lds	r24, 0x0116
    2672:	88 23       	and	r24, r24
    2674:	21 f0       	breq	.+8      	; 0x267e <ReadCapacity+0x4c6>
    2676:	80 91 18 01 	lds	r24, 0x0118
    267a:	84 30       	cpi	r24, 0x04	; 4
    267c:	d1 f5       	brne	.+116    	; 0x26f2 <ReadCapacity+0x53a>
      wait_about1s();
#endif
      // nearly shure, that there is one or more diodes in reverse direction,
      // which would be wrongly detected as capacitor 
   } else {
      PartFound = PART_CAPACITOR;	//capacitor is found
    267e:	87 e0       	ldi	r24, 0x07	; 7
    2680:	80 93 18 01 	sts	0x0118, r24
      if ((cap.cpre > cap.cpre_max) || ((cap.cpre == cap.cpre_max) && (cap.cval > cap.cval_max))) {
    2684:	20 91 86 01 	lds	r18, 0x0186
    2688:	80 91 87 01 	lds	r24, 0x0187
    268c:	82 17       	cp	r24, r18
    268e:	bc f0       	brlt	.+46     	; 0x26be <ReadCapacity+0x506>
    2690:	28 13       	cpse	r18, r24
    2692:	2f c0       	rjmp	.+94     	; 0x26f2 <ReadCapacity+0x53a>
    2694:	40 91 74 01 	lds	r20, 0x0174
    2698:	50 91 75 01 	lds	r21, 0x0175
    269c:	60 91 76 01 	lds	r22, 0x0176
    26a0:	70 91 77 01 	lds	r23, 0x0177
    26a4:	80 91 78 01 	lds	r24, 0x0178
    26a8:	90 91 79 01 	lds	r25, 0x0179
    26ac:	a0 91 7a 01 	lds	r26, 0x017A
    26b0:	b0 91 7b 01 	lds	r27, 0x017B
    26b4:	84 17       	cp	r24, r20
    26b6:	95 07       	cpc	r25, r21
    26b8:	a6 07       	cpc	r26, r22
    26ba:	b7 07       	cpc	r27, r23
    26bc:	d0 f4       	brcc	.+52     	; 0x26f2 <ReadCapacity+0x53a>
         // we have found a greater one, overwrite the old values
         cap.cval_max = cap.cval;
    26be:	80 91 74 01 	lds	r24, 0x0174
    26c2:	90 91 75 01 	lds	r25, 0x0175
    26c6:	a0 91 76 01 	lds	r26, 0x0176
    26ca:	b0 91 77 01 	lds	r27, 0x0177
    26ce:	80 93 78 01 	sts	0x0178, r24
    26d2:	90 93 79 01 	sts	0x0179, r25
    26d6:	a0 93 7a 01 	sts	0x017A, r26
    26da:	b0 93 7b 01 	sts	0x017B, r27
         cap.cpre_max = cap.cpre;
    26de:	20 93 87 01 	sts	0x0187, r18
#if FLASHEND > 0x1fff
         cap.v_loss = vloss;		// lost voltage in 0.01%
    26e2:	d0 92 83 01 	sts	0x0183, r13
    26e6:	c0 92 82 01 	sts	0x0182, r12
#endif
         cap.ca = LowPin;		// save LowPin
    26ea:	d0 93 84 01 	sts	0x0184, r29
         cap.cb = HighPin;		// save HighPin
    26ee:	c0 93 85 01 	sts	0x0185, r28
keinC:
  // discharge capacitor again
//  EntladePins();		// discharge capacitors
  //ready
  // switch all ports to input
  ADC_DDR =  TXD_MSK;		// switch all ADC ports to input
    26f2:	17 b8       	out	0x07, r1	; 7
  ADC_PORT = TXD_VAL;		// switch all ADC outputs to GND, no pull up
    26f4:	18 b8       	out	0x08, r1	; 8
  R_DDR = 0;			// switch all resistor ports to input
    26f6:	14 b8       	out	0x04, r1	; 4
  R_PORT = 0; 			// switch all resistor outputs to GND, no pull up
    26f8:	15 b8       	out	0x05, r1	; 5
  return;
 } // end ReadCapacity()
    26fa:	cd b7       	in	r28, 0x3d	; 61
    26fc:	de b7       	in	r29, 0x3e	; 62
    26fe:	ea e0       	ldi	r30, 0x0A	; 10
    2700:	0c 94 97 1f 	jmp	0x3f2e	; 0x3f2e <__epilogue_restores__+0x10>

00002704 <__vector_13>:
   cap.cval /= U_VCC;			// Factors are computed for U_VCC
}
#ifndef INHIBIT_SLEEP_MODE
/* Interrupt Service Routine for timer1 Overflow */
 ISR(TIMER1_OVF_vect, ISR_BLOCK)
{
    2704:	1f 92       	push	r1
    2706:	0f 92       	push	r0
    2708:	0f b6       	in	r0, 0x3f	; 63
    270a:	0f 92       	push	r0
    270c:	11 24       	eor	r1, r1
    270e:	8f 93       	push	r24
    2710:	9f 93       	push	r25
 if ((!(TI1_INT_FLAGS & (1<<ICF1)) && (unfinished !=0)) || ((TI1_INT_FLAGS & (1<<ICF1)) && (ICR1 < 250))) {
    2712:	b5 99       	sbic	0x16, 5	; 22
    2714:	04 c0       	rjmp	.+8      	; 0x271e <__vector_13+0x1a>
    2716:	80 91 71 01 	lds	r24, 0x0171
    271a:	81 11       	cpse	r24, r1
    271c:	09 c0       	rjmp	.+18     	; 0x2730 <__vector_13+0x2c>
    271e:	b5 9b       	sbis	0x16, 5	; 22
    2720:	10 c0       	rjmp	.+32     	; 0x2742 <__vector_13+0x3e>
    2722:	80 91 86 00 	lds	r24, 0x0086
    2726:	90 91 87 00 	lds	r25, 0x0087
    272a:	8a 3f       	cpi	r24, 0xFA	; 250
    272c:	91 05       	cpc	r25, r1
    272e:	48 f4       	brcc	.+18     	; 0x2742 <__vector_13+0x3e>
    // Capture Event not pending or (Capture Event pending and ICR1 < 250
    // the ICR1H is buffered and can not examined alone, we must read the ICR1L first (with ICR1 access) !
   ovcnt16++;				// count Overflow
    2730:	80 91 56 01 	lds	r24, 0x0156
    2734:	90 91 57 01 	lds	r25, 0x0157
    2738:	01 96       	adiw	r24, 0x01	; 1
    273a:	90 93 57 01 	sts	0x0157, r25
    273e:	80 93 56 01 	sts	0x0156, r24
 }
}
    2742:	9f 91       	pop	r25
    2744:	8f 91       	pop	r24
    2746:	0f 90       	pop	r0
    2748:	0f be       	out	0x3f, r0	; 63
    274a:	0f 90       	pop	r0
    274c:	1f 90       	pop	r1
    274e:	18 95       	reti

00002750 <__vector_10>:
/* Interrupt Service Routine for timer1 capture event (Comparator) */
 ISR(TIMER1_CAPT_vect, ISR_BLOCK)
{
    2750:	1f 92       	push	r1
    2752:	0f 92       	push	r0
    2754:	0f b6       	in	r0, 0x3f	; 63
    2756:	0f 92       	push	r0
    2758:	11 24       	eor	r1, r1
    275a:	8f 93       	push	r24
    275c:	9f 93       	push	r25
 unfinished = 0;			// clear unfinished flag
    275e:	10 92 71 01 	sts	0x0171, r1
 // With unfinished set to 0, we prevent further counting the Overflow.s
 // Is already a Overflow detected?
 if((TI1_INT_FLAGS & (1<<TOV1))) {	// counter overflow, 65.536 ms @ 1MHz, 8.192ms @ 8MHz
    2762:	b0 9b       	sbis	0x16, 0	; 22
    2764:	10 c0       	rjmp	.+32     	; 0x2786 <__vector_10+0x36>
   //there is already a Overflow detected, before or after the capture event?
   // ICR1H is buffered and can not examined alone, we must read the ICR1L first (with ICR1 access) !
   if (ICR1 < 250) {
    2766:	80 91 86 00 	lds	r24, 0x0086
    276a:	90 91 87 00 	lds	r25, 0x0087
    276e:	8a 3f       	cpi	r24, 0xFA	; 250
    2770:	91 05       	cpc	r25, r1
    2772:	48 f4       	brcc	.+18     	; 0x2786 <__vector_10+0x36>
     //  Yes, Input Capture Counter is low, Overflow has occured before the capture event
     ovcnt16++;				// count Overflow
    2774:	80 91 56 01 	lds	r24, 0x0156
    2778:	90 91 57 01 	lds	r25, 0x0157
    277c:	01 96       	adiw	r24, 0x01	; 1
    277e:	90 93 57 01 	sts	0x0157, r25
    2782:	80 93 56 01 	sts	0x0156, r24
   }
 }
}
    2786:	9f 91       	pop	r25
    2788:	8f 91       	pop	r24
    278a:	0f 90       	pop	r0
    278c:	0f be       	out	0x3f, r0	; 63
    278e:	0f 90       	pop	r0
    2790:	1f 90       	pop	r1
    2792:	18 95       	reti

00002794 <GetRLmultip>:

 .section .text

; unsigned int GetRLmultip(unsigned int cvolt) 
GetRLmultip:
	push    r0
    2794:	0f 92       	push	r0
 	ldi	r18, hi8(RL_Tab_Beginn) 	; 1
    2796:	21 e0       	ldi	r18, 0x01	; 1
 	cpi	r24, lo8(RL_Tab_Beginn)		; 44
    2798:	8c 32       	cpi	r24, 0x2C	; 44
 	cpc	r25, r18
    279a:	92 07       	cpc	r25, r18
 	brcc	is_bigger		;if (cvolt >= RL_Tab_Beginn) 
    279c:	10 f4       	brcc	.+4      	; 0x27a2 <is_bigger>
        ldi	r24, lo8(RL_Tab_Beginn)		; uvolt = 0 = RL_Tab_Begin - RL_Tab_Begin
    279e:	8c e2       	ldi	r24, 0x2C	; 44
        ldi	r25, hi8(RL_Tab_Beginn)		; limit to begin of table
    27a0:	91 e0       	ldi	r25, 0x01	; 1

000027a2 <is_bigger>:
is_bigger:
 	subi	r24, lo8(RL_Tab_Beginn)	;  uvolt = cvolt - RL_Tab_Beginn;
    27a2:	8c 52       	subi	r24, 0x2C	; 44
 	sbci	r25, hi8(RL_Tab_Beginn)	; 1
    27a4:	91 40       	sbci	r25, 0x01	; 1

 	ldi	r22, lo8(RL_Tab_Abstand)	; 25
    27a6:	69 e1       	ldi	r22, 0x19	; 25
 	ldi	r23, hi8(RL_Tab_Abstand)	; 0
    27a8:	70 e0       	ldi	r23, 0x00	; 0
 	ACALL	__udivmodhi4 	;tabind = uvolt / RL_Tab_Abstand;
    27aa:	0e 94 1e 1f 	call	0x3e3c	; 0x3e3c <__udivmodhi4>
;  r24:25 tabres = uvolt % RL_Tab_Abstand;  // r25 allways zero
;  tabres = RL_Tab_Abstand - tabres;
 	ldi	r25, RL_Tab_Abstand	; 25
    27ae:	99 e1       	ldi	r25, 0x19	; 25
 	cpi	r22, ((RL_Tab_Length/RL_Tab_Abstand)-1)	; if (tabind > ((RL_Tab_Length/RL_Tab_Abstand)-1)) 
    27b0:	6b 32       	cpi	r22, 0x2B	; 43
 	brcs	is_lower 
    27b2:	10 f0       	brcs	.+4      	; 0x27b8 <is_lower>
	mov	r25, r24		; tabres = 0 = (RL_Tab_Abstand==tabres) - tabres
    27b4:	98 2f       	mov	r25, r24
 	ldi	r22, (RL_Tab_Length/RL_Tab_Abstand)-1; tabind = (RL_Tab_Length/RL_Tab_Abstand)-1;// limit to end of table
    27b6:	6b e2       	ldi	r22, 0x2B	; 43

000027b8 <is_lower>:
is_lower:
 	sub	r25, r24		; tabres = RL_Tab_Abstand - tabres;
    27b8:	98 1b       	sub	r25, r24

	; r22 = tabind , r25 = tabres

	LDIZ	RLtab
    27ba:	ee e5       	ldi	r30, 0x5E	; 94
    27bc:	f1 e0       	ldi	r31, 0x01	; 1
	add	r30, r22		; + tabind
    27be:	e6 0f       	add	r30, r22
	adc	r31, zero_reg
    27c0:	f1 1d       	adc	r31, r1
	add	r30, r22		; + tabind (word access)
    27c2:	e6 0f       	add	r30, r22
	adc	r31, zero_reg
    27c4:	f1 1d       	adc	r31, r1

#ifdef MEM_EEPROM
        push	r25			; save tabres
    27c6:	9f 93       	push	r25
	movw	r24,r30
    27c8:	cf 01       	movw	r24, r30
	ACALL	eeprom_read_byte	; y1 = MEM_read_word(&RLtab[tabind]);
    27ca:	0e 94 c0 1f 	call	0x3f80	; 0x3f80 <__eerd_byte_m168>
	mov	r20, r24
    27ce:	48 2f       	mov	r20, r24
	adiw	r30, 1			; address of high order byte
    27d0:	31 96       	adiw	r30, 0x01	; 1
	movw	r24,r30
    27d2:	cf 01       	movw	r24, r30
	ACALL	eeprom_read_byte	; y1 = MEM_read_word(&RLtab[tabind]);
    27d4:	0e 94 c0 1f 	call	0x3f80	; 0x3f80 <__eerd_byte_m168>
	mov	r21, r24
    27d8:	58 2f       	mov	r21, r24
	adiw	r30, 1			; tabind+1
    27da:	31 96       	adiw	r30, 0x01	; 1
	movw	r24,r30
    27dc:	cf 01       	movw	r24, r30
	ACALL	eeprom_read_byte	; y2 = MEM_read_word(&RLtab[tabind+1]);
    27de:	0e 94 c0 1f 	call	0x3f80	; 0x3f80 <__eerd_byte_m168>
	mov	r18, r24
    27e2:	28 2f       	mov	r18, r24
	adiw	r30, 1			; address of high order byte
    27e4:	31 96       	adiw	r30, 0x01	; 1
	movw	r24,r30
    27e6:	cf 01       	movw	r24, r30
	ACALL	eeprom_read_byte	; y2 = MEM_read_word(&RLtab[tabind+1]);
    27e8:	0e 94 c0 1f 	call	0x3f80	; 0x3f80 <__eerd_byte_m168>
	mov	r19, r24
    27ec:	38 2f       	mov	r19, r24
        pop	r22			; restore tabres in r22
    27ee:	6f 91       	pop	r22
 	lpm	r19, Z+
 	mov	r22, r25
#endif
;  return ( ((y1 - y2) * tabres + (RL_Tab_Abstand/2)) / RL_Tab_Abstand + y2); // interpolate table
;; 	ldi	r23, 0x00	; hi8(tabres) allways zero
 	sub	r20, r18	; y1 - y2
    27f0:	42 1b       	sub	r20, r18
 	sbc	r21, r19 	; maximum of 3466 need two registers
    27f2:	53 0b       	sbc	r21, r19

 	mul	r22, r20	;lo8(tabres) * lo8(y1-y2)
    27f4:	64 9f       	mul	r22, r20
 	movw	r24, r0		; r24:25 = *
    27f6:	c0 01       	movw	r24, r0
 	mul	r22, r21	;lo8(tabres) * hi8(y1-y2)
    27f8:	65 9f       	mul	r22, r21
 	add	r25, r0		; r25 + lo8(*)
    27fa:	90 0d       	add	r25, r0
;; 	mul	r23, r20	;hi8(tabres) * lo8(y1-y2) , allways zero
;; 	add	r25, r0		; r25 + lo8(*)
 	eor	r1, r1
    27fc:	11 24       	eor	r1, r1
 	adiw	r24, (RL_Tab_Abstand/2)		; 12
    27fe:	0c 96       	adiw	r24, 0x0c	; 12
 	ldi	r22, lo8(RL_Tab_Abstand)	; 25
    2800:	69 e1       	ldi	r22, 0x19	; 25
 	ldi	r23, hi8(RL_Tab_Abstand)	; 0
    2802:	70 e0       	ldi	r23, 0x00	; 0
 	ACALL	__udivmodhi4	; ((y1 - y2) * tabres + (RL_Tab_Abstand/2)) / RL_Tab_Abstand 
    2804:	0e 94 1e 1f 	call	0x3e3c	; 0x3e3c <__udivmodhi4>
 	add	r22, r18			; + y2
    2808:	62 0f       	add	r22, r18
 	adc	r23, r19
    280a:	73 1f       	adc	r23, r19
 	movw	r24, r22
    280c:	cb 01       	movw	r24, r22
	pop	r0
    280e:	0f 90       	pop	r0
 	ret
    2810:	08 95       	ret

00002812 <Calibrate_UR>:
#include "Transistortester.h"
void Calibrate_UR(void) {
    2812:	a0 e0       	ldi	r26, 0x00	; 0
    2814:	b0 e0       	ldi	r27, 0x00	; 0
    2816:	ef e0       	ldi	r30, 0x0F	; 15
    2818:	f4 e1       	ldi	r31, 0x14	; 20
    281a:	0c 94 79 1f 	jmp	0x3ef2	; 0x3ef2 <__prologue_saves__+0xc>
  uint16_t sum_rp;	// sum of 3 Pin voltages with 680 Ohm load
  uint16_t u680;	// 3 * (Voltage at 680 Ohm)
#endif


  ADCconfig.U_AVCC = U_VCC;     // set initial VCC Voltage
    281e:	88 e8       	ldi	r24, 0x88	; 136
    2820:	93 e1       	ldi	r25, 0x13	; 19
    2822:	90 93 2c 01 	sts	0x012C, r25
    2826:	80 93 2b 01 	sts	0x012B, r24
  ADCconfig.Samples = R_ANZ_MESS;	// set number of ADC reads near to maximum
    282a:	8e eb       	ldi	r24, 0xBE	; 190
    282c:	80 93 27 01 	sts	0x0127, r24
                                        //############################################
#if FLASHEND > 0x1fff
  uint16_t mv2500;
  ADC_PORT = TXD_VAL;                   // switch to 0V
    2830:	18 b8       	out	0x08, r1	; 8
  ADC_DDR = (1<<TPREF) | TXD_MSK;       // switch pin with 2.5V reference to GND
    2832:	80 e1       	ldi	r24, 0x10	; 16
    2834:	87 b9       	out	0x07, r24	; 7
  wait20us();			// switch only short time, so that the relais do not really switch
    2836:	0e 94 76 03 	call	0x6ec	; 0x6ec <wait20us>
  ADC_DDR =  TXD_MSK;		// switch pin with reference back to input
    283a:	17 b8       	out	0x07, r1	; 7
  mv2500 = W5msReadADC(TPREF); // read voltage of 2.5V precision reference
    283c:	84 e0       	ldi	r24, 0x04	; 4
    283e:	0e 94 b0 03 	call	0x760	; 0x760 <W5msReadADC>
    2842:	ac 01       	movw	r20, r24
  if ((mv2500 > 2250) && (mv2500 < 2750)) {
    2844:	8b 5c       	subi	r24, 0xCB	; 203
    2846:	98 40       	sbci	r25, 0x08	; 8
    2848:	83 3f       	cpi	r24, 0xF3	; 243
    284a:	91 40       	sbci	r25, 0x01	; 1
    284c:	a0 f4       	brcc	.+40     	; 0x2876 <Calibrate_UR+0x64>
     // precision voltage reference connected, update U_AVCC
     WithReference = 1;
    284e:	81 e0       	ldi	r24, 0x01	; 1
    2850:	80 93 40 01 	sts	0x0140, r24
     ADCconfig.U_AVCC = (unsigned long)((unsigned long)ADCconfig.U_AVCC * 2495) / mv2500;
    2854:	20 91 2b 01 	lds	r18, 0x012B
    2858:	30 91 2c 01 	lds	r19, 0x012C
    285c:	af eb       	ldi	r26, 0xBF	; 191
    285e:	b9 e0       	ldi	r27, 0x09	; 9
    2860:	0e 94 ed 1e 	call	0x3dda	; 0x3dda <__umulhisi3>
    2864:	9a 01       	movw	r18, r20
    2866:	40 e0       	ldi	r20, 0x00	; 0
    2868:	50 e0       	ldi	r21, 0x00	; 0
    286a:	0e 94 32 1f 	call	0x3e64	; 0x3e64 <__udivmodsi4>
    286e:	30 93 2c 01 	sts	0x012C, r19
    2872:	20 93 2b 01 	sts	0x012B, r18
  }
#endif
#ifdef WITH_AUTO_REF
  (void) ReadADC(MUX_INT_REF);	// read reference voltage 
    2876:	8e e0       	ldi	r24, 0x0E	; 14
    2878:	0e 94 b4 03 	call	0x768	; 0x768 <ReadADC>
  ref_mv = W5msReadADC(MUX_INT_REF);	// read reference voltage 
    287c:	8e e0       	ldi	r24, 0x0E	; 14
    287e:	0e 94 b0 03 	call	0x760	; 0x760 <W5msReadADC>
    2882:	90 93 30 01 	sts	0x0130, r25
    2886:	80 93 2f 01 	sts	0x012F, r24
#else
  ref_mv = DEFAULT_BAND_GAP;    // set to default Reference Voltage
#endif
  RefVoltage();			//compute RHmultip = f(reference voltage)
    288a:	0e 94 52 04 	call	0x8a4	; 0x8a4 <RefVoltage>
                                        //############################################

#ifdef AUTO_CAL
  // measurement of internal resistance of the ADC port outputs switched to GND
  ADC_DDR = 1<<TP1 | TXD_MSK;	//ADC-Pin  1 to output 0V
    288e:	c1 e0       	ldi	r28, 0x01	; 1
    2890:	c7 b9       	out	0x07, r28	; 7
  R_PORT = 1<<PIN_RL1;		//R_L-PORT 1 to VCC
    2892:	c5 b9       	out	0x05, r28	; 5
  R_DDR = 1<<PIN_RL1;		//Pin 1 to output and over R_L to VCC
    2894:	c4 b9       	out	0x04, r28	; 4
  sum_rm = W5msReadADC(TP1);
    2896:	80 e0       	ldi	r24, 0x00	; 0
    2898:	0e 94 b0 03 	call	0x760	; 0x760 <W5msReadADC>
    289c:	7c 01       	movw	r14, r24

  ADC_DDR = 1<<TP2 | TXD_MSK;	//ADC-Pin 2 to output 0V
    289e:	12 e0       	ldi	r17, 0x02	; 2
    28a0:	17 b9       	out	0x07, r17	; 7
  R_PORT =  1<<PIN_RL2;		//R_L-PORT 2 to VCC
    28a2:	84 e0       	ldi	r24, 0x04	; 4
    28a4:	98 2e       	mov	r9, r24
    28a6:	95 b8       	out	0x05, r9	; 5
  R_DDR = 1<<PIN_RL2;		//Pin 2 to output and over R_L to VCC
    28a8:	94 b8       	out	0x04, r9	; 4
  sum_rm += W5msReadADC(TP2);
    28aa:	81 e0       	ldi	r24, 0x01	; 1
    28ac:	0e 94 b0 03 	call	0x760	; 0x760 <W5msReadADC>
    28b0:	e8 0e       	add	r14, r24
    28b2:	f9 1e       	adc	r15, r25

  ADC_DDR = 1<<TP3 | TXD_MSK;	//ADC-Pin 3 to output 0V
    28b4:	97 b8       	out	0x07, r9	; 7
  R_PORT =  1<<PIN_RL3;		//R_L-PORT 3 to VCC
    28b6:	90 e1       	ldi	r25, 0x10	; 16
    28b8:	89 2e       	mov	r8, r25
    28ba:	85 b8       	out	0x05, r8	; 5
  R_DDR = 1<<PIN_RL3;		//Pin 3 to output and over R_L to VCC
    28bc:	84 b8       	out	0x04, r8	; 4
  sum_rm += W5msReadADC(TP3);	//add all three values
    28be:	82 e0       	ldi	r24, 0x02	; 2
    28c0:	0e 94 b0 03 	call	0x760	; 0x760 <W5msReadADC>
    28c4:	e8 0e       	add	r14, r24
    28c6:	f9 1e       	adc	r15, r25

  // measurement of internal resistance of the ADC port output switched to VCC
  R_PORT = 0;			// R-Ports to GND
    28c8:	15 b8       	out	0x05, r1	; 5
  ADC_PORT = 1<<TP1 | TXD_VAL;	//ADC-Port 1 to VCC
    28ca:	c8 b9       	out	0x08, r28	; 8
  ADC_DDR = 1<<TP1 | TXD_MSK;	//ADC-Pin  1 to output 0V
    28cc:	c7 b9       	out	0x07, r28	; 7
  R_DDR = 1<<PIN_RL1;		//Pin 1 to output and over R_L to GND
    28ce:	c4 b9       	out	0x04, r28	; 4
  sum_rp = ADCconfig.U_AVCC - W5msReadADC(TP1);
    28d0:	c0 91 2b 01 	lds	r28, 0x012B
    28d4:	d0 91 2c 01 	lds	r29, 0x012C
    28d8:	80 e0       	ldi	r24, 0x00	; 0
    28da:	0e 94 b0 03 	call	0x760	; 0x760 <W5msReadADC>
    28de:	5c 01       	movw	r10, r24
      
  ADC_PORT = 1<<TP2 | TXD_VAL;	//ADC-Port 2 to VCC
    28e0:	18 b9       	out	0x08, r17	; 8
  ADC_DDR = 1<<TP2 | TXD_MSK;	//ADC-Pin  2 to output 0V
    28e2:	17 b9       	out	0x07, r17	; 7
  R_DDR = 1<<PIN_RL2;		//Pin 2 to output and over R_L to GND
    28e4:	94 b8       	out	0x04, r9	; 4
  sum_rp += ADCconfig.U_AVCC - W5msReadADC(TP2);
    28e6:	00 91 2b 01 	lds	r16, 0x012B
    28ea:	10 91 2c 01 	lds	r17, 0x012C
    28ee:	81 e0       	ldi	r24, 0x01	; 1
    28f0:	0e 94 b0 03 	call	0x760	; 0x760 <W5msReadADC>
    28f4:	6c 01       	movw	r12, r24

  ADC_PORT = 1<<TP3 | TXD_VAL;	//ADC-Port 3 to VCC
    28f6:	98 b8       	out	0x08, r9	; 8
  ADC_DDR = 1<<TP3 | TXD_MSK;	//ADC-Pin  3 to output 0V
    28f8:	97 b8       	out	0x07, r9	; 7
  R_DDR = 1<<PIN_RL3;		//Pin 3 to output and over R_L to GND
    28fa:	84 b8       	out	0x04, r8	; 4
  sum_rp += ADCconfig.U_AVCC - W5msReadADC(TP3);
    28fc:	80 90 2b 01 	lds	r8, 0x012B
    2900:	90 90 2c 01 	lds	r9, 0x012C
    2904:	82 e0       	ldi	r24, 0x02	; 2
    2906:	0e 94 b0 03 	call	0x760	; 0x760 <W5msReadADC>
  // measurement of internal resistance of the ADC port output switched to VCC
  R_PORT = 0;			// R-Ports to GND
  ADC_PORT = 1<<TP1 | TXD_VAL;	//ADC-Port 1 to VCC
  ADC_DDR = 1<<TP1 | TXD_MSK;	//ADC-Pin  1 to output 0V
  R_DDR = 1<<PIN_RL1;		//Pin 1 to output and over R_L to GND
  sum_rp = ADCconfig.U_AVCC - W5msReadADC(TP1);
    290a:	c0 0f       	add	r28, r16
    290c:	d1 1f       	adc	r29, r17
      
  ADC_PORT = 1<<TP2 | TXD_VAL;	//ADC-Port 2 to VCC
  ADC_DDR = 1<<TP2 | TXD_MSK;	//ADC-Pin  2 to output 0V
  R_DDR = 1<<PIN_RL2;		//Pin 2 to output and over R_L to GND
  sum_rp += ADCconfig.U_AVCC - W5msReadADC(TP2);
    290e:	c8 0d       	add	r28, r8
    2910:	d9 1d       	adc	r29, r9
    2912:	ca 19       	sub	r28, r10
    2914:	db 09       	sbc	r29, r11

  ADC_PORT = 1<<TP3 | TXD_VAL;	//ADC-Port 3 to VCC
  ADC_DDR = 1<<TP3 | TXD_MSK;	//ADC-Pin  3 to output 0V
  R_DDR = 1<<PIN_RL3;		//Pin 3 to output and over R_L to GND
  sum_rp += ADCconfig.U_AVCC - W5msReadADC(TP3);
    2916:	cc 19       	sub	r28, r12
    2918:	dd 09       	sbc	r29, r13
    291a:	c8 1b       	sub	r28, r24
    291c:	d9 0b       	sbc	r29, r25

  u680 = ((ADCconfig.U_AVCC * 3) - sum_rm - sum_rp);	//three times the voltage at the 680 Ohm
    291e:	80 91 2b 01 	lds	r24, 0x012B
    2922:	90 91 2c 01 	lds	r25, 0x012C
    2926:	4c 01       	movw	r8, r24
    2928:	88 0c       	add	r8, r8
    292a:	99 1c       	adc	r9, r9
    292c:	88 0e       	add	r8, r24
    292e:	99 1e       	adc	r9, r25
    2930:	8e 18       	sub	r8, r14
    2932:	9f 08       	sbc	r9, r15
    2934:	8c 1a       	sub	r8, r28
    2936:	9d 0a       	sbc	r9, r29
  pin_rmi = (unsigned long)((unsigned long)sum_rm * (unsigned long)R_L_VAL) / (unsigned long)u680;
    2938:	a1 2c       	mov	r10, r1
    293a:	b1 2c       	mov	r11, r1
    293c:	97 01       	movw	r18, r14
    293e:	a0 e9       	ldi	r26, 0x90	; 144
    2940:	ba e1       	ldi	r27, 0x1A	; 26
    2942:	0e 94 ed 1e 	call	0x3dda	; 0x3dda <__umulhisi3>
    2946:	a5 01       	movw	r20, r10
    2948:	94 01       	movw	r18, r8
    294a:	0e 94 32 1f 	call	0x3e64	; 0x3e64 <__udivmodsi4>
    294e:	69 01       	movw	r12, r18
    2950:	7a 01       	movw	r14, r20
    2952:	30 93 3f 01 	sts	0x013F, r19
    2956:	20 93 3e 01 	sts	0x013E, r18
//  adcmv[2] = pin_rm;	// for last output in row 2
  pin_rpl = (unsigned long)((unsigned long)sum_rp * (unsigned long)R_L_VAL) / (unsigned long)u680;
    295a:	9e 01       	movw	r18, r28
    295c:	a0 e9       	ldi	r26, 0x90	; 144
    295e:	ba e1       	ldi	r27, 0x1A	; 26
    2960:	0e 94 ed 1e 	call	0x3dda	; 0x3dda <__umulhisi3>
    2964:	a5 01       	movw	r20, r10
    2966:	94 01       	movw	r18, r8
    2968:	0e 94 32 1f 	call	0x3e64	; 0x3e64 <__udivmodsi4>
    296c:	30 93 2e 01 	sts	0x012E, r19
    2970:	20 93 2d 01 	sts	0x012D, r18
  resis680pl = pin_rpl + R_L_VAL;
    2974:	20 57       	subi	r18, 0x70	; 112
    2976:	35 4e       	sbci	r19, 0xE5	; 229
    2978:	30 93 1a 01 	sts	0x011A, r19
    297c:	20 93 19 01 	sts	0x0119, r18
  resis680mi = pin_rmi + R_L_VAL;
    2980:	80 e7       	ldi	r24, 0x70	; 112
    2982:	c8 1a       	sub	r12, r24
    2984:	85 ee       	ldi	r24, 0xE5	; 229
    2986:	d8 0a       	sbc	r13, r24
    2988:	d0 92 13 01 	sts	0x0113, r13
    298c:	c0 92 12 01 	sts	0x0112, r12
#endif

  ADCconfig.Samples = ANZ_MESS;	// set to configured number of ADC samples
    2990:	89 e1       	ldi	r24, 0x19	; 25
    2992:	80 93 27 01 	sts	0x0127, r24
 } 
    2996:	cd b7       	in	r28, 0x3d	; 61
    2998:	de b7       	in	r29, 0x3e	; 62
    299a:	ec e0       	ldi	r30, 0x0C	; 12
    299c:	0c 94 95 1f 	jmp	0x3f2a	; 0x3f2a <__epilogue_restores__+0xc>

000029a0 <ReadInductance>:
#include <stdlib.h>
#include "Transistortester.h"


//=================================================================
void ReadInductance(void) {
    29a0:	a3 e1       	ldi	r26, 0x13	; 19
    29a2:	b0 e0       	ldi	r27, 0x00	; 0
    29a4:	e6 ed       	ldi	r30, 0xD6	; 214
    29a6:	f4 e1       	ldi	r31, 0x14	; 20
    29a8:	0c 94 73 1f 	jmp	0x3ee6	; 0x3ee6 <__prologue_saves__>
  uint16_t pw;		// return value from Rnum2pins()
  uint8_t pb[2];	// the pin numbers LowPin and HighPin
  } rpins;	// resistor pin structure to prevent two return parameters


  inductor_lpre = 0;	// H units, mark inductor as 0
    29ac:	10 92 01 01 	sts	0x0101, r1
  if(PartFound != PART_RESISTOR) {
    29b0:	80 91 18 01 	lds	r24, 0x0118
    29b4:	81 30       	cpi	r24, 0x01	; 1
    29b6:	09 f0       	breq	.+2      	; 0x29ba <ReadInductance+0x1a>
    29b8:	1c c2       	rjmp	.+1080   	; 0x2df2 <ReadInductance+0x452>
     return;	//We have found no resistor  
  }
  if (ResistorsFound != 1) {
    29ba:	80 91 70 01 	lds	r24, 0x0170
    29be:	81 30       	cpi	r24, 0x01	; 1
    29c0:	09 f0       	breq	.+2      	; 0x29c4 <ReadInductance+0x24>
    29c2:	17 c2       	rjmp	.+1070   	; 0x2df2 <ReadInductance+0x452>
     return;	// do not search for inductance, more than 1 resistor
  }
     res_num = ResistorList[0];
    29c4:	20 90 5b 01 	lds	r2, 0x015B
     if (ResistorVal[res_num] > 21000) return;
    29c8:	24 e0       	ldi	r18, 0x04	; 4
    29ca:	22 9e       	mul	r2, r18
    29cc:	f0 01       	movw	r30, r0
    29ce:	11 24       	eor	r1, r1
    29d0:	ee 55       	subi	r30, 0x5E	; 94
    29d2:	fe 4f       	sbci	r31, 0xFE	; 254
    29d4:	80 81       	ld	r24, Z
    29d6:	91 81       	ldd	r25, Z+1	; 0x01
    29d8:	a2 81       	ldd	r26, Z+2	; 0x02
    29da:	b3 81       	ldd	r27, Z+3	; 0x03
    29dc:	89 30       	cpi	r24, 0x09	; 9
    29de:	32 e5       	ldi	r19, 0x52	; 82
    29e0:	93 07       	cpc	r25, r19
    29e2:	a1 05       	cpc	r26, r1
    29e4:	b1 05       	cpc	r27, r1
    29e6:	08 f0       	brcs	.+2      	; 0x29ea <ReadInductance+0x4a>
    29e8:	04 c2       	rjmp	.+1032   	; 0x2df2 <ReadInductance+0x452>
     resistor = ResistorVal[res_num];
    29ea:	9b 8b       	std	Y+19, r25	; 0x13
    29ec:	8a 8b       	std	Y+18, r24	; 0x12

     // we can check for Inductance, if resistance is below 2100 Ohm
     for (count=0;count<4;count++) {
    29ee:	31 2c       	mov	r3, r1
        // Try four times (different direction and with delayed counter start)
        if (count < 2) {
    29f0:	61 e0       	ldi	r22, 0x01	; 1
           // first and second pass, direction 1
           rpins.pw = Rnum2pins(res_num);	// compute the two pinnumbers for resistor res_num
    29f2:	82 2d       	mov	r24, r2
     resistor = ResistorVal[res_num];

     // we can check for Inductance, if resistance is below 2100 Ohm
     for (count=0;count<4;count++) {
        // Try four times (different direction and with delayed counter start)
        if (count < 2) {
    29f4:	63 15       	cp	r22, r3
    29f6:	28 f0       	brcs	.+10     	; 0x2a02 <ReadInductance+0x62>
           // first and second pass, direction 1
           rpins.pw = Rnum2pins(res_num);	// compute the two pinnumbers for resistor res_num
    29f8:	0e 94 39 02 	call	0x472	; 0x472 <Rnum2pins>
    29fc:	b8 2e       	mov	r11, r24
    29fe:	a9 2e       	mov	r10, r25
    2a00:	03 c0       	rjmp	.+6      	; 0x2a08 <ReadInductance+0x68>
//         if (res_num == 2) LowPin = TP2;
//         HighPin = TP3;
//         if (res_num == 0) HighPin = TP2;
        } else {
           // third and fourth pass, direction 2
           rpins.pw = Rnum2pins(res_num);	// compute the two pinnumbers for resistor res_num
    2a02:	0e 94 39 02 	call	0x472	; 0x472 <Rnum2pins>
           ii = rpins.pb[0];
           rpins.pb[0] = rpins.pb[1];		// swap the pins LowPin and HighPin
           rpins.pb[1] = ii;
    2a06:	5c 01       	movw	r10, r24
//         if (res_num == 2) HighPin = TP2;
        }
#if (((PIN_RL1 + 1) != PIN_RH1) || ((PIN_RL2 + 1) != PIN_RH2) || ((PIN_RL3 + 1) != PIN_RH3))
        HiADC = pgm_read_byte((&PinRLRHADCtab[6])+rpins.pb[1]);	// Table of ADC Pins including | TXD_VAL
#else
        HiADC = pgm_read_byte((&PinRLRHADCtab[3])+rpins.pb[1]);	// Table of ADC Pins including | TXD_VAL
    2a08:	ea 2d       	mov	r30, r10
    2a0a:	f0 e0       	ldi	r31, 0x00	; 0
    2a0c:	ef 57       	subi	r30, 0x7F	; 127
    2a0e:	ff 4f       	sbci	r31, 0xFF	; 255
    2a10:	74 90       	lpm	r7, Z
#endif
        LoPinR_L = pgm_read_byte(&PinRLRHADCtab[rpins.pb[0]]);	//R_L mask for HighPin R_L load
    2a12:	8b 2d       	mov	r24, r11
    2a14:	90 e0       	ldi	r25, 0x00	; 0
    2a16:	fc 01       	movw	r30, r24
    2a18:	e2 58       	subi	r30, 0x82	; 130
    2a1a:	ff 4f       	sbci	r31, 0xFF	; 255
    2a1c:	e4 91       	lpm	r30, Z
        //==================================================================================
        // Measurement of Inductance values
        R_PORT = 0;		// switch R port to GND
    2a1e:	15 b8       	out	0x05, r1	; 5
        ADC_PORT =   TXD_VAL;		// switch ADC-Port to GND
    2a20:	18 b8       	out	0x08, r1	; 8
        if ((resistor < 240) && ((count & 0x01) == 0)) {
    2a22:	2a 89       	ldd	r18, Y+18	; 0x12
    2a24:	3b 89       	ldd	r19, Y+19	; 0x13
    2a26:	20 3f       	cpi	r18, 0xF0	; 240
    2a28:	31 05       	cpc	r19, r1
    2a2a:	a0 f4       	brcc	.+40     	; 0x2a54 <ReadInductance+0xb4>
    2a2c:	30 fc       	sbrc	r3, 0
    2a2e:	12 c0       	rjmp	.+36     	; 0x2a54 <ReadInductance+0xb4>
           // we can use PinR_L for measurement
           mess_r = RR680MI - R_L_VAL;			// use only pin output resistance
    2a30:	00 91 12 01 	lds	r16, 0x0112
    2a34:	10 91 13 01 	lds	r17, 0x0113
    2a38:	00 59       	subi	r16, 0x90	; 144
    2a3a:	1a 41       	sbci	r17, 0x1A	; 26
           ADC_DDR = HiADC | (1<<rpins.pb[0]) | TXD_MSK;	// switch HiADC and Low Pin to GND, 
    2a3c:	21 e0       	ldi	r18, 0x01	; 1
    2a3e:	30 e0       	ldi	r19, 0x00	; 0
    2a40:	0b 2c       	mov	r0, r11
    2a42:	02 c0       	rjmp	.+4      	; 0x2a48 <ReadInductance+0xa8>
    2a44:	22 0f       	add	r18, r18
    2a46:	33 1f       	adc	r19, r19
    2a48:	0a 94       	dec	r0
    2a4a:	e2 f7       	brpl	.-8      	; 0x2a44 <ReadInductance+0xa4>
    2a4c:	c9 01       	movw	r24, r18
    2a4e:	87 29       	or	r24, r7
    2a50:	87 b9       	out	0x07, r24	; 7
    2a52:	06 c0       	rjmp	.+12     	; 0x2a60 <ReadInductance+0xc0>
        } else {
           R_DDR = LoPinR_L;   		// switch R_L resistor port for LowPin to output (GND)
    2a54:	e4 b9       	out	0x04, r30	; 4
           ADC_DDR = HiADC | TXD_MSK;	// switch HiADC Pin to GND 
    2a56:	77 b8       	out	0x07, r7	; 7
           mess_r = RR680MI;			// use 680 Ohm and PinR_L for current measurement
    2a58:	00 91 12 01 	lds	r16, 0x0112
    2a5c:	10 91 13 01 	lds	r17, 0x0113
     res_num = ResistorList[0];
     if (ResistorVal[res_num] > 21000) return;
     resistor = ResistorVal[res_num];

     // we can check for Inductance, if resistance is below 2100 Ohm
     for (count=0;count<4;count++) {
    2a60:	44 e1       	ldi	r20, 0x14	; 20
    2a62:	64 2e       	mov	r6, r20
           mess_r = RR680MI;			// use 680 Ohm and PinR_L for current measurement
        }
        // Look, if we can detect any current
        for (ii=0;ii<20;ii++) {
            // wait for current is near zero
            umax = W10msReadADC(rpins.pb[0]);
    2a64:	8b 2d       	mov	r24, r11
    2a66:	0e 94 ac 03 	call	0x758	; 0x758 <W10msReadADC>
    2a6a:	4c 01       	movw	r8, r24
            total_r =  ReadADC(rpins.pb[1]);
    2a6c:	8a 2d       	mov	r24, r10
    2a6e:	0e 94 b4 03 	call	0x768	; 0x768 <ReadADC>
            if ((umax < 2) && (total_r < 2)) break;	// low current detected
    2a72:	32 e0       	ldi	r19, 0x02	; 2
    2a74:	83 16       	cp	r8, r19
    2a76:	91 04       	cpc	r9, r1
    2a78:	10 f4       	brcc	.+4      	; 0x2a7e <ReadInductance+0xde>
    2a7a:	02 97       	sbiw	r24, 0x02	; 2
    2a7c:	10 f0       	brcs	.+4      	; 0x2a82 <ReadInductance+0xe2>
    2a7e:	6a 94       	dec	r6
           R_DDR = LoPinR_L;   		// switch R_L resistor port for LowPin to output (GND)
           ADC_DDR = HiADC | TXD_MSK;	// switch HiADC Pin to GND 
           mess_r = RR680MI;			// use 680 Ohm and PinR_L for current measurement
        }
        // Look, if we can detect any current
        for (ii=0;ii<20;ii++) {
    2a80:	89 f7       	brne	.-30     	; 0x2a64 <ReadInductance+0xc4>
            umax = W10msReadADC(rpins.pb[0]);
            total_r =  ReadADC(rpins.pb[1]);
            if ((umax < 2) && (total_r < 2)) break;	// low current detected
        }
        // setup Analog Comparator
        ADC_COMP_CONTROL = (1<<ACME);			//enable Analog Comparator Multiplexer
    2a82:	60 e4       	ldi	r22, 0x40	; 64
    2a84:	60 93 7b 00 	sts	0x007B, r22
        ACSR =  (1<<ACBG) | (1<<ACI)  | (1<<ACIC);	// enable, 1.3V, no Interrupt, Connect to Timer1 
    2a88:	84 e5       	ldi	r24, 0x54	; 84
    2a8a:	80 bf       	out	0x30, r24	; 48
        ADMUX = (1<<REFS0) | rpins.pb[0];			// switch Mux to Low-Pin
    2a8c:	8b 2d       	mov	r24, r11
    2a8e:	80 64       	ori	r24, 0x40	; 64
    2a90:	80 93 7c 00 	sts	0x007C, r24
        ADCSRA = (1<<ADIF) | AUTO_CLOCK_DIV; //disable ADC
    2a94:	96 e1       	ldi	r25, 0x16	; 22
    2a96:	90 93 7a 00 	sts	0x007A, r25
   
      // setup Counter1
        timeconstant.w[1] = 0;		// set ov counter to 0
    2a9a:	e1 2c       	mov	r14, r1
    2a9c:	f1 2c       	mov	r15, r1
        TCCR1A = 0;			// set Counter1 to normal Mode
    2a9e:	10 92 80 00 	sts	0x0080, r1
        TCNT1 = 0;			//set Counter to 0
    2aa2:	10 92 85 00 	sts	0x0085, r1
    2aa6:	10 92 84 00 	sts	0x0084, r1
        TI1_INT_FLAGS = (1<<ICF1) | (1<<OCF1B) | (1<<OCF1A) | (1<<TOV1);	// reset TIFR or TIFR1
    2aaa:	87 e2       	ldi	r24, 0x27	; 39
    2aac:	86 bb       	out	0x16, r24	; 22
//        HiADC |= TXD_VAL;
        wait200us();			// wait for bandgap to start up
    2aae:	0e 94 71 03 	call	0x6e2	; 0x6e2 <wait200us>
        if ((count & 0x01) == 0 ) {
    2ab2:	23 2d       	mov	r18, r3
    2ab4:	21 70       	andi	r18, 0x01	; 1
    2ab6:	29 8b       	std	Y+17, r18	; 0x11
    2ab8:	30 fc       	sbrc	r3, 0
    2aba:	05 c0       	rjmp	.+10     	; 0x2ac6 <ReadInductance+0x126>
           //first start counter, then start current
           TCCR1B =  (1<<ICNC1) | (0<<ICES1) | (1<<CS10);	//start counter 1MHz or 8MHz
    2abc:	81 e8       	ldi	r24, 0x81	; 129
    2abe:	80 93 81 00 	sts	0x0081, r24
           ADC_PORT = HiADC;		// switch ADC-Port to VCC
    2ac2:	78 b8       	out	0x08, r7	; 8
    2ac4:	08 c0       	rjmp	.+16     	; 0x2ad6 <ReadInductance+0x136>
        } else {
           //first start current, then start counter with delay
           //parasitic capacity of coil can cause high current at the beginning
           ADC_PORT = HiADC;		// switch ADC-Port to VCC
    2ac6:	78 b8       	out	0x08, r7	; 8
      #if F_CPU >= 8000000UL
           wait3us();		// ignore current peak from capacity
    2ac8:	0e 94 7a 03 	call	0x6f4	; 0x6f4 <wait3us>
      #else
           wdt_reset();			// delay
           wdt_reset();			// delay
      #endif
           TI1_INT_FLAGS = (1<<ICF1);	// Reset Input Capture
    2acc:	80 e2       	ldi	r24, 0x20	; 32
    2ace:	86 bb       	out	0x16, r24	; 22
           TCCR1B =  (1<<ICNC1) | (0<<ICES1) | (1<<CS10);	//start counter 1MHz or 8MHz
    2ad0:	81 e8       	ldi	r24, 0x81	; 129
    2ad2:	80 93 81 00 	sts	0x0081, r24
        }
      
      //******************************
        while(1) {
           // Wait, until  Input Capture is set
           ii = TI1_INT_FLAGS;		//read Timer flags
    2ad6:	46 b3       	in	r20, 0x16	; 22
           if (ii & (1<<ICF1))  {
    2ad8:	45 ff       	sbrs	r20, 5
    2ada:	11 c0       	rjmp	.+34     	; 0x2afe <ReadInductance+0x15e>
              if(timeconstant.w[1] == (F_CPU/100000UL)) {
                 break; 	//Timeout for Charging, above 0.13 s
              }
           }
        }
        TCCR1B = (0<<ICNC1) | (0<<ICES1) | (0<<CS10);  // stop counter
    2adc:	10 92 81 00 	sts	0x0081, r1
        TI1_INT_FLAGS = (1<<ICF1);			// Reset Input Capture
    2ae0:	80 e2       	ldi	r24, 0x20	; 32
    2ae2:	86 bb       	out	0x16, r24	; 22
        timeconstant.w[0] = ICR1;		// get previous Input Capture Counter flag
    2ae4:	80 91 86 00 	lds	r24, 0x0086
    2ae8:	90 91 87 00 	lds	r25, 0x0087
    2aec:	6c 01       	movw	r12, r24
      // check actual counter, if an additional overflow must be added
        if((TCNT1 > timeconstant.w[0]) && (ii & (1<<TOV1))) {
    2aee:	20 91 84 00 	lds	r18, 0x0084
    2af2:	30 91 85 00 	lds	r19, 0x0085
    2af6:	82 17       	cp	r24, r18
    2af8:	93 07       	cpc	r25, r19
    2afa:	68 f0       	brcs	.+26     	; 0x2b16 <ReadInductance+0x176>
    2afc:	13 c0       	rjmp	.+38     	; 0x2b24 <ReadInductance+0x184>
           // Wait, until  Input Capture is set
           ii = TI1_INT_FLAGS;		//read Timer flags
           if (ii & (1<<ICF1))  {
              break;
           }
           if((ii & (1<<TOV1))) {		// counter overflow, 65.536 ms @ 1MHz, 8.192ms @ 8MHz
    2afe:	40 ff       	sbrs	r20, 0
    2b00:	ea cf       	rjmp	.-44     	; 0x2ad6 <ReadInductance+0x136>
              TI1_INT_FLAGS = (1<<TOV1);	// Reset OV Flag
    2b02:	31 e0       	ldi	r19, 0x01	; 1
    2b04:	36 bb       	out	0x16, r19	; 22
              wdt_reset();
    2b06:	a8 95       	wdr
              timeconstant.w[1]++;		// count one OV
    2b08:	c7 01       	movw	r24, r14
    2b0a:	01 96       	adiw	r24, 0x01	; 1
    2b0c:	7c 01       	movw	r14, r24
              if(timeconstant.w[1] == (F_CPU/100000UL)) {
    2b0e:	80 35       	cpi	r24, 0x50	; 80
    2b10:	91 05       	cpc	r25, r1
    2b12:	09 f7       	brne	.-62     	; 0x2ad6 <ReadInductance+0x136>
    2b14:	e3 cf       	rjmp	.-58     	; 0x2adc <ReadInductance+0x13c>
        }
        TCCR1B = (0<<ICNC1) | (0<<ICES1) | (0<<CS10);  // stop counter
        TI1_INT_FLAGS = (1<<ICF1);			// Reset Input Capture
        timeconstant.w[0] = ICR1;		// get previous Input Capture Counter flag
      // check actual counter, if an additional overflow must be added
        if((TCNT1 > timeconstant.w[0]) && (ii & (1<<TOV1))) {
    2b16:	40 ff       	sbrs	r20, 0
    2b18:	05 c0       	rjmp	.+10     	; 0x2b24 <ReadInductance+0x184>
           // this OV was not counted, but was before the Input Capture
           TI1_INT_FLAGS = (1<<TOV1);		// Reset OV Flag
    2b1a:	61 e0       	ldi	r22, 0x01	; 1
    2b1c:	66 bb       	out	0x16, r22	; 22
           timeconstant.w[1]++;			// count one additional OV
    2b1e:	8f ef       	ldi	r24, 0xFF	; 255
    2b20:	e8 1a       	sub	r14, r24
    2b22:	f8 0a       	sbc	r15, r24
        }

        ADC_PORT = TXD_VAL;		// switch ADC-Port to GND
    2b24:	18 b8       	out	0x08, r1	; 8
        ADCSRA = (1<<ADEN) | (1<<ADIF) | AUTO_CLOCK_DIV; //enable ADC
    2b26:	86 e9       	ldi	r24, 0x96	; 150
    2b28:	80 93 7a 00 	sts	0x007A, r24
    2b2c:	34 e1       	ldi	r19, 0x14	; 20
    2b2e:	73 2e       	mov	r7, r19
        for (ii=0;ii<20;ii++) {
            // wait for current is near zero
            umax = W10msReadADC(rpins.pb[0]);
    2b30:	8b 2d       	mov	r24, r11
    2b32:	0e 94 ac 03 	call	0x758	; 0x758 <W10msReadADC>
    2b36:	4c 01       	movw	r8, r24
            total_r =  ReadADC(rpins.pb[1]);
    2b38:	8a 2d       	mov	r24, r10
    2b3a:	0e 94 b4 03 	call	0x768	; 0x768 <ReadADC>
            if ((umax < 2) && (total_r < 2)) break;	// low current detected
    2b3e:	22 e0       	ldi	r18, 0x02	; 2
    2b40:	82 16       	cp	r8, r18
    2b42:	91 04       	cpc	r9, r1
    2b44:	10 f4       	brcc	.+4      	; 0x2b4a <ReadInductance+0x1aa>
    2b46:	02 97       	sbiw	r24, 0x02	; 2
    2b48:	10 f0       	brcs	.+4      	; 0x2b4e <ReadInductance+0x1ae>
    2b4a:	7a 94       	dec	r7
           timeconstant.w[1]++;			// count one additional OV
        }

        ADC_PORT = TXD_VAL;		// switch ADC-Port to GND
        ADCSRA = (1<<ADEN) | (1<<ADIF) | AUTO_CLOCK_DIV; //enable ADC
        for (ii=0;ii<20;ii++) {
    2b4c:	89 f7       	brne	.-30     	; 0x2b30 <ReadInductance+0x190>
//  #undef CNT_ZERO_42
//  #undef CNT_ZERO_720
//  #define CNT_ZERO_42 7
//  #define CNT_ZERO_720 10
//#endif
        total_r = (mess_r + resistor + RRpinMI);
    2b4e:	80 90 3e 01 	lds	r8, 0x013E
    2b52:	90 90 3f 01 	lds	r9, 0x013F
    2b56:	8a 89       	ldd	r24, Y+18	; 0x12
    2b58:	9b 89       	ldd	r25, Y+19	; 0x13
    2b5a:	88 0e       	add	r8, r24
    2b5c:	99 1e       	adc	r9, r25
    2b5e:	80 0e       	add	r8, r16
    2b60:	91 1e       	adc	r9, r17
//        cnt_diff = 0;
//        if (total_r > 7000) cnt_diff = 1;
//        if (total_r > 14000) cnt_diff = 2;
        cnt_diff = total_r / ((14000UL * 8) / (F_CPU/1000000UL));
        tmpint = ref_mv_offs;		// corrected reference voltage (for C)
    2b62:	20 91 14 01 	lds	r18, 0x0114
    2b66:	30 91 15 01 	lds	r19, 0x0115
        if (mess_r < R_L_VAL) {
    2b6a:	00 39       	cpi	r16, 0x90	; 144
    2b6c:	9a e1       	ldi	r25, 0x1A	; 26
    2b6e:	19 07       	cpc	r17, r25
    2b70:	b0 f4       	brcc	.+44     	; 0x2b9e <ReadInductance+0x1fe>
           // measurement without 680 Ohm
           cnt_diff = CNT_ZERO_42;
           if (timeconstant.dw < 225) {
    2b72:	61 ee       	ldi	r22, 0xE1	; 225
    2b74:	c6 16       	cp	r12, r22
    2b76:	d1 04       	cpc	r13, r1
    2b78:	e1 04       	cpc	r14, r1
    2b7a:	f1 04       	cpc	r15, r1
    2b7c:	38 f4       	brcc	.+14     	; 0x2b8c <ReadInductance+0x1ec>
              ukorr = (timeconstant.w[0] / 5) - 20;
    2b7e:	c6 01       	movw	r24, r12
    2b80:	65 e0       	ldi	r22, 0x05	; 5
    2b82:	70 e0       	ldi	r23, 0x00	; 0
    2b84:	0e 94 1e 1f 	call	0x3e3c	; 0x3e3c <__udivmodhi4>
    2b88:	64 51       	subi	r22, 0x14	; 20
    2b8a:	01 c0       	rjmp	.+2      	; 0x2b8e <ReadInductance+0x1ee>
           } else {
              ukorr = 25;
    2b8c:	69 e1       	ldi	r22, 0x19	; 25
           }
           tmpint -= (((REF_L_KORR * 10) / 10) + ukorr);
    2b8e:	28 52       	subi	r18, 0x28	; 40
    2b90:	31 09       	sbc	r19, r1
    2b92:	26 1b       	sub	r18, r22
    2b94:	31 09       	sbc	r19, r1
    2b96:	67 fd       	sbrc	r22, 7
    2b98:	33 95       	inc	r19
//        if (total_r > 14000) cnt_diff = 2;
        cnt_diff = total_r / ((14000UL * 8) / (F_CPU/1000000UL));
        tmpint = ref_mv_offs;		// corrected reference voltage (for C)
        if (mess_r < R_L_VAL) {
           // measurement without 680 Ohm
           cnt_diff = CNT_ZERO_42;
    2b9a:	86 e0       	ldi	r24, 0x06	; 6
    2b9c:	09 c0       	rjmp	.+18     	; 0x2bb0 <ReadInductance+0x210>
//#endif
        total_r = (mess_r + resistor + RRpinMI);
//        cnt_diff = 0;
//        if (total_r > 7000) cnt_diff = 1;
//        if (total_r > 14000) cnt_diff = 2;
        cnt_diff = total_r / ((14000UL * 8) / (F_CPU/1000000UL));
    2b9e:	c4 01       	movw	r24, r8
    2ba0:	60 eb       	ldi	r22, 0xB0	; 176
    2ba2:	76 e3       	ldi	r23, 0x36	; 54
    2ba4:	0e 94 1e 1f 	call	0x3e3c	; 0x3e3c <__udivmodhi4>
           }
           tmpint -= (((REF_L_KORR * 10) / 10) + ukorr);
        } else {
           // measurement with 680 Ohm resistor
           // if 680 Ohm resistor is used, use REF_L_KORR for correction
           cnt_diff += CNT_ZERO_720;
    2ba8:	87 e0       	ldi	r24, 0x07	; 7
    2baa:	86 0f       	add	r24, r22
           tmpint += REF_L_KORR;
    2bac:	28 5d       	subi	r18, 0xD8	; 216
    2bae:	3f 4f       	sbci	r19, 0xFF	; 255
        }
        if (timeconstant.dw > cnt_diff) timeconstant.dw -= cnt_diff;
    2bb0:	90 e0       	ldi	r25, 0x00	; 0
    2bb2:	a0 e0       	ldi	r26, 0x00	; 0
    2bb4:	b0 e0       	ldi	r27, 0x00	; 0
    2bb6:	8c 15       	cp	r24, r12
    2bb8:	9d 05       	cpc	r25, r13
    2bba:	ae 05       	cpc	r26, r14
    2bbc:	bf 05       	cpc	r27, r15
    2bbe:	28 f4       	brcc	.+10     	; 0x2bca <ReadInductance+0x22a>
    2bc0:	c8 1a       	sub	r12, r24
    2bc2:	d9 0a       	sbc	r13, r25
    2bc4:	ea 0a       	sbc	r14, r26
    2bc6:	fb 0a       	sbc	r15, r27
    2bc8:	03 c0       	rjmp	.+6      	; 0x2bd0 <ReadInductance+0x230>
        else          timeconstant.dw = 0;
    2bca:	c1 2c       	mov	r12, r1
    2bcc:	d1 2c       	mov	r13, r1
    2bce:	76 01       	movw	r14, r12
       
        if ((count&0x01) == 1) {
    2bd0:	89 89       	ldd	r24, Y+17	; 0x11
    2bd2:	88 23       	and	r24, r24
    2bd4:	29 f0       	breq	.+10     	; 0x2be0 <ReadInductance+0x240>
           // second pass with delayed counter start
           timeconstant.dw += (3 * (F_CPU/1000000UL))+10;
    2bd6:	92 e2       	ldi	r25, 0x22	; 34
    2bd8:	c9 0e       	add	r12, r25
    2bda:	d1 1c       	adc	r13, r1
    2bdc:	e1 1c       	adc	r14, r1
    2bde:	f1 1c       	adc	r15, r1
        }
        if (timeconstant.w[1] >= (F_CPU/100000UL)) timeconstant.dw = 0; // no transition found
    2be0:	60 e5       	ldi	r22, 0x50	; 80
    2be2:	e6 16       	cp	r14, r22
    2be4:	f1 04       	cpc	r15, r1
    2be6:	18 f0       	brcs	.+6      	; 0x2bee <ReadInductance+0x24e>
    2be8:	c1 2c       	mov	r12, r1
    2bea:	d1 2c       	mov	r13, r1
    2bec:	76 01       	movw	r14, r12
        if (timeconstant.dw > 10) {
    2bee:	8b e0       	ldi	r24, 0x0B	; 11
    2bf0:	c8 16       	cp	r12, r24
    2bf2:	d1 04       	cpc	r13, r1
    2bf4:	e1 04       	cpc	r14, r1
    2bf6:	f1 04       	cpc	r15, r1
    2bf8:	28 f0       	brcs	.+10     	; 0x2c04 <ReadInductance+0x264>
           timeconstant.dw -= 1;
    2bfa:	91 e0       	ldi	r25, 0x01	; 1
    2bfc:	c9 1a       	sub	r12, r25
    2bfe:	d1 08       	sbc	r13, r1
    2c00:	e1 08       	sbc	r14, r1
    2c02:	f1 08       	sbc	r15, r1
        }
        // compute the maximum Voltage umax with the Resistor of the coil
        umax = ((unsigned long)mess_r * (unsigned long)ADCconfig.U_AVCC) / total_r;
    2c04:	40 91 2b 01 	lds	r20, 0x012B
    2c08:	50 91 2c 01 	lds	r21, 0x012C
    2c0c:	a1 2c       	mov	r10, r1
    2c0e:	b1 2c       	mov	r11, r1
        per_ref1 = ((unsigned long)tmpint * 1000) / umax;
    2c10:	a8 ee       	ldi	r26, 0xE8	; 232
    2c12:	b3 e0       	ldi	r27, 0x03	; 3
    2c14:	0e 94 ed 1e 	call	0x3dda	; 0x3dda <__umulhisi3>
    2c18:	2b 01       	movw	r4, r22
    2c1a:	3c 01       	movw	r6, r24
        if (timeconstant.w[1] >= (F_CPU/100000UL)) timeconstant.dw = 0; // no transition found
        if (timeconstant.dw > 10) {
           timeconstant.dw -= 1;
        }
        // compute the maximum Voltage umax with the Resistor of the coil
        umax = ((unsigned long)mess_r * (unsigned long)ADCconfig.U_AVCC) / total_r;
    2c1c:	98 01       	movw	r18, r16
    2c1e:	da 01       	movw	r26, r20
    2c20:	0e 94 ed 1e 	call	0x3dda	; 0x3dda <__umulhisi3>
    2c24:	a5 01       	movw	r20, r10
    2c26:	94 01       	movw	r18, r8
    2c28:	0e 94 32 1f 	call	0x3e64	; 0x3e64 <__udivmodsi4>
        per_ref1 = ((unsigned long)tmpint * 1000) / umax;
    2c2c:	44 27       	eor	r20, r20
    2c2e:	55 27       	eor	r21, r21
    2c30:	c3 01       	movw	r24, r6
    2c32:	b2 01       	movw	r22, r4
    2c34:	0e 94 32 1f 	call	0x3e64	; 0x3e64 <__udivmodsi4>
//        per_ref2 = (uint8_t)MEM2_read_byte(&LogTab[per_ref1]);	// -log(1 - per_ref1/100)
        per_ref2 = get_log(per_ref1);		// -log(1 - per_ref1/1000)
    2c38:	c9 01       	movw	r24, r18
    2c3a:	0e 94 aa 04 	call	0x954	; 0x954 <get_log>
    2c3e:	fc 01       	movw	r30, r24
          }
#endif
/* ********************************************************* */
        // inductor_lx in 0.01mH units,  L = Tau * R
        per_ref1 = ((per_ref2 * (F_CPU/1000000UL)) + 5) / 10;
        inductance[count] = (timeconstant.dw * total_r ) / per_ref1;
    2c40:	a5 01       	movw	r20, r10
    2c42:	94 01       	movw	r18, r8
    2c44:	c7 01       	movw	r24, r14
    2c46:	b6 01       	movw	r22, r12
    2c48:	0e 94 0e 1f 	call	0x3e1c	; 0x3e1c <__mulsi3>
    2c4c:	4b 01       	movw	r8, r22
    2c4e:	5c 01       	movw	r10, r24
             wait_about2s();
          }
#endif
/* ********************************************************* */
        // inductor_lx in 0.01mH units,  L = Tau * R
        per_ref1 = ((per_ref2 * (F_CPU/1000000UL)) + 5) / 10;
    2c50:	bf 01       	movw	r22, r30
    2c52:	80 e0       	ldi	r24, 0x00	; 0
    2c54:	90 e0       	ldi	r25, 0x00	; 0
    2c56:	23 e0       	ldi	r18, 0x03	; 3
    2c58:	66 0f       	add	r22, r22
    2c5a:	77 1f       	adc	r23, r23
    2c5c:	88 1f       	adc	r24, r24
    2c5e:	99 1f       	adc	r25, r25
    2c60:	2a 95       	dec	r18
    2c62:	d1 f7       	brne	.-12     	; 0x2c58 <ReadInductance+0x2b8>
    2c64:	6b 5f       	subi	r22, 0xFB	; 251
    2c66:	7f 4f       	sbci	r23, 0xFF	; 255
    2c68:	8f 4f       	sbci	r24, 0xFF	; 255
    2c6a:	9f 4f       	sbci	r25, 0xFF	; 255
    2c6c:	2a e0       	ldi	r18, 0x0A	; 10
    2c6e:	30 e0       	ldi	r19, 0x00	; 0
    2c70:	40 e0       	ldi	r20, 0x00	; 0
    2c72:	50 e0       	ldi	r21, 0x00	; 0
    2c74:	0e 94 32 1f 	call	0x3e64	; 0x3e64 <__udivmodsi4>
        inductance[count] = (timeconstant.dw * total_r ) / per_ref1;
    2c78:	c5 01       	movw	r24, r10
    2c7a:	b4 01       	movw	r22, r8
    2c7c:	0e 94 32 1f 	call	0x3e64	; 0x3e64 <__udivmodsi4>
    2c80:	83 2d       	mov	r24, r3
    2c82:	90 e0       	ldi	r25, 0x00	; 0
    2c84:	e1 e0       	ldi	r30, 0x01	; 1
    2c86:	f0 e0       	ldi	r31, 0x00	; 0
    2c88:	ec 0f       	add	r30, r28
    2c8a:	fd 1f       	adc	r31, r29
    2c8c:	64 e0       	ldi	r22, 0x04	; 4
    2c8e:	36 9e       	mul	r3, r22
    2c90:	e0 0d       	add	r30, r0
    2c92:	f1 1d       	adc	r31, r1
    2c94:	11 24       	eor	r1, r1
    2c96:	20 83       	st	Z, r18
    2c98:	31 83       	std	Z+1, r19	; 0x01
    2c9a:	42 83       	std	Z+2, r20	; 0x02
    2c9c:	53 83       	std	Z+3, r21	; 0x03
        if (((count&0x01) == 0) && (timeconstant.dw > ((F_CPU/1000000UL)+3))) {
    2c9e:	69 89       	ldd	r22, Y+17	; 0x11
    2ca0:	61 11       	cpse	r22, r1
    2ca2:	17 c0       	rjmp	.+46     	; 0x2cd2 <ReadInductance+0x332>
    2ca4:	6c e0       	ldi	r22, 0x0C	; 12
    2ca6:	c6 16       	cp	r12, r22
    2ca8:	d1 04       	cpc	r13, r1
    2caa:	e1 04       	cpc	r14, r1
    2cac:	f1 04       	cpc	r15, r1
    2cae:	88 f0       	brcs	.+34     	; 0x2cd2 <ReadInductance+0x332>
           // transition is found, measurement with delayed counter start is not necessary
           inductance[count+1] = inductance[count];	// set delayed measurement to same value
    2cb0:	fc 01       	movw	r30, r24
    2cb2:	31 96       	adiw	r30, 0x01	; 1
    2cb4:	ee 0f       	add	r30, r30
    2cb6:	ff 1f       	adc	r31, r31
    2cb8:	ee 0f       	add	r30, r30
    2cba:	ff 1f       	adc	r31, r31
    2cbc:	81 e0       	ldi	r24, 0x01	; 1
    2cbe:	90 e0       	ldi	r25, 0x00	; 0
    2cc0:	8c 0f       	add	r24, r28
    2cc2:	9d 1f       	adc	r25, r29
    2cc4:	e8 0f       	add	r30, r24
    2cc6:	f9 1f       	adc	r31, r25
    2cc8:	20 83       	st	Z, r18
    2cca:	31 83       	std	Z+1, r19	; 0x01
    2ccc:	42 83       	std	Z+2, r20	; 0x02
    2cce:	53 83       	std	Z+3, r21	; 0x03
           count++;		// skip the delayed measurement
    2cd0:	33 94       	inc	r3
        }
        wdt_reset();
    2cd2:	a8 95       	wdr
     res_num = ResistorList[0];
     if (ResistorVal[res_num] > 21000) return;
     resistor = ResistorVal[res_num];

     // we can check for Inductance, if resistance is below 2100 Ohm
     for (count=0;count<4;count++) {
    2cd4:	33 94       	inc	r3
    2cd6:	93 e0       	ldi	r25, 0x03	; 3
    2cd8:	93 15       	cp	r25, r3
    2cda:	08 f0       	brcs	.+2      	; 0x2cde <ReadInductance+0x33e>
    2cdc:	89 ce       	rjmp	.-750    	; 0x29f0 <ReadInductance+0x50>
           inductance[count+1] = inductance[count];	// set delayed measurement to same value
           count++;		// skip the delayed measurement
        }
        wdt_reset();
     }  //end for count
     ADC_PORT = TXD_VAL;		// switch ADC Port to GND
    2cde:	18 b8       	out	0x08, r1	; 8
     wait_about20ms();
    2ce0:	84 e0       	ldi	r24, 0x04	; 4
    2ce2:	0e 94 7e 03 	call	0x6fc	; 0x6fc <sleep_5ms>
     nr_pol1 = 0;
     if (inductance[1] > inductance[0]) { nr_pol1 = 1; } 
    2ce6:	21 e0       	ldi	r18, 0x01	; 1
    2ce8:	4d 81       	ldd	r20, Y+5	; 0x05
    2cea:	5e 81       	ldd	r21, Y+6	; 0x06
    2cec:	6f 81       	ldd	r22, Y+7	; 0x07
    2cee:	78 85       	ldd	r23, Y+8	; 0x08
    2cf0:	89 81       	ldd	r24, Y+1	; 0x01
    2cf2:	9a 81       	ldd	r25, Y+2	; 0x02
    2cf4:	ab 81       	ldd	r26, Y+3	; 0x03
    2cf6:	bc 81       	ldd	r27, Y+4	; 0x04
    2cf8:	84 17       	cp	r24, r20
    2cfa:	95 07       	cpc	r25, r21
    2cfc:	a6 07       	cpc	r26, r22
    2cfe:	b7 07       	cpc	r27, r23
    2d00:	08 f0       	brcs	.+2      	; 0x2d04 <ReadInductance+0x364>
    2d02:	20 e0       	ldi	r18, 0x00	; 0
     nr_pol2 = 2;
     if (inductance[3] > inductance[2]) { nr_pol2 = 3; } 
    2d04:	4d 85       	ldd	r20, Y+13	; 0x0d
    2d06:	5e 85       	ldd	r21, Y+14	; 0x0e
    2d08:	6f 85       	ldd	r22, Y+15	; 0x0f
    2d0a:	78 89       	ldd	r23, Y+16	; 0x10
    2d0c:	89 85       	ldd	r24, Y+9	; 0x09
    2d0e:	9a 85       	ldd	r25, Y+10	; 0x0a
    2d10:	ab 85       	ldd	r26, Y+11	; 0x0b
    2d12:	bc 85       	ldd	r27, Y+12	; 0x0c
    2d14:	84 17       	cp	r24, r20
    2d16:	95 07       	cpc	r25, r21
    2d18:	a6 07       	cpc	r26, r22
    2d1a:	b7 07       	cpc	r27, r23
    2d1c:	10 f0       	brcs	.+4      	; 0x2d22 <ReadInductance+0x382>
     }  //end for count
     ADC_PORT = TXD_VAL;		// switch ADC Port to GND
     wait_about20ms();
     nr_pol1 = 0;
     if (inductance[1] > inductance[0]) { nr_pol1 = 1; } 
     nr_pol2 = 2;
    2d1e:	32 e0       	ldi	r19, 0x02	; 2
    2d20:	01 c0       	rjmp	.+2      	; 0x2d24 <ReadInductance+0x384>
     if (inductance[3] > inductance[2]) { nr_pol2 = 3; } 
    2d22:	33 e0       	ldi	r19, 0x03	; 3
     if (inductance[nr_pol2] < inductance[nr_pol1]) nr_pol1 = nr_pol2;
    2d24:	e2 2f       	mov	r30, r18
    2d26:	f0 e0       	ldi	r31, 0x00	; 0
    2d28:	ee 0f       	add	r30, r30
    2d2a:	ff 1f       	adc	r31, r31
    2d2c:	ee 0f       	add	r30, r30
    2d2e:	ff 1f       	adc	r31, r31
    2d30:	81 e0       	ldi	r24, 0x01	; 1
    2d32:	90 e0       	ldi	r25, 0x00	; 0
    2d34:	8c 0f       	add	r24, r28
    2d36:	9d 1f       	adc	r25, r29
    2d38:	e8 0f       	add	r30, r24
    2d3a:	f9 1f       	adc	r31, r25
    2d3c:	dc 01       	movw	r26, r24
    2d3e:	94 e0       	ldi	r25, 0x04	; 4
    2d40:	39 9f       	mul	r19, r25
    2d42:	a0 0d       	add	r26, r0
    2d44:	b1 1d       	adc	r27, r1
    2d46:	11 24       	eor	r1, r1
    2d48:	4d 91       	ld	r20, X+
    2d4a:	5d 91       	ld	r21, X+
    2d4c:	6d 91       	ld	r22, X+
    2d4e:	7c 91       	ld	r23, X
    2d50:	80 81       	ld	r24, Z
    2d52:	91 81       	ldd	r25, Z+1	; 0x01
    2d54:	a2 81       	ldd	r26, Z+2	; 0x02
    2d56:	b3 81       	ldd	r27, Z+3	; 0x03
    2d58:	48 17       	cp	r20, r24
    2d5a:	59 07       	cpc	r21, r25
    2d5c:	6a 07       	cpc	r22, r26
    2d5e:	7b 07       	cpc	r23, r27
    2d60:	08 f0       	brcs	.+2      	; 0x2d64 <ReadInductance+0x3c4>
        }
        wdt_reset();
     }  //end for count
     ADC_PORT = TXD_VAL;		// switch ADC Port to GND
     wait_about20ms();
     nr_pol1 = 0;
    2d62:	32 2f       	mov	r19, r18
     if (inductance[1] > inductance[0]) { nr_pol1 = 1; } 
     nr_pol2 = 2;
     if (inductance[3] > inductance[2]) { nr_pol2 = 3; } 
     if (inductance[nr_pol2] < inductance[nr_pol1]) nr_pol1 = nr_pol2;
     inductor_lx = inductance[nr_pol1];
    2d64:	e1 e0       	ldi	r30, 0x01	; 1
    2d66:	f0 e0       	ldi	r31, 0x00	; 0
    2d68:	ec 0f       	add	r30, r28
    2d6a:	fd 1f       	adc	r31, r29
    2d6c:	24 e0       	ldi	r18, 0x04	; 4
    2d6e:	32 9f       	mul	r19, r18
    2d70:	e0 0d       	add	r30, r0
    2d72:	f1 1d       	adc	r31, r1
    2d74:	11 24       	eor	r1, r1
    2d76:	80 81       	ld	r24, Z
    2d78:	91 81       	ldd	r25, Z+1	; 0x01
    2d7a:	a2 81       	ldd	r26, Z+2	; 0x02
    2d7c:	b3 81       	ldd	r27, Z+3	; 0x03
    2d7e:	80 93 0a 01 	sts	0x010A, r24
    2d82:	90 93 0b 01 	sts	0x010B, r25
    2d86:	a0 93 0c 01 	sts	0x010C, r26
    2d8a:	b0 93 0d 01 	sts	0x010D, r27
     inductor_lpre = -5;	// 10 uH units
     if (((nr_pol1 & 1) == 1) || (resistor >= 240)) {
    2d8e:	30 fd       	sbrc	r19, 0
    2d90:	09 c0       	rjmp	.+18     	; 0x2da4 <ReadInductance+0x404>
    2d92:	2a 89       	ldd	r18, Y+18	; 0x12
    2d94:	3b 89       	ldd	r19, Y+19	; 0x13
    2d96:	20 3f       	cpi	r18, 0xF0	; 240
    2d98:	31 05       	cpc	r19, r1
    2d9a:	20 f4       	brcc	.+8      	; 0x2da4 <ReadInductance+0x404>
     if (inductance[1] > inductance[0]) { nr_pol1 = 1; } 
     nr_pol2 = 2;
     if (inductance[3] > inductance[2]) { nr_pol2 = 3; } 
     if (inductance[nr_pol2] < inductance[nr_pol1]) nr_pol1 = nr_pol2;
     inductor_lx = inductance[nr_pol1];
     inductor_lpre = -5;	// 10 uH units
    2d9c:	8b ef       	ldi	r24, 0xFB	; 251
    2d9e:	80 93 01 01 	sts	0x0101, r24
    2da2:	17 c0       	rjmp	.+46     	; 0x2dd2 <ReadInductance+0x432>
     if (((nr_pol1 & 1) == 1) || (resistor >= 240)) {
        // with 680 Ohm resistor total_r is more than 7460
        inductor_lpre = -4;	// 100 uH units
    2da4:	2c ef       	ldi	r18, 0xFC	; 252
    2da6:	20 93 01 01 	sts	0x0101, r18
        inductor_lx = (inductor_lx + 5) / 10;
    2daa:	bc 01       	movw	r22, r24
    2dac:	cd 01       	movw	r24, r26
    2dae:	6b 5f       	subi	r22, 0xFB	; 251
    2db0:	7f 4f       	sbci	r23, 0xFF	; 255
    2db2:	8f 4f       	sbci	r24, 0xFF	; 255
    2db4:	9f 4f       	sbci	r25, 0xFF	; 255
    2db6:	2a e0       	ldi	r18, 0x0A	; 10
    2db8:	30 e0       	ldi	r19, 0x00	; 0
    2dba:	40 e0       	ldi	r20, 0x00	; 0
    2dbc:	50 e0       	ldi	r21, 0x00	; 0
    2dbe:	0e 94 32 1f 	call	0x3e64	; 0x3e64 <__udivmodsi4>
    2dc2:	20 93 0a 01 	sts	0x010A, r18
    2dc6:	30 93 0b 01 	sts	0x010B, r19
    2dca:	40 93 0c 01 	sts	0x010C, r20
    2dce:	50 93 0d 01 	sts	0x010D, r21
     } 
     if (inductor_lx == 0) inductor_lpre = 0;	//mark as zero
    2dd2:	80 91 0a 01 	lds	r24, 0x010A
    2dd6:	90 91 0b 01 	lds	r25, 0x010B
    2dda:	a0 91 0c 01 	lds	r26, 0x010C
    2dde:	b0 91 0d 01 	lds	r27, 0x010D
    2de2:	89 2b       	or	r24, r25
    2de4:	8a 2b       	or	r24, r26
    2de6:	8b 2b       	or	r24, r27
    2de8:	11 f4       	brne	.+4      	; 0x2dee <ReadInductance+0x44e>
    2dea:	10 92 01 01 	sts	0x0101, r1

  // switch all ports to input
  ADC_DDR =  TXD_MSK;		// switch all ADC ports to input
    2dee:	17 b8       	out	0x07, r1	; 7
  R_DDR = 0;			// switch all resistor ports to input
    2df0:	14 b8       	out	0x04, r1	; 4
#endif
  return;
 } // end ReadInductance()
    2df2:	63 96       	adiw	r28, 0x13	; 19
    2df4:	e2 e1       	ldi	r30, 0x12	; 18
    2df6:	0c 94 8f 1f 	jmp	0x3f1e	; 0x3f1e <__epilogue_restores__>

00002dfa <GetESR>:
   #define EXTRA_DELAY2PULSE wait3us
         /* current begin after last ADCready:  2.25us (wakeup) + 13us + 6tics = 16.0  us  */
	/* half puls length = (20us - 16.0  us) = 4.0  us (PL= 8.0 us) */
        call	wait5us;
	call	wait2us; /* pulse length 7us + 2 clock tics (CALL instead of RCALL) = 7.25 us @ 8 MHz */ 
	push    r24;            /* 7.5   us */
    2dfa:	2f 92       	push	r2
	pop     r24;            /* 7.75  us */
    2dfc:	3f 92       	push	r3
	wdr	;
    2dfe:	4f 92       	push	r4
	wdr	;		/* 8.0   us */
    2e00:	5f 92       	push	r5
  #endif
    2e02:	6f 92       	push	r6
 #endif
    2e04:	7f 92       	push	r7
 #if F_CPU == 16000000UL
    2e06:	8f 92       	push	r8
  #ifdef ESR_LONG_PULSE
    2e08:	9f 92       	push	r9
 	// SH at 2.5 ADC clocks behind start = 20 us
    2e0a:	af 92       	push	r10
 	call	wait20us;			// SH at 2.5 ADC clocks behind start = 20 us
    2e0c:	bf 92       	push	r11
        /* current begin after last ADCready:  1.125us (wakeup) + 5us + 5tics = 6.4375us  */
    2e0e:	cf 92       	push	r12
	/* half puls length = (20us - 6.4375us) = 13.5625us (PL=27.125us) */
    2e10:	df 92       	push	r13
 	call	wait5us
    2e12:	ef 92       	push	r14
	call	wait1us; /* pulse length 26us + 3 clock tics (CALL instead of RCALL) = 26.1875 us */
    2e14:	ff 92       	push	r15
	push    r24;            /* 26.3125 us */
    2e16:	0f 93       	push	r16
	pop     r24;            /* 26.4375 us */
    2e18:	1f 93       	push	r17
	push    r24;            /* 26.5625 us */
    2e1a:	df 93       	push	r29
	pop     r24;            /* 26.6875 us */
    2e1c:	cf 93       	push	r28
  #else /* no ESR_LONG_PULSE, 16MHz, interrupt mode */
    2e1e:	cd b7       	in	r28, 0x3d	; 61
   #if PROCESSOR_TYP == 1280
    2e20:	de b7       	in	r29, 0x3e	; 62
   #define EXTRA_DELAY2PULSE wait4us
    2e22:	6e 97       	sbiw	r28, 0x1e	; 30
        /* current begin after last ADCready:  1.25us (wakeup) + 14us + 10tics = 15.875 us  */
    2e24:	0f b6       	in	r0, 0x3f	; 63
	/* half puls length = (20us - 15.5 us) = 4.125 us (PL=8.25 us) */
    2e26:	f8 94       	cli
	/* adjusted for mega2560 */
    2e28:	de bf       	out	0x3e, r29	; 62
 	call	wait5us
    2e2a:	0f be       	out	0x3f, r0	; 63
	call	wait3us; /* pulse length 8us + 2 clock tics (CALL instead of RCALL) = 8.125 us */
    2e2c:	cd bf       	out	0x3d, r28	; 61
	wdr	;	/* 8.1875 us */
	wdr	;	/* 8.25   us */
	wdr	;	/* 8.3125 us */
    2e2e:	66 2e       	mov	r6, r22
   #else
    2e30:	b8 2e       	mov	r11, r24
   #define EXTRA_DELAY2PULSE wait4us
    2e32:	86 0f       	add	r24, r22
        /* current begin after last ADCready:  1.125us (wakeup) + 14us + 6tics = 15.5 us  */
    2e34:	89 83       	std	Y+1, r24	; 0x01
	/* half puls length = (20us - 15.5 us) = 4.5 us (PL=9.0 us) */
 	call	wait5us
    2e36:	20 91 18 01 	lds	r18, 0x0118
	call	wait3us; /* pulse length 8us + 3 clock tics (CALL instead of RCALL) = 8.1875 us */
    2e3a:	27 30       	cpi	r18, 0x07	; 7
	push    r24;            /* 8.3125 us */
	pop     r24;            /* 8.4375 us */
    2e3c:	41 f5       	brne	.+80     	; 0x2e8e <load_max>
	push    r24;            /* 8.5625 us */
    2e3e:	20 91 78 01 	lds	r18, 0x0178
	pop     r24;            /* 8.6875 us */
    2e42:	30 91 79 01 	lds	r19, 0x0179
	push    r24;            /* 8.8125 us */
    2e46:	40 91 7a 01 	lds	r20, 0x017A
	pop     r24;            /* 8.9375 us */
    2e4a:	50 91 7b 01 	lds	r21, 0x017B
	wdr	;		/* 9.0    us */
    2e4e:	10 91 87 01 	lds	r17, 0x0187
   #endif
    2e52:	09 c0       	rjmp	.+18     	; 0x2e66 <ad_35ba>

00002e54 <ad_35ac>:
  #endif /* ESR_LONG_PULSE */
 #endif	/* 16 MHz */

    2e54:	ca 01       	movw	r24, r20

    2e56:	b9 01       	movw	r22, r18
#else /* Polling mode: lds,sbrc,sts and out Instructions are 7 clock tics */
    2e58:	2a e0       	ldi	r18, 0x0A	; 10
 #if F_CPU == 8000000UL
    2e5a:	31 2d       	mov	r19, r1
  #ifdef ESR_LONG_PULSE
    2e5c:	41 2d       	mov	r20, r1
 	// SH at 2.5 ADC clocks behind start = 20 us
    2e5e:	51 2d       	mov	r21, r1
 	call	wait20us;			// SH at 2.5 ADC clocks behind start = 20 us
    2e60:	0e 94 32 1f 	call	0x3e64	; 0x3e64 <__udivmodsi4>
        /* current begin after last ADCready:  0.875us (loop) + 5us + 5tics = 6.5us  */
    2e64:	1f 5f       	subi	r17, 0xFF	; 255

00002e66 <ad_35ba>:
	/* half puls length = (20us - 6.5us) = 13.5us  (PL=27us) */
 	call	wait5us
	call	wait1us;
    2e66:	17 3f       	cpi	r17, 0xF7	; 247
         /* pulse length 26us + 3 clock tics (CALL instead of RCALL) = 26.375 us @ 8 MHz */
    2e68:	ac f3       	brlt	.-22     	; 0x2e54 <ad_35ac>
   #define EXTRA_DELAY2PULSE wait4us
        /* current begin after last ADCready:  0.875us (loop) + 14us + 6tics = 15.625us  */
	/* half puls length = (20us - 15.625us) = 4.375us  (PL=8.75us) */
 	call	wait5us
	call	wait3us;
         /* pulse length 8us + 2 clock tics (CALL instead of RCALL) = 8.25 us @ 8 MHz */
    2e6a:	2a 35       	cpi	r18, 0x5A	; 90
	wdr	;		/* 8.375   us */
    2e6c:	60 e0       	ldi	r22, 0x00	; 0
	wdr	;		/* 8.5   us */
	wdr	;		/* 8.625 us */
    2e6e:	36 07       	cpc	r19, r22
	wdr	;		/* 8.75  us */
    2e70:	41 05       	cpc	r20, r1
  #endif /* ESR_LONG_PULSE */
    2e72:	51 05       	cpc	r21, r1
 #endif	/* F_CPU == 8000000UL */
    2e74:	18 f4       	brcc	.+6      	; 0x2e7c <ad_35e4>
 #if F_CPU == 16000000UL
    2e76:	8f ef       	ldi	r24, 0xFF	; 255
 	// SH at 2.5 ADC clocks behind start = 20 us
    2e78:	9f ef       	ldi	r25, 0xFF	; 255
  #ifdef ESR_LONG_PULSE
    2e7a:	82 c1       	rjmp	.+772    	; 0x3180 <ad_exit>

00002e7c <ad_35e4>:
 	call	wait20us;			// SH at 2.5 ADC clocks behind start = 20 us
        /* current begin after last ADCready:  0.4375us (loop) + 5us + 5tics = 5.75us  */
    2e7c:	17 3f       	cpi	r17, 0xF7	; 247
	/* half puls length = (20us - 5.75us) = 14.25us (PL=28.5us) */
    2e7e:	39 f4       	brne	.+14     	; 0x2e8e <load_max>
 	call	wait5us
    2e80:	80 e0       	ldi	r24, 0x00	; 0
 	call	wait3us;
    2e82:	28 17       	cp	r18, r24
	/* pulse length 28us + 3 clock tics (CALL instead of RCALL) = 28.1875 us */
    2e84:	8d e7       	ldi	r24, 0x7D	; 125
	push    r24;            /* 28.3125 us */
    2e86:	38 07       	cpc	r19, r24
	pop     r24;            /* 28.4375 us */
	wdr     ;               /* 28.50   us */
  #else /* no ESR_LONG_PULSE, 16Mhz, polling mode */
    2e88:	41 05       	cpc	r20, r1
   #if PROCESSOR_TYP == 1280
   /* For the mega2560 processor the call / ret instructions take one cycle more. */
   /* Additionally the STS instruction is used instead of the out instruction for R_PORT and R_DDR. */
    2e8a:	41 05       	cpc	r20, r1
   #define EXTRA_DELAY2PULSE wait5us
    2e8c:	10 f0       	brcs	.+4      	; 0x2e92 <store_cvn>

00002e8e <load_max>:
        /* current begin after last ADCready:  0.4375us (loop) + 15us + 10tics = 16.0625us  */
	/* half puls length = (20us - 16.0625us) = 3.9375us (PL=7.875us) */
    2e8e:	20 e0       	ldi	r18, 0x00	; 0
	/* adjusted for mega2560 */
    2e90:	3d e7       	ldi	r19, 0x7D	; 125

00002e92 <store_cvn>:
 	call	wait5us		/* 5.125 us */
 	call	wait2us;	/* 7.25  us */
	push	r24;		/* 7.375 us */
	pop	r24;		/* 7.50  us */
    2e92:	2c 8b       	std	Y+20, r18	; 0x14
	push	r24;		/* 7.625 us */
    2e94:	3d 8b       	std	Y+21, r19	; 0x15
     /* normal ADC-speed, ADC-Clock 8us */
	ldi	r25, (1<<ADEN) | (1<<ADIF) | (1<<ADIE) | AUTO_CLOCK_DIV; /* enable ADC and Interrupt */
	mov	StartADCmsk, r25;
	sts	ADCSRA, StartADCmsk; 	/*  ADCSRA = StartADCmsk;	// enable ADC and Interrupt */
#else
	ldi	r18, (1<<ADSC) | (1<<ADEN) | (1<<ADIF) | AUTO_CLOCK_DIV; /* enable and start ADC */
    2e96:	26 ed       	ldi	r18, 0xD6	; 214
	mov	StartADCmsk, r18;
    2e98:	a2 2e       	mov	r10, r18
#endif
	rjmp	ad_3604;		/* } else { */
    2e9a:	02 c0       	rjmp	.+4      	; 0x2ea0 <ad_3604>

00002e9c <ad_35fe>:
#ifdef ADC_Sleep_Mode
	ldi	r25, (1<<ADEN) | (1<<ADIF) | (1<<ADIE) | FAST_CLOCK_DIV; /* enable ADC and Interrupt */
	mov	StartADCmsk, r25;
	sts	ADCSRA, StartADCmsk; 	/*  ADCSRA = StartADCmsk;	// enable ADC and Interrupt */
#else
	ldi	r25, (1<<ADSC) | (1<<ADEN) | (1<<ADIF) | FAST_CLOCK_DIV; /* enable and start ADC */
    2e9c:	94 ed       	ldi	r25, 0xD4	; 212
	mov	StartADCmsk, r25;
    2e9e:	a9 2e       	mov	r10, r25

00002ea0 <ad_3604>:

ad_3604:
#if (((PIN_RL1 + 1) != PIN_RH1) || ((PIN_RL2 + 1) != PIN_RH2) || ((PIN_RL3 + 1) != PIN_RH3))
	LDIZ	PinRLRHADCtab+6; 	/* LoADC = pgm_read_byte((&PinRLRHADCtab[6])+cap.ca) | TXD_MSK; */
#else
	LDIZ	PinRLRHADCtab+3; 	/* LoADC = pgm_read_byte((&PinRLRHADCtab[3])+cap.ca) | TXD_MSK; */
    2ea0:	e1 e8       	ldi	r30, 0x81	; 129
    2ea2:	f0 e0       	ldi	r31, 0x00	; 0
#endif
	add	r30, SelectLowPin;
    2ea4:	e6 0d       	add	r30, r6
	adc	r31, zero_reg;
    2ea6:	f1 1d       	adc	r31, r1
	lpm	r24, Z+;
    2ea8:	85 91       	lpm	r24, Z+
	ori	r24, TXD_MSK;
    2eaa:	80 60       	ori	r24, 0x00	; 0
	std	Y+LoADC, r24;
    2eac:	8e 87       	std	Y+14, r24	; 0x0e

#if (((PIN_RL1 + 1) != PIN_RH1) || ((PIN_RL2 + 1) != PIN_RH2) || ((PIN_RL3 + 1) != PIN_RH3))
	LDIZ	PinRLRHADCtab+6; 	/* HiADC = pgm_read_byte((&PinRLRHADCtab[6])+cap.cb) | TXD_MSK; */
#else
	LDIZ	PinRLRHADCtab+3; 	/* HiADC = pgm_read_byte((&PinRLRHADCtab[3])+cap.cb) | TXD_MSK; */
    2eae:	e1 e8       	ldi	r30, 0x81	; 129
    2eb0:	f0 e0       	ldi	r31, 0x00	; 0
#endif
	add	r30, SelectHighPin;
    2eb2:	eb 0d       	add	r30, r11
	adc	r31, zero_reg;
    2eb4:	f1 1d       	adc	r31, r1
	lpm	r24, Z+;
    2eb6:	85 91       	lpm	r24, Z+
	ori	r24, TXD_MSK;
    2eb8:	80 60       	ori	r24, 0x00	; 0
	std	Y+HiADC, r24;
    2eba:	8f 87       	std	Y+15, r24	; 0x0f

	LDIZ	PinRLRHADCtab;	/* LoPinR_L = pgm_read_byte(&PinRLRHADCtab[cap.ca]);  //R_L mask for LowPin R_L load */
    2ebc:	ee e7       	ldi	r30, 0x7E	; 126
    2ebe:	f0 e0       	ldi	r31, 0x00	; 0
	add	r30, SelectLowPin;
    2ec0:	e6 0d       	add	r30, r6
	adc	r31, zero_reg;
    2ec2:	f1 1d       	adc	r31, r1
	lpm	LoPinR_L, Z+;
    2ec4:	75 90       	lpm	r7, Z+

	LDIZ	PinRLRHADCtab;	/* HiPinR_L = pgm_read_byte(&PinRLRHADCtab[cap.cb]);	//R_L mask for HighPin R_L load */
    2ec6:	ee e7       	ldi	r30, 0x7E	; 126
    2ec8:	f0 e0       	ldi	r31, 0x00	; 0
	add	r30, SelectHighPin;
    2eca:	eb 0d       	add	r30, r11
	adc	r31, zero_reg;
    2ecc:	f1 1d       	adc	r31, r1
	lpm	HiPinR_L, Z+;
    2ece:	c5 90       	lpm	r12, Z+
	or	SelectLowPin, r25;
	//  SelectHighPin = (cap.cb | (1<<REFS1) | (0<<REFS0));	// switch ADC to HighPin, Internal Ref. 
	or	SelectHighPin, r25;
#else
	//  SelectLowPin = (cap.ca | (1<<REFS1) | (1<<REFS0));	// switch ADC to LowPin, Internal Ref. 
	ldi	r25, (1<<REFS1)|(1<<REFS0);	0xC0
    2ed0:	90 ec       	ldi	r25, 0xC0	; 192
	or	SelectLowPin, r25;
    2ed2:	69 2a       	or	r6, r25
	//  SelectHighPin = (cap.cb | (1<<REFS1) | (1<<REFS0));	// switch ADC to HighPin, Internal Ref. 
	or	SelectHighPin, r25;
    2ed4:	b9 2a       	or	r11, r25
#endif


	// Measurement of ESR of capacitors AC Mode
	ldi	r24, 0x01; 	/* sumvolt0 = 1;	// set sum of LowPin voltage to 1 to prevent divide by zero */
    2ed6:	81 e0       	ldi	r24, 0x01	; 1
	mov	r14, r24;
    2ed8:	e8 2e       	mov	r14, r24
	mov	r15, zero_reg;
    2eda:	f1 2c       	mov	r15, r1
	mov	r16, zero_reg;
    2edc:	01 2d       	mov	r16, r1
	mov	r17, zero_reg;
    2ede:	11 2d       	mov	r17, r1
	std	Y+sumvolt1, r24;	/* sumvolt1 = 1;	// clear sum of HighPin voltage with current */
    2ee0:	8e 83       	std	Y+6, r24	; 0x06
	//                                // offset is about (x*10*200)/34000 in 0.01 Ohm units
	std	Y+sumvolt1+1, zero_reg;
    2ee2:	1f 82       	std	Y+7, r1	; 0x07
	std	Y+sumvolt1+2, zero_reg;
    2ee4:	18 86       	std	Y+8, r1	; 0x08
	std	Y+sumvolt1+3, zero_reg;
    2ee6:	19 86       	std	Y+9, r1	; 0x09
	std	Y+sumvolt2, zero_reg;	/* sumvolt2 = 0;	// clear sum of HighPin voltage without current */
    2ee8:	1a 86       	std	Y+10, r1	; 0x0a
	std	Y+sumvolt2+1, zero_reg;
    2eea:	1b 86       	std	Y+11, r1	; 0x0b
	std	Y+sumvolt2+2, zero_reg;
    2eec:	1c 86       	std	Y+12, r1	; 0x0c
	std	Y+sumvolt2+3, zero_reg;
    2eee:	1d 86       	std	Y+13, r1	; 0x0d
	std	Y+LowUpCount, zero_reg;
    2ef0:	18 8e       	std	Y+24, r1	; 0x18
	std	Y+HighUpCount, zero_reg;
    2ef2:	19 8e       	std	Y+25, r1	; 0x19
	std	Y+HighTooHigh, zero_reg;
    2ef4:	1b 8e       	std	Y+27, r1	; 0x1b
	std	Y+LowTooHigh, zero_reg;
    2ef6:	1a 8e       	std	Y+26, r1	; 0x1a
	call	EntladePins;	/* EntladePins();	// discharge capacitor */
    2ef8:	0e 94 1d 10 	call	0x203a	; 0x203a <EntladePins>
	ldi	r24, TXD_VAL;
    2efc:	80 e0       	ldi	r24, 0x00	; 0
	AOUT	ADC_PORT, r24; /* ADC_PORT = TXD_VAL;	// switch ADC-Port to GND */
    2efe:	88 b9       	out	0x08, r24	; 8
	sts	ADMUX, SelectLowPin;	/* ADMUX = SelectLowPin;	// set Mux input and Voltage Reference to internal 1.1V */
    2f00:	60 92 7c 00 	sts	0x007C, r6
#ifdef NO_AREF_CAP
	call	wait100us;			/* time for voltage stabilization */
    2f04:	0e 94 72 03 	call	0x6e4	; 0x6e4 <wait100us>
#else
	call	wait10ms;    		/* time for voltage stabilization with 100nF */
#endif
	/* start voltage should be negativ */
	ldd	r19, Y+HiADC;		/* ADC_DDR = HiADC;	// switch High Pin to GND */
    2f08:	3f 85       	ldd	r19, Y+15	; 0x0f
	AOUT	ADC_DDR, r19;		/* switch High Pin to GND */
    2f0a:	37 b9       	out	0x07, r19	; 7
	AOUT	R_PORT, LoPinR_L
    2f0c:	75 b8       	out	0x05, r7	; 5
	AOUT	R_DDR, LoPinR_L
    2f0e:	74 b8       	out	0x04, r7	; 4
  #endif
 #else
	call	wait2us;
 #endif
#else
	call	wait4us;	/* Delay about half the current puls-length of measurement loop */
    2f10:	0e 94 79 03 	call	0x6f2	; 0x6f2 <wait4us>
#endif
	AOUT	R_DDR, zero_reg;	/* R_DDR = 0 */
    2f14:	14 b8       	out	0x04, r1	; 4
	AOUT	R_PORT, zero_reg;	/* R_PORT = 0 */
    2f16:	15 b8       	out	0x05, r1	; 5

	   // Measurement frequency is given by sum of ADC-Reads < 1116 Hz for normal ADC speed.
	   // ADC Sample and Hold (SH) is done 1.5 ADC clock number after real start of conversion.
	   // Real ADC-conversion is started with the next ADC-Clock (125kHz) after setting the ADSC bit.
	eor	r13, r13;			/* for(ii=0;ii<MAX_CNT;ii++) { */
    2f18:	dd 24       	eor	r13, r13
						// when time is too short, voltage is down before SH of ADC
						// when time is too long, capacitor will be overloaded.
						// That will cause too high voltage without current.
	ldi	r27, (1<<ADSC) | (1<<ADEN) | (1<<ADIF) | FAST_CLOCK_DIV;	/* enable ADC and start with ADSC */
    2f1a:	b4 ed       	ldi	r27, 0xD4	; 212
	mov	r9, r27
    2f1c:	9b 2e       	mov	r9, r27
	//         adcv[0] = ADCW;		// Voltage LowPin with current
	//         ADMUX = SelectHighPin;
	ldi	r26, (1<<ADSC) | (1<<ADEN) | (1<<ADIF) | AUTO_CLOCK_DIV;	/* enable ADC and start with ADSC */
    2f1e:	a6 ed       	ldi	r26, 0xD6	; 214
	mov	r8, r26
    2f20:	8a 2e       	mov	r8, r26

00002f22 <esr_loop>:
	      /* ********* Forward direction, connect Low side with GND *********** */
esr_loop:
	ldd	r19, Y+LoADC;
    2f22:	3e 85       	ldd	r19, Y+14	; 0x0e
	AOUT	ADC_DDR, r19;		/* ADC_DDR = LoADC;	// switch Low-Pin to output (GND) */
    2f24:	37 b9       	out	0x07, r19	; 7
	AOUT	R_PORT, LoPinR_L;	/* R_PORT = LoPinR_L */
    2f26:	75 b8       	out	0x05, r7	; 5
	AOUT	R_DDR, LoPinR_L;	/* R_DDR = LoPinR_L */
    2f28:	74 b8       	out	0x04, r7	; 4
	sts	ADMUX, SelectLowPin;		/* ADMUX = SelectLowPin; */
    2f2a:	60 92 7c 00 	sts	0x007C, r6

	wdr	;				/* wdt_reset(); */
    2f2e:	a8 95       	wdr
	StartADCwait			/* start ADC and wait */
    2f30:	a0 92 7a 00 	sts	0x007A, r10
    2f34:	80 91 7a 00 	lds	r24, 0x007A
    2f38:	86 fd       	sbrc	r24, 6
    2f3a:	fc cf       	rjmp	.-8      	; 0x2f34 <esr_loop+0x12>
	StartADCwait			/* start ADC and wait */
    2f3c:	a0 92 7a 00 	sts	0x007A, r10
    2f40:	80 91 7a 00 	lds	r24, 0x007A
    2f44:	86 fd       	sbrc	r24, 6
    2f46:	fc cf       	rjmp	.-8      	; 0x2f40 <esr_loop+0x1e>
	lds	adcv0L, ADCW;			/* adcv[0] = ADCW;	// Voltage LowPin reference */
    2f48:	20 90 78 00 	lds	r2, 0x0078
	lds	adcv0H, ADCW+1;
    2f4c:	30 90 79 00 	lds	r3, 0x0079
	sts	ADMUX, SelectHighPin;		/* ADMUX = SelectHighPin; */
    2f50:	b0 92 7c 00 	sts	0x007C, r11

	StartADCwait			/* start ADC and wait */
    2f54:	a0 92 7a 00 	sts	0x007A, r10
    2f58:	80 91 7a 00 	lds	r24, 0x007A
    2f5c:	86 fd       	sbrc	r24, 6
    2f5e:	fc cf       	rjmp	.-8      	; 0x2f58 <esr_loop+0x36>
			// Start Conversion, real start is next rising edge of ADC clock
	sts	ADCSRA, r8;		/* ADCSRA = (1<<ADSC) | (1<<ADEN) | (1<<ADIF) | AUTO_CLOCK_DIV; // enable ADC and start */
    2f60:	80 92 7a 00 	sts	0x007A, r8
#ifdef ESR_LONG_PULSE
	call	wait5us;		/* wait normal to start the longer current pulse */
#else
	call	wait10us;		/* wait longer to start the short current pulse */
    2f64:	0e 94 77 03 	call	0x6ee	; 0x6ee <wait10us>
	call	EXTRA_DELAY2PULSE;
    2f68:	0e 94 79 03 	call	0x6f2	; 0x6f2 <wait4us>
#endif
	AOUT	R_PORT, HiPinR_L;	/* R_PORT = HiPinR_L;	// switch R-Port to VCC */
    2f6c:	c5 b8       	out	0x05, r12	; 5
	AOUT	R_DDR, HiPinR_L;	/* R_DDR = HiPinR_L;	// switch R_L port for HighPin to output (VCC) */
    2f6e:	c4 b8       	out	0x04, r12	; 4
	wdr	;		/* 27.0   us */
	wdr	;		/* 27.125 us */
  #else /* no ESR_LONG_PULSE, 8MHz, polling mode */
   #define EXTRA_DELAY2PULSE wait4us
        /* current begin after last ADCready:  0.875us (loop) + 14us + 6tics = 15.625us  */
	/* half puls length = (20us - 15.625us) = 4.375us  (PL=8.75us) */
    2f70:	0e 94 78 03 	call	0x6f0	; 0x6f0 <wait5us>
    2f74:	0e 94 7a 03 	call	0x6f4	; 0x6f4 <wait3us>
    2f78:	a8 95       	wdr
    2f7a:	a8 95       	wdr
    2f7c:	a8 95       	wdr
    2f7e:	a8 95       	wdr
	call	EXTRA_DELAY2PULSE;
#endif
	AOUT	R_PORT, HiPinR_L;	/* R_PORT = HiPinR_L;	// switch R-Port to VCC */
	AOUT	R_DDR, HiPinR_L;	/* R_DDR = HiPinR_L;	// switch R_L port for HighPin to output (VCC) */
	DelayBigCap;			/* wait the time defined by macro */
	AOUT	R_DDR, zero_reg;	/* R_DDR = 0; // switch current off,  SH is 1.5 ADC clock behind real start */
    2f80:	14 b8       	out	0x04, r1	; 4
	AOUT	R_PORT, zero_reg;	/* R_PORT = 0; */
    2f82:	15 b8       	out	0x05, r1	; 5

00002f84 <ad_370c>:
ad_370c:
	lds	r24, ADCSRA;		/* while (ADCSRA&(1<<ADSC));	// wait for conversion finished */
    2f84:	80 91 7a 00 	lds	r24, 0x007A
	sbrc	r24, ADSC;
    2f88:	86 fd       	sbrc	r24, 6
	rjmp	ad_370c ;
    2f8a:	fc cf       	rjmp	.-8      	; 0x2f84 <ad_370c>

	lds	r18, ADCW;		/* adcv[1] = ADCW;	// Voltage HighPin with current */
    2f8c:	20 91 78 00 	lds	r18, 0x0078
	lds	r19, ADCW+1;
    2f90:	30 91 79 00 	lds	r19, 0x0079

	//      sumvolt0 += adcv[0];	// add sum of both LowPin voltages with current
	//      adcv0 = r2/r3
	//      sumvolt1 += adcv[1];	// add  HighPin voltages with current
	//      adcv1 = r18/r19
	std	Y+adcvv1, r18;
    2f94:	28 8b       	std	Y+16, r18	; 0x10
	std	Y+adcvv1+1, r19;
    2f96:	39 8b       	std	Y+17, r19	; 0x11

	      /* ********* Reverse direction, connect High side with GND *********** */
	ldd	r19, Y+HiADC;		/* ADC_DDR = HiADC;	// switch High Pin to GND */
    2f98:	3f 85       	ldd	r19, Y+15	; 0x0f
	AOUT	ADC_DDR, r19;		/* ADC_DDR = HiADC;	// switch High-Pin to output (GND) */
    2f9a:	37 b9       	out	0x07, r19	; 7
	AOUT	R_PORT, HiPinR_L;	/* R_PORT = HiPinR_L;	// switch R-Port to VCC */
    2f9c:	c5 b8       	out	0x05, r12	; 5
	AOUT	R_DDR, HiPinR_L;	/* R_DDR = HiPinR_L;	// switch R_L port for HighPin to output (VCC) */
    2f9e:	c4 b8       	out	0x04, r12	; 4

	wdr	;			/* wdt_reset(); */
    2fa0:	a8 95       	wdr
	sts	ADMUX, SelectHighPin;	/* ADMUX = SelectHighPin; */
    2fa2:	b0 92 7c 00 	sts	0x007C, r11

	StartADCwait		/* start ADC and wait */
    2fa6:	a0 92 7a 00 	sts	0x007A, r10
    2faa:	80 91 7a 00 	lds	r24, 0x007A
    2fae:	86 fd       	sbrc	r24, 6
    2fb0:	fc cf       	rjmp	.-8      	; 0x2faa <ad_370c+0x26>
	StartADCwait		/* start ADC and wait */
    2fb2:	a0 92 7a 00 	sts	0x007A, r10
    2fb6:	80 91 7a 00 	lds	r24, 0x007A
    2fba:	86 fd       	sbrc	r24, 6
    2fbc:	fc cf       	rjmp	.-8      	; 0x2fb6 <ad_370c+0x32>

	lds	r22, ADCW;         	/* adcv[2] = ADCW;	// Reverse Reference Voltage HighPin  */
    2fbe:	60 91 78 00 	lds	r22, 0x0078
	lds	r23, ADCW+1;
    2fc2:	70 91 79 00 	lds	r23, 0x0079
	sts	ADMUX, SelectLowPin;	/*  ADMUX = SelectLowPin; */
    2fc6:	60 92 7c 00 	sts	0x007C, r6
	// ****** Polling mode big cap
	StartADCwait		/* start ADC and wait */
    2fca:	a0 92 7a 00 	sts	0x007A, r10
    2fce:	80 91 7a 00 	lds	r24, 0x007A
    2fd2:	86 fd       	sbrc	r24, 6
    2fd4:	fc cf       	rjmp	.-8      	; 0x2fce <ad_370c+0x4a>
	sts	ADCSRA, r8;	/* ADCSRA = (1<<ADSC) | (1<<ADEN) | (1<<ADIF) | AUTO_CLOCK_DIV; // enable ADC and start with ADSC */
    2fd6:	80 92 7a 00 	sts	0x007A, r8
#ifdef ESR_LONG_PULSE
	call	wait5us;		/* wait normal to start the longer current pulse */
#else
	call	wait10us;		/* wait longer to start the short current pulse */
    2fda:	0e 94 77 03 	call	0x6ee	; 0x6ee <wait10us>
	call	EXTRA_DELAY2PULSE;
    2fde:	0e 94 79 03 	call	0x6f2	; 0x6f2 <wait4us>
#endif
	AOUT	R_PORT, LoPinR_L;	/* R_PORT = LoPinR_L; */
    2fe2:	75 b8       	out	0x05, r7	; 5
	AOUT	R_DDR, LoPinR_L;	/* R_DDR = LoPinR_L;	// switch LowPin with 680 Ohm to VCC */
    2fe4:	74 b8       	out	0x04, r7	; 4
	wdr	;		/* 27.0   us */
	wdr	;		/* 27.125 us */
  #else /* no ESR_LONG_PULSE, 8MHz, polling mode */
   #define EXTRA_DELAY2PULSE wait4us
        /* current begin after last ADCready:  0.875us (loop) + 14us + 6tics = 15.625us  */
	/* half puls length = (20us - 15.625us) = 4.375us  (PL=8.75us) */
    2fe6:	0e 94 78 03 	call	0x6f0	; 0x6f0 <wait5us>
    2fea:	0e 94 7a 03 	call	0x6f4	; 0x6f4 <wait3us>
    2fee:	a8 95       	wdr
    2ff0:	a8 95       	wdr
    2ff2:	a8 95       	wdr
    2ff4:	a8 95       	wdr
	AOUT	R_PORT, LoPinR_L;	/* R_PORT = LoPinR_L; */
	AOUT	R_DDR, LoPinR_L;	/* R_DDR = LoPinR_L;	// switch LowPin with 680 Ohm to VCC */

	DelayBigCap;			/* wait the time defined by macro */
					/*  }  */
	AOUT	R_DDR, zero_reg; 	// switch current off, SH is 1.5 ADC clock ticks behind real start
    2ff6:	14 b8       	out	0x04, r1	; 4
	AOUT	R_PORT, zero_reg; 
    2ff8:	15 b8       	out	0x05, r1	; 5

00002ffa <ad_37f4>:
ad_37f4:
	lds	r24, ADCSRA;		/* while (ADCSRA&(1<<ADSC));	// wait for conversion finished */
    2ffa:	80 91 7a 00 	lds	r24, 0x007A
	sbrc	r24, ADSC;
    2ffe:	86 fd       	sbrc	r24, 6
	rjmp	ad_37f4 ;
    3000:	fc cf       	rjmp	.-8      	; 0x2ffa <ad_37f4>

	lds	r20, ADCW;		/* adcv[3] = ADCW;	//  Voltage LowPin with current */
    3002:	40 91 78 00 	lds	r20, 0x0078
	lds	r21, ADCW+1;
    3006:	50 91 79 00 	lds	r21, 0x0079
#ifdef ADC_Sleep_Mode
	sts	ADCSRA, StartADCmsk; 	/*  ADCSRA = StartADCmsk;	// enable ADC and Interrupt */
#endif

	AOUT	R_DDR, zero_reg; 	/* R_DDR = 0; // switch current off */
    300a:	14 b8       	out	0x04, r1	; 4

	movw	r24, r22;		/*  adcv[2] */
    300c:	cb 01       	movw	r24, r22
	add	r24, adcv0L;		/* adcv[0] + adcv[2] // add sum of both LowPin voltages with current */
    300e:	82 0d       	add	r24, r2
	adc	r25, adcv0H;
    3010:	93 1d       	adc	r25, r3

	add	r14, r24;		/* r14:17 = sumvolt0 += (adcv[0] + adcv[2]); */
    3012:	e8 0e       	add	r14, r24
	adc	r15, r25;
    3014:	f9 1e       	adc	r15, r25
	adc	r16, zero_reg;
    3016:	01 1d       	adc	r16, r1
	adc	r17, zero_reg;
    3018:	11 1d       	adc	r17, r1
	std	Y+sumvolt0, r14;
    301a:	ea 82       	std	Y+2, r14	; 0x02
	std	Y+sumvolt0+1, r15;
    301c:	fb 82       	std	Y+3, r15	; 0x03
	std	Y+sumvolt0+2, r16;
    301e:	0c 83       	std	Y+4, r16	; 0x04
	std	Y+sumvolt0+3, r17;
    3020:	1d 83       	std	Y+5, r17	; 0x05
	ldd	r24, Y+adcvv1;		/* add HighPin voltages with current */
    3022:	88 89       	ldd	r24, Y+16	; 0x10
	ldd	r25, Y+adcvv1+1; 
    3024:	99 89       	ldd	r25, Y+17	; 0x11
	add	r24, r20;		/* adcv[1] + adcv[3] */
    3026:	84 0f       	add	r24, r20
	adc	r25, r21;
    3028:	95 1f       	adc	r25, r21
	ldd	r18, Y+sumvolt1;	/* sumvolt1 += (adcv[1] + adcv[3]); */
    302a:	2e 81       	ldd	r18, Y+6	; 0x06
	ldd	r19, Y+sumvolt1+1;
    302c:	3f 81       	ldd	r19, Y+7	; 0x07
	ldd	r22, Y+sumvolt1+2;
    302e:	68 85       	ldd	r22, Y+8	; 0x08
	ldd	r23, Y+sumvolt1+3;
    3030:	79 85       	ldd	r23, Y+9	; 0x09
	add	r18, r24;
    3032:	28 0f       	add	r18, r24
	adc	r19, r25;
    3034:	39 1f       	adc	r19, r25
	adc	r22, zero_reg;
    3036:	61 1d       	adc	r22, r1
	adc	r23, zero_reg;
    3038:	71 1d       	adc	r23, r1
	std	Y+sumvolt1, r18;
    303a:	2e 83       	std	Y+6, r18	; 0x06
	std	Y+sumvolt1+1, r19;
    303c:	3f 83       	std	Y+7, r19	; 0x07
	std	Y+sumvolt1+2, r22;
    303e:	68 87       	std	Y+8, r22	; 0x08
	std	Y+sumvolt1+3, r23;
    3040:	79 87       	std	Y+9, r23	; 0x09

  	/* Y+adcvv1 is still the voltage of forward direction, r20:21 the voltage of reverse direction */
	ldi	r18, lo8(50);
    3042:	22 e3       	ldi	r18, 0x32	; 50
	cp	r18, r20;
    3044:	24 17       	cp	r18, r20
	cpc	zero_reg, r21;
    3046:	15 06       	cpc	r1, r21
	brcs	is_ok1;		/* r20:21 >= 50 */
    3048:	50 f0       	brcs	.+20     	; 0x305e <is_ok1>
	AOUT	R_PORT, LoPinR_L;	/* R_PORT = LoPinR_L; */
    304a:	75 b8       	out	0x05, r7	; 5
	AOUT	R_DDR, LoPinR_L;	/* R_DDR = LoPinR_L;	// switch LowPin with 680 Ohm to VCC */
    304c:	74 b8       	out	0x04, r7	; 4
	call	wait1us;			/* additional charge the capacitor */
    304e:	0e 94 7c 03 	call	0x6f8	; 0x6f8 <wait1us>
	AOUT	R_DDR, zero_reg; 	// switch current off
    3052:	14 b8       	out	0x04, r1	; 4
	AOUT	R_PORT, zero_reg; 
    3054:	15 b8       	out	0x05, r1	; 5
	ldd	r24, Y+LowUpCount; 	/* count additional load pulses at Low side */
    3056:	88 8d       	ldd	r24, Y+24	; 0x18
	inc	r24;
    3058:	83 95       	inc	r24
	std	Y+LowUpCount, r24;
    305a:	88 8f       	std	Y+24, r24	; 0x18
	rjmp	is_ok1b;
    305c:	07 c0       	rjmp	.+14     	; 0x306c <is_ok1b>

0000305e <is_ok1>:
is_ok1:
	cpi	r20, lo8(1000);
    305e:	48 3e       	cpi	r20, 0xE8	; 232
        ldi	r23, hi8(1000);
    3060:	73 e0       	ldi	r23, 0x03	; 3
	cpc	r21, r23;
    3062:	57 07       	cpc	r21, r23
        brcs	is_ok1b;			/* voltage reverse direction < 1000 */
    3064:	18 f0       	brcs	.+6      	; 0x306c <is_ok1b>
	ldd	r24, Y+LowTooHigh; 	/* count  pulses with too high voltage at Low side */
    3066:	8a 8d       	ldd	r24, Y+26	; 0x1a
	inc	r24;
    3068:	83 95       	inc	r24
	std	Y+LowTooHigh, r24;
    306a:	8a 8f       	std	Y+26, r24	; 0x1a

0000306c <is_ok1b>:
is_ok1b:
	ldd	r24, Y+adcvv1;
    306c:	88 89       	ldd	r24, Y+16	; 0x10
	ldd	r25, Y+adcvv1+1;
    306e:	99 89       	ldd	r25, Y+17	; 0x11
	cp	r18, r24;
    3070:	28 17       	cp	r18, r24
	cpc	zero_reg, r25;	/* adcvv1 >= 50 */
    3072:	19 06       	cpc	r1, r25
	brcs	is_ok2;
    3074:	60 f0       	brcs	.+24     	; 0x308e <is_ok2>
	ldd	r19, Y+LoADC;
    3076:	3e 85       	ldd	r19, Y+14	; 0x0e
	AOUT	ADC_DDR, r19;		/* ADC_DDR = LoADC;	// switch Low-Pin to output (GND) */
    3078:	37 b9       	out	0x07, r19	; 7
	AOUT	R_PORT, HiPinR_L;	/* R_PORT = HiPinR_L;	// switch R-Port to VCC */
    307a:	c5 b8       	out	0x05, r12	; 5
	AOUT	R_DDR, HiPinR_L;	/* R_DDR = HiPinR_L;	// switch R_L port for HighPin to output (VCC) */
    307c:	c4 b8       	out	0x04, r12	; 4
	call	wait1us;			/* additional charge the capacitor */
    307e:	0e 94 7c 03 	call	0x6f8	; 0x6f8 <wait1us>
;##	DelayBigCap;			/* wait the time defined by macro */
	AOUT	R_DDR, zero_reg;	/* R_DDR = 0; // switch current off,  SH is 1.5 ADC clock behind real start */
    3082:	14 b8       	out	0x04, r1	; 4
	AOUT	R_PORT, zero_reg;	/* R_PORT = 0; */
    3084:	15 b8       	out	0x05, r1	; 5
	ldd	r24, Y+HighUpCount;	/* count additional load pulses at High side */
    3086:	89 8d       	ldd	r24, Y+25	; 0x19
	inc	r24;
    3088:	83 95       	inc	r24
	std	Y+HighUpCount, r24;
    308a:	89 8f       	std	Y+25, r24	; 0x19
	rjmp	is_ok2b;
    308c:	07 c0       	rjmp	.+14     	; 0x309c <is_ok2b>

0000308e <is_ok2>:
is_ok2:
	cpi	r24, lo8(1000);
    308e:	88 3e       	cpi	r24, 0xE8	; 232
        ldi	r23, hi8(1000);
    3090:	73 e0       	ldi	r23, 0x03	; 3
	cpc	r25, r23;
    3092:	97 07       	cpc	r25, r23
        brcs	is_ok2b;			/* voltage forward direction < 1000 */
    3094:	18 f0       	brcs	.+6      	; 0x309c <is_ok2b>
	ldd	r24, Y+HighTooHigh; 	/* count  pulses with too high voltage at High side */
    3096:	8b 8d       	ldd	r24, Y+27	; 0x1b
	inc	r24;
    3098:	83 95       	inc	r24
	std	Y+HighTooHigh, r24;
    309a:	8b 8f       	std	Y+27, r24	; 0x1b

0000309c <is_ok2b>:
is_ok2b:
	inc	r13;			/* for(    ;ii<MAX_CNT;ii++)  */
    309c:	d3 94       	inc	r13
	mov	r21, r13;
    309e:	5d 2d       	mov	r21, r13
	cpi	r21, MAX_CNT;
    30a0:	5f 3f       	cpi	r21, 0xFF	; 255
	breq	ad_38ac;
    30a2:	09 f0       	breq	.+2      	; 0x30a6 <ad_38ac>
	rjmp	esr_loop;		/* } // end for */
    30a4:	3e cf       	rjmp	.-388    	; 0x2f22 <esr_loop>

000030a6 <ad_38ac>:

#if RRpinMI == PIN_RM
	ldi	r18, lo8(RRpinMI*10);
	ldi	r19, hi8(RRpinMI*10);
#else
	lds	r4, RRpinMI;
    30a6:	40 90 3e 01 	lds	r4, 0x013E
	lds	r5, RRpinMI+1;
    30aa:	50 90 3f 01 	lds	r5, 0x013F
	add	r4, r4;		RRpinMI*2
    30ae:	44 0c       	add	r4, r4
	adc	r5, r5;
    30b0:	55 1c       	adc	r5, r5
	movw	r18, r4;
    30b2:	92 01       	movw	r18, r4
	ldi	r30, 4;
    30b4:	e4 e0       	ldi	r30, 0x04	; 4

000030b6 <ad_3924>:
ad_3924:
	add	r18, r4;		+ (2*RRpinMI)
    30b6:	24 0d       	add	r18, r4
	adc	r19, r5;
    30b8:	35 1d       	adc	r19, r5
	dec	r30;
    30ba:	ea 95       	dec	r30
	brne	ad_3924;
    30bc:	e1 f7       	brne	.-8      	; 0x30b6 <ad_3924>
#endif
	movw	r4, r18;		/* r4:5 = 10 * RRpinMI */
    30be:	29 01       	movw	r4, r18
	movw	r10, r14;		/* r10:13 = r14:17 = sumvolt0 */
    30c0:	57 01       	movw	r10, r14
	movw	r12, r16;
    30c2:	68 01       	movw	r12, r16

	ldd	r6, Y+sumvolt1;
    30c4:	6e 80       	ldd	r6, Y+6	; 0x06
	ldd	r7, Y+sumvolt1+1;
    30c6:	7f 80       	ldd	r7, Y+7	; 0x07
	ldd	r8, Y+sumvolt1+2;
    30c8:	88 84       	ldd	r8, Y+8	; 0x08
	ldd	r9, Y+sumvolt1+3;
    30ca:	99 84       	ldd	r9, Y+9	; 0x09
/* ############################################################ */
	lds	r18, PartFound;		/* if (PartFound == PART_CAPACITOR) { */
    30cc:	20 91 18 01 	lds	r18, 0x0118
	cpi	r18, PART_CAPACITOR;	
    30d0:	27 30       	cpi	r18, 0x07	; 7
 	brne	no_sub;			/* it is not a capacitor */
    30d2:	c1 f4       	brne	.+48     	; 0x3104 <no_sub>
/* Aproximation of 5000*(1 - exp(13.5e-6/(cap_val_nF*1.e-9*(0.1*(PIN_RM+PIN_RP+R_L_VAL)))) - 2500*(1 - exp(-27e-6/(cap_val_nF*1.e-9*(0.1*(PIN_RM+PIN_RP+R_L_VAL))))) */
/*  is done by ((6744116/(PIN_RM+PIN_RP+R_L_VAL))*(6744116/(PIN_RM+PIN_RP+R_L_VAL))) / (cap_val_nF * (cap_val_nF + (137180/(PIN_RM+PIN_RP+R_L_VAL)))) */
/*  is done by 872520 / (cap_val_nF * (cap_val_nF + 19)) */
; #define FAKTOR_ESR (9537620/(PIN_RM+PIN_RP+R_L_VAL))

	ldd	r22, Y+cap_val_nF;	/* sumvolt1 -= (1745098UL*MAX_CNT) / (cap_val_nF * (cap_val_nF + 19)); */
    30d4:	6c 89       	ldd	r22, Y+20	; 0x14
	ldd	r23, Y+cap_val_nF+1;
    30d6:	7d 89       	ldd	r23, Y+21	; 0x15
;	ldd	r24, Y+cap_val_nF+2;
	mov	r24, r1			/* upper bits of cap_val_nF are allway zero */
    30d8:	81 2d       	mov	r24, r1
;	ldd	r25, Y+cap_val_nF+3;
	mov	r25, r1			/* upper bits of cap_val_nF are allway zero */
    30da:	91 2d       	mov	r25, r1
#define CAP_OFFSET (410400/(PIN_RM+PIN_RP+R_L_VAL))	/* 57 nF */
 #else
#define FAKTOR_ESR (920000/(PIN_RM+PIN_RP+R_L_VAL))	/* 127 */
#define CAP_OFFSET (433200/(PIN_RM+PIN_RP+R_L_VAL))	/* 60 nF */
 #endif
      	subi	r22, lo8(CAP_OFFSET); 0xED; 237
    30dc:	6c 53       	subi	r22, 0x3C	; 60
      	sbci	r23, hi8(CAP_OFFSET); 0xFF; 255
    30de:	70 40       	sbci	r23, 0x00	; 0
      	sbci	r24, hlo8(CAP_OFFSET); 0xFF; 255
    30e0:	80 40       	sbci	r24, 0x00	; 0
      	sbci	r25, hhi8(CAP_OFFSET); 0xFF; 255
    30e2:	90 40       	sbci	r25, 0x00	; 0
	movw	r18, r22;		/* r18:21 = r22:25 = (cap_val_nF-60); */
    30e4:	9b 01       	movw	r18, r22
	movw	r20, r24;
    30e6:	ac 01       	movw	r20, r24
	call	__mulsi3;		/* (cap_val_nF - 60) * (cap_val_nF - 60) */
    30e8:	0e 94 0e 1f 	call	0x3e1c	; 0x3e1c <__mulsi3>
#endif
       	movw	r18, r22;
    30ec:	9b 01       	movw	r18, r22
       	movw	r20, r24;
    30ee:	ac 01       	movw	r20, r24
       	ldi	r22, lo8(FAKTOR_ESR*FAKTOR_ESR*MAX_CNT); 0x36; 54
    30f0:	6f ef       	ldi	r22, 0xFF	; 255
       	ldi	r23, hi8(FAKTOR_ESR*FAKTOR_ESR*MAX_CNT); 0x29; 41
    30f2:	71 ec       	ldi	r23, 0xC1	; 193
       	ldi	r24, hlo8(FAKTOR_ESR*FAKTOR_ESR*MAX_CNT); 0x86; 134
    30f4:	8e e3       	ldi	r24, 0x3E	; 62
       	ldi	r25, hhi8(FAKTOR_ESR*FAKTOR_ESR*MAX_CNT); 0x1A; 26
    30f6:	90 e0       	ldi	r25, 0x00	; 0
	call	__udivmodsi4;
    30f8:	0e 94 32 1f 	call	0x3e64	; 0x3e64 <__udivmodsi4>
	sub	r6, r18
    30fc:	62 1a       	sub	r6, r18
	sbc	r7, r19
    30fe:	73 0a       	sbc	r7, r19
	sbc	r8, r20
    3100:	84 0a       	sbc	r8, r20
	sbc	r9, r21
    3102:	95 0a       	sbc	r9, r21

00003104 <no_sub>:
no_sub:				/* } */
/* ############################################################ */

	cp	r10, r6;		/* if (sumvolt1 > sumvolt0) {  */
    3104:	a6 14       	cp	r10, r6
	cpc	r11, r7;
    3106:	b7 04       	cpc	r11, r7
	cpc	r12, r8;
    3108:	c8 04       	cpc	r12, r8
	cpc	r13, r9;
    310a:	d9 04       	cpc	r13, r9
	brcc	ad_396c;
    310c:	28 f4       	brcc	.+10     	; 0x3118 <ad_396c>
	sub	r6, r10;		/* sumvolt1 -= sumvolt0;	// difference HighPin - LowPin Voltage with current */
    310e:	6a 18       	sub	r6, r10
	sbc	r7, r11;
    3110:	7b 08       	sbc	r7, r11
	sbc	r8, r12;
    3112:	8c 08       	sbc	r8, r12
	sbc	r9, r13;
    3114:	9d 08       	sbc	r9, r13
	rjmp	ad_3972;		/* } else { */
    3116:	03 c0       	rjmp	.+6      	; 0x311e <ad_3972>

00003118 <ad_396c>:
ad_396c:
	eor	r6, r6;			/* sumvolt1 = 0; */
    3118:	66 24       	eor	r6, r6
	eor	r7, r7
    311a:	77 24       	eor	r7, r7
	movw	r8, r6
    311c:	43 01       	movw	r8, r6

0000311e <ad_3972>:
	ldi	r20, 0;
	ldi	r18, '#';
	ldi	r16, 4	;
	call	DisplayValue;
#endif
	movw	r22, r4
    311e:	b2 01       	movw	r22, r4
	ldi	r24, 0x00;
    3120:	80 e0       	ldi	r24, 0x00	; 0
	ldi	r25, 0x00;	/*  r22:25 = 10 * (unsigned long)RRpinMI)  */
    3122:	90 e0       	ldi	r25, 0x00	; 0
	      // mean voltage at the capacitor is higher with current
	      // sumvolt0 is the sum of voltages at LowPin, caused by output resistance of Port
	      // RRpinMI is the port output resistance in 0.1 Ohm units.
	      // we scale up the difference voltage with 10 to get 0.01 Ohm units of ESR
		/* esrvalue = (sumvolt1 * 10 * (unsigned long)RRpinMI) / sumvolt0; */
	movw	r18, r6;		/* r18:21 = r6:9 = sumvolt1 */
    3124:	93 01       	movw	r18, r6
	movw	r20, r8;
    3126:	a4 01       	movw	r20, r8
	call	__mulsi3;		/* r22:25 = r22:25 * r18:21 */
    3128:	0e 94 0e 1f 	call	0x3e1c	; 0x3e1c <__mulsi3>
	movw	r18, r10;	/* r18:21 = r10:13 = sumvolt0 */
    312c:	95 01       	movw	r18, r10
	movw	r20, r12;
    312e:	a6 01       	movw	r20, r12
	call	__udivmodsi4;		/* r18:21 = r22:25  / r18:21 */
    3130:	0e 94 32 1f 	call	0x3e64	; 0x3e64 <__udivmodsi4>
	ldi	r24, lo8(EE_ESR_ZEROtab);	/* esr0 = (int8_t)eeprom_read_byte(&EE_ESR_ZEROtab[lopin+hipin]); */
    3134:	88 eb       	ldi	r24, 0xB8	; 184
	ldi	r25, hi8(EE_ESR_ZEROtab);
    3136:	91 e0       	ldi	r25, 0x01	; 1
        ldd	r23, Y+1;
    3138:	79 81       	ldd	r23, Y+1	; 0x01
        add	r24, r23;
    313a:	87 0f       	add	r24, r23
	adc	r25, zero_reg;
    313c:	91 1d       	adc	r25, r1
	call	eeprom_read_byte;
    313e:	0e 94 c0 1f 	call	0x3f80	; 0x3f80 <__eerd_byte_m168>
        ldi	r25, 0;		/* upper bits allways zero */
    3142:	90 e0       	ldi	r25, 0x00	; 0
	mov	r6, r24;
    3144:	68 2e       	mov	r6, r24
	movw	r24,r18;	/* r24:25 = r18:19 = esrvalue */
    3146:	c9 01       	movw	r24, r18
	ldi	r22, 16;
    3148:	60 e1       	ldi	r22, 0x10	; 16
	ldi	r23, 0;
    314a:	70 e0       	ldi	r23, 0x00	; 0
	call	__udivmodhi4	/* r22:23 = r24:25 / r22:23 */
    314c:	0e 94 1e 1f 	call	0x3e3c	; 0x3e3c <__udivmodhi4>
	add	r18, r22;	/* esrvalue += esrvalue / 16; */
    3150:	26 0f       	add	r18, r22
	adc	r19, r23;
    3152:	37 1f       	adc	r19, r23
	movw	r24,r18;	/* esrvalue */
    3154:	c9 01       	movw	r24, r18
	cp	r6, r24;		/* if (esrvalue > esr0) esrvalue -= esr0; */
    3156:	68 16       	cp	r6, r24
	cpc	zero_reg, r25;
    3158:	19 06       	cpc	r1, r25
	brcc	esr_too_less;
    315a:	18 f4       	brcc	.+6      	; 0x3162 <esr_too_less>
	sub	r24, r6;		/* - esr0 */ 
    315c:	86 19       	sub	r24, r6
	sbc	r25, zero_reg;
    315e:	91 09       	sbc	r25, r1
	rjmp	ad_exit;
    3160:	0f c0       	rjmp	.+30     	; 0x3180 <ad_exit>

00003162 <esr_too_less>:
esr_too_less:
#ifdef AUTO_CAL
        subi	r24, lo8(-R_LIMIT_TO_UNCALIBRATED);		/* + 0.20 Ohm */
    3162:	8c 5e       	subi	r24, 0xEC	; 236
        sbci	r25, hi8(-R_LIMIT_TO_UNCALIBRATED);		/* esrvalue + 20 */
    3164:	9f 4f       	sbci	r25, 0xFF	; 255
	cp	r24, r6;		/* if ((esrvalue+20) < esr0) ; */
    3166:	86 15       	cp	r24, r6
	cpc	r25, zero_reg;
    3168:	91 05       	cpc	r25, r1
	brcc	esr_too_less2;
    316a:	40 f4       	brcc	.+16     	; 0x317c <esr_too_less2>
	ldd	r24, Y+cap_val_nF;	/* mark only, if cap_val_nF > 4500 */
    316c:	8c 89       	ldd	r24, Y+20	; 0x14
	ldd     r25, Y+cap_val_nF+1;
    316e:	9d 89       	ldd	r25, Y+21	; 0x15
;	ldd	r26, Y+cap_val_nF+2;	/* the upper bits (cap_val_nF+2|3) are always zero */ 
	cpi	r24, lo8(4500);
    3170:	84 39       	cpi	r24, 0x94	; 148
	ldi	r24, hi8(4500);
    3172:	81 e1       	ldi	r24, 0x11	; 17
	cpc	r25, r24;
    3174:	98 07       	cpc	r25, r24
	brcs	esr_too_less2;
    3176:	10 f0       	brcs	.+4      	; 0x317c <esr_too_less2>
	call	mark_as_uncalibrated;
    3178:	0e 94 ba 07 	call	0xf74	; 0xf74 <mark_as_uncalibrated>

0000317c <esr_too_less2>:
/*	ldi	r24,'<'; */
/*	call	lcd_data; */
esr_too_less2:
#endif
	mov	r24, zero_reg;
    317c:	81 2d       	mov	r24, r1
	mov	r25, zero_reg;
    317e:	91 2d       	mov	r25, r1

00003180 <ad_exit>:
	
ad_exit:
#ifdef ADC_Sleep_Mode
	out	_SFR_IO_ADDR(SMCR), zero_reg; 	/*  SMCR = 0 */
#endif
	adiw	r28, 0x1e;   /* 30 */
    3180:	6e 96       	adiw	r28, 0x1e	; 30
	in	r0, _SFR_IO_ADDR(SREG); 63
    3182:	0f b6       	in	r0, 0x3f	; 63
	cli
    3184:	f8 94       	cli
	out	_SFR_IO_ADDR(SPH), r29; 62
    3186:	de bf       	out	0x3e, r29	; 62
	out	_SFR_IO_ADDR(SREG), r0; 63
    3188:	0f be       	out	0x3f, r0	; 63
	out	_SFR_IO_ADDR(SPL), r28; 61
    318a:	cd bf       	out	0x3d, r28	; 61
	pop	r28;
    318c:	cf 91       	pop	r28
	pop	r29;
    318e:	df 91       	pop	r29
	pop	r17;
    3190:	1f 91       	pop	r17
	pop	r16;
    3192:	0f 91       	pop	r16
	pop	r15;
    3194:	ff 90       	pop	r15
	pop	r14;
    3196:	ef 90       	pop	r14
	pop	r13;
    3198:	df 90       	pop	r13
	pop	r12;
    319a:	cf 90       	pop	r12
	pop	r11;
    319c:	bf 90       	pop	r11
	pop	r10;
    319e:	af 90       	pop	r10
	pop	r9;
    31a0:	9f 90       	pop	r9
	pop	r8;
    31a2:	8f 90       	pop	r8
	pop	r7;
    31a4:	7f 90       	pop	r7
	pop	r6;
    31a6:	6f 90       	pop	r6
	pop	r5;
    31a8:	5f 90       	pop	r5
	pop	r4;
    31aa:	4f 90       	pop	r4
	pop	r3;
    31ac:	3f 90       	pop	r3
	pop	r2;
    31ae:	2f 90       	pop	r2
	ret;
    31b0:	08 95       	ret

000031b2 <GetVloss>:
#include <stdlib.h>
#include "Transistortester.h"


//=================================================================
void GetVloss() {
    31b2:	a0 e0       	ldi	r26, 0x00	; 0
    31b4:	b0 e0       	ldi	r27, 0x00	; 0
    31b6:	ef ed       	ldi	r30, 0xDF	; 223
    31b8:	f8 e1       	ldi	r31, 0x18	; 24
    31ba:	0c 94 79 1f 	jmp	0x3ef2	; 0x3ef2 <__prologue_saves__+0xc>
  } lval;
  uint8_t ii;
  uint8_t HiPinR_L;
  uint8_t LoADC;

  if (cap.v_loss > 0) return;		// Voltage loss is already known
    31be:	80 91 82 01 	lds	r24, 0x0182
    31c2:	90 91 83 01 	lds	r25, 0x0183
    31c6:	89 2b       	or	r24, r25
    31c8:	09 f0       	breq	.+2      	; 0x31cc <GetVloss+0x1a>
    31ca:	9a c0       	rjmp	.+308    	; 0x3300 <GetVloss+0x14e>
#if (((PIN_RL1 + 1) != PIN_RH1) || ((PIN_RL2 + 1) != PIN_RH2) || ((PIN_RL3 + 1) != PIN_RH3))
  LoADC = pgm_read_byte((&PinRLRHADCtab[6])+cap.ca) | TXD_MSK;
#else
  LoADC = pgm_read_byte((&PinRLRHADCtab[3])+cap.ca) | TXD_MSK;
    31cc:	e0 91 84 01 	lds	r30, 0x0184
    31d0:	f0 e0       	ldi	r31, 0x00	; 0
    31d2:	ef 57       	subi	r30, 0x7F	; 127
    31d4:	ff 4f       	sbci	r31, 0xFF	; 255
    31d6:	c4 91       	lpm	r28, Z
#endif
  HiPinR_L = pgm_read_byte(&PinRLRHADCtab[cap.cb]);	//R_L mask for HighPin R_L load
    31d8:	e0 91 85 01 	lds	r30, 0x0185
    31dc:	f0 e0       	ldi	r31, 0x00	; 0
    31de:	e2 58       	subi	r30, 0x82	; 130
    31e0:	ff 4f       	sbci	r31, 0xFF	; 255
    31e2:	14 91       	lpm	r17, Z

  EntladePins();			// discharge capacitor
    31e4:	0e 94 1d 10 	call	0x203a	; 0x203a <EntladePins>
  ADC_PORT = TXD_VAL;			// switch ADC-Port to GND
    31e8:	18 b8       	out	0x08, r1	; 8
  R_PORT = 0;				// switch R-Port to GND
    31ea:	15 b8       	out	0x05, r1	; 5
  ADC_DDR = LoADC;			// switch Low-Pin to output (GND)
    31ec:	c7 b9       	out	0x07, r28	; 7
  R_DDR = HiPinR_L;			// switch R_L port for HighPin to output (GND)
    31ee:	14 b9       	out	0x04, r17	; 4
  adcv[0] = ReadADC(cap.cb);		// voltage before any load 
    31f0:	80 91 85 01 	lds	r24, 0x0185
    31f4:	0e 94 b4 03 	call	0x768	; 0x768 <ReadADC>
    31f8:	ec 01       	movw	r28, r24
// ******** should adcv[0] be measured without current???
  if (cap.cpre_max > -9) return;	// too much capacity
    31fa:	00 91 87 01 	lds	r16, 0x0187
    31fe:	08 3f       	cpi	r16, 0xF8	; 248
    3200:	0c f0       	brlt	.+2      	; 0x3204 <GetVloss+0x52>
    3202:	7e c0       	rjmp	.+252    	; 0x3300 <GetVloss+0x14e>
  lval.dw = cap.cval_max;
  for (ii=cap.cpre_max+12;ii<4;ii++) {
    3204:	04 5f       	subi	r16, 0xF4	; 244
    3206:	c0 90 78 01 	lds	r12, 0x0178
    320a:	d0 90 79 01 	lds	r13, 0x0179
    320e:	e0 90 7a 01 	lds	r14, 0x017A
    3212:	f0 90 7b 01 	lds	r15, 0x017B
     lval.dw = (lval.dw + 5) / 10;
    3216:	8a e0       	ldi	r24, 0x0A	; 10
    3218:	88 2e       	mov	r8, r24
    321a:	91 2c       	mov	r9, r1
    321c:	a1 2c       	mov	r10, r1
    321e:	b1 2c       	mov	r11, r1
  R_DDR = HiPinR_L;			// switch R_L port for HighPin to output (GND)
  adcv[0] = ReadADC(cap.cb);		// voltage before any load 
// ******** should adcv[0] be measured without current???
  if (cap.cpre_max > -9) return;	// too much capacity
  lval.dw = cap.cval_max;
  for (ii=cap.cpre_max+12;ii<4;ii++) {
    3220:	04 30       	cpi	r16, 0x04	; 4
    3222:	70 f4       	brcc	.+28     	; 0x3240 <GetVloss+0x8e>
     lval.dw = (lval.dw + 5) / 10;
    3224:	c7 01       	movw	r24, r14
    3226:	b6 01       	movw	r22, r12
    3228:	6b 5f       	subi	r22, 0xFB	; 251
    322a:	7f 4f       	sbci	r23, 0xFF	; 255
    322c:	8f 4f       	sbci	r24, 0xFF	; 255
    322e:	9f 4f       	sbci	r25, 0xFF	; 255
    3230:	a5 01       	movw	r20, r10
    3232:	94 01       	movw	r18, r8
    3234:	0e 94 32 1f 	call	0x3e64	; 0x3e64 <__udivmodsi4>
  R_DDR = HiPinR_L;			// switch R_L port for HighPin to output (GND)
  adcv[0] = ReadADC(cap.cb);		// voltage before any load 
// ******** should adcv[0] be measured without current???
  if (cap.cpre_max > -9) return;	// too much capacity
  lval.dw = cap.cval_max;
  for (ii=cap.cpre_max+12;ii<4;ii++) {
    3238:	0f 5f       	subi	r16, 0xFF	; 255
     lval.dw = (lval.dw + 5) / 10;
    323a:	69 01       	movw	r12, r18
    323c:	7a 01       	movw	r14, r20
    323e:	f0 cf       	rjmp	.-32     	; 0x3220 <GetVloss+0x6e>
  }
  if ((lval.dw == 0) || (lval.dw > 5000)) {
    3240:	d7 01       	movw	r26, r14
    3242:	c6 01       	movw	r24, r12
    3244:	01 97       	sbiw	r24, 0x01	; 1
    3246:	a1 09       	sbc	r26, r1
    3248:	b1 09       	sbc	r27, r1
    324a:	88 38       	cpi	r24, 0x88	; 136
    324c:	93 41       	sbci	r25, 0x13	; 19
    324e:	a1 05       	cpc	r26, r1
    3250:	b1 05       	cpc	r27, r1
    3252:	08 f0       	brcs	.+2      	; 0x3256 <GetVloss+0xa4>
    3254:	55 c0       	rjmp	.+170    	; 0x3300 <GetVloss+0x14e>
     /* capacity more than 50uF, Voltage loss is already measured  */
     return;
  }
  R_PORT = HiPinR_L;			//R_L to 1 (VCC) 
    3256:	15 b9       	out	0x05, r17	; 5
  R_DDR = HiPinR_L;			//switch Pin to output, across R to GND or VCC
    3258:	14 b9       	out	0x04, r17	; 4
  for (tmpint=0;tmpint<lval.w[0];tmpint+=2) {
    325a:	a1 2c       	mov	r10, r1
    325c:	b1 2c       	mov	r11, r1
    325e:	ac 14       	cp	r10, r12
    3260:	bd 04       	cpc	r11, r13
    3262:	30 f4       	brcc	.+12     	; 0x3270 <GetVloss+0xbe>
//     wait50us();			// wait exactly 50us
     wait5us();			// wait exactly 5us
    3264:	0e 94 78 03 	call	0x6f0	; 0x6f0 <wait5us>
     /* capacity more than 50uF, Voltage loss is already measured  */
     return;
  }
  R_PORT = HiPinR_L;			//R_L to 1 (VCC) 
  R_DDR = HiPinR_L;			//switch Pin to output, across R to GND or VCC
  for (tmpint=0;tmpint<lval.w[0];tmpint+=2) {
    3268:	82 e0       	ldi	r24, 0x02	; 2
    326a:	a8 0e       	add	r10, r24
    326c:	b1 1c       	adc	r11, r1
    326e:	f7 cf       	rjmp	.-18     	; 0x325e <GetVloss+0xac>
//     wait50us();			// wait exactly 50us
     wait5us();			// wait exactly 5us
  }
  R_DDR = 0;				// switch back to input
    3270:	14 b8       	out	0x04, r1	; 4
  R_PORT = 0;			// no Pull up
    3272:	15 b8       	out	0x05, r1	; 5
 // wait10us();			//wait a little time
  wdt_reset();
    3274:	a8 95       	wdr
  // read voltage without current
  ADCconfig.Samples = 5;		// set ADC to only 5 samples
    3276:	85 e0       	ldi	r24, 0x05	; 5
    3278:	80 93 27 01 	sts	0x0127, r24
  adcv[2] = ReadADC(cap.cb);
    327c:	80 91 85 01 	lds	r24, 0x0185
    3280:	0e 94 b4 03 	call	0x768	; 0x768 <ReadADC>
  if (adcv[2] > adcv[0]) {
    3284:	c8 17       	cp	r28, r24
    3286:	d9 07       	cpc	r29, r25
    3288:	20 f4       	brcc	.+8      	; 0x3292 <GetVloss+0xe0>
     adcv[2] -= adcv[0];		//difference to beginning voltage
    328a:	5c 01       	movw	r10, r24
    328c:	ac 1a       	sub	r10, r28
    328e:	bd 0a       	sbc	r11, r29
    3290:	02 c0       	rjmp	.+4      	; 0x3296 <GetVloss+0xe4>
  } else {
     adcv[2] = 0;			// voltage is lower or same as beginning voltage
    3292:	a1 2c       	mov	r10, r1
    3294:	b1 2c       	mov	r11, r1
  }
  // wait 2x the time which was required for loading
  for (tmpint=0;tmpint<lval.w[0];tmpint++) {
    3296:	81 2c       	mov	r8, r1
    3298:	91 2c       	mov	r9, r1
    329a:	8c 14       	cp	r8, r12
    329c:	9d 04       	cpc	r9, r13
    329e:	30 f4       	brcc	.+12     	; 0x32ac <GetVloss+0xfa>
//     wait50us();
     wait5us();
    32a0:	0e 94 78 03 	call	0x6f0	; 0x6f0 <wait5us>
     adcv[2] -= adcv[0];		//difference to beginning voltage
  } else {
     adcv[2] = 0;			// voltage is lower or same as beginning voltage
  }
  // wait 2x the time which was required for loading
  for (tmpint=0;tmpint<lval.w[0];tmpint++) {
    32a4:	2f ef       	ldi	r18, 0xFF	; 255
    32a6:	82 1a       	sub	r8, r18
    32a8:	92 0a       	sbc	r9, r18
    32aa:	f7 cf       	rjmp	.-18     	; 0x329a <GetVloss+0xe8>
//     wait50us();
     wait5us();
  }
  adcv[3] = ReadADC(cap.cb);	// read voltage again, is discharged only a little bit ?
    32ac:	80 91 85 01 	lds	r24, 0x0185
    32b0:	0e 94 b4 03 	call	0x768	; 0x768 <ReadADC>
  ADCconfig.Samples = ANZ_MESS;		// set ADC back to configured No. of samples
    32b4:	29 e1       	ldi	r18, 0x19	; 25
    32b6:	20 93 27 01 	sts	0x0127, r18
  wdt_reset();
    32ba:	a8 95       	wdr
  if (adcv[3] > adcv[0]) {
    32bc:	c8 17       	cp	r28, r24
    32be:	d9 07       	cpc	r29, r25
    32c0:	18 f4       	brcc	.+6      	; 0x32c8 <GetVloss+0x116>
     adcv[3] -= adcv[0];		// difference to beginning voltage
    32c2:	8c 1b       	sub	r24, r28
    32c4:	9d 0b       	sbc	r25, r29
    32c6:	02 c0       	rjmp	.+4      	; 0x32cc <GetVloss+0x11a>
  } else {
     adcv[3] = 0;			// voltage is lower or same as beginning voltage
    32c8:	80 e0       	ldi	r24, 0x00	; 0
    32ca:	90 e0       	ldi	r25, 0x00	; 0
  }
  if (adcv[2] > adcv[3]) {
    32cc:	8a 15       	cp	r24, r10
    32ce:	9b 05       	cpc	r25, r11
    32d0:	88 f4       	brcc	.+34     	; 0x32f4 <GetVloss+0x142>
     // build difference to load voltage
     adcv[1] = adcv[2] - adcv[3];	// lost voltage during load time wait
    32d2:	95 01       	movw	r18, r10
    32d4:	28 1b       	sub	r18, r24
    32d6:	39 0b       	sbc	r19, r25
  } else {
     adcv[1] = 0;			// no lost voltage
  }
  // compute voltage drop as part from loaded voltage
  if (adcv[1] > 0) {
    32d8:	69 f0       	breq	.+26     	; 0x32f4 <GetVloss+0x142>
     // there is any voltage drop (adcv[1]) !
     // adcv[2] is the loaded voltage.
     cap.v_loss = (unsigned long)(adcv[1] * 500UL) / adcv[2];
    32da:	a4 ef       	ldi	r26, 0xF4	; 244
    32dc:	b1 e0       	ldi	r27, 0x01	; 1
    32de:	0e 94 ed 1e 	call	0x3dda	; 0x3dda <__umulhisi3>
    32e2:	95 01       	movw	r18, r10
    32e4:	40 e0       	ldi	r20, 0x00	; 0
    32e6:	50 e0       	ldi	r21, 0x00	; 0
    32e8:	0e 94 32 1f 	call	0x3e64	; 0x3e64 <__udivmodsi4>
    32ec:	30 93 83 01 	sts	0x0183, r19
    32f0:	20 93 82 01 	sts	0x0182, r18
  lcd_line4();
  DisplayValue(lval.w[0],0,'x',4);
#endif

  // discharge capacitor again
  EntladePins();		// discharge capacitors
    32f4:	0e 94 1d 10 	call	0x203a	; 0x203a <EntladePins>
  //ready
  // switch all ports to input
  ADC_DDR =  TXD_MSK;		// switch all ADC ports to input
    32f8:	17 b8       	out	0x07, r1	; 7
  ADC_PORT = TXD_VAL;		// switch all ADC outputs to GND, no pull up
    32fa:	18 b8       	out	0x08, r1	; 8
  R_DDR = 0;			// switch all resistor ports to input
    32fc:	14 b8       	out	0x04, r1	; 4
  R_PORT = 0; 			// switch all resistor outputs to GND, no pull up
    32fe:	15 b8       	out	0x05, r1	; 5
#endif
  return;
 } // end GetVdrop()
    3300:	cd b7       	in	r28, 0x3d	; 61
    3302:	de b7       	in	r29, 0x3e	; 62
    3304:	ec e0       	ldi	r30, 0x0C	; 12
    3306:	0c 94 95 1f 	jmp	0x3f2a	; 0x3f2a <__epilogue_restores__+0xc>

0000330a <Bat_update>:
#endif

#if defined(POWER_OFF) && defined(BAT_CHECK)
// monitor Battery in line 4 or line2, if a two line display 
void Bat_update(uint8_t tt) {
  if((tt % 16) == 0) {
    330a:	8f 70       	andi	r24, 0x0F	; 15
    330c:	51 f4       	brne	.+20     	; 0x3322 <Bat_update+0x18>
 #if (LCD_LINES > 3)
     lcd_line4();
     Battery_check();
 #else
     wait_about1s();
    330e:	88 ec       	ldi	r24, 0xC8	; 200
    3310:	0e 94 7e 03 	call	0x6fc	; 0x6fc <sleep_5ms>
     lcd_clear_line2();
    3314:	0e 94 dd 01 	call	0x3ba	; 0x3ba <lcd_clear_line2>
     Battery_check();
    3318:	0e 94 1c 08 	call	0x1038	; 0x1038 <Battery_check>
     wait_about2s();
    331c:	8a ec       	ldi	r24, 0xCA	; 202
    331e:	0e 94 7e 03 	call	0x6fc	; 0x6fc <sleep_5ms>
    3322:	08 95       	ret

00003324 <EE_check_init>:
#include <avr/eeprom.h>
#include <stdlib.h>
#include "Transistortester.h"

// check some EEprom values for correct values 
void EE_check_init(void) {
    3324:	08 95       	ret

00003326 <main>:
	  EMPTY_INTERRUPT(TIMER2_COMPA_vect);
	  EMPTY_INTERRUPT(ADC_vect);
	#endif

	//begin of transistortester program
	int main(void) {
    3326:	a1 e0       	ldi	r26, 0x01	; 1
    3328:	b0 e0       	ldi	r27, 0x00	; 0
    332a:	e9 e9       	ldi	r30, 0x99	; 153
    332c:	f9 e1       	ldi	r31, 0x19	; 25
    332e:	0c 94 73 1f 	jmp	0x3ee6	; 0x3ee6 <__prologue_saves__>
        uint16_t pw;
        uint8_t pb[2];
        } rpins;
        uint8_t x, y, z;
	  //switch on
	  ON_DDR = (1<<ON_PIN);			// switch to output
    3332:	80 e4       	ldi	r24, 0x40	; 64
    3334:	8a b9       	out	0x0a, r24	; 10
	  ON_PORT = (1<<ON_PIN); 		// switch power on 
    3336:	8b b9       	out	0x0b, r24	; 11
	#ifndef PULLUP_DISABLE
	  RST_PORT |= (1<<RST_PIN); 	// enable internal Pullup for Start-Pin
	#endif
	  uint8_t tmp;
	  //ADC-Init
	  ADCSRA = (1<<ADEN) | AUTO_CLOCK_DIV;	//prescaler=8 or 64 (if 8Mhz clock)
    3338:	86 e8       	ldi	r24, 0x86	; 134
    333a:	80 93 7a 00 	sts	0x007A, r24
	  UBRR0L = (F_CPU / 16 / BAUD_RATE - 1) & 0xff;
	  UCSR0B = (1<<TXEN0);
	  UCSR0C = (1<<USBS0) | (3<<UCSZ00);	// 2 stop bits, 8-bit
	  while (!(UCSR0A & (1<<UDRE0))) { };	// wait for send data port ready 
	#endif
	  tmp = (WDRF_HOME & (1<<WDRF));	// save Watch Dog Flag
    333e:	14 b7       	in	r17, 0x34	; 52
	  WDRF_HOME &= ~(1<<WDRF);	 	//reset Watch Dog flag
    3340:	84 b7       	in	r24, 0x34	; 52
    3342:	87 7f       	andi	r24, 0xF7	; 247
    3344:	84 bf       	out	0x34, r24	; 52
	  wdt_disable();			// disable Watch Dog
    3346:	88 e1       	ldi	r24, 0x18	; 24
    3348:	0f b6       	in	r0, 0x3f	; 63
    334a:	f8 94       	cli
    334c:	80 93 60 00 	sts	0x0060, r24
    3350:	10 92 60 00 	sts	0x0060, r1
    3354:	0f be       	out	0x3f, r0	; 63
	//  PRR1 =  (1<<PRTIM3) ;
	 #elif PROCESSOR_TYP == 1280
	  PRR0 = (1<<PRTWI) |  (1<<PRSPI) | (1<<PRUSART1);
	  PRR1 = (1<<PRTIM5) | (1<<PRTIM4) | (1<<PRTIM3) | (1<<PRUSART3) | (1<<PRUSART2) | (1<<PRUSART3);
	 #else
	  PRR = (1<<PRTWI) | (1<<PRSPI) | (1<<PRUSART0);
    3356:	86 e8       	ldi	r24, 0x86	; 134
    3358:	80 93 64 00 	sts	0x0064, r24
	 #endif
	  DIDR0 = (1<<ADC5D) | (1<<ADC4D) | (1<<ADC3D);	
    335c:	88 e3       	ldi	r24, 0x38	; 56
    335e:	80 93 7e 00 	sts	0x007E, r24
	  TCCR2A = (0<<WGM21) | (0<<WGM20);		// Counter 2 normal mode
    3362:	10 92 b0 00 	sts	0x00B0, r1
	  TCCR2B = CNTR2_PRESCALER;	//prescaler set in autoconf
    3366:	87 e0       	ldi	r24, 0x07	; 7
    3368:	80 93 b1 00 	sts	0x00B1, r24
	  sei();				// enable interrupts
    336c:	78 94       	sei
	#endif
	  lcd_init();				//initialize LCD
    336e:	0e 94 58 01 	call	0x2b0	; 0x2b0 <lcd_init>
		
	//  ADC_PORT = TXD_VAL;
	//  ADC_DDR = TXD_MSK;
	  if(tmp) { 
    3372:	13 fd       	sbrc	r17, 3
    3374:	22 c5       	rjmp	.+2628   	; 0x3dba <main+0xa94>
	     ON_PORT &= ~(1<<ON_PIN);			//shut off!
	//     ON_DDR = (1<<ON_PIN);		//switch to GND
	     return 0;
	  }
	#if (LCD_ST_TYPE == 0)
	  LCDLoadCustomChar(LCD_CHAR_DIODE1);	//Custom-Character Diode symbol
    3376:	88 e4       	ldi	r24, 0x48	; 72
    3378:	0e 94 f9 00 	call	0x1f2	; 0x1f2 <lcd_command>
	  lcd_fix_customchar(DiodeIcon1);	//load Character  >|
    337c:	8f e1       	ldi	r24, 0x1F	; 31
    337e:	90 e0       	ldi	r25, 0x00	; 0
    3380:	0e 94 bb 01 	call	0x376	; 0x376 <lcd_fix_customchar>
	  LCDLoadCustomChar(LCD_CHAR_DIODE2);	//Custom-Character 
    3384:	80 e5       	ldi	r24, 0x50	; 80
    3386:	0e 94 f9 00 	call	0x1f2	; 0x1f2 <lcd_command>
	  lcd_fix_customchar(DiodeIcon2);	//load Character  |<
    338a:	87 e1       	ldi	r24, 0x17	; 23
    338c:	90 e0       	ldi	r25, 0x00	; 0
    338e:	0e 94 bb 01 	call	0x376	; 0x376 <lcd_fix_customchar>
	  LCDLoadCustomChar(LCD_CHAR_CAP);	//Custom-Character  Capacitor symbol
    3392:	88 e5       	ldi	r24, 0x58	; 88
    3394:	0e 94 f9 00 	call	0x1f2	; 0x1f2 <lcd_command>
	  lcd_fix_customchar(CapIcon);		//load Character  ||
    3398:	87 e2       	ldi	r24, 0x27	; 39
    339a:	90 e0       	ldi	r25, 0x00	; 0
    339c:	0e 94 bb 01 	call	0x376	; 0x376 <lcd_fix_customchar>
	  LCDLoadCustomChar(LCD_CHAR_RESIS1);	//Custom-Character Resistor symbol
    33a0:	88 e7       	ldi	r24, 0x78	; 120
    33a2:	0e 94 f9 00 	call	0x1f2	; 0x1f2 <lcd_command>
	  lcd_fix_customchar(ResIcon1);		//load Character  [
    33a6:	8f e0       	ldi	r24, 0x0F	; 15
    33a8:	90 e0       	ldi	r25, 0x00	; 0
    33aa:	0e 94 bb 01 	call	0x376	; 0x376 <lcd_fix_customchar>
	  LCDLoadCustomChar(LCD_CHAR_RESIS2);	//Custom-Character 
    33ae:	80 e7       	ldi	r24, 0x70	; 112
    33b0:	0e 94 f9 00 	call	0x1f2	; 0x1f2 <lcd_command>
	  lcd_fix_customchar(ResIcon2);		//load Character  ]
    33b4:	87 e0       	ldi	r24, 0x07	; 7
    33b6:	90 e0       	ldi	r25, 0x00	; 0
    33b8:	0e 94 bb 01 	call	0x376	; 0x376 <lcd_fix_customchar>

	#ifdef PULLUP_DISABLE
	 #ifdef __AVR_ATmega8__
	  SFIOR = (1<<PUD);		// disable Pull-Up Resistors mega8
	 #else
	  MCUCR = (1<<PUD);		// disable Pull-Up Resistors mega168 family
    33bc:	80 e1       	ldi	r24, 0x10	; 16
    33be:	85 bf       	out	0x35, r24	; 53
	#ifdef WITH_ROTARY_SWITCH
	//  rotary_switch_present = eeprom_read_byte(&EE_RotarySwitch);
	  rotary.ind = ROT_MSK+1;		//initilize state history with next call of check_rotary()
	#endif
	#if 1
	  for (ii=0; ii<60; ii++) {
    33c0:	10 e0       	ldi	r17, 0x00	; 0
	     if (RST_PIN_REG & (1<<RST_PIN)) break;	// button is released
    33c2:	4f 99       	sbic	0x09, 7	; 9
    33c4:	06 c0       	rjmp	.+12     	; 0x33d2 <main+0xac>
	     wait_about10ms();
    33c6:	82 e0       	ldi	r24, 0x02	; 2
    33c8:	0e 94 7e 03 	call	0x6fc	; 0x6fc <sleep_5ms>
	#ifdef WITH_ROTARY_SWITCH
	//  rotary_switch_present = eeprom_read_byte(&EE_RotarySwitch);
	  rotary.ind = ROT_MSK+1;		//initilize state history with next call of check_rotary()
	#endif
	#if 1
	  for (ii=0; ii<60; ii++) {
    33cc:	1f 5f       	subi	r17, 0xFF	; 255
    33ce:	1c 33       	cpi	r17, 0x3C	; 60
    33d0:	c1 f7       	brne	.-16     	; 0x33c2 <main+0x9c>
	  if (!(RST_PIN_REG & (1<<RST_PIN))) {
	     // key is still pressed
	     ii = wait_for_key_ms(700);	
	  }
	#endif
	  display_time = OFF_WAIT_TIME;		// LONG_WAIT_TIME for single mode, else SHORT_WAIT_TIME
    33d2:	8f e5       	ldi	r24, 0x5F	; 95
    33d4:	9d e6       	ldi	r25, 0x6D	; 109
    33d6:	90 93 11 01 	sts	0x0111, r25
    33da:	80 93 10 01 	sts	0x0110, r24
	  if (ii > 30) {
    33de:	1f 31       	cpi	r17, 0x1F	; 31
    33e0:	30 f0       	brcs	.+12     	; 0x33ee <main+0xc8>
	     display_time = LONG_WAIT_TIME;	// ... set long time display anyway
    33e2:	80 e6       	ldi	r24, 0x60	; 96
    33e4:	9d e6       	ldi	r25, 0x6D	; 109
    33e6:	90 93 11 01 	sts	0x0111, r25
    33ea:	80 93 10 01 	sts	0x0110, r24

	#if POWER_OFF+0 > 1
	  empty_count = 0;
	  mess_count = 0;
	#endif
	  ADCconfig.RefFlag = 0;
    33ee:	10 92 28 01 	sts	0x0128, r1
	  Calibrate_UR();		// get Ref Voltages and Pin resistance
    33f2:	0e 94 09 14 	call	0x2812	; 0x2812 <Calibrate_UR>
        Battery_check();
	#else
	  lcd_MEM2_string(VERSION_str);		// if no Battery check, Version .. in row 1
	#endif	/* BAT_CHECK */
	#ifdef WDT_enabled
	  wdt_enable(WDTO_2S);		//Watchdog on
    33f6:	f8 e1       	ldi	r31, 0x18	; 24
    33f8:	ef 2e       	mov	r14, r31
    33fa:	f1 2c       	mov	r15, r1
	  lcd_clear_line1();
	#else
	  lcd_clear();				// clear total display
	#endif

	  _trans = &ntrans;			// default transistor structure to show
    33fc:	a4 e4       	ldi	r26, 0x44	; 68
    33fe:	ca 2e       	mov	r12, r26
    3400:	a1 e0       	ldi	r26, 0x01	; 1
    3402:	da 2e       	mov	r13, r26
    3404:	ba e8       	ldi	r27, 0x8A	; 138
    3406:	ab 2e       	mov	r10, r27
    3408:	b1 e0       	ldi	r27, 0x01	; 1
    340a:	bb 2e       	mov	r11, r27
          {
           diode_sequence = 0x12;	// 1 2
          }
        if(diodes.Anode[1] == diodes.Cathode[2])
          {
           diode_sequence = 0x21;	// 2 1
    340c:	01 e2       	ldi	r16, 0x21	; 33
    340e:	80 2e       	mov	r8, r16
          {
           diode_sequence = 0x20;	// 2 0
          }
        if(diodes.Cathode[1] == diodes.Anode[2])
          {
           diode_sequence = 0x12;	// 1 2
    3410:	82 e1       	ldi	r24, 0x12	; 18
    3412:	38 2e       	mov	r3, r24
          {
           diode_sequence = 0x02;	// 0 2
          }
        if(diodes.Anode[0] == diodes.Cathode[2])
          {
           diode_sequence = 0x20;	// 2 0
    3414:	90 e2       	ldi	r25, 0x20	; 32
    3416:	29 2e       	mov	r2, r25
	start:
	#if ((LCD_ST_TYPE == 7565) || (LCD_ST_TYPE == 1306))
	  lcd_command(CMD_DISPLAY_ON);
	  lcd_command(CMD_SET_ALLPTS_NORMAL);		// 0xa4
	#endif
	  lcd_clear();			// clear the LCD
    3418:	0e 94 4d 01 	call	0x29a	; 0x29a <lcd_clear>
	  ADC_DDR = TXD_MSK;		// activate Software-UART 
    341c:	17 b8       	out	0x07, r1	; 7
          init_parts();			// reset parts info to nothing found
    341e:	0e 94 cb 04 	call	0x996	; 0x996 <init_parts>
	  Calibrate_UR();		// get Ref Voltages and Pin resistance
    3422:	0e 94 09 14 	call	0x2812	; 0x2812 <Calibrate_UR>
	#ifdef WITH_UART
	  uart_newline();		// start of new measurement
	#endif
	  lcd_line1();			// Cursor to 1. row, column 1
    3426:	0e 94 00 01 	call	0x200	; 0x200 <lcd_line1>
	  
	#ifdef BAT_CHECK
	  // Battery check is selected
        Battery_check();
    342a:	0e 94 1c 08 	call	0x1038	; 0x1038 <Battery_check>
	#else
	  lcd_MEM2_string(VERSION_str);		// if no Battery check, Version .. in row 1
	#endif	/* BAT_CHECK */
	#ifdef WDT_enabled
	  wdt_enable(WDTO_2S);		//Watchdog on
    342e:	2f e0       	ldi	r18, 0x0F	; 15
    3430:	0f b6       	in	r0, 0x3f	; 63
    3432:	f8 94       	cli
    3434:	a8 95       	wdr
    3436:	e0 92 60 00 	sts	0x0060, r14
    343a:	0f be       	out	0x3f, r0	; 63
    343c:	20 93 60 00 	sts	0x0060, r18
	#endif

	//  wait_about1s();			// add more time for reading batterie voltage
	  // begin tests
	#if FLASHEND > 0x1fff
	  if (WithReference) {
    3440:	80 91 40 01 	lds	r24, 0x0140
    3444:	88 23       	and	r24, r24
    3446:	81 f0       	breq	.+32     	; 0x3468 <main+0x142>
	 #if POWER_OFF+0 > 1
	     if ((mess_count == 0) && (empty_count == 0))
	 #endif
	     {
		 /* display VCC= only first time */
		 lcd_line2();
    3448:	0e 94 06 01 	call	0x20c	; 0x20c <lcd_line2>
		 lcd_MEM_string(VCC_str);		// VCC=
    344c:	85 e7       	ldi	r24, 0x75	; 117
    344e:	90 e0       	ldi	r25, 0x00	; 0
    3450:	0e 94 ab 01 	call	0x356	; 0x356 <lcd_fix_string>
		 Display_mV(ADCconfig.U_AVCC,3);	// Display 3 Digits of this mV units
    3454:	63 e0       	ldi	r22, 0x03	; 3
    3456:	80 91 2b 01 	lds	r24, 0x012B
    345a:	90 91 2c 01 	lds	r25, 0x012C
    345e:	0e 94 4d 03 	call	0x69a	; 0x69a <Display_mV>
		 lcd_refresh();			// write the pixels to display, ST7920 only
		 wait_about1s();
    3462:	88 ec       	ldi	r24, 0xC8	; 200
    3464:	0e 94 7e 03 	call	0x6fc	; 0x6fc <sleep_5ms>
	     wait_about300ms();
	  }
	#endif /* WITH_VEXT */

	#ifndef DebugOut
	  lcd_line2();			//LCD position row 2, column 1
    3468:	0e 94 06 01 	call	0x20c	; 0x20c <lcd_line2>
	#endif
	  EntladePins();		// discharge all capacitors!
    346c:	0e 94 1d 10 	call	0x203a	; 0x203a <EntladePins>
	  if(PartFound == PART_CELL) {
    3470:	80 91 18 01 	lds	r24, 0x0118
    3474:	88 30       	cpi	r24, 0x08	; 8
    3476:	69 f4       	brne	.+26     	; 0x3492 <main+0x16c>
	    lcd_clear();
    3478:	0e 94 4d 01 	call	0x29a	; 0x29a <lcd_clear>
	    lcd_MEM_string(Cell_str);	// display "Cell!"
    347c:	8a e7       	ldi	r24, 0x7A	; 122
    347e:	90 e0       	ldi	r25, 0x00	; 0
    3480:	0e 94 ab 01 	call	0x356	; 0x356 <lcd_fix_string>
	    lcd_space();
	    Display_mV(cell_mv[2],3);
	#endif
	#ifdef WITH_SELFTEST
	    lcd_refresh();			// write the pixels to display, ST7920 only
	    wait_about2s();
    3484:	8a ec       	ldi	r24, 0xCA	; 202
    3486:	0e 94 7e 03 	call	0x6fc	; 0x6fc <sleep_5ms>
	    AutoCheck(0x11);		// full Selftest with "Short probes" message
    348a:	81 e1       	ldi	r24, 0x11	; 17
    348c:	0e 94 41 05 	call	0xa82	; 0xa82 <AutoCheck>
	#endif
	    goto tt_end;
    3490:	81 c4       	rjmp	.+2306   	; 0x3d94 <main+0xa6e>
	  }

	#ifdef WITH_SELFTEST
	 #ifdef AUTO_CAL
	  lcd_cursor_off();
    3492:	8c e0       	ldi	r24, 0x0C	; 12
    3494:	0e 94 f9 00 	call	0x1f2	; 0x1f2 <lcd_command>
	  UnCalibrated = (eeprom_read_byte(&c_zero_tab[3]) - eeprom_read_byte(&c_zero_tab[0]));
    3498:	8f eb       	ldi	r24, 0xBF	; 191
    349a:	91 e0       	ldi	r25, 0x01	; 1
    349c:	0e 94 c0 1f 	call	0x3f80	; 0x3f80 <__eerd_byte_m168>
    34a0:	08 2f       	mov	r16, r24
    34a2:	8c eb       	ldi	r24, 0xBC	; 188
    34a4:	91 e0       	ldi	r25, 0x01	; 1
    34a6:	0e 94 c0 1f 	call	0x3f80	; 0x3f80 <__eerd_byte_m168>
    34aa:	08 1b       	sub	r16, r24
    34ac:	00 93 3d 01 	sts	0x013D, r16
	  if (UnCalibrated != 0) {
    34b0:	00 23       	and	r16, r16
    34b2:	19 f0       	breq	.+6      	; 0x34ba <main+0x194>
	     // if calibrated, both c_zero_tab values are identical! c_zero_tab[3] is not used otherwise
	     lcd_cursor_on();
    34b4:	8e e0       	ldi	r24, 0x0E	; 14
    34b6:	0e 94 f9 00 	call	0x1f2	; 0x1f2 <lcd_command>
	  }
	 #endif
	 #ifdef WITH_MENU
	  AutoCheck(0x00);			//check, if selftest should be done, only calibration
	 #else
	  AutoCheck(0x01);			//check, if selftest should be done, full selftest without MENU
    34ba:	81 e0       	ldi	r24, 0x01	; 1
    34bc:	0e 94 41 05 	call	0xa82	; 0xa82 <AutoCheck>
	 #endif
	#endif
	  lcd_line2();			//LCD position row2, column 1
    34c0:	0e 94 06 01 	call	0x20c	; 0x20c <lcd_line2>
	  lcd_MEM_string(TestRunning);		//String: testing...
    34c4:	83 e5       	ldi	r24, 0x53	; 83
    34c6:	91 e0       	ldi	r25, 0x01	; 1
    34c8:	0e 94 ab 01 	call	0x356	; 0x356 <lcd_fix_string>
	  lcd_refresh();			// write the pixels to display, ST7920 only
	     
	  // check all 6 combinations for the 3 pins 
	//         High  Low  Tri
	  CheckPins(TP1, TP2, TP3);
    34cc:	42 e0       	ldi	r20, 0x02	; 2
    34ce:	61 e0       	ldi	r22, 0x01	; 1
    34d0:	80 e0       	ldi	r24, 0x00	; 0
    34d2:	0e 94 65 08 	call	0x10ca	; 0x10ca <CheckPins>
	  CheckPins(TP2, TP1, TP3);
    34d6:	42 e0       	ldi	r20, 0x02	; 2
    34d8:	60 e0       	ldi	r22, 0x00	; 0
    34da:	81 e0       	ldi	r24, 0x01	; 1
    34dc:	0e 94 65 08 	call	0x10ca	; 0x10ca <CheckPins>

	  CheckPins(TP1, TP3, TP2);
    34e0:	41 e0       	ldi	r20, 0x01	; 1
    34e2:	62 e0       	ldi	r22, 0x02	; 2
    34e4:	80 e0       	ldi	r24, 0x00	; 0
    34e6:	0e 94 65 08 	call	0x10ca	; 0x10ca <CheckPins>
	  CheckPins(TP3, TP1, TP2);
    34ea:	41 e0       	ldi	r20, 0x01	; 1
    34ec:	60 e0       	ldi	r22, 0x00	; 0
    34ee:	82 e0       	ldi	r24, 0x02	; 2
    34f0:	0e 94 65 08 	call	0x10ca	; 0x10ca <CheckPins>

	  CheckPins(TP2, TP3, TP1);
    34f4:	40 e0       	ldi	r20, 0x00	; 0
    34f6:	62 e0       	ldi	r22, 0x02	; 2
    34f8:	81 e0       	ldi	r24, 0x01	; 1
    34fa:	0e 94 65 08 	call	0x10ca	; 0x10ca <CheckPins>
	  CheckPins(TP3, TP2, TP1);
    34fe:	40 e0       	ldi	r20, 0x00	; 0
    3500:	61 e0       	ldi	r22, 0x01	; 1
    3502:	82 e0       	ldi	r24, 0x02	; 2
    3504:	0e 94 65 08 	call	0x10ca	; 0x10ca <CheckPins>
#endif
	  
	  // Capacity measurement is only possible correctly with two Pins connected.
	  // A third connected pin will increase the capacity value!
	//  if(((PartFound == PART_NONE) || (PartFound == PART_RESISTOR) || (PartFound == PART_DIODE)) ) {
	  if(PartFound == PART_NONE) {
    3508:	80 91 18 01 	lds	r24, 0x0118
    350c:	81 11       	cpse	r24, r1
    350e:	11 c0       	rjmp	.+34     	; 0x3532 <main+0x20c>
	     // If no part is found yet, check separate if is is a capacitor
	#if FLASHEND > 0x1fff
	     lcd_data('C');
    3510:	83 e4       	ldi	r24, 0x43	; 67
    3512:	0e 94 d4 00 	call	0x1a8	; 0x1a8 <lcd_data>
	#endif
	     EntladePins();		// discharge capacities
    3516:	0e 94 1d 10 	call	0x203a	; 0x203a <EntladePins>
	     //measurement of capacities in all 3 combinations
	     ReadCapacity(TP3, TP1);
    351a:	60 e0       	ldi	r22, 0x00	; 0
    351c:	82 e0       	ldi	r24, 0x02	; 2
    351e:	0e 94 dc 10 	call	0x21b8	; 0x21b8 <ReadCapacity>
	#if DebugOut != 10
	     ReadCapacity(TP3, TP2);
    3522:	61 e0       	ldi	r22, 0x01	; 1
    3524:	82 e0       	ldi	r24, 0x02	; 2
    3526:	0e 94 dc 10 	call	0x21b8	; 0x21b8 <ReadCapacity>
	     ReadCapacity(TP2, TP1);
    352a:	60 e0       	ldi	r22, 0x00	; 0
    352c:	81 e0       	ldi	r24, 0x01	; 1
    352e:	0e 94 dc 10 	call	0x21b8	; 0x21b8 <ReadCapacity>
	#ifdef DebugOut 
	  // only clear two lines of LCD
	  lcd_clear_line2();
	  lcd_clear_line1();
	#else
	  lcd_clear();				// clear total display
    3532:	0e 94 4d 01 	call	0x29a	; 0x29a <lcd_clear>
	#endif

	  _trans = &ntrans;			// default transistor structure to show
    3536:	d0 92 42 01 	sts	0x0142, r13
    353a:	c0 92 41 01 	sts	0x0141, r12
	  if (PartFound == PART_THYRISTOR) {
    353e:	80 91 18 01 	lds	r24, 0x0118
    3542:	85 30       	cpi	r24, 0x05	; 5
    3544:	41 f4       	brne	.+16     	; 0x3556 <main+0x230>
            lcd_big_icon(THYRISTOR|LCD_UPPER_LEFT);
            lcd_draw_trans_pins(-8, 16);
            lcd_set_cursor(0,TEXT_RIGHT_TO_ICON);		// position behind the icon, Line 1
	    lcd_MEM_string(Thyristor);		//"Thyristor"
#else
	    lcd_MEM_string(Thyristor);		//"Thyristor"
    3546:	8a e2       	ldi	r24, 0x2A	; 42
    3548:	91 e0       	ldi	r25, 0x01	; 1
    354a:	0e 94 ab 01 	call	0x356	; 0x356 <lcd_fix_string>
            PinLayout(Cathode_char,'G','A'); 	// CGA= or 123=...
    354e:	41 e4       	ldi	r20, 0x41	; 65
    3550:	67 e4       	ldi	r22, 0x47	; 71
    3552:	83 e4       	ldi	r24, 0x43	; 67
    3554:	09 c0       	rjmp	.+18     	; 0x3568 <main+0x242>
#endif
            goto TyUfAusgabe;
          }

  if (PartFound == PART_TRIAC) {
    3556:	86 30       	cpi	r24, 0x06	; 6
    3558:	b9 f4       	brne	.+46     	; 0x3588 <main+0x262>
    lcd_big_icon(TRIAC|LCD_UPPER_LEFT);
    lcd_draw_trans_pins(-8, 16);
    lcd_set_cursor(0,TEXT_RIGHT_TO_ICON);		// position behind the icon, Line 1
    lcd_MEM_string(Triac);		//"Triac"
#else
    lcd_MEM_string(Triac);		//"Triac"
    355a:	83 e3       	ldi	r24, 0x33	; 51
    355c:	91 e0       	ldi	r25, 0x01	; 1
    355e:	0e 94 ab 01 	call	0x356	; 0x356 <lcd_fix_string>
    PinLayout('1','G','2'); 	// CGA= or 123=...
    3562:	42 e3       	ldi	r20, 0x32	; 50
    3564:	67 e4       	ldi	r22, 0x47	; 71
    3566:	81 e3       	ldi	r24, 0x31	; 49
    3568:	0e 94 12 02 	call	0x424	; 0x424 <PinLayout>
TyUfAusgabe:
#ifdef WITH_THYRISTOR_GATE_V
 #ifdef WITH_GRAPHICS
  lcd_set_cursor(2,TEXT_RIGHT_TO_ICON);		// position behind the icon,line 2
 #else
  lcd_line2(); //2. row 
    356c:	0e 94 06 01 	call	0x20c	; 0x20c <lcd_line2>
 #endif
  lcd_MEM_string(Uf_str);		// "Uf="
    3570:	8e e8       	ldi	r24, 0x8E	; 142
    3572:	90 e0       	ldi	r25, 0x00	; 0
    3574:	0e 94 ab 01 	call	0x356	; 0x356 <lcd_fix_string>
  Display_mV(ntrans.uBE,2);
    3578:	62 e0       	ldi	r22, 0x02	; 2
    357a:	80 91 48 01 	lds	r24, 0x0148
    357e:	90 91 49 01 	lds	r25, 0x0149
    3582:	0e 94 4d 03 	call	0x69a	; 0x69a <Display_mV>
    3586:	06 c4       	rjmp	.+2060   	; 0x3d94 <main+0xa6e>
    PinLayout('1','G','2'); 	// CGA= or 123=...
#endif
    goto TyUfAusgabe;
  }

  if (PartFound == PART_CAPACITOR) {
    3588:	87 30       	cpi	r24, 0x07	; 7
    358a:	09 f0       	breq	.+2      	; 0x358e <main+0x268>
    358c:	4f c0       	rjmp	.+158    	; 0x362c <main+0x306>
//     lcd_MEM_string(Capacitor);
     lcd_testpin(cap.ca);		//Pin number 1
    358e:	80 91 84 01 	lds	r24, 0x0184
    3592:	0e 94 db 00 	call	0x1b6	; 0x1b6 <lcd_testpin>
     lcd_MEM_string(CapZeich);		// capacitor sign
    3596:	80 e8       	ldi	r24, 0x80	; 128
    3598:	90 e0       	ldi	r25, 0x00	; 0
    359a:	0e 94 ab 01 	call	0x356	; 0x356 <lcd_fix_string>
     lcd_testpin(cap.cb);		//Pin number 2
    359e:	80 91 85 01 	lds	r24, 0x0185
    35a2:	0e 94 db 00 	call	0x1b6	; 0x1b6 <lcd_testpin>
#if FLASHEND > 0x1fff
     GetVloss();			// get Voltage loss of capacitor
    35a6:	0e 94 d9 18 	call	0x31b2	; 0x31b2 <GetVloss>
     if (cap.v_loss != 0) {
    35aa:	80 91 82 01 	lds	r24, 0x0182
    35ae:	90 91 83 01 	lds	r25, 0x0183
    35b2:	89 2b       	or	r24, r25
    35b4:	79 f0       	breq	.+30     	; 0x35d4 <main+0x2ae>
 #if (LCD_LINES > 2)
        lcd_line3();
        lcd_MEM_string(&VLOSS_str[1]);	// "Vloss="
 #else
        lcd_MEM_string(VLOSS_str);	// " Vloss="
    35b6:	87 e6       	ldi	r24, 0x67	; 103
    35b8:	90 e0       	ldi	r25, 0x00	; 0
    35ba:	0e 94 ab 01 	call	0x356	; 0x356 <lcd_fix_string>
 #endif
        DisplayValue(cap.v_loss,-1,'%',2);
    35be:	60 91 82 01 	lds	r22, 0x0182
    35c2:	70 91 83 01 	lds	r23, 0x0183
    35c6:	80 e0       	ldi	r24, 0x00	; 0
    35c8:	90 e0       	ldi	r25, 0x00	; 0
    35ca:	02 e0       	ldi	r16, 0x02	; 2
    35cc:	25 e2       	ldi	r18, 0x25	; 37
    35ce:	4f ef       	ldi	r20, 0xFF	; 255
    35d0:	0e 94 b2 02 	call	0x564	; 0x564 <DisplayValue>
     }
#endif
     lcd_line2(); 			//2. row 
    35d4:	0e 94 06 01 	call	0x20c	; 0x20c <lcd_line2>
     DisplayValue(cap.cval_max,cap.cpre_max,'F',4);
    35d8:	60 91 78 01 	lds	r22, 0x0178
    35dc:	70 91 79 01 	lds	r23, 0x0179
    35e0:	80 91 7a 01 	lds	r24, 0x017A
    35e4:	90 91 7b 01 	lds	r25, 0x017B
    35e8:	04 e0       	ldi	r16, 0x04	; 4
    35ea:	26 e4       	ldi	r18, 0x46	; 70
    35ec:	40 91 87 01 	lds	r20, 0x0187
    35f0:	0e 94 b2 02 	call	0x564	; 0x564 <DisplayValue>
#if FLASHEND > 0x1fff
     cap.esr = GetESR(cap.cb, cap.ca);		// get ESR of capacitor
    35f4:	60 91 84 01 	lds	r22, 0x0184
    35f8:	80 91 85 01 	lds	r24, 0x0185
    35fc:	0e 94 fd 16 	call	0x2dfa	; 0x2dfa <GetESR>
    3600:	90 93 81 01 	sts	0x0181, r25
    3604:	80 93 80 01 	sts	0x0180, r24
     if ( cap.esr < 65530) {
    3608:	8a 3f       	cpi	r24, 0xFA	; 250
    360a:	9f 4f       	sbci	r25, 0xFF	; 255
    360c:	08 f0       	brcs	.+2      	; 0x3610 <main+0x2ea>
    360e:	c2 c3       	rjmp	.+1924   	; 0x3d94 <main+0xa6e>
        lcd_MEM_string(ESR_str);	// " ESR="
    3610:	8f e6       	ldi	r24, 0x6F	; 111
    3612:	90 e0       	ldi	r25, 0x00	; 0
    3614:	0e 94 ab 01 	call	0x356	; 0x356 <lcd_fix_string>
        DisplayValue(cap.esr,-2,LCD_CHAR_OMEGA,2);
    3618:	60 91 80 01 	lds	r22, 0x0180
    361c:	70 91 81 01 	lds	r23, 0x0181
    3620:	80 e0       	ldi	r24, 0x00	; 0
    3622:	90 e0       	ldi	r25, 0x00	; 0
    3624:	02 e0       	ldi	r16, 0x02	; 2
    3626:	24 ef       	ldi	r18, 0xF4	; 244
    3628:	4e ef       	ldi	r20, 0xFE	; 254
    362a:	10 c2       	rjmp	.+1056   	; 0x3a4c <main+0x726>
#endif
     goto tt_end;
  } /* end PartFound == PART_CAPACITOR */

  // ========================================
  if(PartFound == PART_DIODE) {
    362c:	82 30       	cpi	r24, 0x02	; 2
    362e:	09 f0       	breq	.+2      	; 0x3632 <main+0x30c>
    3630:	e1 c0       	rjmp	.+450    	; 0x37f4 <main+0x4ce>
  // ========================================
     if(NumOfDiodes == 1) {		//single Diode
    3632:	80 91 16 01 	lds	r24, 0x0116
    3636:	81 30       	cpi	r24, 0x01	; 1
    3638:	09 f0       	breq	.+2      	; 0x363c <main+0x316>
    363a:	41 c0       	rjmp	.+130    	; 0x36be <main+0x398>
           lcd_MEM_string(KatAn);	//"-|<-"
           lcd_testpin(diodes.Anode[0]);
        }
 #else
        // the higher test pin number is right side
        if (diodes.Anode[0] < diodes.Cathode[0]) {
    363c:	90 91 8a 01 	lds	r25, 0x018A
    3640:	80 91 90 01 	lds	r24, 0x0190
    3644:	98 17       	cp	r25, r24
    3646:	50 f4       	brcc	.+20     	; 0x365c <main+0x336>
           lcd_testpin(diodes.Anode[0]);
    3648:	89 2f       	mov	r24, r25
    364a:	0e 94 db 00 	call	0x1b6	; 0x1b6 <lcd_testpin>
           lcd_MEM_string(AnKat);	//"->|-"
    364e:	8a e5       	ldi	r24, 0x5A	; 90
    3650:	90 e0       	ldi	r25, 0x00	; 0
    3652:	0e 94 ab 01 	call	0x356	; 0x356 <lcd_fix_string>
           lcd_testpin(diodes.Cathode[0]);
    3656:	80 91 90 01 	lds	r24, 0x0190
    365a:	08 c0       	rjmp	.+16     	; 0x366c <main+0x346>
        } else {
           lcd_testpin(diodes.Cathode[0]);
    365c:	0e 94 db 00 	call	0x1b6	; 0x1b6 <lcd_testpin>
           lcd_MEM_string(KatAn);	//"-|<-"
    3660:	86 e5       	ldi	r24, 0x56	; 86
    3662:	90 e0       	ldi	r25, 0x00	; 0
    3664:	0e 94 ab 01 	call	0x356	; 0x356 <lcd_fix_string>
           lcd_testpin(diodes.Anode[0]);
    3668:	80 91 8a 01 	lds	r24, 0x018A
    366c:	0e 94 db 00 	call	0x1b6	; 0x1b6 <lcd_testpin>
        lcd_testpin(diodes.Anode[0]);
        lcd_MEM_string(AnKat);		//"->|-"
        lcd_testpin(diodes.Cathode[0]);
#endif
#if FLASHEND > 0x1fff
	GetIr(diodes.Cathode[0],diodes.Anode[0]);	// measure and output Ir=x.xuA
    3670:	60 91 8a 01 	lds	r22, 0x018A
    3674:	80 91 90 01 	lds	r24, 0x0190
    3678:	0e 94 cc 07 	call	0xf98	; 0xf98 <GetIr>
#endif
        UfAusgabe(0x70);		// mark for additional resistor and output Uf= in line 2
    367c:	80 e7       	ldi	r24, 0x70	; 112
    367e:	0e 94 79 02 	call	0x4f2	; 0x4f2 <UfAusgabe>
        /* load current of capacity is (5V-1.1V)/(470000 Ohm) = 8298nA */
        ReadCapacity(diodes.Cathode[0],diodes.Anode[0]);	// Capacity opposite flow direction
    3682:	60 91 8a 01 	lds	r22, 0x018A
    3686:	80 91 90 01 	lds	r24, 0x0190
    368a:	0e 94 dc 10 	call	0x21b8	; 0x21b8 <ReadCapacity>
        if (cap.cpre < -3) {	/* capacity is measured */
    368e:	80 91 86 01 	lds	r24, 0x0186
    3692:	8d 3f       	cpi	r24, 0xFD	; 253
    3694:	0c f0       	brlt	.+2      	; 0x3698 <main+0x372>
    3696:	a0 c2       	rjmp	.+1344   	; 0x3bd8 <main+0x8b2>
#if (LCD_LINES > 3)
           lcd_line3();		// output Capacity in line 3
#endif
           lcd_MEM_string(Cap_str);	//"C="
    3698:	85 ea       	ldi	r24, 0xA5	; 165
    369a:	90 e0       	ldi	r25, 0x00	; 0
    369c:	0e 94 ab 01 	call	0x356	; 0x356 <lcd_fix_string>
#if LCD_LINE_LENGTH > 16
           DisplayValue(cap.cval,cap.cpre,'F',3);
#else
           DisplayValue(cap.cval,cap.cpre,'F',2);
    36a0:	60 91 74 01 	lds	r22, 0x0174
    36a4:	70 91 75 01 	lds	r23, 0x0175
    36a8:	80 91 76 01 	lds	r24, 0x0176
    36ac:	90 91 77 01 	lds	r25, 0x0177
    36b0:	02 e0       	ldi	r16, 0x02	; 2
    36b2:	26 e4       	ldi	r18, 0x46	; 70
    36b4:	40 91 86 01 	lds	r20, 0x0186
    36b8:	0e 94 b2 02 	call	0x564	; 0x564 <DisplayValue>
    36bc:	8d c2       	rjmp	.+1306   	; 0x3bd8 <main+0x8b2>
#endif
        }
        goto end3;
     } else if(NumOfDiodes == 2) { // double diode
    36be:	82 30       	cpi	r24, 0x02	; 2
    36c0:	09 f0       	breq	.+2      	; 0x36c4 <main+0x39e>
    36c2:	48 c0       	rjmp	.+144    	; 0x3754 <main+0x42e>
        lcd_data('2');
    36c4:	82 e3       	ldi	r24, 0x32	; 50
    36c6:	0e 94 d4 00 	call	0x1a8	; 0x1a8 <lcd_data>
        lcd_MEM_string(Dioden);		//"diodes "
    36ca:	81 e5       	ldi	r24, 0x51	; 81
    36cc:	90 e0       	ldi	r25, 0x00	; 0
    36ce:	0e 94 ab 01 	call	0x356	; 0x356 <lcd_fix_string>
        if(diodes.Anode[0] == diodes.Anode[1]) { //Common Anode
    36d2:	80 91 8a 01 	lds	r24, 0x018A
    36d6:	20 91 8b 01 	lds	r18, 0x018B
    36da:	82 13       	cpse	r24, r18
    36dc:	13 c0       	rjmp	.+38     	; 0x3704 <main+0x3de>
           lcd_testpin(diodes.Cathode[0]);
    36de:	80 91 90 01 	lds	r24, 0x0190
    36e2:	0e 94 db 00 	call	0x1b6	; 0x1b6 <lcd_testpin>
           lcd_MEM_string(KatAn);	//"-|<-"
    36e6:	86 e5       	ldi	r24, 0x56	; 86
    36e8:	90 e0       	ldi	r25, 0x00	; 0
    36ea:	0e 94 ab 01 	call	0x356	; 0x356 <lcd_fix_string>
           lcd_testpin(diodes.Anode[0]);
    36ee:	80 91 8a 01 	lds	r24, 0x018A
    36f2:	0e 94 db 00 	call	0x1b6	; 0x1b6 <lcd_testpin>
           lcd_MEM_string(AnKat);	//"->|-"
    36f6:	8a e5       	ldi	r24, 0x5A	; 90
    36f8:	90 e0       	ldi	r25, 0x00	; 0
    36fa:	0e 94 ab 01 	call	0x356	; 0x356 <lcd_fix_string>
           lcd_testpin(diodes.Cathode[1]);
    36fe:	80 91 91 01 	lds	r24, 0x0191
    3702:	16 c0       	rjmp	.+44     	; 0x3730 <main+0x40a>
           UfAusgabe(0x01);
           goto end3;
        } 
        if(diodes.Cathode[0] == diodes.Cathode[1]) { //Common Cathode
    3704:	30 91 90 01 	lds	r19, 0x0190
    3708:	90 91 91 01 	lds	r25, 0x0191
    370c:	39 13       	cpse	r19, r25
    370e:	16 c0       	rjmp	.+44     	; 0x373c <main+0x416>
           lcd_testpin(diodes.Anode[0]);
    3710:	0e 94 db 00 	call	0x1b6	; 0x1b6 <lcd_testpin>
           lcd_MEM_string(AnKat);	//"->|-"
    3714:	8a e5       	ldi	r24, 0x5A	; 90
    3716:	90 e0       	ldi	r25, 0x00	; 0
    3718:	0e 94 ab 01 	call	0x356	; 0x356 <lcd_fix_string>
	   lcd_testpin(diodes.Cathode[0]);
    371c:	80 91 90 01 	lds	r24, 0x0190
    3720:	0e 94 db 00 	call	0x1b6	; 0x1b6 <lcd_testpin>
           lcd_MEM_string(KatAn);	//"-|<-"
    3724:	86 e5       	ldi	r24, 0x56	; 86
    3726:	90 e0       	ldi	r25, 0x00	; 0
    3728:	0e 94 ab 01 	call	0x356	; 0x356 <lcd_fix_string>
           lcd_testpin(diodes.Anode[1]);
    372c:	80 91 8b 01 	lds	r24, 0x018B
    3730:	0e 94 db 00 	call	0x1b6	; 0x1b6 <lcd_testpin>
           UfAusgabe(0x01);
    3734:	81 e0       	ldi	r24, 0x01	; 1
    3736:	0e 94 79 02 	call	0x4f2	; 0x4f2 <UfAusgabe>
           goto end3;
    373a:	4e c2       	rjmp	.+1180   	; 0x3bd8 <main+0x8b2>
//        else if ((diodes.Cathode[0] == diodes.Anode[1]) && (diodes.Cathode[1] == diodes.Anode[0])) 
        } 
        if (diodes.Cathode[0] == diodes.Anode[1]) {
    373c:	32 13       	cpse	r19, r18
    373e:	04 c0       	rjmp	.+8      	; 0x3748 <main+0x422>
           // normaly two serial diodes are detected as three diodes, but if the threshold is high
           // for both diodes, the third diode is not detected.
           // can also be Antiparallel
           diode_sequence = 0x01;	// 0 1
    3740:	81 e0       	ldi	r24, 0x01	; 1
    3742:	80 93 0f 01 	sts	0x010F, r24
    3746:	3d c0       	rjmp	.+122    	; 0x37c2 <main+0x49c>
           SerienDiodenAusgabe();
           goto end3;
        } 
        if (diodes.Cathode[1] == diodes.Anode[0]) {
    3748:	98 13       	cpse	r25, r24
    374a:	3e c0       	rjmp	.+124    	; 0x37c8 <main+0x4a2>
           diode_sequence = 0x10;	// 1 0
    374c:	f0 e1       	ldi	r31, 0x10	; 16
    374e:	f0 93 0f 01 	sts	0x010F, r31
    3752:	37 c0       	rjmp	.+110    	; 0x37c2 <main+0x49c>
           SerienDiodenAusgabe();
           goto end3;
        }
     } else if(NumOfDiodes == 3) {
    3754:	83 30       	cpi	r24, 0x03	; 3
    3756:	c1 f5       	brne	.+112    	; 0x37c8 <main+0x4a2>
        //Serial of 2 Diodes; was detected as 3 Diodes 
        diode_sequence = 0x33;	// 3 3
    3758:	23 e3       	ldi	r18, 0x33	; 51
    375a:	20 93 0f 01 	sts	0x010F, r18
        /* Check for any constellation of 2 serial diodes:
          Only once the pin No of anyone Cathode is identical of another anode.
          two diodes in series is additionally detected as third big diode.
        */
        if(diodes.Cathode[0] == diodes.Anode[1])
    375e:	80 91 90 01 	lds	r24, 0x0190
    3762:	90 91 8b 01 	lds	r25, 0x018B
    3766:	89 13       	cpse	r24, r25
    3768:	03 c0       	rjmp	.+6      	; 0x3770 <main+0x44a>
          {
           diode_sequence = 0x01;	// 0 1
    376a:	21 e0       	ldi	r18, 0x01	; 1
    376c:	20 93 0f 01 	sts	0x010F, r18
          }
        if(diodes.Anode[0] == diodes.Cathode[1])
    3770:	40 91 8a 01 	lds	r20, 0x018A
    3774:	30 91 91 01 	lds	r19, 0x0191
    3778:	43 13       	cpse	r20, r19
    377a:	03 c0       	rjmp	.+6      	; 0x3782 <main+0x45c>
          {
           diode_sequence = 0x10;	// 1 0
    377c:	e0 e1       	ldi	r30, 0x10	; 16
    377e:	e0 93 0f 01 	sts	0x010F, r30
          }
        if(diodes.Cathode[0] == diodes.Anode[2])
    3782:	20 91 8c 01 	lds	r18, 0x018C
    3786:	82 13       	cpse	r24, r18
    3788:	03 c0       	rjmp	.+6      	; 0x3790 <main+0x46a>
          {
           diode_sequence = 0x02;	// 0 2
    378a:	82 e0       	ldi	r24, 0x02	; 2
    378c:	80 93 0f 01 	sts	0x010F, r24
          }
        if(diodes.Anode[0] == diodes.Cathode[2])
    3790:	80 91 92 01 	lds	r24, 0x0192
    3794:	48 13       	cpse	r20, r24
    3796:	02 c0       	rjmp	.+4      	; 0x379c <main+0x476>
          {
           diode_sequence = 0x20;	// 2 0
    3798:	20 92 0f 01 	sts	0x010F, r2
          }
        if(diodes.Cathode[1] == diodes.Anode[2])
    379c:	32 13       	cpse	r19, r18
    379e:	02 c0       	rjmp	.+4      	; 0x37a4 <main+0x47e>
          {
           diode_sequence = 0x12;	// 1 2
    37a0:	30 92 0f 01 	sts	0x010F, r3
          }
        if(diodes.Anode[1] == diodes.Cathode[2])
    37a4:	98 13       	cpse	r25, r24
    37a6:	02 c0       	rjmp	.+4      	; 0x37ac <main+0x486>
          {
           diode_sequence = 0x21;	// 2 1
    37a8:	80 92 0f 01 	sts	0x010F, r8
          }
//        if((ptrans.b<3) && (ptrans.c<3)) 
        if(diode_sequence < 0x22) {
    37ac:	80 91 0f 01 	lds	r24, 0x010F
    37b0:	82 32       	cpi	r24, 0x22	; 34
    37b2:	50 f4       	brcc	.+20     	; 0x37c8 <main+0x4a2>
           lcd_data('3');
    37b4:	83 e3       	ldi	r24, 0x33	; 51
    37b6:	0e 94 d4 00 	call	0x1a8	; 0x1a8 <lcd_data>
           lcd_MEM_string(Dioden);	//"Diodes "
    37ba:	81 e5       	ldi	r24, 0x51	; 81
    37bc:	90 e0       	ldi	r25, 0x00	; 0
    37be:	0e 94 ab 01 	call	0x356	; 0x356 <lcd_fix_string>
           SerienDiodenAusgabe();
    37c2:	0e 94 8f 02 	call	0x51e	; 0x51e <SerienDiodenAusgabe>
           goto end3;
    37c6:	08 c2       	rjmp	.+1040   	; 0x3bd8 <main+0x8b2>
        }
     }  // end (NumOfDiodes == 3)
     lcd_MEM_string(Bauteil);		//"Bauteil"
    37c8:	89 e3       	ldi	r24, 0x39	; 57
    37ca:	91 e0       	ldi	r25, 0x01	; 1
    37cc:	0e 94 ab 01 	call	0x356	; 0x356 <lcd_fix_string>
     lcd_MEM_string(Unknown); 		//" unbek."
    37d0:	81 e2       	ldi	r24, 0x21	; 33
    37d2:	91 e0       	ldi	r25, 0x01	; 1
    37d4:	0e 94 ab 01 	call	0x356	; 0x356 <lcd_fix_string>
     lcd_line2(); //2. row 
    37d8:	0e 94 06 01 	call	0x20c	; 0x20c <lcd_line2>
     lcd_MEM_string(OrBroken); 		//"oder defekt "
    37dc:	85 e0       	ldi	r24, 0x05	; 5
    37de:	91 e0       	ldi	r25, 0x01	; 1
    37e0:	0e 94 ab 01 	call	0x356	; 0x356 <lcd_fix_string>
     lcd_data(NumOfDiodes + '0');
    37e4:	80 91 16 01 	lds	r24, 0x0116
    37e8:	80 5d       	subi	r24, 0xD0	; 208
    37ea:	0e 94 d4 00 	call	0x1a8	; 0x1a8 <lcd_data>
     lcd_MEM_string(AnKat);		//"->|-"
    37ee:	8a e5       	ldi	r24, 0x5A	; 90
    37f0:	90 e0       	ldi	r25, 0x00	; 0
    37f2:	cb c2       	rjmp	.+1430   	; 0x3d8a <main+0xa64>
     goto not_known;
     // end (PartFound == PART_DIODE)
  // ========================================
  } else if (PartFound == PART_TRANSISTOR) {
    37f4:	83 30       	cpi	r24, 0x03	; 3
    37f6:	09 f0       	breq	.+2      	; 0x37fa <main+0x4d4>
    37f8:	2c c1       	rjmp	.+600    	; 0x3a52 <main+0x72c>
  // ========================================
#ifdef SEARCH_PARASITIC
    if ((ptrans.count != 0) && (ntrans.count !=0)) {
    37fa:	80 91 6d 01 	lds	r24, 0x016D
    37fe:	88 23       	and	r24, r24
    3800:	a9 f1       	breq	.+106    	; 0x386c <main+0x546>
    3802:	80 91 53 01 	lds	r24, 0x0153
    3806:	88 23       	and	r24, r24
    3808:	89 f1       	breq	.+98     	; 0x386c <main+0x546>
       // Special Handling of NPNp and PNPn Transistor.
       // If a protection diode is built on the same structur as the NPN-Transistor,
       // a parasitic PNP-Transistor will be detected. 
       ReadCapacity(ntrans.e, ntrans.b);	// read capacity of NPN base-emitter
    380a:	60 91 50 01 	lds	r22, 0x0150
    380e:	80 91 52 01 	lds	r24, 0x0152
    3812:	0e 94 dc 10 	call	0x21b8	; 0x21b8 <ReadCapacity>
       n_cval = cap.cval;			// save the found capacity value
    3816:	40 90 74 01 	lds	r4, 0x0174
    381a:	50 90 75 01 	lds	r5, 0x0175
    381e:	60 90 76 01 	lds	r6, 0x0176
    3822:	70 90 77 01 	lds	r7, 0x0177
       n_cpre  = cap.cpre;			// and dimension
    3826:	00 91 86 01 	lds	r16, 0x0186
       ReadCapacity(ptrans.b, ptrans.e);	// read capacity of PNP base-emitter
    382a:	60 91 6c 01 	lds	r22, 0x016C
    382e:	80 91 6a 01 	lds	r24, 0x016A
    3832:	0e 94 dc 10 	call	0x21b8	; 0x21b8 <ReadCapacity>
       if (((n_cpre == cap.cpre) && (cap.cval > n_cval)) || (cap.cpre > n_cpre)){
    3836:	80 91 86 01 	lds	r24, 0x0186
    383a:	08 13       	cpse	r16, r24
    383c:	0e c0       	rjmp	.+28     	; 0x385a <main+0x534>
    383e:	80 91 74 01 	lds	r24, 0x0174
    3842:	90 91 75 01 	lds	r25, 0x0175
    3846:	a0 91 76 01 	lds	r26, 0x0176
    384a:	b0 91 77 01 	lds	r27, 0x0177
    384e:	48 16       	cp	r4, r24
    3850:	59 06       	cpc	r5, r25
    3852:	6a 06       	cpc	r6, r26
    3854:	7b 06       	cpc	r7, r27
    3856:	18 f0       	brcs	.+6      	; 0x385e <main+0x538>
    3858:	06 c0       	rjmp	.+12     	; 0x3866 <main+0x540>
    385a:	08 17       	cp	r16, r24
    385c:	24 f4       	brge	.+8      	; 0x3866 <main+0x540>
          // the capacity value or dimension of the PNP B-E is greater than the NPN B-E
          PartMode = PART_MODE_PNP;
    385e:	fd e0       	ldi	r31, 0x0D	; 13
    3860:	f0 93 17 01 	sts	0x0117, r31
    3864:	03 c0       	rjmp	.+6      	; 0x386c <main+0x546>
       } else {
          PartMode = PART_MODE_NPN;
    3866:	8c e0       	ldi	r24, 0x0C	; 12
    3868:	80 93 17 01 	sts	0x0117, r24
       }
    }  /* end ((ptrans.count != 0) && (ntrans.count !=0)) */
#endif
    // not possible for mega8, change Pin sequence instead.
    if ((ptrans.count != 0) && (ntrans.count !=0) && (!(RST_PIN_REG & (1<<RST_PIN)))) {
    386c:	80 91 6d 01 	lds	r24, 0x016D
    3870:	88 23       	and	r24, r24
    3872:	61 f0       	breq	.+24     	; 0x388c <main+0x566>
    3874:	80 91 53 01 	lds	r24, 0x0153
    3878:	88 23       	and	r24, r24
    387a:	41 f0       	breq	.+16     	; 0x388c <main+0x566>
    387c:	4f 99       	sbic	0x09, 7	; 9
    387e:	06 c0       	rjmp	.+12     	; 0x388c <main+0x566>
          PartMode = PART_MODE_PNP;	// switch to parasitic transistor
       } else {
          PartMode = PART_MODE_NPN;	// switch to parasitic transistor
       }
#else
       PartMode ^= (PART_MODE_PNP - PART_MODE_NPN);
    3880:	80 91 17 01 	lds	r24, 0x0117
    3884:	91 e0       	ldi	r25, 0x01	; 1
    3886:	89 27       	eor	r24, r25
    3888:	80 93 17 01 	sts	0x0117, r24
       if (ntrans.count != 0) {
          lcd_data('n');		// mark for parasitic NPn
       }
    }
#else 	/* only character display */
    if(PartMode == PART_MODE_NPN) {
    388c:	80 91 17 01 	lds	r24, 0x0117
    3890:	8c 30       	cpi	r24, 0x0C	; 12
    3892:	51 f4       	brne	.+20     	; 0x38a8 <main+0x582>
//       _trans = &ntrans;  is allready selected a default
       lcd_MEM_string(NPN_str);		//"NPN "
    3894:	81 ea       	ldi	r24, 0xA1	; 161
    3896:	90 e0       	ldi	r25, 0x00	; 0
    3898:	0e 94 ab 01 	call	0x356	; 0x356 <lcd_fix_string>
       if (ptrans.count != 0) {
    389c:	80 91 6d 01 	lds	r24, 0x016D
    38a0:	88 23       	and	r24, r24
    38a2:	99 f0       	breq	.+38     	; 0x38ca <main+0x5a4>
          lcd_data('p');		// mark for parasitic PNp
    38a4:	80 e7       	ldi	r24, 0x70	; 112
    38a6:	0f c0       	rjmp	.+30     	; 0x38c6 <main+0x5a0>
       }
    } else {
       _trans = &ptrans;		// change transistor structure
    38a8:	8e e5       	ldi	r24, 0x5E	; 94
    38aa:	91 e0       	ldi	r25, 0x01	; 1
    38ac:	90 93 42 01 	sts	0x0142, r25
    38b0:	80 93 41 01 	sts	0x0141, r24
       lcd_MEM_string(PNP_str);		//"PNP "
    38b4:	8d e9       	ldi	r24, 0x9D	; 157
    38b6:	90 e0       	ldi	r25, 0x00	; 0
    38b8:	0e 94 ab 01 	call	0x356	; 0x356 <lcd_fix_string>
       if (ntrans.count != 0) {
    38bc:	80 91 53 01 	lds	r24, 0x0153
    38c0:	88 23       	and	r24, r24
    38c2:	19 f0       	breq	.+6      	; 0x38ca <main+0x5a4>
          lcd_data('n');		// mark for parasitic NPn
    38c4:	8e e6       	ldi	r24, 0x6E	; 110
    38c6:	0e 94 d4 00 	call	0x1a8	; 0x1a8 <lcd_data>
       }
    }
    lcd_space();
    38ca:	0e 94 df 00 	call	0x1be	; 0x1be <lcd_space>
    // show the protection diode of the BJT
#if FLASHEND > 0x3fff
    vak_diode_nr = 20;
#endif
    an_cat = 0;
    for (ii=0; ii<NumOfDiodes; ii++) {
    38ce:	30 91 16 01 	lds	r19, 0x0116
       if ((diodes.Anode[ii] == _trans->b) || (diodes.Cathode[ii] == _trans->b)) continue;
    38d2:	80 91 41 01 	lds	r24, 0x0141
    38d6:	90 91 42 01 	lds	r25, 0x0142
    38da:	a0 e9       	ldi	r26, 0x90	; 144
    38dc:	b1 e0       	ldi	r27, 0x01	; 1
    // show the protection diode of the BJT
#if FLASHEND > 0x3fff
    vak_diode_nr = 20;
#endif
    an_cat = 0;
    for (ii=0; ii<NumOfDiodes; ii++) {
    38de:	6a e8       	ldi	r22, 0x8A	; 138
    38e0:	71 e0       	ldi	r23, 0x01	; 1
    38e2:	26 2f       	mov	r18, r22
    38e4:	2a 19       	sub	r18, r10
    38e6:	23 17       	cp	r18, r19
    38e8:	20 f5       	brcc	.+72     	; 0x3932 <main+0x60c>
       if ((diodes.Anode[ii] == _trans->b) || (diodes.Cathode[ii] == _trans->b)) continue;
    38ea:	fb 01       	movw	r30, r22
    38ec:	41 91       	ld	r20, Z+
    38ee:	bf 01       	movw	r22, r30
    38f0:	fc 01       	movw	r30, r24
    38f2:	24 85       	ldd	r18, Z+12	; 0x0c
    38f4:	42 17       	cp	r20, r18
    38f6:	19 f0       	breq	.+6      	; 0x38fe <main+0x5d8>
    38f8:	4c 91       	ld	r20, X
    38fa:	42 13       	cpse	r20, r18
    38fc:	02 c0       	rjmp	.+4      	; 0x3902 <main+0x5dc>
    38fe:	11 96       	adiw	r26, 0x01	; 1
    3900:	f0 cf       	rjmp	.-32     	; 0x38e2 <main+0x5bc>
       // Layout with EBC= style
       an_cat = (PartMode == PART_MODE_NPN);
  #endif
 #else
       // Layout with 123= style
       an_cat = (((PartMode == PART_MODE_NPN) && (ntrans.c > ntrans.e)) ||
    3902:	80 91 17 01 	lds	r24, 0x0117
    3906:	8c 30       	cpi	r24, 0x0C	; 12
    3908:	39 f4       	brne	.+14     	; 0x3918 <main+0x5f2>
    390a:	90 91 51 01 	lds	r25, 0x0151
    390e:	80 91 52 01 	lds	r24, 0x0152
    3912:	89 17       	cp	r24, r25
    3914:	38 f0       	brcs	.+14     	; 0x3924 <main+0x5fe>
    3916:	09 c0       	rjmp	.+18     	; 0x392a <main+0x604>
                 ((PartMode != PART_MODE_NPN) && (ptrans.c < ptrans.e)));
    3918:	90 91 6b 01 	lds	r25, 0x016B
    391c:	80 91 6c 01 	lds	r24, 0x016C
    3920:	98 17       	cp	r25, r24
    3922:	18 f4       	brcc	.+6      	; 0x392a <main+0x604>
 #endif
       if (an_cat) {
          lcd_MEM_string(AnKat);	//"->|-"
    3924:	8a e5       	ldi	r24, 0x5A	; 90
    3926:	90 e0       	ldi	r25, 0x00	; 0
    3928:	02 c0       	rjmp	.+4      	; 0x392e <main+0x608>
       } else {
          lcd_MEM_string(KatAn);	//"-|<-"
    392a:	86 e5       	ldi	r24, 0x56	; 86
    392c:	90 e0       	ldi	r25, 0x00	; 0
    392e:	0e 94 ab 01 	call	0x356	; 0x356 <lcd_fix_string>
       lcd_MEM2_string(ICEs_str);		// "ICEs="
       DisplayValue(_trans->ices,-6,'A',2);	// display ICEs
    }
 #endif
#else		/* character display */
    PinLayout('E','B','C'); 		//  EBC= or 123=...
    3932:	43 e4       	ldi	r20, 0x43	; 67
    3934:	62 e4       	ldi	r22, 0x42	; 66
    3936:	85 e4       	ldi	r24, 0x45	; 69
    3938:	0e 94 12 02 	call	0x424	; 0x424 <PinLayout>
    lcd_line2(); //2. row 
    393c:	0e 94 06 01 	call	0x20c	; 0x20c <lcd_line2>
    lcd_MEM_string(hfe_str);		//"B="  (hFE)
    3940:	8b ea       	ldi	r24, 0xAB	; 171
    3942:	90 e0       	ldi	r25, 0x00	; 0
    3944:	0e 94 ab 01 	call	0x356	; 0x356 <lcd_fix_string>
    DisplayValue(_trans->hfe,0,0,3);
    3948:	e0 91 41 01 	lds	r30, 0x0141
    394c:	f0 91 42 01 	lds	r31, 0x0142
    3950:	60 81       	ld	r22, Z
    3952:	71 81       	ldd	r23, Z+1	; 0x01
    3954:	82 81       	ldd	r24, Z+2	; 0x02
    3956:	93 81       	ldd	r25, Z+3	; 0x03
    3958:	03 e0       	ldi	r16, 0x03	; 3
    395a:	20 e0       	ldi	r18, 0x00	; 0
    395c:	40 e0       	ldi	r20, 0x00	; 0
    395e:	0e 94 b2 02 	call	0x564	; 0x564 <DisplayValue>
 #if FLASHEND > 0x1fff
    lcd_space();
    3962:	0e 94 df 00 	call	0x1be	; 0x1be <lcd_space>

    lcd_data('I');
    3966:	89 e4       	ldi	r24, 0x49	; 73
    3968:	0e 94 d4 00 	call	0x1a8	; 0x1a8 <lcd_data>
    if (_trans->current >= 10000) {
    396c:	e0 91 41 01 	lds	r30, 0x0141
    3970:	f0 91 42 01 	lds	r31, 0x0142
    3974:	86 81       	ldd	r24, Z+6	; 0x06
    3976:	97 81       	ldd	r25, Z+7	; 0x07
    3978:	80 31       	cpi	r24, 0x10	; 16
    397a:	97 42       	sbci	r25, 0x27	; 39
    397c:	70 f0       	brcs	.+28     	; 0x399a <main+0x674>
       lcd_data('e');				// emitter current has 10mA offset
    397e:	85 e6       	ldi	r24, 0x65	; 101
    3980:	0e 94 d4 00 	call	0x1a8	; 0x1a8 <lcd_data>
       _trans->current -= 10000;
    3984:	e0 91 41 01 	lds	r30, 0x0141
    3988:	f0 91 42 01 	lds	r31, 0x0142
    398c:	86 81       	ldd	r24, Z+6	; 0x06
    398e:	97 81       	ldd	r25, Z+7	; 0x07
    3990:	80 51       	subi	r24, 0x10	; 16
    3992:	97 42       	sbci	r25, 0x27	; 39
    3994:	97 83       	std	Z+7, r25	; 0x07
    3996:	86 83       	std	Z+6, r24	; 0x06
    3998:	03 c0       	rjmp	.+6      	; 0x39a0 <main+0x67a>
    } else {
       lcd_data('c');
    399a:	83 e6       	ldi	r24, 0x63	; 99
    399c:	0e 94 d4 00 	call	0x1a8	; 0x1a8 <lcd_data>
    }
    lcd_equal();			// lcd_data('=');
    39a0:	0e 94 f5 00 	call	0x1ea	; 0x1ea <lcd_equal>
    DisplayValue(_trans->current,-6,'A',2);	// display Ic or Ie current
    39a4:	e0 91 41 01 	lds	r30, 0x0141
    39a8:	f0 91 42 01 	lds	r31, 0x0142
    39ac:	66 81       	ldd	r22, Z+6	; 0x06
    39ae:	77 81       	ldd	r23, Z+7	; 0x07
    39b0:	80 e0       	ldi	r24, 0x00	; 0
    39b2:	90 e0       	ldi	r25, 0x00	; 0
    39b4:	02 e0       	ldi	r16, 0x02	; 2
    39b6:	21 e4       	ldi	r18, 0x41	; 65
    39b8:	4a ef       	ldi	r20, 0xFA	; 250
    39ba:	0e 94 b2 02 	call	0x564	; 0x564 <DisplayValue>
 #endif


 #if defined(SHOW_ICE)
    lcd_next_line_wait(0);		// next line, wait 5s and clear line 2
    39be:	80 e0       	ldi	r24, 0x00	; 0
    39c0:	0e 94 41 01 	call	0x282	; 0x282 <lcd_next_line_wait>
    lcd_MEM_string(Ube_str);		//"Ube=" 
    39c4:	82 e9       	ldi	r24, 0x92	; 146
    39c6:	90 e0       	ldi	r25, 0x00	; 0
    39c8:	0e 94 ab 01 	call	0x356	; 0x356 <lcd_fix_string>
    Display_mV(_trans->uBE,3);
    39cc:	e0 91 41 01 	lds	r30, 0x0141
    39d0:	f0 91 42 01 	lds	r31, 0x0142
    39d4:	63 e0       	ldi	r22, 0x03	; 3
    39d6:	84 81       	ldd	r24, Z+4	; 0x04
    39d8:	95 81       	ldd	r25, Z+5	; 0x05
    39da:	0e 94 4d 03 	call	0x69a	; 0x69a <Display_mV>

    if (_trans->ice0 > 0) {
    39de:	e0 91 41 01 	lds	r30, 0x0141
    39e2:	f0 91 42 01 	lds	r31, 0x0142
    39e6:	80 85       	ldd	r24, Z+8	; 0x08
    39e8:	91 85       	ldd	r25, Z+9	; 0x09
    39ea:	89 2b       	or	r24, r25
    39ec:	a1 f0       	breq	.+40     	; 0x3a16 <main+0x6f0>
       lcd_next_line_wait(0);		// next line, wait 5s and clear line 2
    39ee:	80 e0       	ldi	r24, 0x00	; 0
    39f0:	0e 94 41 01 	call	0x282	; 0x282 <lcd_next_line_wait>
       lcd_MEM2_string(ICE0_str);		// "ICE0="
    39f4:	8e e8       	ldi	r24, 0x8E	; 142
    39f6:	90 e0       	ldi	r25, 0x00	; 0
    39f8:	0e 94 9c 01 	call	0x338	; 0x338 <lcd_pgm_string>
       DisplayValue(_trans->ice0,-6,'A',3);
    39fc:	e0 91 41 01 	lds	r30, 0x0141
    3a00:	f0 91 42 01 	lds	r31, 0x0142
    3a04:	60 85       	ldd	r22, Z+8	; 0x08
    3a06:	71 85       	ldd	r23, Z+9	; 0x09
    3a08:	80 e0       	ldi	r24, 0x00	; 0
    3a0a:	90 e0       	ldi	r25, 0x00	; 0
    3a0c:	03 e0       	ldi	r16, 0x03	; 3
    3a0e:	21 e4       	ldi	r18, 0x41	; 65
    3a10:	4a ef       	ldi	r20, 0xFA	; 250
    3a12:	0e 94 b2 02 	call	0x564	; 0x564 <DisplayValue>
    }
    if (_trans->ices > 0) {
    3a16:	e0 91 41 01 	lds	r30, 0x0141
    3a1a:	f0 91 42 01 	lds	r31, 0x0142
    3a1e:	82 85       	ldd	r24, Z+10	; 0x0a
    3a20:	93 85       	ldd	r25, Z+11	; 0x0b
    3a22:	89 2b       	or	r24, r25
    3a24:	09 f4       	brne	.+2      	; 0x3a28 <main+0x702>
    3a26:	b6 c1       	rjmp	.+876    	; 0x3d94 <main+0xa6e>
       lcd_next_line_wait(0);		// next line, wait 5s and clear line 2
    3a28:	80 e0       	ldi	r24, 0x00	; 0
    3a2a:	0e 94 41 01 	call	0x282	; 0x282 <lcd_next_line_wait>
       lcd_MEM2_string(ICEs_str);		// "ICEs="
    3a2e:	88 e8       	ldi	r24, 0x88	; 136
    3a30:	90 e0       	ldi	r25, 0x00	; 0
    3a32:	0e 94 9c 01 	call	0x338	; 0x338 <lcd_pgm_string>
       DisplayValue(_trans->ices,-6,'A',3);
    3a36:	e0 91 41 01 	lds	r30, 0x0141
    3a3a:	f0 91 42 01 	lds	r31, 0x0142
    3a3e:	62 85       	ldd	r22, Z+10	; 0x0a
    3a40:	73 85       	ldd	r23, Z+11	; 0x0b
    3a42:	80 e0       	ldi	r24, 0x00	; 0
    3a44:	90 e0       	ldi	r25, 0x00	; 0
    3a46:	03 e0       	ldi	r16, 0x03	; 3
    3a48:	21 e4       	ldi	r18, 0x41	; 65
    3a4a:	4a ef       	ldi	r20, 0xFA	; 250
    3a4c:	0e 94 b2 02 	call	0x564	; 0x564 <DisplayValue>
    3a50:	a1 c1       	rjmp	.+834    	; 0x3d94 <main+0xa6e>
#endif
    goto tt_end;
    // end (PartFound == PART_TRANSISTOR)

  // ========================================
  } else if (PartFound == PART_FET) {	/* JFET or MOSFET */
    3a52:	84 30       	cpi	r24, 0x04	; 4
    3a54:	09 f0       	breq	.+2      	; 0x3a58 <main+0x732>
    3a56:	d9 c0       	rjmp	.+434    	; 0x3c0a <main+0x8e4>
  // ========================================
    unsigned char fetidx = 0;
#ifdef WITH_GRAPHICS
    lcd_set_cursor(0,TEXT_RIGHT_TO_ICON);	// position behind the icon, Line 1
#endif
    if((PartMode&P_CHANNEL) == P_CHANNEL) {
    3a58:	80 91 17 01 	lds	r24, 0x0117
    3a5c:	84 ff       	sbrs	r24, 4
    3a5e:	0a c0       	rjmp	.+20     	; 0x3a74 <main+0x74e>
       lcd_data('P');			//P-channel
    3a60:	80 e5       	ldi	r24, 0x50	; 80
    3a62:	0e 94 d4 00 	call	0x1a8	; 0x1a8 <lcd_data>
       _trans = &ptrans;
    3a66:	8e e5       	ldi	r24, 0x5E	; 94
    3a68:	91 e0       	ldi	r25, 0x01	; 1
    3a6a:	90 93 42 01 	sts	0x0142, r25
    3a6e:	80 93 41 01 	sts	0x0141, r24
    3a72:	03 c0       	rjmp	.+6      	; 0x3a7a <main+0x754>
       fetidx += 1;
    } else {
       lcd_data('N');			//N-channel
    3a74:	8e e4       	ldi	r24, 0x4E	; 78
    3a76:	0e 94 d4 00 	call	0x1a8	; 0x1a8 <lcd_data>
//       _trans = &ntrans;	is allready selected as default
    }
    lcd_data('-');		// minus is used for JFET, D-MOS, E-MOS ...
    3a7a:	8d e2       	ldi	r24, 0x2D	; 45
    3a7c:	0e 94 d4 00 	call	0x1a8	; 0x1a8 <lcd_data>

    tmp = PartMode&0x0f;
    3a80:	80 91 17 01 	lds	r24, 0x0117
    3a84:	08 2f       	mov	r16, r24
    3a86:	0f 70       	andi	r16, 0x0F	; 15
          if (fetidx == 2)  lcd_update_icon(bmp_n_d_mos);
          if (fetidx == 3)  lcd_update_icon(bmp_p_d_mos);
       }
    } /* end PART_MODE_JFET */
#else	/* normal character display */
    if (tmp == PART_MODE_JFET) {
    3a88:	04 30       	cpi	r16, 0x04	; 4
    3a8a:	19 f4       	brne	.+6      	; 0x3a92 <main+0x76c>
       lcd_MEM_string(jfet_str);	//"-JFET"
    3a8c:	84 eb       	ldi	r24, 0xB4	; 180
    3a8e:	90 e0       	ldi	r25, 0x00	; 0
    3a90:	13 c0       	rjmp	.+38     	; 0x3ab8 <main+0x792>
    } else {		// no JFET
       if ((PartMode&D_MODE) == D_MODE) {
    3a92:	85 ff       	sbrs	r24, 5
    3a94:	02 c0       	rjmp	.+4      	; 0x3a9a <main+0x774>
          lcd_data('D');			// N-D or P-D
    3a96:	84 e4       	ldi	r24, 0x44	; 68
    3a98:	01 c0       	rjmp	.+2      	; 0x3a9c <main+0x776>
          fetidx += 2;
       } else {
          lcd_data('E');			// N-E or P-E
    3a9a:	85 e4       	ldi	r24, 0x45	; 69
    3a9c:	0e 94 d4 00 	call	0x1a8	; 0x1a8 <lcd_data>
       }
       if (tmp == (PART_MODE_IGBT)) {
    3aa0:	03 30       	cpi	r16, 0x03	; 3
    3aa2:	41 f4       	brne	.+16     	; 0x3ab4 <main+0x78e>
          lcd_MEM_string(igbt_str);	//"-IGBT"
    3aa4:	8e ea       	ldi	r24, 0xAE	; 174
    3aa6:	90 e0       	ldi	r25, 0x00	; 0
    3aa8:	0e 94 ab 01 	call	0x356	; 0x356 <lcd_fix_string>
          lcd_MEM_string(mosfet_str);	//"-MOS "
       }
    } /* end PART_MODE_JFET */

    if (tmp == PART_MODE_IGBT) {
       PinLayout('E','G','C'); 		//  SGD= or 123=...
    3aac:	43 e4       	ldi	r20, 0x43	; 67
    3aae:	67 e4       	ldi	r22, 0x47	; 71
    3ab0:	85 e4       	ldi	r24, 0x45	; 69
    3ab2:	07 c0       	rjmp	.+14     	; 0x3ac2 <main+0x79c>
          lcd_data('E');			// N-E or P-E
       }
       if (tmp == (PART_MODE_IGBT)) {
          lcd_MEM_string(igbt_str);	//"-IGBT"
       } else {
          lcd_MEM_string(mosfet_str);	//"-MOS "
    3ab4:	89 eb       	ldi	r24, 0xB9	; 185
    3ab6:	90 e0       	ldi	r25, 0x00	; 0
    3ab8:	0e 94 ab 01 	call	0x356	; 0x356 <lcd_fix_string>
    } /* end PART_MODE_JFET */

    if (tmp == PART_MODE_IGBT) {
       PinLayout('E','G','C'); 		//  SGD= or 123=...
    } else {
       PinLayout('S','G','D'); 		//  SGD= or 123=...
    3abc:	44 e4       	ldi	r20, 0x44	; 68
    3abe:	67 e4       	ldi	r22, 0x47	; 71
    3ac0:	83 e5       	ldi	r24, 0x53	; 83
    3ac2:	0e 94 12 02 	call	0x424	; 0x424 <PinLayout>
    }
#endif  /* WITH_GRAPHICS */

    an_cat = 0;
    if(NumOfDiodes == 1) {
    3ac6:	90 91 16 01 	lds	r25, 0x0116
    3aca:	80 91 17 01 	lds	r24, 0x0117
    3ace:	91 30       	cpi	r25, 0x01	; 1
    3ad0:	99 f4       	brne	.+38     	; 0x3af8 <main+0x7d2>
       // Layout with SGD= style
       an_cat = (PartMode&P_CHANNEL);	/* N or P MOS */
 #endif
#else /* EBC_STYLE not defined */
       // layout with 123= style
       an_cat = (((PartMode&P_CHANNEL) && (ptrans.c < ptrans.e)) || ((!(PartMode&P_CHANNEL)) && (ntrans.c > ntrans.e)));
    3ad2:	84 ff       	sbrs	r24, 4
    3ad4:	08 c0       	rjmp	.+16     	; 0x3ae6 <main+0x7c0>
    3ad6:	20 91 6b 01 	lds	r18, 0x016B
    3ada:	90 91 6c 01 	lds	r25, 0x016C
    3ade:	29 17       	cp	r18, r25
    3ae0:	40 f0       	brcs	.+16     	; 0x3af2 <main+0x7cc>
    3ae2:	90 e0       	ldi	r25, 0x00	; 0
    3ae4:	07 c0       	rjmp	.+14     	; 0x3af4 <main+0x7ce>
    3ae6:	20 91 51 01 	lds	r18, 0x0151
    3aea:	90 91 52 01 	lds	r25, 0x0152
    3aee:	92 17       	cp	r25, r18
    3af0:	c0 f7       	brcc	.-16     	; 0x3ae2 <main+0x7bc>
    3af2:	91 e0       	ldi	r25, 0x01	; 1
    3af4:	79 2e       	mov	r7, r25
    3af6:	01 c0       	rjmp	.+2      	; 0x3afa <main+0x7d4>
    } else {
       PinLayout('S','G','D'); 		//  SGD= or 123=...
    }
#endif  /* WITH_GRAPHICS */

    an_cat = 0;
    3af8:	71 2c       	mov	r7, r1
       DisplayValue(_trans->current,-6,'A',2);
       lcd_MEM_string(Vgs_str);		// "@Vg="
       Display_mV(_trans->gthvoltage,2);	//Gate-threshold voltage
    }
#else	/* character display */
    if((PartMode&D_MODE) != D_MODE) {	//enhancement-MOSFET
    3afa:	85 fd       	sbrc	r24, 5
    3afc:	0f c0       	rjmp	.+30     	; 0x3b1c <main+0x7f6>
	//Gate capacity
       lcd_line2();		// line 2
    3afe:	0e 94 06 01 	call	0x20c	; 0x20c <lcd_line2>
       ReadCapacity(_trans->b,_trans->e);	//measure capacity
    3b02:	e0 91 41 01 	lds	r30, 0x0141
    3b06:	f0 91 42 01 	lds	r31, 0x0142
    3b0a:	66 85       	ldd	r22, Z+14	; 0x0e
    3b0c:	84 85       	ldd	r24, Z+12	; 0x0c
    3b0e:	0e 94 dc 10 	call	0x21b8	; 0x21b8 <ReadCapacity>
       lcd_show_Cg();	// show Cg=xxxpF
    3b12:	0e 94 e4 01 	call	0x3c8	; 0x3c8 <lcd_show_Cg>
       lcd_MEM_string(vt_str);		// " Vt="
    3b16:	89 e8       	ldi	r24, 0x89	; 137
    3b18:	90 e0       	ldi	r25, 0x00	; 0
    3b1a:	28 c0       	rjmp	.+80     	; 0x3b6c <main+0x846>
       lcd_MEM_string(RDS_str);		// "RDS=
       DisplayValue(_trans->uBE,-1,LCD_CHAR_OMEGA,2);	// Drain-Source resistance
  #endif
    } else {
 #if FLASHEND > 0x1fff
       if ((PartMode&0x0f)  != PART_MODE_JFET) {     /* kein JFET */
    3b1c:	8f 70       	andi	r24, 0x0F	; 15
    3b1e:	84 30       	cpi	r24, 0x04	; 4
    3b20:	69 f0       	breq	.+26     	; 0x3b3c <main+0x816>
          lcd_next_line(0);		// line 2
    3b22:	80 e0       	ldi	r24, 0x00	; 0
    3b24:	0e 94 2c 01 	call	0x258	; 0x258 <lcd_next_line>
          ReadCapacity(_trans->b,_trans->e);	//measure capacity
    3b28:	e0 91 41 01 	lds	r30, 0x0141
    3b2c:	f0 91 42 01 	lds	r31, 0x0142
    3b30:	66 85       	ldd	r22, Z+14	; 0x0e
    3b32:	84 85       	ldd	r24, Z+12	; 0x0c
    3b34:	0e 94 dc 10 	call	0x21b8	; 0x21b8 <ReadCapacity>
          lcd_show_Cg();	// show Cg=xxxpF
    3b38:	0e 94 e4 01 	call	0x3c8	; 0x3c8 <lcd_show_Cg>
       }
       lcd_next_line_wait(0);		// line 2 or 3, if possible & wait and clear last line
    3b3c:	80 e0       	ldi	r24, 0x00	; 0
    3b3e:	0e 94 41 01 	call	0x282	; 0x282 <lcd_next_line_wait>
 #endif
       lcd_data('I');			// show I=xmA@Vg=y.yV at line 2 or 3
    3b42:	89 e4       	ldi	r24, 0x49	; 73
    3b44:	0e 94 d4 00 	call	0x1a8	; 0x1a8 <lcd_data>
 #if (LCD_LINE_LENGTH > 17)
       lcd_data('d');
 #endif
       lcd_equal();			// lcd_data('=');
    3b48:	0e 94 f5 00 	call	0x1ea	; 0x1ea <lcd_equal>
       DisplayValue(_trans->current,-6,'A',2);
    3b4c:	e0 91 41 01 	lds	r30, 0x0141
    3b50:	f0 91 42 01 	lds	r31, 0x0142
    3b54:	86 81       	ldd	r24, Z+6	; 0x06
    3b56:	97 81       	ldd	r25, Z+7	; 0x07
    3b58:	bc 01       	movw	r22, r24
    3b5a:	80 e0       	ldi	r24, 0x00	; 0
    3b5c:	90 e0       	ldi	r25, 0x00	; 0
    3b5e:	02 e0       	ldi	r16, 0x02	; 2
    3b60:	21 e4       	ldi	r18, 0x41	; 65
    3b62:	4a ef       	ldi	r20, 0xFA	; 250
    3b64:	0e 94 b2 02 	call	0x564	; 0x564 <DisplayValue>
       lcd_MEM_string(Vgs_str);		// "@Vg="
    3b68:	84 e8       	ldi	r24, 0x84	; 132
    3b6a:	90 e0       	ldi	r25, 0x00	; 0
    3b6c:	0e 94 ab 01 	call	0x356	; 0x356 <lcd_fix_string>
       Display_mV(_trans->gthvoltage,2);	//Gate-threshold voltage
    3b70:	e0 91 41 01 	lds	r30, 0x0141
    3b74:	f0 91 42 01 	lds	r31, 0x0142
    3b78:	62 e0       	ldi	r22, 0x02	; 2
    3b7a:	82 85       	ldd	r24, Z+10	; 0x0a
    3b7c:	93 85       	ldd	r25, Z+11	; 0x0b
    3b7e:	0e 94 4d 03 	call	0x69a	; 0x69a <Display_mV>
    }
#endif  /* WITH_GRAPHICS or without */

#if FLASHEND > 0x1fff
    if(NumOfDiodes == 1) {
    3b82:	80 91 16 01 	lds	r24, 0x0116
    3b86:	81 30       	cpi	r24, 0x01	; 1
    3b88:	09 f0       	breq	.+2      	; 0x3b8c <main+0x866>
    3b8a:	04 c1       	rjmp	.+520    	; 0x3d94 <main+0xa6e>
       // there is enough space for long form of presenting protection diode
 #if LCD_LINES > 6
       lcd_next_line(0);		// line 5 , if possible
 #endif
       lcd_next_line_wait(0);		// line 4, if possible & wait 5s and clear last line 
    3b8c:	80 e0       	ldi	r24, 0x00	; 0
    3b8e:	0e 94 41 01 	call	0x282	; 0x282 <lcd_next_line_wait>
       if (an_cat) {
    3b92:	77 20       	and	r7, r7
    3b94:	59 f0       	breq	.+22     	; 0x3bac <main+0x886>
          lcd_testpin(diodes.Anode[0]);
    3b96:	80 91 8a 01 	lds	r24, 0x018A
    3b9a:	0e 94 db 00 	call	0x1b6	; 0x1b6 <lcd_testpin>
          lcd_MEM_string(AnKat);	//"->|-"
    3b9e:	8a e5       	ldi	r24, 0x5A	; 90
    3ba0:	90 e0       	ldi	r25, 0x00	; 0
    3ba2:	0e 94 ab 01 	call	0x356	; 0x356 <lcd_fix_string>
          lcd_testpin(diodes.Cathode[0]);
    3ba6:	80 91 90 01 	lds	r24, 0x0190
    3baa:	0a c0       	rjmp	.+20     	; 0x3bc0 <main+0x89a>
       } else {
          lcd_testpin(diodes.Cathode[0]);
    3bac:	80 91 90 01 	lds	r24, 0x0190
    3bb0:	0e 94 db 00 	call	0x1b6	; 0x1b6 <lcd_testpin>
          lcd_MEM_string(KatAn);	//"-|<-"
    3bb4:	86 e5       	ldi	r24, 0x56	; 86
    3bb6:	90 e0       	ldi	r25, 0x00	; 0
    3bb8:	0e 94 ab 01 	call	0x356	; 0x356 <lcd_fix_string>
          lcd_testpin(diodes.Anode[0]);
    3bbc:	80 91 8a 01 	lds	r24, 0x018A
    3bc0:	0e 94 db 00 	call	0x1b6	; 0x1b6 <lcd_testpin>
       }
       lcd_space();
    3bc4:	0e 94 df 00 	call	0x1be	; 0x1be <lcd_space>
       lcd_MEM_string(Uf_str);			//"Uf="
    3bc8:	8e e8       	ldi	r24, 0x8E	; 142
    3bca:	90 e0       	ldi	r25, 0x00	; 0
    3bcc:	0e 94 ab 01 	call	0x356	; 0x356 <lcd_fix_string>
       mVAusgabe(0);
    3bd0:	80 e0       	ldi	r24, 0x00	; 0
    3bd2:	0e 94 6b 02 	call	0x4d6	; 0x4d6 <mVAusgabe>
    3bd6:	de c0       	rjmp	.+444    	; 0x3d94 <main+0xa6e>
  goto start;	// POWER_OFF not selected, repeat measurement
//  return 0;

end3:
  // the diode  is already shown on the LCD
  if (ResistorsFound == 0) goto tt_end;
    3bd8:	80 91 70 01 	lds	r24, 0x0170
    3bdc:	88 23       	and	r24, r24
    3bde:	09 f4       	brne	.+2      	; 0x3be2 <main+0x8bc>
    3be0:	d9 c0       	rjmp	.+434    	; 0x3d94 <main+0xa6e>
  ADC_DDR = (1<<TPREF) | TXD_MSK; 	// switch pin with reference to GND, release relay
    3be2:	f0 e1       	ldi	r31, 0x10	; 16
    3be4:	f7 b9       	out	0x07, r31	; 7
  // there is one resistor or more detected
#if (LCD_LINES > 3)
  ADC_DDR =  TXD_MSK; 	// switch pin with reference to input, activate relay
  lcd_line3();
#else
  wait_for_key_ms(display_time);
    3be6:	80 91 10 01 	lds	r24, 0x0110
    3bea:	90 91 11 01 	lds	r25, 0x0111
    3bee:	0e 94 12 04 	call	0x824	; 0x824 <wait_for_key_ms>
  ADC_DDR =  TXD_MSK; 	// switch pin with reference to input, activate relay
    3bf2:	17 b8       	out	0x07, r1	; 7
  lcd_clear();
    3bf4:	0e 94 4d 01 	call	0x29a	; 0x29a <lcd_clear>
//#if FLASHEND > 0x1fff
  lcd_data('0'+NumOfDiodes);
    3bf8:	80 91 16 01 	lds	r24, 0x0116
    3bfc:	80 5d       	subi	r24, 0xD0	; 208
    3bfe:	0e 94 d4 00 	call	0x1a8	; 0x1a8 <lcd_data>
  lcd_MEM_string(Dioden);	//"Diodes "
    3c02:	81 e5       	ldi	r24, 0x51	; 81
    3c04:	90 e0       	ldi	r25, 0x00	; 0
    3c06:	0e 94 ab 01 	call	0x356	; 0x356 <lcd_fix_string>
    goto tt_end;
  }  /* end (PartFound == PART_FET) */

//   if(PartFound == PART_RESISTOR) 
resistor_out:
   if(ResistorsFound != 0) {
    3c0a:	30 91 70 01 	lds	r19, 0x0170
    3c0e:	33 23       	and	r19, r19
    3c10:	09 f4       	brne	.+2      	; 0x3c14 <main+0x8ee>
    3c12:	af c0       	rjmp	.+350    	; 0x3d72 <main+0xa4c>
    if (ResistorsFound == 1) { // single resistor
    3c14:	31 30       	cpi	r19, 0x01	; 1
    3c16:	39 f4       	brne	.+14     	; 0x3c26 <main+0x900>
       rpins.pw = Rnum2pins(ResistorList[0]);	// get pin numbers for resistor 1
    3c18:	80 91 5b 01 	lds	r24, 0x015B
    3c1c:	0e 94 39 02 	call	0x472	; 0x472 <Rnum2pins>
    3c20:	09 2f       	mov	r16, r25
    3c22:	99 2e       	mov	r9, r25
    3c24:	5a c0       	rjmp	.+180    	; 0x3cda <main+0x9b4>
//       if (ResistorList[0] == 2) x = TP2;
       lcd_testpin(rpins.pb[0]);  	//Pin-number 1
       lcd_MEM_string(Resistor_str);	// -[=]-
       lcd_testpin(rpins.pb[1]);	//Pin-number 2
    } else { // R-Max suchen
       ii = ResistorList[0];	// first resistor in the list with number 0,1,2
    3c26:	70 90 5b 01 	lds	r7, 0x015B
       if (ResistorVal[ResistorList[1]] > ResistorVal[ii])
    3c2a:	20 91 5c 01 	lds	r18, 0x015C
    3c2e:	94 e0       	ldi	r25, 0x04	; 4
    3c30:	29 9f       	mul	r18, r25
    3c32:	d0 01       	movw	r26, r0
    3c34:	11 24       	eor	r1, r1
    3c36:	ae 55       	subi	r26, 0x5E	; 94
    3c38:	be 4f       	sbci	r27, 0xFE	; 254
    3c3a:	84 e0       	ldi	r24, 0x04	; 4
    3c3c:	78 9e       	mul	r7, r24
    3c3e:	f0 01       	movw	r30, r0
    3c40:	11 24       	eor	r1, r1
    3c42:	ee 55       	subi	r30, 0x5E	; 94
    3c44:	fe 4f       	sbci	r31, 0xFE	; 254
    3c46:	4d 91       	ld	r20, X+
    3c48:	5d 91       	ld	r21, X+
    3c4a:	6d 91       	ld	r22, X+
    3c4c:	7c 91       	ld	r23, X
    3c4e:	80 81       	ld	r24, Z
    3c50:	91 81       	ldd	r25, Z+1	; 0x01
    3c52:	a2 81       	ldd	r26, Z+2	; 0x02
    3c54:	b3 81       	ldd	r27, Z+3	; 0x03
    3c56:	84 17       	cp	r24, r20
    3c58:	95 07       	cpc	r25, r21
    3c5a:	a6 07       	cpc	r26, r22
    3c5c:	b7 07       	cpc	r27, r23
    3c5e:	10 f0       	brcs	.+4      	; 0x3c64 <main+0x93e>
//       if (ResistorList[0] == 2) x = TP2;
       lcd_testpin(rpins.pb[0]);  	//Pin-number 1
       lcd_MEM_string(Resistor_str);	// -[=]-
       lcd_testpin(rpins.pb[1]);	//Pin-number 2
    } else { // R-Max suchen
       ii = ResistorList[0];	// first resistor in the list with number 0,1,2
    3c60:	47 2d       	mov	r20, r7
    3c62:	01 c0       	rjmp	.+2      	; 0x3c66 <main+0x940>
       if (ResistorVal[ResistorList[1]] > ResistorVal[ii])
          ii = ResistorList[1]; // second resistor in the list with number 0,1,2
    3c64:	42 2f       	mov	r20, r18
       if (ResistorsFound == 2) {
    3c66:	32 30       	cpi	r19, 0x02	; 2
    3c68:	21 f4       	brne	.+8      	; 0x3c72 <main+0x94c>
    3c6a:	27 0d       	add	r18, r7
          ii = (3 - ResistorList[0] - ResistorList[1]);
    3c6c:	13 e0       	ldi	r17, 0x03	; 3
    3c6e:	12 1b       	sub	r17, r18
    3c70:	1d c0       	rjmp	.+58     	; 0x3cac <main+0x986>
       } else {
          if (ResistorVal[ResistorList[2]] > ResistorVal[ii]) {
    3c72:	10 91 5d 01 	lds	r17, 0x015D
    3c76:	94 e0       	ldi	r25, 0x04	; 4
    3c78:	19 9f       	mul	r17, r25
    3c7a:	d0 01       	movw	r26, r0
    3c7c:	11 24       	eor	r1, r1
    3c7e:	ae 55       	subi	r26, 0x5E	; 94
    3c80:	be 4f       	sbci	r27, 0xFE	; 254
    3c82:	24 e0       	ldi	r18, 0x04	; 4
    3c84:	42 9f       	mul	r20, r18
    3c86:	f0 01       	movw	r30, r0
    3c88:	11 24       	eor	r1, r1
    3c8a:	ee 55       	subi	r30, 0x5E	; 94
    3c8c:	fe 4f       	sbci	r31, 0xFE	; 254
    3c8e:	8d 91       	ld	r24, X+
    3c90:	9d 91       	ld	r25, X+
    3c92:	0d 90       	ld	r0, X+
    3c94:	bc 91       	ld	r27, X
    3c96:	a0 2d       	mov	r26, r0
    3c98:	40 80       	ld	r4, Z
    3c9a:	51 80       	ldd	r5, Z+1	; 0x01
    3c9c:	62 80       	ldd	r6, Z+2	; 0x02
    3c9e:	73 80       	ldd	r7, Z+3	; 0x03
    3ca0:	48 16       	cp	r4, r24
    3ca2:	59 06       	cpc	r5, r25
    3ca4:	6a 06       	cpc	r6, r26
    3ca6:	7b 06       	cpc	r7, r27
    3ca8:	08 f0       	brcs	.+2      	; 0x3cac <main+0x986>
    3caa:	14 2f       	mov	r17, r20
       // ResistorVal[0] TP1:TP2, [1] TP1:TP3, [2] TP2:TP3
       x = TP1;
       y = TP3;
       z = TP2;
   
       if (ii == 1) {	/* TP1:TP3 is maximum */
    3cac:	11 30       	cpi	r17, 0x01	; 1
    3cae:	29 f0       	breq	.+10     	; 0x3cba <main+0x994>
          x = TP1;
          y = TP2;
          z = TP3;
       }
       if (ii == 2) {	/* TP2:TP3 is maximum */
    3cb0:	12 30       	cpi	r17, 0x02	; 2
    3cb2:	39 f0       	breq	.+14     	; 0x3cc2 <main+0x99c>
          }
       }
       // ResistorVal[0] TP1:TP2, [1] TP1:TP3, [2] TP2:TP3
       x = TP1;
       y = TP3;
       z = TP2;
    3cb4:	01 e0       	ldi	r16, 0x01	; 1
             ii = ResistorList[2];
          }
       }
       // ResistorVal[0] TP1:TP2, [1] TP1:TP3, [2] TP2:TP3
       x = TP1;
       y = TP3;
    3cb6:	22 e0       	ldi	r18, 0x02	; 2
    3cb8:	02 c0       	rjmp	.+4      	; 0x3cbe <main+0x998>
       z = TP2;
   
       if (ii == 1) {	/* TP1:TP3 is maximum */
          x = TP1;
          y = TP2;
          z = TP3;
    3cba:	02 e0       	ldi	r16, 0x02	; 2
       y = TP3;
       z = TP2;
   
       if (ii == 1) {	/* TP1:TP3 is maximum */
          x = TP1;
          y = TP2;
    3cbc:	21 e0       	ldi	r18, 0x01	; 1
    3cbe:	80 e0       	ldi	r24, 0x00	; 0
    3cc0:	03 c0       	rjmp	.+6      	; 0x3cc8 <main+0x9a2>
          z = TP3;
       }
       if (ii == 2) {	/* TP2:TP3 is maximum */
          x = TP2;
          y = TP1;
          z = TP3;
    3cc2:	02 e0       	ldi	r16, 0x02	; 2
          y = TP2;
          z = TP3;
       }
       if (ii == 2) {	/* TP2:TP3 is maximum */
          x = TP2;
          y = TP1;
    3cc4:	20 e0       	ldi	r18, 0x00	; 0
          x = TP1;
          y = TP2;
          z = TP3;
       }
       if (ii == 2) {	/* TP2:TP3 is maximum */
          x = TP2;
    3cc6:	81 e0       	ldi	r24, 0x01	; 1
          y = TP1;
          z = TP3;
       }
       lcd_testpin(x);  	//Pin-number 1
    3cc8:	29 83       	std	Y+1, r18	; 0x01
    3cca:	0e 94 db 00 	call	0x1b6	; 0x1b6 <lcd_testpin>
       lcd_MEM_string(Resistor_str);    // -[=]-
    3cce:	8c e4       	ldi	r24, 0x4C	; 76
    3cd0:	90 e0       	ldi	r25, 0x00	; 0
    3cd2:	0e 94 ab 01 	call	0x356	; 0x356 <lcd_fix_string>
       lcd_testpin(y);		//Pin-number 2
    3cd6:	29 81       	ldd	r18, Y+1	; 0x01
    3cd8:	82 2f       	mov	r24, r18
    3cda:	0e 94 db 00 	call	0x1b6	; 0x1b6 <lcd_testpin>
       lcd_MEM_string(Resistor_str);    // -[=]-
    3cde:	8c e4       	ldi	r24, 0x4C	; 76
    3ce0:	90 e0       	ldi	r25, 0x00	; 0
    3ce2:	0e 94 ab 01 	call	0x356	; 0x356 <lcd_fix_string>
       lcd_testpin(z);		//Pin-number 3
    3ce6:	80 2f       	mov	r24, r16
    3ce8:	0e 94 db 00 	call	0x1b6	; 0x1b6 <lcd_testpin>
       lcd_line4(); //4. row 
    } else {
       lcd_line2(); //2. row 
    }
#else
    lcd_line2(); //2. row 
    3cec:	0e 94 06 01 	call	0x20c	; 0x20c <lcd_line2>
#endif
    if (ResistorsFound == 1) {
    3cf0:	80 91 70 01 	lds	r24, 0x0170
    3cf4:	81 30       	cpi	r24, 0x01	; 1
    3cf6:	49 f5       	brne	.+82     	; 0x3d4a <main+0xa24>
#if FLASHEND > 0x1fff
       ReadInductance();		// measure inductance, possible only with single R<2.1k
    3cf8:	0e 94 d0 14 	call	0x29a0	; 0x29a0 <ReadInductance>
       RvalOut(ResistorList[0]);	// RvalOut starts GetESR, if resistance is low and no Inductance
    3cfc:	80 91 5b 01 	lds	r24, 0x015B
    3d00:	0e 94 43 02 	call	0x486	; 0x486 <RvalOut>
       if (inductor_lpre != 0) {
    3d04:	80 91 01 01 	lds	r24, 0x0101
    3d08:	88 23       	and	r24, r24
    3d0a:	09 f4       	brne	.+2      	; 0x3d0e <main+0x9e8>
    3d0c:	43 c0       	rjmp	.+134    	; 0x3d94 <main+0xa6e>
	  // resistor have also Inductance
          lcd_MEM_string(Lis_str);	// "L="
    3d0e:	84 e6       	ldi	r24, 0x64	; 100
    3d10:	90 e0       	ldi	r25, 0x00	; 0
    3d12:	0e 94 ab 01 	call	0x356	; 0x356 <lcd_fix_string>
          DisplayValue(inductor_lx,inductor_lpre,'H',3);	// output inductance
    3d16:	60 91 0a 01 	lds	r22, 0x010A
    3d1a:	70 91 0b 01 	lds	r23, 0x010B
    3d1e:	80 91 0c 01 	lds	r24, 0x010C
    3d22:	90 91 0d 01 	lds	r25, 0x010D
    3d26:	03 e0       	ldi	r16, 0x03	; 3
    3d28:	28 e4       	ldi	r18, 0x48	; 72
    3d2a:	40 91 01 01 	lds	r20, 0x0101
    3d2e:	0e 94 b2 02 	call	0x564	; 0x564 <DisplayValue>
	  lcd_set_cursor(0,5);
    3d32:	65 e0       	ldi	r22, 0x05	; 5
    3d34:	80 e0       	ldi	r24, 0x00	; 0
    3d36:	0e 94 1b 01 	call	0x236	; 0x236 <lcd_set_cursor>
          lcd_MEM_string(Inductor_str);		// -ww-
    3d3a:	87 e4       	ldi	r24, 0x47	; 71
    3d3c:	90 e0       	ldi	r25, 0x00	; 0
    3d3e:	0e 94 ab 01 	call	0x356	; 0x356 <lcd_fix_string>
          lcd_testpin(rpins.pb[1]);		//Pin-number 2
    3d42:	89 2d       	mov	r24, r9
    3d44:	0e 94 db 00 	call	0x1b6	; 0x1b6 <lcd_testpin>
    3d48:	25 c0       	rjmp	.+74     	; 0x3d94 <main+0xa6e>
       }  /* end if inductor_lpre != 0 */
#else	/* FLASHEND <= 0x1fff */
       RvalOut(ResistorList[0]);	// RvalOut starts GetESR, if resistance < 10 Ohm
#endif
    } else { // output resistor values in right order
       if (ii == 0) { /* resistor 0 has maximum */
    3d4a:	11 11       	cpse	r17, r1
    3d4c:	02 c0       	rjmp	.+4      	; 0x3d52 <main+0xa2c>
          RvalOut(1);
    3d4e:	81 e0       	ldi	r24, 0x01	; 1
    3d50:	03 c0       	rjmp	.+6      	; 0x3d58 <main+0xa32>
          RvalOut(2);
       }
       if (ii == 1) { /* resistor 1 has maximum */
    3d52:	11 30       	cpi	r17, 0x01	; 1
    3d54:	29 f4       	brne	.+10     	; 0x3d60 <main+0xa3a>
          RvalOut(0);
    3d56:	80 e0       	ldi	r24, 0x00	; 0
    3d58:	0e 94 43 02 	call	0x486	; 0x486 <RvalOut>
          RvalOut(2);
    3d5c:	82 e0       	ldi	r24, 0x02	; 2
    3d5e:	06 c0       	rjmp	.+12     	; 0x3d6c <main+0xa46>
       }
       if (ii == 2) { /* resistor 2 has maximum */
    3d60:	12 30       	cpi	r17, 0x02	; 2
    3d62:	c1 f4       	brne	.+48     	; 0x3d94 <main+0xa6e>
          RvalOut(0);
    3d64:	80 e0       	ldi	r24, 0x00	; 0
    3d66:	0e 94 43 02 	call	0x486	; 0x486 <RvalOut>
          RvalOut(1);
    3d6a:	81 e0       	ldi	r24, 0x01	; 1
    3d6c:	0e 94 43 02 	call	0x486	; 0x486 <RvalOut>
    3d70:	11 c0       	rjmp	.+34     	; 0x3d94 <main+0xa6e>
    }
    goto tt_end;

  } // end (PartFound == PART_RESISTOR)

  lcd_MEM_string(TestFailed1); 	//"Kein,unbek. oder"
    3d72:	81 e1       	ldi	r24, 0x11	; 17
    3d74:	91 e0       	ldi	r25, 0x01	; 1
    3d76:	0e 94 ab 01 	call	0x356	; 0x356 <lcd_fix_string>
  lcd_line2(); //2. row 
    3d7a:	0e 94 06 01 	call	0x20c	; 0x20c <lcd_line2>
#if defined(LANG_ITALIAN)               //italiano
  lcd_MEM_string(Bauteil);		//"campione"
  lcd_space();
  lcd_MEM_string(TestFailed2); 		//"guasto "
#else
  lcd_MEM_string(TestFailed2); 		//"defektes "
    3d7e:	8e e3       	ldi	r24, 0x3E	; 62
    3d80:	91 e0       	ldi	r25, 0x01	; 1
    3d82:	0e 94 ab 01 	call	0x356	; 0x356 <lcd_fix_string>
  lcd_MEM_string(Bauteil);		//"Bauteil"
    3d86:	89 e3       	ldi	r24, 0x39	; 57
    3d88:	91 e0       	ldi	r25, 0x01	; 1
    3d8a:	0e 94 ab 01 	call	0x356	; 0x356 <lcd_fix_string>
#endif
#if POWER_OFF+0 > 1
  empty_count++;
  mess_count = 0;
#endif
  max_time = SHORT_WAIT_TIME;		// use allways the short wait time
    3d8e:	80 e4       	ldi	r24, 0x40	; 64
    3d90:	9f e1       	ldi	r25, 0x1F	; 31
    3d92:	04 c0       	rjmp	.+8      	; 0x3d9c <main+0xa76>
 tt_end:
#if POWER_OFF+0 > 1
  empty_count = 0;		// reset counter, if part is found
  mess_count++;			// count measurements
#endif
  max_time = display_time;	// full specified wait time
    3d94:	80 91 10 01 	lds	r24, 0x0110
    3d98:	90 91 11 01 	lds	r25, 0x0111

 end2:
  ADC_DDR = (1<<TPREF) | TXD_MSK; 	// switch pin with reference to GND, release relay
    3d9c:	e0 e1       	ldi	r30, 0x10	; 16
    3d9e:	e7 b9       	out	0x07, r30	; 7
  lcd_refresh();			// write the pixels to display, ST7920 only
  while(!(RST_PIN_REG & (1<<RST_PIN)));	//wait ,until button is released
    3da0:	4f 9b       	sbis	0x09, 7	; 9
    3da2:	fe cf       	rjmp	.-4      	; 0x3da0 <main+0xa7a>
#ifdef WITH_ROTARY_SWITCH
wait_again:
#endif
  ii = wait_for_key_ms(max_time);
    3da4:	0e 94 12 04 	call	0x824	; 0x824 <wait_for_key_ms>
    3da8:	18 2f       	mov	r17, r24
     // menu selected by long key press or rotary switch
     function_menu();		// start the function menu
     goto start;
  }
#endif
  if (ii != 0 ) goto start;	// key is pressed again, repeat measurement
    3daa:	81 11       	cpse	r24, r1
    3dac:	35 cb       	rjmp	.-2454   	; 0x3418 <main+0xf2>
 #endif
//  MCUSR = 0;
 #if ((LCD_ST_TYPE == 7565) || (LCD_ST_TYPE == 1306))
  lcd_powersave();			// set graphical display to power save mode
 #endif
  ON_PORT &= ~(1<<ON_PIN);		//switch off power
    3dae:	5e 98       	cbi	0x0b, 6	; 11
  wait_for_key_ms(0); //never ending loop 
    3db0:	80 e0       	ldi	r24, 0x00	; 0
    3db2:	90 e0       	ldi	r25, 0x00	; 0
    3db4:	0e 94 12 04 	call	0x824	; 0x824 <wait_for_key_ms>
#else
  // look, if the tester is uncalibrated (C-source will be included directly)
  lcd_cursor_off();
  #include "HelpCalibration.c"
#endif
  goto start;	// POWER_OFF not selected, repeat measurement
    3db8:	2f cb       	rjmp	.-2466   	; 0x3418 <main+0xf2>
	//  ADC_DDR = TXD_MSK;
	  if(tmp) { 
	     // check if  Watchdog-Event 
	     // this happens, if the Watchdog is not reset for 2s
	     // can happen, if any loop in the Program doen't finish.
	     lcd_line1();
    3dba:	0e 94 00 01 	call	0x200	; 0x200 <lcd_line1>
	     lcd_MEM_string(TestTimedOut);	//Output Timeout
    3dbe:	8c ef       	ldi	r24, 0xFC	; 252
    3dc0:	90 e0       	ldi	r25, 0x00	; 0
    3dc2:	0e 94 ab 01 	call	0x356	; 0x356 <lcd_fix_string>
	     wait_about3s();				//wait for 3 s
    3dc6:	8b ec       	ldi	r24, 0xCB	; 203
    3dc8:	0e 94 7e 03 	call	0x6fc	; 0x6fc <sleep_5ms>
	#if ((LCD_ST_TYPE == 7565) || (LCD_ST_TYPE == 1306))
	     lcd_powersave();			// set graphical display to power save mode
	#endif
	     ON_PORT &= ~(1<<ON_PIN);			//shut off!
    3dcc:	5e 98       	cbi	0x0b, 6	; 11
  lcd_MEM_string(Dioden);	//"Diodes "
//#endif
#endif
  goto resistor_out;

}   // end main
    3dce:	80 e0       	ldi	r24, 0x00	; 0
    3dd0:	90 e0       	ldi	r25, 0x00	; 0
    3dd2:	21 96       	adiw	r28, 0x01	; 1
    3dd4:	e2 e1       	ldi	r30, 0x12	; 18
    3dd6:	0c 94 8f 1f 	jmp	0x3f1e	; 0x3f1e <__epilogue_restores__>

00003dda <__umulhisi3>:
    3dda:	a2 9f       	mul	r26, r18
    3ddc:	b0 01       	movw	r22, r0
    3dde:	b3 9f       	mul	r27, r19
    3de0:	c0 01       	movw	r24, r0
    3de2:	a3 9f       	mul	r26, r19
    3de4:	70 0d       	add	r23, r0
    3de6:	81 1d       	adc	r24, r1
    3de8:	11 24       	eor	r1, r1
    3dea:	91 1d       	adc	r25, r1
    3dec:	b2 9f       	mul	r27, r18
    3dee:	70 0d       	add	r23, r0
    3df0:	81 1d       	adc	r24, r1
    3df2:	11 24       	eor	r1, r1
    3df4:	91 1d       	adc	r25, r1
    3df6:	08 95       	ret

00003df8 <__usmulhisi3>:
    3df8:	0e 94 ed 1e 	call	0x3dda	; 0x3dda <__umulhisi3>

00003dfc <__usmulhisi3_tail>:
    3dfc:	b7 ff       	sbrs	r27, 7
    3dfe:	08 95       	ret
    3e00:	82 1b       	sub	r24, r18
    3e02:	93 0b       	sbc	r25, r19
    3e04:	08 95       	ret

00003e06 <__muluhisi3>:
    3e06:	0e 94 ed 1e 	call	0x3dda	; 0x3dda <__umulhisi3>
    3e0a:	a5 9f       	mul	r26, r21
    3e0c:	90 0d       	add	r25, r0
    3e0e:	b4 9f       	mul	r27, r20
    3e10:	90 0d       	add	r25, r0
    3e12:	a4 9f       	mul	r26, r20
    3e14:	80 0d       	add	r24, r0
    3e16:	91 1d       	adc	r25, r1
    3e18:	11 24       	eor	r1, r1
    3e1a:	08 95       	ret

00003e1c <__mulsi3>:
    3e1c:	db 01       	movw	r26, r22
    3e1e:	8f 93       	push	r24
    3e20:	9f 93       	push	r25
    3e22:	0e 94 03 1f 	call	0x3e06	; 0x3e06 <__muluhisi3>
    3e26:	bf 91       	pop	r27
    3e28:	af 91       	pop	r26
    3e2a:	a2 9f       	mul	r26, r18
    3e2c:	80 0d       	add	r24, r0
    3e2e:	91 1d       	adc	r25, r1
    3e30:	a3 9f       	mul	r26, r19
    3e32:	90 0d       	add	r25, r0
    3e34:	b2 9f       	mul	r27, r18
    3e36:	90 0d       	add	r25, r0
    3e38:	11 24       	eor	r1, r1
    3e3a:	08 95       	ret

00003e3c <__udivmodhi4>:
    3e3c:	aa 1b       	sub	r26, r26
    3e3e:	bb 1b       	sub	r27, r27
    3e40:	51 e1       	ldi	r21, 0x11	; 17
    3e42:	07 c0       	rjmp	.+14     	; 0x3e52 <__udivmodhi4_ep>

00003e44 <__udivmodhi4_loop>:
    3e44:	aa 1f       	adc	r26, r26
    3e46:	bb 1f       	adc	r27, r27
    3e48:	a6 17       	cp	r26, r22
    3e4a:	b7 07       	cpc	r27, r23
    3e4c:	10 f0       	brcs	.+4      	; 0x3e52 <__udivmodhi4_ep>
    3e4e:	a6 1b       	sub	r26, r22
    3e50:	b7 0b       	sbc	r27, r23

00003e52 <__udivmodhi4_ep>:
    3e52:	88 1f       	adc	r24, r24
    3e54:	99 1f       	adc	r25, r25
    3e56:	5a 95       	dec	r21
    3e58:	a9 f7       	brne	.-22     	; 0x3e44 <__udivmodhi4_loop>
    3e5a:	80 95       	com	r24
    3e5c:	90 95       	com	r25
    3e5e:	bc 01       	movw	r22, r24
    3e60:	cd 01       	movw	r24, r26
    3e62:	08 95       	ret

00003e64 <__udivmodsi4>:
    3e64:	a1 e2       	ldi	r26, 0x21	; 33
    3e66:	1a 2e       	mov	r1, r26
    3e68:	aa 1b       	sub	r26, r26
    3e6a:	bb 1b       	sub	r27, r27
    3e6c:	fd 01       	movw	r30, r26
    3e6e:	0d c0       	rjmp	.+26     	; 0x3e8a <__udivmodsi4_ep>

00003e70 <__udivmodsi4_loop>:
    3e70:	aa 1f       	adc	r26, r26
    3e72:	bb 1f       	adc	r27, r27
    3e74:	ee 1f       	adc	r30, r30
    3e76:	ff 1f       	adc	r31, r31
    3e78:	a2 17       	cp	r26, r18
    3e7a:	b3 07       	cpc	r27, r19
    3e7c:	e4 07       	cpc	r30, r20
    3e7e:	f5 07       	cpc	r31, r21
    3e80:	20 f0       	brcs	.+8      	; 0x3e8a <__udivmodsi4_ep>
    3e82:	a2 1b       	sub	r26, r18
    3e84:	b3 0b       	sbc	r27, r19
    3e86:	e4 0b       	sbc	r30, r20
    3e88:	f5 0b       	sbc	r31, r21

00003e8a <__udivmodsi4_ep>:
    3e8a:	66 1f       	adc	r22, r22
    3e8c:	77 1f       	adc	r23, r23
    3e8e:	88 1f       	adc	r24, r24
    3e90:	99 1f       	adc	r25, r25
    3e92:	1a 94       	dec	r1
    3e94:	69 f7       	brne	.-38     	; 0x3e70 <__udivmodsi4_loop>
    3e96:	60 95       	com	r22
    3e98:	70 95       	com	r23
    3e9a:	80 95       	com	r24
    3e9c:	90 95       	com	r25
    3e9e:	9b 01       	movw	r18, r22
    3ea0:	ac 01       	movw	r20, r24
    3ea2:	bd 01       	movw	r22, r26
    3ea4:	cf 01       	movw	r24, r30
    3ea6:	08 95       	ret

00003ea8 <__divmodsi4>:
    3ea8:	05 2e       	mov	r0, r21
    3eaa:	97 fb       	bst	r25, 7
    3eac:	1e f4       	brtc	.+6      	; 0x3eb4 <__divmodsi4+0xc>
    3eae:	00 94       	com	r0
    3eb0:	0e 94 6b 1f 	call	0x3ed6	; 0x3ed6 <__negsi2>
    3eb4:	57 fd       	sbrc	r21, 7
    3eb6:	07 d0       	rcall	.+14     	; 0x3ec6 <__divmodsi4_neg2>
    3eb8:	0e 94 32 1f 	call	0x3e64	; 0x3e64 <__udivmodsi4>
    3ebc:	07 fc       	sbrc	r0, 7
    3ebe:	03 d0       	rcall	.+6      	; 0x3ec6 <__divmodsi4_neg2>
    3ec0:	4e f4       	brtc	.+18     	; 0x3ed4 <__divmodsi4_exit>
    3ec2:	0c 94 6b 1f 	jmp	0x3ed6	; 0x3ed6 <__negsi2>

00003ec6 <__divmodsi4_neg2>:
    3ec6:	50 95       	com	r21
    3ec8:	40 95       	com	r20
    3eca:	30 95       	com	r19
    3ecc:	21 95       	neg	r18
    3ece:	3f 4f       	sbci	r19, 0xFF	; 255
    3ed0:	4f 4f       	sbci	r20, 0xFF	; 255
    3ed2:	5f 4f       	sbci	r21, 0xFF	; 255

00003ed4 <__divmodsi4_exit>:
    3ed4:	08 95       	ret

00003ed6 <__negsi2>:
    3ed6:	90 95       	com	r25
    3ed8:	80 95       	com	r24
    3eda:	70 95       	com	r23
    3edc:	61 95       	neg	r22
    3ede:	7f 4f       	sbci	r23, 0xFF	; 255
    3ee0:	8f 4f       	sbci	r24, 0xFF	; 255
    3ee2:	9f 4f       	sbci	r25, 0xFF	; 255
    3ee4:	08 95       	ret

00003ee6 <__prologue_saves__>:
    3ee6:	2f 92       	push	r2
    3ee8:	3f 92       	push	r3
    3eea:	4f 92       	push	r4
    3eec:	5f 92       	push	r5
    3eee:	6f 92       	push	r6
    3ef0:	7f 92       	push	r7
    3ef2:	8f 92       	push	r8
    3ef4:	9f 92       	push	r9
    3ef6:	af 92       	push	r10
    3ef8:	bf 92       	push	r11
    3efa:	cf 92       	push	r12
    3efc:	df 92       	push	r13
    3efe:	ef 92       	push	r14
    3f00:	ff 92       	push	r15
    3f02:	0f 93       	push	r16
    3f04:	1f 93       	push	r17
    3f06:	cf 93       	push	r28
    3f08:	df 93       	push	r29
    3f0a:	cd b7       	in	r28, 0x3d	; 61
    3f0c:	de b7       	in	r29, 0x3e	; 62
    3f0e:	ca 1b       	sub	r28, r26
    3f10:	db 0b       	sbc	r29, r27
    3f12:	0f b6       	in	r0, 0x3f	; 63
    3f14:	f8 94       	cli
    3f16:	de bf       	out	0x3e, r29	; 62
    3f18:	0f be       	out	0x3f, r0	; 63
    3f1a:	cd bf       	out	0x3d, r28	; 61
    3f1c:	09 94       	ijmp

00003f1e <__epilogue_restores__>:
    3f1e:	2a 88       	ldd	r2, Y+18	; 0x12
    3f20:	39 88       	ldd	r3, Y+17	; 0x11
    3f22:	48 88       	ldd	r4, Y+16	; 0x10
    3f24:	5f 84       	ldd	r5, Y+15	; 0x0f
    3f26:	6e 84       	ldd	r6, Y+14	; 0x0e
    3f28:	7d 84       	ldd	r7, Y+13	; 0x0d
    3f2a:	8c 84       	ldd	r8, Y+12	; 0x0c
    3f2c:	9b 84       	ldd	r9, Y+11	; 0x0b
    3f2e:	aa 84       	ldd	r10, Y+10	; 0x0a
    3f30:	b9 84       	ldd	r11, Y+9	; 0x09
    3f32:	c8 84       	ldd	r12, Y+8	; 0x08
    3f34:	df 80       	ldd	r13, Y+7	; 0x07
    3f36:	ee 80       	ldd	r14, Y+6	; 0x06
    3f38:	fd 80       	ldd	r15, Y+5	; 0x05
    3f3a:	0c 81       	ldd	r16, Y+4	; 0x04
    3f3c:	1b 81       	ldd	r17, Y+3	; 0x03
    3f3e:	aa 81       	ldd	r26, Y+2	; 0x02
    3f40:	b9 81       	ldd	r27, Y+1	; 0x01
    3f42:	ce 0f       	add	r28, r30
    3f44:	d1 1d       	adc	r29, r1
    3f46:	0f b6       	in	r0, 0x3f	; 63
    3f48:	f8 94       	cli
    3f4a:	de bf       	out	0x3e, r29	; 62
    3f4c:	0f be       	out	0x3f, r0	; 63
    3f4e:	cd bf       	out	0x3d, r28	; 61
    3f50:	ed 01       	movw	r28, r26
    3f52:	08 95       	ret

00003f54 <utoa>:
    3f54:	fb 01       	movw	r30, r22
    3f56:	9f 01       	movw	r18, r30
    3f58:	42 30       	cpi	r20, 0x02	; 2
    3f5a:	74 f0       	brlt	.+28     	; 0x3f78 <utoa+0x24>
    3f5c:	45 32       	cpi	r20, 0x25	; 37
    3f5e:	64 f4       	brge	.+24     	; 0x3f78 <utoa+0x24>
    3f60:	64 2f       	mov	r22, r20
    3f62:	77 27       	eor	r23, r23
    3f64:	0e 94 1e 1f 	call	0x3e3c	; 0x3e3c <__udivmodhi4>
    3f68:	80 5d       	subi	r24, 0xD0	; 208
    3f6a:	8a 33       	cpi	r24, 0x3A	; 58
    3f6c:	0c f0       	brlt	.+2      	; 0x3f70 <utoa+0x1c>
    3f6e:	89 5d       	subi	r24, 0xD9	; 217
    3f70:	81 93       	st	Z+, r24
    3f72:	cb 01       	movw	r24, r22
    3f74:	00 97       	sbiw	r24, 0x00	; 0
    3f76:	a1 f7       	brne	.-24     	; 0x3f60 <utoa+0xc>
    3f78:	10 82       	st	Z, r1
    3f7a:	c9 01       	movw	r24, r18
    3f7c:	0c 94 db 1f 	jmp	0x3fb6	; 0x3fb6 <strrev>

00003f80 <__eerd_byte_m168>:
    3f80:	f9 99       	sbic	0x1f, 1	; 31
    3f82:	fe cf       	rjmp	.-4      	; 0x3f80 <__eerd_byte_m168>
    3f84:	92 bd       	out	0x22, r25	; 34
    3f86:	81 bd       	out	0x21, r24	; 33
    3f88:	f8 9a       	sbi	0x1f, 0	; 31
    3f8a:	99 27       	eor	r25, r25
    3f8c:	80 b5       	in	r24, 0x20	; 32
    3f8e:	08 95       	ret

00003f90 <__eewr_byte_m168>:
    3f90:	26 2f       	mov	r18, r22

00003f92 <__eewr_r18_m168>:
    3f92:	f9 99       	sbic	0x1f, 1	; 31
    3f94:	fe cf       	rjmp	.-4      	; 0x3f92 <__eewr_r18_m168>
    3f96:	1f ba       	out	0x1f, r1	; 31
    3f98:	92 bd       	out	0x22, r25	; 34
    3f9a:	81 bd       	out	0x21, r24	; 33
    3f9c:	20 bd       	out	0x20, r18	; 32
    3f9e:	0f b6       	in	r0, 0x3f	; 63
    3fa0:	f8 94       	cli
    3fa2:	fa 9a       	sbi	0x1f, 2	; 31
    3fa4:	f9 9a       	sbi	0x1f, 1	; 31
    3fa6:	0f be       	out	0x3f, r0	; 63
    3fa8:	01 96       	adiw	r24, 0x01	; 1
    3faa:	08 95       	ret

00003fac <__eewr_word_m168>:
    3fac:	0e 94 c8 1f 	call	0x3f90	; 0x3f90 <__eewr_byte_m168>
    3fb0:	27 2f       	mov	r18, r23
    3fb2:	0c 94 c9 1f 	jmp	0x3f92	; 0x3f92 <__eewr_r18_m168>

00003fb6 <strrev>:
    3fb6:	dc 01       	movw	r26, r24
    3fb8:	fc 01       	movw	r30, r24
    3fba:	67 2f       	mov	r22, r23
    3fbc:	71 91       	ld	r23, Z+
    3fbe:	77 23       	and	r23, r23
    3fc0:	e1 f7       	brne	.-8      	; 0x3fba <strrev+0x4>
    3fc2:	32 97       	sbiw	r30, 0x02	; 2
    3fc4:	04 c0       	rjmp	.+8      	; 0x3fce <strrev+0x18>
    3fc6:	7c 91       	ld	r23, X
    3fc8:	6d 93       	st	X+, r22
    3fca:	70 83       	st	Z, r23
    3fcc:	62 91       	ld	r22, -Z
    3fce:	ae 17       	cp	r26, r30
    3fd0:	bf 07       	cpc	r27, r31
    3fd2:	c8 f3       	brcs	.-14     	; 0x3fc6 <strrev+0x10>
    3fd4:	08 95       	ret

00003fd6 <_exit>:
    3fd6:	f8 94       	cli

00003fd8 <__stop_program>:
    3fd8:	ff cf       	rjmp	.-2      	; 0x3fd8 <__stop_program>
