
TransistorTester.elf:     file format elf32-avr

Sections:
Idx Name          Size      VMA       LMA       File off  Algn
  0 .data         00000004  00800100  000028b8  0000296c  2**0
                  CONTENTS, ALLOC, LOAD, DATA
  1 .text         000028b8  00000000  00000000  000000b4  2**1
                  CONTENTS, ALLOC, LOAD, READONLY, CODE
  2 .bss          00000061  00800104  00800104  00002970  2**0
                  ALLOC
  3 .eeprom       000001e1  00810000  00810000  00002970  2**0
                  CONTENTS, ALLOC, LOAD, READONLY, DATA
  4 .stab         00000c0c  00000000  00000000  00002b54  2**2
                  CONTENTS, READONLY, DEBUGGING
  5 .stabstr      000001a0  00000000  00000000  00003760  2**0
                  CONTENTS, READONLY, DEBUGGING
  6 .debug_aranges 00000040  00000000  00000000  00003900  2**0
                  CONTENTS, READONLY, DEBUGGING
  7 .debug_pubnames 00000583  00000000  00000000  00003940  2**0
                  CONTENTS, READONLY, DEBUGGING
  8 .debug_info   00001811  00000000  00000000  00003ec3  2**0
                  CONTENTS, READONLY, DEBUGGING
  9 .debug_abbrev 0000034d  00000000  00000000  000056d4  2**0
                  CONTENTS, READONLY, DEBUGGING
 10 .debug_line   000025ea  00000000  00000000  00005a21  2**0
                  CONTENTS, READONLY, DEBUGGING
 11 .debug_frame  000001b0  00000000  00000000  0000800c  2**2
                  CONTENTS, READONLY, DEBUGGING
 12 .debug_str    00000644  00000000  00000000  000081bc  2**0
                  CONTENTS, READONLY, DEBUGGING
 13 .debug_loc    00000fe3  00000000  00000000  00008800  2**0
                  CONTENTS, READONLY, DEBUGGING
 14 .debug_pubtypes 0000005f  00000000  00000000  000097e3  2**0
                  CONTENTS, READONLY, DEBUGGING

Disassembly of section .text:

00000000 <__vectors>:
       0:	0c 94 36 00 	jmp	0x6c	; 0x6c <__ctors_end>
       4:	0c 94 53 00 	jmp	0xa6	; 0xa6 <__bad_interrupt>
       8:	0c 94 53 00 	jmp	0xa6	; 0xa6 <__bad_interrupt>
       c:	0c 94 53 00 	jmp	0xa6	; 0xa6 <__bad_interrupt>
      10:	0c 94 53 00 	jmp	0xa6	; 0xa6 <__bad_interrupt>
      14:	0c 94 53 00 	jmp	0xa6	; 0xa6 <__bad_interrupt>
      18:	0c 94 53 00 	jmp	0xa6	; 0xa6 <__bad_interrupt>
      1c:	0c 94 53 00 	jmp	0xa6	; 0xa6 <__bad_interrupt>
      20:	0c 94 53 00 	jmp	0xa6	; 0xa6 <__bad_interrupt>
      24:	0c 94 53 00 	jmp	0xa6	; 0xa6 <__bad_interrupt>
      28:	0c 94 53 00 	jmp	0xa6	; 0xa6 <__bad_interrupt>
      2c:	0c 94 53 00 	jmp	0xa6	; 0xa6 <__bad_interrupt>
      30:	0c 94 53 00 	jmp	0xa6	; 0xa6 <__bad_interrupt>
      34:	0c 94 53 00 	jmp	0xa6	; 0xa6 <__bad_interrupt>
      38:	0c 94 53 00 	jmp	0xa6	; 0xa6 <__bad_interrupt>
      3c:	0c 94 53 00 	jmp	0xa6	; 0xa6 <__bad_interrupt>
      40:	0c 94 53 00 	jmp	0xa6	; 0xa6 <__bad_interrupt>
      44:	0c 94 53 00 	jmp	0xa6	; 0xa6 <__bad_interrupt>
      48:	0c 94 53 00 	jmp	0xa6	; 0xa6 <__bad_interrupt>
      4c:	0c 94 53 00 	jmp	0xa6	; 0xa6 <__bad_interrupt>
      50:	0c 94 53 00 	jmp	0xa6	; 0xa6 <__bad_interrupt>
      54:	0c 94 53 00 	jmp	0xa6	; 0xa6 <__bad_interrupt>
      58:	0c 94 53 00 	jmp	0xa6	; 0xa6 <__bad_interrupt>
      5c:	0c 94 53 00 	jmp	0xa6	; 0xa6 <__bad_interrupt>
      60:	0c 94 53 00 	jmp	0xa6	; 0xa6 <__bad_interrupt>
      64:	0c 94 53 00 	jmp	0xa6	; 0xa6 <__bad_interrupt>

00000068 <C_Prefix_tab>:
      68:	70 6e e4 6d                                         pn.m

0000006c <__ctors_end>:
      6c:	11 24       	eor	r1, r1
      6e:	1f be       	out	0x3f, r1	; 63
      70:	cf ef       	ldi	r28, 0xFF	; 255
      72:	d4 e0       	ldi	r29, 0x04	; 4
      74:	de bf       	out	0x3e, r29	; 62
      76:	cd bf       	out	0x3d, r28	; 61

00000078 <__do_copy_data>:
      78:	11 e0       	ldi	r17, 0x01	; 1
      7a:	a0 e0       	ldi	r26, 0x00	; 0
      7c:	b1 e0       	ldi	r27, 0x01	; 1
      7e:	e8 eb       	ldi	r30, 0xB8	; 184
      80:	f8 e2       	ldi	r31, 0x28	; 40
      82:	02 c0       	rjmp	.+4      	; 0x88 <__do_copy_data+0x10>
      84:	05 90       	lpm	r0, Z+
      86:	0d 92       	st	X+, r0
      88:	a4 30       	cpi	r26, 0x04	; 4
      8a:	b1 07       	cpc	r27, r17
      8c:	d9 f7       	brne	.-10     	; 0x84 <__do_copy_data+0xc>

0000008e <__do_clear_bss>:
      8e:	11 e0       	ldi	r17, 0x01	; 1
      90:	a4 e0       	ldi	r26, 0x04	; 4
      92:	b1 e0       	ldi	r27, 0x01	; 1
      94:	01 c0       	rjmp	.+2      	; 0x98 <.do_clear_bss_start>

00000096 <.do_clear_bss_loop>:
      96:	1d 92       	st	X+, r1

00000098 <.do_clear_bss_start>:
      98:	a5 36       	cpi	r26, 0x65	; 101
      9a:	b1 07       	cpc	r27, r17
      9c:	e1 f7       	brne	.-8      	; 0x96 <.do_clear_bss_loop>
      9e:	0e 94 5b 0e 	call	0x1cb6	; 0x1cb6 <main>
      a2:	0c 94 5a 14 	jmp	0x28b4	; 0x28b4 <_exit>

000000a6 <__bad_interrupt>:
      a6:	0c 94 00 00 	jmp	0	; 0x0 <__vectors>

000000aa <lcd_enable>:
  LCD_PORT &= 0xF0;
}

// genertes the Enable-Puls
void lcd_enable(void) {
   LCD_PORT |= (1<<LCD_EN1);
      aa:	5d 9a       	sbi	0x0b, 5	; 11
   wait10us();			// short break 
      ac:	0e 94 42 13 	call	0x2684	; 0x2684 <wait10us>
   // if problems occure, set the wait time to the value of datasheet of your display
   // http://www.mikrocontroller.net/topic/80900
   LCD_PORT &= ~(1<<LCD_EN1);
      b0:	5d 98       	cbi	0x0b, 5	; 11
}
      b2:	08 95       	ret

000000b4 <lcd_send>:
	}
#endif
}

//output to  LCD; 4-Bit-Modus
void lcd_send(unsigned char data) {
      b4:	df 93       	push	r29
      b6:	cf 93       	push	r28
      b8:	0f 92       	push	r0
      ba:	cd b7       	in	r28, 0x3d	; 61
      bc:	de b7       	in	r29, 0x3e	; 62
   // set upper Nibble
  LCD_PORT = (LCD_PORT & 0xF0) | ((data >> 4) & 0x0F);
      be:	2b b1       	in	r18, 0x0b	; 11
      c0:	98 2f       	mov	r25, r24
      c2:	92 95       	swap	r25
      c4:	9f 70       	andi	r25, 0x0F	; 15
      c6:	20 7f       	andi	r18, 0xF0	; 240
      c8:	92 2b       	or	r25, r18
      ca:	9b b9       	out	0x0b, r25	; 11
#if F_CPU < 2000000
  _delay_us(5);
#else
  wait5us();
      cc:	89 83       	std	Y+1, r24	; 0x01
      ce:	0e 94 43 13 	call	0x2686	; 0x2686 <wait5us>
#endif
  lcd_enable();
      d2:	0e 94 55 00 	call	0xaa	; 0xaa <lcd_enable>
   // set lower Nibble 
  LCD_PORT = (LCD_PORT & 0xF0) | (data & 0x0F);
      d6:	9b b1       	in	r25, 0x0b	; 11
      d8:	89 81       	ldd	r24, Y+1	; 0x01
      da:	8f 70       	andi	r24, 0x0F	; 15
      dc:	90 7f       	andi	r25, 0xF0	; 240
      de:	89 2b       	or	r24, r25
      e0:	8b b9       	out	0x0b, r24	; 11
#if F_CPU < 2000000
  _delay_us(5);
#else
  wait5us();
      e2:	0e 94 43 13 	call	0x2686	; 0x2686 <wait5us>
#endif
  lcd_enable();
      e6:	0e 94 55 00 	call	0xaa	; 0xaa <lcd_enable>
  wait50us();
      ea:	0e 94 3e 13 	call	0x267c	; 0x267c <wait50us>
  LCD_PORT &= 0xF0;
      ee:	8b b1       	in	r24, 0x0b	; 11
      f0:	80 7f       	andi	r24, 0xF0	; 240
      f2:	8b b9       	out	0x0b, r24	; 11
}
      f4:	0f 90       	pop	r0
      f6:	cf 91       	pop	r28
      f8:	df 91       	pop	r29
      fa:	08 95       	ret

000000fc <lcd_command>:
}
 
// sends a command to the LCD
 
void lcd_command(unsigned char temp1) {
	LCD_PORT &= ~(1<<LCD_RS);        // set RS to 0 
      fc:	5c 98       	cbi	0x0b, 4	; 11
	lcd_send(temp1);
      fe:	0e 94 5a 00 	call	0xb4	; 0xb4 <lcd_send>
#ifdef WITH_UART
	if((temp1 == 0x80) || (temp1 == 0xC0)) {
		uart_newline();
	}
#endif
}
     102:	08 95       	ret

00000104 <lcd_data>:
void lcd_testpin(unsigned char temp) {
   lcd_data(temp + '1');
}
// sends data byte to the LCD 
void lcd_data(unsigned char temp1) {
 LCD_PORT |= (1<<LCD_RS);        // set RS to 1 
     104:	5c 9a       	sbi	0x0b, 4	; 11
 lcd_send(temp1);
     106:	0e 94 5a 00 	call	0xb4	; 0xb4 <lcd_send>
    	break;
    default:
    	uart_putc(temp1);
 }
#endif
}
     10a:	08 95       	ret

0000010c <lcd_testpin>:
 

// sends numeric character (Pin Number) to the LCD 
// from binary 0 we send ASCII 1 ....
void lcd_testpin(unsigned char temp) {
   lcd_data(temp + '1');
     10c:	8f 5c       	subi	r24, 0xCF	; 207
     10e:	0e 94 82 00 	call	0x104	; 0x104 <lcd_data>
}
     112:	08 95       	ret

00000114 <lcd_clear>:
}
 
// send the command to clear the display 
 
void lcd_clear(void) {
   lcd_command(CLEAR_DISPLAY);
     114:	81 e0       	ldi	r24, 0x01	; 1
     116:	0e 94 7e 00 	call	0xfc	; 0xfc <lcd_command>
   wait5ms();
     11a:	0e 94 34 13 	call	0x2668	; 0x2668 <wait5ms>
#ifdef WITH_UART
   uart_newline();
#endif
}
     11e:	08 95       	ret

00000120 <lcd_init>:
 
// Initialise: 
// Mustt be called first .
 
void lcd_init(void) {
   LCD_DDR = LCD_DDR | 0x0F | (1<<LCD_RS) | (1<<LCD_EN1);   // switch Port to output
     120:	8a b1       	in	r24, 0x0a	; 10
     122:	8f 63       	ori	r24, 0x3F	; 63
     124:	8a b9       	out	0x0a, r24	; 10
   // to initialise, send 3 times
          wait30ms();
     126:	0e 94 31 13 	call	0x2662	; 0x2662 <wait30ms>
   LCD_PORT = (LCD_PORT & 0xF0 & ~(1<<LCD_RS)) | 0x03;
     12a:	8b b1       	in	r24, 0x0b	; 11
     12c:	80 7e       	andi	r24, 0xE0	; 224
     12e:	83 60       	ori	r24, 0x03	; 3
     130:	8b b9       	out	0x0b, r24	; 11
   lcd_enable();
     132:	0e 94 55 00 	call	0xaa	; 0xaa <lcd_enable>

   wait5ms();
     136:	0e 94 34 13 	call	0x2668	; 0x2668 <wait5ms>
   lcd_enable();
     13a:	0e 94 55 00 	call	0xaa	; 0xaa <lcd_enable>

   wait1ms();
     13e:	0e 94 38 13 	call	0x2670	; 0x2670 <wait1ms>
   lcd_enable();
     142:	0e 94 55 00 	call	0xaa	; 0xaa <lcd_enable>
   wait1ms();
     146:	0e 94 38 13 	call	0x2670	; 0x2670 <wait1ms>
   LCD_PORT = (LCD_PORT & 0xF0 & ~(1<<LCD_RS)) | 0x02;
     14a:	8b b1       	in	r24, 0x0b	; 11
     14c:	80 7e       	andi	r24, 0xE0	; 224
     14e:	82 60       	ori	r24, 0x02	; 2
     150:	8b b9       	out	0x0b, r24	; 11
   wait1ms();
     152:	0e 94 38 13 	call	0x2670	; 0x2670 <wait1ms>
   lcd_enable();
     156:	0e 94 55 00 	call	0xaa	; 0xaa <lcd_enable>
   wait1ms();
     15a:	0e 94 38 13 	call	0x2670	; 0x2670 <wait1ms>

   // 4Bit / 2 rows / 5x7
   lcd_command(CMD_SetIFOptions | 0x08);
     15e:	88 e2       	ldi	r24, 0x28	; 40
     160:	0e 94 7e 00 	call	0xfc	; 0xfc <lcd_command>

   // Display on / Cursor off / no Blinking
   lcd_command(CMD_SetDisplayAndCursor | 0x04);
     164:	8c e0       	ldi	r24, 0x0C	; 12
     166:	0e 94 7e 00 	call	0xfc	; 0xfc <lcd_command>

   // increment / no Scroll    
   lcd_command(CMD_SetEntryMode | 0x02);	
     16a:	86 e0       	ldi	r24, 0x06	; 6
     16c:	0e 94 7e 00 	call	0xfc	; 0xfc <lcd_command>
   lcd_clear();
     170:	0e 94 8a 00 	call	0x114	; 0x114 <lcd_clear>
}
     174:	08 95       	ret

00000176 <lcd_string>:
#endif
 
 
// writes a string to the LCD 
 
void lcd_string(char *data) {
     176:	ef 92       	push	r14
     178:	ff 92       	push	r15
     17a:	cf 93       	push	r28
     17c:	df 93       	push	r29
     17e:	e8 2e       	mov	r14, r24
     180:	e7 01       	movw	r28, r14
     182:	7e 01       	movw	r14, r28
     184:	f9 2e       	mov	r15, r25
     186:	e7 01       	movw	r28, r14
    while(*data) {
     188:	02 c0       	rjmp	.+4      	; 0x18e <lcd_string+0x18>
        lcd_data(*data);
     18a:	0e 94 82 00 	call	0x104	; 0x104 <lcd_data>
 
 
// writes a string to the LCD 
 
void lcd_string(char *data) {
    while(*data) {
     18e:	89 91       	ld	r24, Y+
     190:	88 23       	and	r24, r24
     192:	d9 f7       	brne	.-10     	; 0x18a <lcd_string+0x14>
        lcd_data(*data);
        data++;
    }
}
     194:	df 91       	pop	r29
     196:	cf 91       	pop	r28
     198:	ff 90       	pop	r15
     19a:	ef 90       	pop	r14
     19c:	08 95       	ret

0000019e <lcd_fix_string>:

//Load string from PGM or EEprom and send to LCD 
void lcd_fix_string(const unsigned char *data) {
     19e:	cf 93       	push	r28
     1a0:	df 93       	push	r29
     1a2:	ec 01       	movw	r28, r24
   unsigned char cc;
   while(1) {
      cc = MEM_read_byte(data);
     1a4:	ce 01       	movw	r24, r28
     1a6:	0e 94 19 14 	call	0x2832	; 0x2832 <__eerd_byte_m168>
      if((cc==0) || (cc==128)) {
     1aa:	88 23       	and	r24, r24
     1ac:	31 f0       	breq	.+12     	; 0x1ba <lcd_fix_string+0x1c>
     1ae:	80 38       	cpi	r24, 0x80	; 128
     1b0:	21 f0       	breq	.+8      	; 0x1ba <lcd_fix_string+0x1c>
         return;
      }
      lcd_data(cc);
     1b2:	0e 94 82 00 	call	0x104	; 0x104 <lcd_data>
      data++;
     1b6:	21 96       	adiw	r28, 0x01	; 1
   }
     1b8:	f5 cf       	rjmp	.-22     	; 0x1a4 <lcd_fix_string+0x6>
}
     1ba:	df 91       	pop	r29
     1bc:	cf 91       	pop	r28
     1be:	08 95       	ret

000001c0 <lcd_fix_customchar>:

// load custom character from PGM or EEprom and send to LCD
void lcd_fix_customchar(const unsigned char *chardata) {	
     1c0:	0f 93       	push	r16
     1c2:	1f 93       	push	r17
     1c4:	cf 93       	push	r28
     1c6:	df 93       	push	r29
     1c8:	8c 01       	movw	r16, r24
     1ca:	c0 e0       	ldi	r28, 0x00	; 0
     1cc:	d0 e0       	ldi	r29, 0x00	; 0
    for(uint8_t i=0;i<8;i++) {
        lcd_data(MEM_read_byte(chardata));
     1ce:	c8 01       	movw	r24, r16
     1d0:	8c 0f       	add	r24, r28
     1d2:	9d 1f       	adc	r25, r29
     1d4:	0e 94 19 14 	call	0x2832	; 0x2832 <__eerd_byte_m168>
     1d8:	0e 94 82 00 	call	0x104	; 0x104 <lcd_data>
     1dc:	21 96       	adiw	r28, 0x01	; 1
   }
}

// load custom character from PGM or EEprom and send to LCD
void lcd_fix_customchar(const unsigned char *chardata) {	
    for(uint8_t i=0;i<8;i++) {
     1de:	c8 30       	cpi	r28, 0x08	; 8
     1e0:	d1 05       	cpc	r29, r1
     1e2:	a9 f7       	brne	.-22     	; 0x1ce <lcd_fix_customchar+0xe>
        lcd_data(MEM_read_byte(chardata));
        chardata++;
    }
}
     1e4:	df 91       	pop	r29
     1e6:	cf 91       	pop	r28
     1e8:	1f 91       	pop	r17
     1ea:	0f 91       	pop	r16
     1ec:	08 95       	ret

000001ee <mVAusgabe>:
   lcd_fix_string(Uf);			//"Uf="
   mVAusgabe(bcdnum >> 4);
   mVAusgabe(bcdnum & 0x0f);
}
void mVAusgabe(uint8_t nn) {
   if (nn < 3) {
     1ee:	83 30       	cpi	r24, 0x03	; 3
     1f0:	48 f5       	brcc	.+82     	; 0x244 <mVAusgabe+0x56>
      lcd_string(utoa(diodes[nn].Voltage, outval, 10));
      lcd_data('m');
#else
      // Output with format x.xxV or .xxV
      // round up last digit, first digit will never appear (10000)
      utoa((diodes[nn].Voltage + 10005),outval,10);
     1f2:	e8 2f       	mov	r30, r24
     1f4:	f0 e0       	ldi	r31, 0x00	; 0
     1f6:	ee 0f       	add	r30, r30
     1f8:	ff 1f       	adc	r31, r31
     1fa:	ee 0f       	add	r30, r30
     1fc:	ff 1f       	adc	r31, r31
     1fe:	e7 5b       	subi	r30, 0xB7	; 183
     200:	fe 4f       	sbci	r31, 0xFE	; 254
     202:	82 81       	ldd	r24, Z+2	; 0x02
     204:	93 81       	ldd	r25, Z+3	; 0x03
     206:	8b 5e       	subi	r24, 0xEB	; 235
     208:	98 4d       	sbci	r25, 0xD8	; 216
     20a:	6d e0       	ldi	r22, 0x0D	; 13
     20c:	71 e0       	ldi	r23, 0x01	; 1
     20e:	4a e0       	ldi	r20, 0x0A	; 10
     210:	50 e0       	ldi	r21, 0x00	; 0
     212:	0e 94 03 14 	call	0x2806	; 0x2806 <utoa>
      if (outval[1] != '0') {
     216:	80 91 0e 01 	lds	r24, 0x010E
     21a:	80 33       	cpi	r24, 0x30	; 48
     21c:	11 f0       	breq	.+4      	; 0x222 <mVAusgabe+0x34>
         lcd_data(outval[1]);
     21e:	0e 94 82 00 	call	0x104	; 0x104 <lcd_data>
      }
      lcd_data('.');
     222:	8e e2       	ldi	r24, 0x2E	; 46
     224:	0e 94 82 00 	call	0x104	; 0x104 <lcd_data>
      lcd_data(outval[2]);
     228:	80 91 0f 01 	lds	r24, 0x010F
     22c:	0e 94 82 00 	call	0x104	; 0x104 <lcd_data>
      lcd_data(outval[3]);
     230:	80 91 10 01 	lds	r24, 0x0110
     234:	0e 94 82 00 	call	0x104	; 0x104 <lcd_data>
#endif
      lcd_data('V');
     238:	86 e5       	ldi	r24, 0x56	; 86
     23a:	0e 94 82 00 	call	0x104	; 0x104 <lcd_data>
      lcd_data(' ');
     23e:	80 e2       	ldi	r24, 0x20	; 32
     240:	0e 94 82 00 	call	0x104	; 0x104 <lcd_data>
     244:	08 95       	ret

00000246 <UfAusgabe>:
// output of flux voltage for 1-2 diodes in row 2
// bcdnum = Numbers of both Diodes:
// higher 4 Bit  number of first Diode
// lower 4 Bit  number of second Diode (Structure diodes[nn])
// if number >= 3  no output is done
void UfAusgabe(uint8_t bcdnum) {
     246:	1f 93       	push	r17
     248:	18 2f       	mov	r17, r24

   lcd_line2(); 				//2. row
     24a:	80 ec       	ldi	r24, 0xC0	; 192
     24c:	0e 94 7e 00 	call	0xfc	; 0xfc <lcd_command>
   lcd_fix_string(Uf);			//"Uf="
     250:	82 e0       	ldi	r24, 0x02	; 2
     252:	91 e0       	ldi	r25, 0x01	; 1
     254:	0e 94 cf 00 	call	0x19e	; 0x19e <lcd_fix_string>
   mVAusgabe(bcdnum >> 4);
     258:	81 2f       	mov	r24, r17
     25a:	82 95       	swap	r24
     25c:	8f 70       	andi	r24, 0x0F	; 15
     25e:	0e 94 f7 00 	call	0x1ee	; 0x1ee <mVAusgabe>
   mVAusgabe(bcdnum & 0x0f);
     262:	81 2f       	mov	r24, r17
     264:	8f 70       	andi	r24, 0x0F	; 15
     266:	0e 94 f7 00 	call	0x1ee	; 0x1ee <mVAusgabe>
}
     26a:	1f 91       	pop	r17
     26c:	08 95       	ret

0000026e <scale_intref_adc>:
 #define WishVolt (2560 + REF_R_KORR)
#else
 #define WishVolt ref_mv
#endif
#ifdef AUTOSCALE_ADC
void scale_intref_adc(void) {
     26e:	df 92       	push	r13
     270:	ef 92       	push	r14
     272:	ff 92       	push	r15
     274:	0f 93       	push	r16
     276:	1f 93       	push	r17
     278:	cf 93       	push	r28
     27a:	df 93       	push	r29
unsigned int mindiff,ergeb;
uint8_t multip,divid;
unsigned int diff;

   mindiff = WishVolt;		// WishVolt == ref_mv  or 2560 for ATmega8
     27c:	c0 91 32 01 	lds	r28, 0x0132
     280:	d0 91 33 01 	lds	r29, 0x0133
     284:	e0 90 02 01 	lds	r14, 0x0102
     288:	d0 90 03 01 	lds	r13, 0x0103
     28c:	8e 01       	movw	r16, r28
     28e:	2e ef       	ldi	r18, 0xFE	; 254
     290:	37 e0       	ldi	r19, 0x07	; 7
   for (multip=2;multip<64;multip++) {
     292:	42 e0       	ldi	r20, 0x02	; 2
     294:	1d c0       	rjmp	.+58     	; 0x2d0 <scale_intref_adc+0x62>
      // find factors for ADC-resolution in mV 
      //  ADC * multip / divid 
      for (divid=2;divid<multip;divid++) {
         ergeb = (unsigned int)(1023 * multip) / divid;
     296:	bf 01       	movw	r22, r30
     298:	6e 5f       	subi	r22, 0xFE	; 254
     29a:	7f 4f       	sbci	r23, 0xFF	; 255
     29c:	c9 01       	movw	r24, r18
     29e:	0e 94 cd 13 	call	0x279a	; 0x279a <__udivmodhi4>
         diff = abs((int)(WishVolt - ergeb));
     2a2:	ce 01       	movw	r24, r28
     2a4:	86 1b       	sub	r24, r22
     2a6:	97 0b       	sbc	r25, r23
     2a8:	97 ff       	sbrs	r25, 7
     2aa:	03 c0       	rjmp	.+6      	; 0x2b2 <scale_intref_adc+0x44>
     2ac:	90 95       	com	r25
     2ae:	81 95       	neg	r24
     2b0:	9f 4f       	sbci	r25, 0xFF	; 255
#if ANZ_MESS == 44
         if (!(diff > mindiff)) 
     2b2:	08 17       	cp	r16, r24
     2b4:	19 07       	cpc	r17, r25
     2b6:	18 f0       	brcs	.+6      	; 0x2be <scale_intref_adc+0x50>
            // find fastest possible solution, lowest minmul,mindiv
#endif
                            {
            mindiff = diff;
            minmul = multip;
            mindiv = divid;
     2b8:	df 2c       	mov	r13, r15
         if (diff < mindiff) 
            // find fastest possible solution, lowest minmul,mindiv
#endif
                            {
            mindiff = diff;
            minmul = multip;
     2ba:	e4 2e       	mov	r14, r20
      //  ADC * multip / divid 
      for (divid=2;divid<multip;divid++) {
         ergeb = (unsigned int)(1023 * multip) / divid;
         diff = abs((int)(WishVolt - ergeb));
#if ANZ_MESS == 44
         if (!(diff > mindiff)) 
     2bc:	8c 01       	movw	r16, r24

   mindiff = WishVolt;		// WishVolt == ref_mv  or 2560 for ATmega8
   for (multip=2;multip<64;multip++) {
      // find factors for ADC-resolution in mV 
      //  ADC * multip / divid 
      for (divid=2;divid<multip;divid++) {
     2be:	f3 94       	inc	r15
     2c0:	31 96       	adiw	r30, 0x01	; 1
     2c2:	f4 16       	cp	r15, r20
     2c4:	40 f3       	brcs	.-48     	; 0x296 <scale_intref_adc+0x28>
unsigned int mindiff,ergeb;
uint8_t multip,divid;
unsigned int diff;

   mindiff = WishVolt;		// WishVolt == ref_mv  or 2560 for ATmega8
   for (multip=2;multip<64;multip++) {
     2c6:	4f 5f       	subi	r20, 0xFF	; 255
     2c8:	21 50       	subi	r18, 0x01	; 1
     2ca:	3c 4f       	sbci	r19, 0xFC	; 252
     2cc:	40 34       	cpi	r20, 0x40	; 64
     2ce:	29 f0       	breq	.+10     	; 0x2da <scale_intref_adc+0x6c>
      //  ADC * multip / divid 
      for (divid=2;divid<multip;divid++) {
         ergeb = (unsigned int)(1023 * multip) / divid;
         diff = abs((int)(WishVolt - ergeb));
#if ANZ_MESS == 44
         if (!(diff > mindiff)) 
     2d0:	e0 e0       	ldi	r30, 0x00	; 0
     2d2:	f0 e0       	ldi	r31, 0x00	; 0
     2d4:	92 e0       	ldi	r25, 0x02	; 2
     2d6:	f9 2e       	mov	r15, r25
     2d8:	f4 cf       	rjmp	.-24     	; 0x2c2 <scale_intref_adc+0x54>
unsigned int mindiff,ergeb;
uint8_t multip,divid;
unsigned int diff;

   mindiff = WishVolt;		// WishVolt == ref_mv  or 2560 for ATmega8
   for (multip=2;multip<64;multip++) {
     2da:	e0 92 02 01 	sts	0x0102, r14
     2de:	d0 92 03 01 	sts	0x0103, r13
      } // end for divid
   } // end for multip
   // with minmul and mindiv function ReadADC will change resolution of result in mV too,
   // if it switches to internal (1.1V) Reference.

}
     2e2:	df 91       	pop	r29
     2e4:	cf 91       	pop	r28
     2e6:	1f 91       	pop	r17
     2e8:	0f 91       	pop	r16
     2ea:	ff 90       	pop	r15
     2ec:	ef 90       	pop	r14
     2ee:	df 90       	pop	r13
     2f0:	08 95       	ret

000002f2 <ChargePin10ms>:
#endif

void ChargePin10ms(uint8_t PinToCharge, uint8_t ChargeDirection) {
     2f2:	df 93       	push	r29
     2f4:	cf 93       	push	r28
     2f6:	0f 92       	push	r0
     2f8:	cd b7       	in	r28, 0x3d	; 61
     2fa:	de b7       	in	r29, 0x3e	; 62
   //Will be used by discharge of MOSFET Gates or to load big capacities.
   //Parameters:
   //PinToCharge: specifies the pin as mask for R-Port
   //ChargeDirection: 0 = switch to GND (N-Kanal-FET), 1= switch to VCC(P-Kanal-FET)

   if(ChargeDirection&1) {
     2fc:	60 ff       	sbrs	r22, 0
     2fe:	03 c0       	rjmp	.+6      	; 0x306 <ChargePin10ms+0x14>
      R_PORT |= PinToCharge;	//R_PORT to 1 (VCC) 
     300:	95 b1       	in	r25, 0x05	; 5
     302:	98 2b       	or	r25, r24
     304:	04 c0       	rjmp	.+8      	; 0x30e <ChargePin10ms+0x1c>
   } else {
      R_PORT &= ~PinToCharge; // or 0 (GND)
     306:	25 b1       	in	r18, 0x05	; 5
     308:	98 2f       	mov	r25, r24
     30a:	90 95       	com	r25
     30c:	92 23       	and	r25, r18
     30e:	95 b9       	out	0x05, r25	; 5
   }
   R_DDR |= PinToCharge;		//switch Pin to output, across R to GND or VCC
     310:	94 b1       	in	r25, 0x04	; 4
     312:	98 2b       	or	r25, r24
     314:	94 b9       	out	0x04, r25	; 4
   wait10ms();
     316:	89 83       	std	Y+1, r24	; 0x01
     318:	0e 94 33 13 	call	0x2666	; 0x2666 <wait10ms>
   // switch back Input, no current
   R_DDR &= ~PinToCharge;	// switch back to input
     31c:	94 b1       	in	r25, 0x04	; 4
     31e:	89 81       	ldd	r24, Y+1	; 0x01
     320:	80 95       	com	r24
     322:	98 23       	and	r25, r24
     324:	94 b9       	out	0x04, r25	; 4
   R_PORT &= ~PinToCharge;	// no Pull up
     326:	95 b1       	in	r25, 0x05	; 5
     328:	98 23       	and	r25, r24
     32a:	95 b9       	out	0x05, r25	; 5
}
     32c:	0f 90       	pop	r0
     32e:	cf 91       	pop	r28
     330:	df 91       	pop	r29
     332:	08 95       	ret

00000334 <CheckPins>:
//******************************************************************
void CheckPins(uint8_t HighPin, uint8_t LowPin, uint8_t TristatePin)
  {
     334:	2f 92       	push	r2
     336:	3f 92       	push	r3
     338:	4f 92       	push	r4
     33a:	5f 92       	push	r5
     33c:	6f 92       	push	r6
     33e:	7f 92       	push	r7
     340:	8f 92       	push	r8
     342:	9f 92       	push	r9
     344:	af 92       	push	r10
     346:	bf 92       	push	r11
     348:	cf 92       	push	r12
     34a:	df 92       	push	r13
     34c:	ef 92       	push	r14
     34e:	ff 92       	push	r15
     350:	0f 93       	push	r16
     352:	1f 93       	push	r17
     354:	df 93       	push	r29
     356:	cf 93       	push	r28
     358:	cd b7       	in	r28, 0x3d	; 61
     35a:	de b7       	in	r29, 0x3e	; 62
     35c:	63 97       	sbiw	r28, 0x13	; 19
     35e:	0f b6       	in	r0, 0x3f	; 63
     360:	f8 94       	cli
     362:	de bf       	out	0x3e, r29	; 62
     364:	0f be       	out	0x3f, r0	; 63
     366:	cd bf       	out	0x3d, r28	; 61
     368:	18 2f       	mov	r17, r24
     36a:	06 2f       	mov	r16, r22
     36c:	49 83       	std	Y+1, r20	; 0x01
  /*
    switch HighPin directls to VCC 
    switch R_L port for LowPin to GND 
    TristatePin remains switched to input , no action required 
  */
  wdt_reset();
     36e:	a8 95       	wdr
#ifdef AUTO_CAL
  uint16_t resis680pl;
  uint16_t resis680mi;
  resis680pl = eeprom_read_word(&R680pl);
     370:	8b ed       	ldi	r24, 0xDB	; 219
     372:	91 e0       	ldi	r25, 0x01	; 1
     374:	0e 94 21 14 	call	0x2842	; 0x2842 <__eerd_word_m168>
     378:	9b 87       	std	Y+11, r25	; 0x0b
     37a:	8a 87       	std	Y+10, r24	; 0x0a
  resis680mi = eeprom_read_word(&R680mi);
     37c:	8d ed       	ldi	r24, 0xDD	; 221
     37e:	91 e0       	ldi	r25, 0x01	; 1
     380:	0e 94 21 14 	call	0x2842	; 0x2842 <__eerd_word_m168>
     384:	9d 87       	std	Y+13, r25	; 0x0d
     386:	8c 87       	std	Y+12, r24	; 0x0c
  #define RR680MI resis680mi
#else
  #define RR680PL (R_L_VAL + PIN_RP)
  #define RR680MI (R_L_VAL + PIN_RM)
#endif
  LoPinRL = MEM_read_byte(&PinRLtab[LowPin]);		// intruction for LowPin R_L
     388:	a0 2e       	mov	r10, r16
     38a:	bb 24       	eor	r11, r11
     38c:	c5 01       	movw	r24, r10
     38e:	8b 52       	subi	r24, 0x2B	; 43
     390:	9e 4f       	sbci	r25, 0xFE	; 254
     392:	0e 94 19 14 	call	0x2832	; 0x2832 <__eerd_byte_m168>
     396:	8a 83       	std	Y+2, r24	; 0x02
  LoPinRH = LoPinRL + LoPinRL;				// intruction for LowPin R_H
  TriPinRL = MEM_read_byte(&PinRLtab[TristatePin]);	// intruction for TristatePin R_L
     398:	29 81       	ldd	r18, Y+1	; 0x01
     39a:	82 2f       	mov	r24, r18
     39c:	90 e0       	ldi	r25, 0x00	; 0
     39e:	8b 52       	subi	r24, 0x2B	; 43
     3a0:	9e 4f       	sbci	r25, 0xFE	; 254
     3a2:	0e 94 19 14 	call	0x2832	; 0x2832 <__eerd_byte_m168>
     3a6:	d8 2e       	mov	r13, r24
  TriPinRH = TriPinRL + TriPinRL;			// intruction for TristatePin R_H
     3a8:	e8 2e       	mov	r14, r24
     3aa:	ee 0c       	add	r14, r14
  HiPinRL = MEM_read_byte(&PinRLtab[HighPin]);		// intruction for HighPin R_L
     3ac:	81 2e       	mov	r8, r17
     3ae:	99 24       	eor	r9, r9
     3b0:	c4 01       	movw	r24, r8
     3b2:	8b 52       	subi	r24, 0x2B	; 43
     3b4:	9e 4f       	sbci	r25, 0xFE	; 254
     3b6:	0e 94 19 14 	call	0x2832	; 0x2832 <__eerd_byte_m168>
     3ba:	c8 2e       	mov	r12, r24
  HiPinRH = HiPinRL + HiPinRL;				// intruction for HighPin R_H
     3bc:	38 2f       	mov	r19, r24
     3be:	33 0f       	add	r19, r19
     3c0:	3f 83       	std	Y+7, r19	; 0x07

  HiADCp = MEM_read_byte(&PinADCtab[HighPin]);		// intruction for ADC High-Pin 
     3c2:	c4 01       	movw	r24, r8
     3c4:	88 52       	subi	r24, 0x28	; 40
     3c6:	9e 4f       	sbci	r25, 0xFE	; 254
     3c8:	0e 94 19 14 	call	0x2832	; 0x2832 <__eerd_byte_m168>
     3cc:	8b 83       	std	Y+3, r24	; 0x03
  LoADCp = MEM_read_byte(&PinADCtab[LowPin]);		// intruction for ADC Low-Pin
     3ce:	c5 01       	movw	r24, r10
     3d0:	88 52       	subi	r24, 0x28	; 40
     3d2:	9e 4f       	sbci	r25, 0xFE	; 254
     3d4:	0e 94 19 14 	call	0x2832	; 0x2832 <__eerd_byte_m168>
     3d8:	8c 83       	std	Y+4, r24	; 0x04
  HiADCp |= TXD_VAL;
  LoADCm = LoADCp | TXD_MSK;
  LoADCp |= TXD_VAL;

  //setting of Pins 
  R_PORT = 0;				//resistor-Port outputs to 0
     3da:	15 b8       	out	0x05, r1	; 5
  R_DDR = LoPinRL;			//Low-Pin to output and across R_L to GND
     3dc:	8a 81       	ldd	r24, Y+2	; 0x02
     3de:	84 b9       	out	0x04, r24	; 4
  ADC_DDR = HiADCm;		//High-Pin to output
     3e0:	9b 81       	ldd	r25, Y+3	; 0x03
     3e2:	97 b9       	out	0x07, r25	; 7
  ADC_PORT = HiADCp;		//High-Pin fix to Vcc
     3e4:	98 b9       	out	0x08, r25	; 8
  //for some MOSFET the gate (TristatePin) must be discharged
  ChargePin10ms(TriPinRL,0);		//discharge for N-Kanal
     3e6:	8d 2d       	mov	r24, r13
     3e8:	60 e0       	ldi	r22, 0x00	; 0
     3ea:	0e 94 79 01 	call	0x2f2	; 0x2f2 <ChargePin10ms>
  adc.lp_otr = W5msReadADC(LowPin);	//read voltage of Low-Pin 
     3ee:	80 2f       	mov	r24, r16
     3f0:	0e 94 4f 13 	call	0x269e	; 0x269e <W5msReadADC>
     3f4:	99 87       	std	Y+9, r25	; 0x09
     3f6:	88 87       	std	Y+8, r24	; 0x08
  if(adc.lp_otr >= 977) {		//no current now? 
     3f8:	a3 e0       	ldi	r26, 0x03	; 3
     3fa:	81 3d       	cpi	r24, 0xD1	; 209
     3fc:	9a 07       	cpc	r25, r26
     3fe:	48 f0       	brcs	.+18     	; 0x412 <CheckPins+0xde>
     ChargePin10ms(TriPinRL,1);	 	//else: discharge for P-channel (Gate to VCC)
     400:	8d 2d       	mov	r24, r13
     402:	61 e0       	ldi	r22, 0x01	; 1
     404:	0e 94 79 01 	call	0x2f2	; 0x2f2 <ChargePin10ms>
     adc.lp_otr = ReadADC(LowPin);	//read voltage of Low-Pin again
     408:	80 2f       	mov	r24, r16
     40a:	0e 94 51 13 	call	0x26a2	; 0x26a2 <ReadADC>
     40e:	99 87       	std	Y+9, r25	; 0x09
     410:	88 87       	std	Y+8, r24	; 0x08
  lcd_line2();
  lcd_clear_line();
  lcd_line2();
#endif

  if(adc.lp_otr > 92) {  //there is some current without TristatePin current 
     412:	e8 85       	ldd	r30, Y+8	; 0x08
     414:	f9 85       	ldd	r31, Y+9	; 0x09
     416:	ed 35       	cpi	r30, 0x5D	; 93
     418:	f1 05       	cpc	r31, r1
     41a:	08 f4       	brcc	.+2      	; 0x41e <CheckPins+0xea>
     41c:	60 c0       	rjmp	.+192    	; 0x4de <CheckPins+0x1aa>
     lcd_testpin(HighPin);
     lcd_data(' ');
     wait1s();
#endif
     //Test if N-JFET or if self-conducting N-MOSFET
     R_DDR = LoPinRL | TriPinRH;	//switch R_H for Tristate-Pin (probably Gate) to GND
     41e:	8a 81       	ldd	r24, Y+2	; 0x02
     420:	8e 29       	or	r24, r14
     422:	84 b9       	out	0x04, r24	; 4
     adc.lp1 = W20msReadADC(LowPin);	//measure voltage at the assumed Source 
     424:	80 2f       	mov	r24, r16
     426:	0e 94 4b 13 	call	0x2696	; 0x2696 <W20msReadADC>
     42a:	5c 01       	movw	r10, r24
     R_PORT = TriPinRH;			//switch R_H for Tristate-Pin (probably Gate) to VCC
     42c:	e5 b8       	out	0x05, r14	; 5
     adc.lp2 = W20msReadADC(LowPin);	//measure voltage at the assumed Source again
     42e:	80 2f       	mov	r24, r16
     430:	0e 94 4b 13 	call	0x2696	; 0x2696 <W20msReadADC>
     //If it is a self-conducting MOSFET or JFET, then must be: adc.lp2 > adc.lp1 
     if(adc.lp2>(adc.lp1+488)) {
     434:	95 01       	movw	r18, r10
     436:	28 51       	subi	r18, 0x18	; 24
     438:	3e 4f       	sbci	r19, 0xFE	; 254
     43a:	28 17       	cp	r18, r24
     43c:	39 07       	cpc	r19, r25
     43e:	f8 f4       	brcc	.+62     	; 0x47e <CheckPins+0x14a>
        //measure voltage at the  Gate, differ between MOSFET and JFET
        ADC_PORT = TXD_VAL;
     440:	18 b8       	out	0x08, r1	; 8
        ADC_DDR = LoADCm;	//Low-Pin fix to GND
     442:	fc 81       	ldd	r31, Y+4	; 0x04
     444:	f7 b9       	out	0x07, r31	; 7
        R_DDR = TriPinRH | HiPinRL;	//High-Pin to output
     446:	8e 2d       	mov	r24, r14
     448:	8c 29       	or	r24, r12
     44a:	84 b9       	out	0x04, r24	; 4
        R_PORT = TriPinRH | HiPinRL;	//switch R_L for High-Pin to VCC
     44c:	85 b9       	out	0x05, r24	; 5
        adc.lp2 = W20msReadADC(TristatePin); //read voltage of assumed Gate 
     44e:	89 81       	ldd	r24, Y+1	; 0x01
     450:	0e 94 4b 13 	call	0x2696	; 0x2696 <W20msReadADC>
        if(adc.lp2>3911) {  //MOSFET
     454:	2f e0       	ldi	r18, 0x0F	; 15
     456:	88 34       	cpi	r24, 0x48	; 72
     458:	92 07       	cpc	r25, r18
     45a:	20 f0       	brcs	.+8      	; 0x464 <CheckPins+0x130>
           PartFound = PART_FET;	//N-Kanal-MOSFET
     45c:	83 e0       	ldi	r24, 0x03	; 3
     45e:	80 93 09 01 	sts	0x0109, r24
     462:	04 c0       	rjmp	.+8      	; 0x46c <CheckPins+0x138>
           PartMode = PART_MODE_N_D_MOS; //Depletion-MOSFET
        } else {  //JFET (pn-passage between Gate and Source is conducting )
           PartFound = PART_FET;	//N-Kanal-JFET
     464:	83 e0       	ldi	r24, 0x03	; 3
     466:	80 93 09 01 	sts	0x0109, r24
           PartMode = PART_MODE_N_JFET;
     46a:	85 e0       	ldi	r24, 0x05	; 5
     46c:	80 93 08 01 	sts	0x0108, r24
        }
        trans.b = TristatePin;		//save Pin numbers found for this FET
     470:	39 81       	ldd	r19, Y+1	; 0x01
     472:	30 93 3c 01 	sts	0x013C, r19
        trans.c = HighPin;
     476:	10 93 3d 01 	sts	0x013D, r17
        trans.e = LowPin;
     47a:	00 93 3e 01 	sts	0x013E, r16
     }

     ADC_PORT = TXD_VAL;		// direct outputs to GND
     47e:	18 b8       	out	0x08, r1	; 8

     //Test, if P-JFET or if self-conducting P-MOSFET
     ADC_DDR = LoADCm;		//switch Low-Pin (assumed Drain) direct to GND,
     480:	8c 81       	ldd	r24, Y+4	; 0x04
     482:	87 b9       	out	0x07, r24	; 7
				//R_H for Tristate-Pin (assumed Gate) is already switched to VCC
     R_DDR = TriPinRH | HiPinRL;	//High-Pin to output
     484:	8e 2d       	mov	r24, r14
     486:	8c 29       	or	r24, r12
     488:	84 b9       	out	0x04, r24	; 4
     R_PORT = TriPinRH | HiPinRL;	//High-Pin across R_L to Vcc
     48a:	85 b9       	out	0x05, r24	; 5
     adc.hp1 = W20msReadADC(HighPin);	//measure voltage at assumed Source 
     48c:	81 2f       	mov	r24, r17
     48e:	0e 94 4b 13 	call	0x2696	; 0x2696 <W20msReadADC>
     492:	5c 01       	movw	r10, r24
     R_PORT = HiPinRL;			//switch R_H for Tristate-Pin (assumed Gate) to GND
     494:	c5 b8       	out	0x05, r12	; 5
     adc.hp2 = W20msReadADC(HighPin);	//read voltage at assumed Source again
     496:	81 2f       	mov	r24, r17
     498:	0e 94 4b 13 	call	0x2696	; 0x2696 <W20msReadADC>
     //if it is a self-conducting P_MOSFET or P-JFET , then must be:  adc.hp1 > adc.hp2 
     if(adc.hp1>(adc.hp2+488)) {
     49c:	88 51       	subi	r24, 0x18	; 24
     49e:	9e 4f       	sbci	r25, 0xFE	; 254
     4a0:	8a 15       	cp	r24, r10
     4a2:	9b 05       	cpc	r25, r11
     4a4:	e0 f4       	brcc	.+56     	; 0x4de <CheckPins+0x1aa>
        //read voltage at the Gate , to differ between MOSFET and JFET
        ADC_PORT = HiADCp;	//switch High-Pin directly to VCC
     4a6:	9b 81       	ldd	r25, Y+3	; 0x03
     4a8:	98 b9       	out	0x08, r25	; 8
        ADC_DDR = HiADCm;	//switch High-Pin to output
     4aa:	97 b9       	out	0x07, r25	; 7
        adc.tp2 = W20msReadADC(TristatePin); //read voltage at the assumed Gate 
     4ac:	89 81       	ldd	r24, Y+1	; 0x01
     4ae:	0e 94 4b 13 	call	0x2696	; 0x2696 <W20msReadADC>
        if(adc.tp2<977) { 		//MOSFET
     4b2:	a3 e0       	ldi	r26, 0x03	; 3
     4b4:	81 3d       	cpi	r24, 0xD1	; 209
     4b6:	9a 07       	cpc	r25, r26
     4b8:	28 f4       	brcc	.+10     	; 0x4c4 <CheckPins+0x190>
           PartFound = PART_FET;	//P-Kanal-MOSFET
     4ba:	83 e0       	ldi	r24, 0x03	; 3
     4bc:	80 93 09 01 	sts	0x0109, r24
           PartMode = PART_MODE_P_D_MOS; //Depletion-MOSFET
     4c0:	84 e0       	ldi	r24, 0x04	; 4
     4c2:	04 c0       	rjmp	.+8      	; 0x4cc <CheckPins+0x198>
        } else { 			//JFET (pn-passage between Gate and Source is conducting)
           PartFound = PART_FET;	//P-Kanal-JFET
     4c4:	83 e0       	ldi	r24, 0x03	; 3
     4c6:	80 93 09 01 	sts	0x0109, r24
           PartMode = PART_MODE_P_JFET;
     4ca:	86 e0       	ldi	r24, 0x06	; 6
     4cc:	80 93 08 01 	sts	0x0108, r24
        }
        trans.b = TristatePin;		//save Pin numbers found for this FET
     4d0:	b9 81       	ldd	r27, Y+1	; 0x01
     4d2:	b0 93 3c 01 	sts	0x013C, r27
        trans.c = LowPin;
     4d6:	00 93 3d 01 	sts	0x013D, r16
        trans.e = HighPin;
     4da:	10 93 3e 01 	sts	0x013E, r17
  } // end component has current without TristatePin signal


#ifdef COMMON_COLLECTOR
  // Test circuit with common collector (Emitter follower)
  ADC_PORT = TXD_VAL;
     4de:	18 b8       	out	0x08, r1	; 8
  ADC_DDR = LoADCm;			// Collektor direct to GND
     4e0:	ec 81       	ldd	r30, Y+4	; 0x04
     4e2:	e7 b9       	out	0x07, r30	; 7
  R_PORT = HiPinRL;			// switch R_L port for HighPin (Emitter) to VCC
     4e4:	c5 b8       	out	0x05, r12	; 5
  R_DDR = TriPinRL | HiPinRL;		// Base resistor  R_L to GND
     4e6:	fc 2d       	mov	r31, r12
     4e8:	fd 29       	or	r31, r13
     4ea:	fd 83       	std	Y+5, r31	; 0x05
     4ec:	f4 b9       	out	0x04, r31	; 4
  adc.hp1 = U_VCC - W5msReadADC(HighPin);	// voltage at the Emitter resistor
     4ee:	81 2f       	mov	r24, r17
     4f0:	0e 94 4f 13 	call	0x269e	; 0x269e <W5msReadADC>
     4f4:	5c 01       	movw	r10, r24
  adc.tp1 = ReadADC(TristatePin);	// voltage at the base resistor
     4f6:	89 81       	ldd	r24, Y+1	; 0x01
     4f8:	0e 94 51 13 	call	0x26a2	; 0x26a2 <ReadADC>
     4fc:	bc 01       	movw	r22, r24

  if (adc.tp1 < 10) {
     4fe:	8a 30       	cpi	r24, 0x0A	; 10
     500:	91 05       	cpc	r25, r1
     502:	88 f5       	brcc	.+98     	; 0x566 <__stack+0x67>
     R_DDR =  TriPinRH | HiPinRL;	// Tripin=RH-
     504:	8e 2d       	mov	r24, r14
     506:	8c 29       	or	r24, r12
     508:	84 b9       	out	0x04, r24	; 4
     adc.hp1 = U_VCC - W5msReadADC(HighPin);
     50a:	81 2f       	mov	r24, r17
     50c:	0e 94 4f 13 	call	0x269e	; 0x269e <W5msReadADC>
     510:	5c 01       	movw	r10, r24
     adc.tp1 = ReadADC(TristatePin);	// voltage at base resistor 
     512:	89 81       	ldd	r24, Y+1	; 0x01
     514:	0e 94 51 13 	call	0x26a2	; 0x26a2 <ReadADC>
     518:	3c 01       	movw	r6, r24
  adc.hp1 = U_VCC - W5msReadADC(HighPin);	// voltage at the Emitter resistor
  adc.tp1 = ReadADC(TristatePin);	// voltage at the base resistor

  if (adc.tp1 < 10) {
     R_DDR =  TriPinRH | HiPinRL;	// Tripin=RH-
     adc.hp1 = U_VCC - W5msReadADC(HighPin);
     51a:	89 e8       	ldi	r24, 0x89	; 137
     51c:	93 e1       	ldi	r25, 0x13	; 19
     51e:	8a 19       	sub	r24, r10
     520:	9b 09       	sbc	r25, r11
       lcd_data('T');
       lcd_string(utoa(adc.tp1,outval,10));
       lcd_data(' ');
#endif
#ifdef LONG_HFE
     c_hfe = ((unsigned long)adc.hp1 * (unsigned long)(((unsigned long)R_H_VAL * 100) / 
     522:	4c 01       	movw	r8, r24
     524:	aa 24       	eor	r10, r10
     526:	bb 24       	eor	r11, r11
     528:	8a 85       	ldd	r24, Y+10	; 0x0a
     52a:	9b 85       	ldd	r25, Y+11	; 0x0b
     52c:	9c 01       	movw	r18, r24
     52e:	40 e0       	ldi	r20, 0x00	; 0
     530:	50 e0       	ldi	r21, 0x00	; 0
     532:	60 e6       	ldi	r22, 0x60	; 96
     534:	77 eb       	ldi	r23, 0xB7	; 183
     536:	87 e4       	ldi	r24, 0x47	; 71
     538:	90 e0       	ldi	r25, 0x00	; 0
     53a:	0e 94 e1 13 	call	0x27c2	; 0x27c2 <__udivmodsi4>
     53e:	c5 01       	movw	r24, r10
     540:	b4 01       	movw	r22, r8
     542:	0e 94 ae 13 	call	0x275c	; 0x275c <__mulsi3>
              (unsigned int)RR680PL)) / (unsigned int)adc.tp1;	
     546:	93 01       	movw	r18, r6
     548:	40 e0       	ldi	r20, 0x00	; 0
     54a:	50 e0       	ldi	r21, 0x00	; 0
       lcd_data('T');
       lcd_string(utoa(adc.tp1,outval,10));
       lcd_data(' ');
#endif
#ifdef LONG_HFE
     c_hfe = ((unsigned long)adc.hp1 * (unsigned long)(((unsigned long)R_H_VAL * 100) / 
     54c:	0e 94 e1 13 	call	0x27c2	; 0x27c2 <__udivmodsi4>
     550:	49 01       	movw	r8, r18
     552:	5a 01       	movw	r10, r20
              (unsigned int)RR680PL)) / (unsigned int)adc.tp1;	
     if (c_hfe > 65535) {
     554:	20 30       	cpi	r18, 0x00	; 0
     556:	90 e0       	ldi	r25, 0x00	; 0
     558:	39 07       	cpc	r19, r25
     55a:	91 e0       	ldi	r25, 0x01	; 1
     55c:	49 07       	cpc	r20, r25
     55e:	90 e0       	ldi	r25, 0x00	; 0
     560:	59 07       	cpc	r21, r25
     562:	68 f4       	brcc	.+26     	; 0x57e <__stack+0x7f>
     564:	12 c0       	rjmp	.+36     	; 0x58a <__stack+0x8b>
  // Test circuit with common collector (Emitter follower)
  ADC_PORT = TXD_VAL;
  ADC_DDR = LoADCm;			// Collektor direct to GND
  R_PORT = HiPinRL;			// switch R_L port for HighPin (Emitter) to VCC
  R_DDR = TriPinRL | HiPinRL;		// Base resistor  R_L to GND
  adc.hp1 = U_VCC - W5msReadADC(HighPin);	// voltage at the Emitter resistor
     566:	89 e8       	ldi	r24, 0x89	; 137
     568:	93 e1       	ldi	r25, 0x13	; 19
     56a:	8a 19       	sub	r24, r10
     56c:	9b 09       	sbc	r25, r11
     }
#else
     c_hfe = ((adc.hp1 / ((RR680PL+500)/1000)) * (R_H_VAL/500)) / (adc.tp2/500);
#endif
  } else {
     c_hfe = (unsigned long)((adc.hp1 - adc.tp1) / adc.tp1);
     56e:	86 1b       	sub	r24, r22
     570:	97 0b       	sbc	r25, r23
     572:	0e 94 cd 13 	call	0x279a	; 0x279a <__udivmodhi4>
     576:	4b 01       	movw	r8, r22
     578:	aa 24       	eor	r10, r10
     57a:	bb 24       	eor	r11, r11
     57c:	06 c0       	rjmp	.+12     	; 0x58a <__stack+0x8b>
#endif
#ifdef LONG_HFE
     c_hfe = ((unsigned long)adc.hp1 * (unsigned long)(((unsigned long)R_H_VAL * 100) / 
              (unsigned int)RR680PL)) / (unsigned int)adc.tp1;	
     if (c_hfe > 65535) {
        c_hfe = 65535;
     57e:	2f ef       	ldi	r18, 0xFF	; 255
     580:	82 2e       	mov	r8, r18
     582:	2f ef       	ldi	r18, 0xFF	; 255
     584:	92 2e       	mov	r9, r18
     586:	a1 2c       	mov	r10, r1
     588:	b1 2c       	mov	r11, r1
     c_hfe = (unsigned long)((adc.hp1 - adc.tp1) / adc.tp1);
  }
#endif

  //set Pins again for circuit with common Emitter
  R_DDR = LoPinRL;		//switch R_L port for Low-Pin to output (GND)
     58a:	aa 81       	ldd	r26, Y+2	; 0x02
     58c:	a4 b9       	out	0x04, r26	; 4
  R_PORT = 0;			//switch all resistor ports to GND
     58e:	15 b8       	out	0x05, r1	; 5
  ADC_DDR = HiADCm;		//switch High-Pin to output
     590:	bb 81       	ldd	r27, Y+3	; 0x03
     592:	b7 b9       	out	0x07, r27	; 7
  ADC_PORT = HiADCp;		//switch High-Pin to VCC
     594:	b8 b9       	out	0x08, r27	; 8
  wait5ms();
     596:	0e 94 34 13 	call	0x2668	; 0x2668 <wait5ms>
  
  if(adc.lp_otr < 977) {
     59a:	e8 85       	ldd	r30, Y+8	; 0x08
     59c:	f9 85       	ldd	r31, Y+9	; 0x09
     59e:	23 e0       	ldi	r18, 0x03	; 3
     5a0:	e1 3d       	cpi	r30, 0xD1	; 209
     5a2:	f2 07       	cpc	r31, r18
     5a4:	08 f0       	brcs	.+2      	; 0x5a8 <__stack+0xa9>
     5a6:	44 c2       	rjmp	.+1160   	; 0xa30 <__stack+0x531>
     lcd_testpin(HighPin);
     lcd_data(' ');
     wait1s();
#endif
     //Test to pnp
     R_DDR = LoPinRL | TriPinRL;	//switch R_L port for Tristate-Pin to output (GND), for Test of pnp
     5a8:	3a 81       	ldd	r19, Y+2	; 0x02
     5aa:	3d 29       	or	r19, r13
     5ac:	3e 87       	std	Y+14, r19	; 0x0e
     5ae:	34 b9       	out	0x04, r19	; 4
     adc.lp1 = W5msReadADC(LowPin);	//measure voltage at LowPin
     5b0:	80 2f       	mov	r24, r16
     5b2:	0e 94 4f 13 	call	0x269e	; 0x269e <W5msReadADC>
     if(adc.lp1 > 3422) {
     5b6:	ad e0       	ldi	r26, 0x0D	; 13
     5b8:	8f 35       	cpi	r24, 0x5F	; 95
     5ba:	9a 07       	cpc	r25, r26
     5bc:	08 f4       	brcc	.+2      	; 0x5c0 <__stack+0xc1>
     5be:	ba c0       	rjmp	.+372    	; 0x734 <__stack+0x235>
        //component has current => PNP-Transistor or equivalent
        //compute current amplification factor in both directions
        R_DDR = LoPinRL | TriPinRH;	//switch R_H port for Tristate-Pin (Base) to output (GND)
     5c0:	ba 81       	ldd	r27, Y+2	; 0x02
     5c2:	be 29       	or	r27, r14
     5c4:	bf 87       	std	Y+15, r27	; 0x0f
     5c6:	b4 b9       	out	0x04, r27	; 4

        adc.lp1 = W5msReadADC(LowPin);	//measure voltage at LowPin (assumed Collektor)
     5c8:	80 2f       	mov	r24, r16
     5ca:	0e 94 4f 13 	call	0x269e	; 0x269e <W5msReadADC>
     5ce:	99 8b       	std	Y+17, r25	; 0x11
     5d0:	88 8b       	std	Y+16, r24	; 0x10
        adc.tp2 = ReadADC(TristatePin);	//measure voltage at TristatePin (Base) 
     5d2:	89 81       	ldd	r24, Y+1	; 0x01
     5d4:	0e 94 51 13 	call	0x26a2	; 0x26a2 <ReadADC>
     5d8:	3c 01       	movw	r6, r24
        //check, if Test is done before 
        if((PartFound == PART_TRANSISTOR) || (PartFound == PART_FET)) {
     5da:	f0 90 09 01 	lds	r15, 0x0109
     5de:	8f 2d       	mov	r24, r15
     5e0:	82 50       	subi	r24, 0x02	; 2
     5e2:	82 30       	cpi	r24, 0x02	; 2
     5e4:	18 f4       	brcc	.+6      	; 0x5ec <__stack+0xed>
           PartReady = 1;
     5e6:	81 e0       	ldi	r24, 0x01	; 1
     5e8:	80 93 06 01 	sts	0x0106, r24
        }

        //compute current amplification factor for circuit with common Emitter
        //hFE = B = Collektor current / Base current
        if(adc.tp2 < 53) {
     5ec:	e5 e3       	ldi	r30, 0x35	; 53
     5ee:	6e 16       	cp	r6, r30
     5f0:	71 04       	cpc	r7, r1
     5f2:	18 f4       	brcc	.+6      	; 0x5fa <__stack+0xfb>
#if DebugOut == 5
           lcd_data('<');
           lcd_data('5');
           lcd_data('3');
#endif
           adc.tp2 = 53;
     5f4:	95 e3       	ldi	r25, 0x35	; 53
     5f6:	69 2e       	mov	r6, r25
     5f8:	71 2c       	mov	r7, r1
        }

 #ifdef LONG_HFE
        trans.hfe[PartReady] = ((unsigned int)adc.lp1 * (unsigned long)(((unsigned long)R_H_VAL * 100) / 
     5fa:	80 91 06 01 	lds	r24, 0x0106
     5fe:	28 2f       	mov	r18, r24
     600:	30 e0       	ldi	r19, 0x00	; 0
     602:	3b 8b       	std	Y+19, r19	; 0x13
     604:	2a 8b       	std	Y+18, r18	; 0x12
     606:	88 89       	ldd	r24, Y+16	; 0x10
     608:	99 89       	ldd	r25, Y+17	; 0x11
     60a:	1c 01       	movw	r2, r24
     60c:	44 24       	eor	r4, r4
     60e:	55 24       	eor	r5, r5
     610:	ac 85       	ldd	r26, Y+12	; 0x0c
     612:	bd 85       	ldd	r27, Y+13	; 0x0d
     614:	9d 01       	movw	r18, r26
     616:	40 e0       	ldi	r20, 0x00	; 0
     618:	50 e0       	ldi	r21, 0x00	; 0
     61a:	60 e6       	ldi	r22, 0x60	; 96
     61c:	77 eb       	ldi	r23, 0xB7	; 183
     61e:	87 e4       	ldi	r24, 0x47	; 71
     620:	90 e0       	ldi	r25, 0x00	; 0
     622:	0e 94 e1 13 	call	0x27c2	; 0x27c2 <__udivmodsi4>
     626:	c2 01       	movw	r24, r4
     628:	b1 01       	movw	r22, r2
     62a:	0e 94 ae 13 	call	0x275c	; 0x275c <__mulsi3>
                 (unsigned int)RR680MI)) / (unsigned int)adc.tp2;	
     62e:	93 01       	movw	r18, r6
     630:	40 e0       	ldi	r20, 0x00	; 0
     632:	50 e0       	ldi	r21, 0x00	; 0
     634:	0e 94 e1 13 	call	0x27c2	; 0x27c2 <__udivmodsi4>
#endif
           adc.tp2 = 53;
        }

 #ifdef LONG_HFE
        trans.hfe[PartReady] = ((unsigned int)adc.lp1 * (unsigned long)(((unsigned long)R_H_VAL * 100) / 
     638:	ea 89       	ldd	r30, Y+18	; 0x12
     63a:	fb 89       	ldd	r31, Y+19	; 0x13
     63c:	ee 0f       	add	r30, r30
     63e:	ff 1f       	adc	r31, r31
     640:	e8 5c       	subi	r30, 0xC8	; 200
     642:	fe 4f       	sbci	r31, 0xFE	; 254
     644:	fb 8b       	std	Y+19, r31	; 0x13
     646:	ea 8b       	std	Y+18, r30	; 0x12
     648:	31 83       	std	Z+1, r19	; 0x01
     64a:	20 83       	st	Z, r18
        trans.hfe[PartReady] = ((adc.lp1 / ((RR680MI+500)/1000)) * (R_H_VAL/500)) / (adc.tp2/500);
 #endif
#ifdef COMMON_COLLECTOR
        //current amplification factor for common  Collektor (Emitter follower)
        // c_hFE = (Emitter current - Base current) / Base current
        if (c_hfe > trans.hfe[PartReady]) {
     64c:	40 e0       	ldi	r20, 0x00	; 0
     64e:	50 e0       	ldi	r21, 0x00	; 0
     650:	28 15       	cp	r18, r8
     652:	39 05       	cpc	r19, r9
     654:	4a 05       	cpc	r20, r10
     656:	5b 05       	cpc	r21, r11
     658:	10 f4       	brcc	.+4      	; 0x65e <__stack+0x15f>
           trans.hfe[PartReady] = (unsigned int)c_hfe;
     65a:	91 82       	std	Z+1, r9	; 0x01
     65c:	80 82       	st	Z, r8
        }
#endif

 
        if(PartFound != PART_THYRISTOR) {
     65e:	ff 2d       	mov	r31, r15
     660:	f5 30       	cpi	r31, 0x05	; 5
     662:	09 f4       	brne	.+2      	; 0x666 <__stack+0x167>
     664:	67 c0       	rjmp	.+206    	; 0x734 <__stack+0x235>
           if(adc.tp2 > 977) {
     666:	22 ed       	ldi	r18, 0xD2	; 210
     668:	62 16       	cp	r6, r18
     66a:	23 e0       	ldi	r18, 0x03	; 3
     66c:	72 06       	cpc	r7, r18
     66e:	30 f0       	brcs	.+12     	; 0x67c <__stack+0x17d>
              //PNP-Transistor is found (Base voltage moves to VCC)
              PartFound = PART_TRANSISTOR;
     670:	82 e0       	ldi	r24, 0x02	; 2
     672:	80 93 09 01 	sts	0x0109, r24
              PartMode = PART_MODE_PNP;
     676:	80 93 08 01 	sts	0x0108, r24
     67a:	55 c0       	rjmp	.+170    	; 0x726 <__stack+0x227>
           } else {
              if((adc.lp_otr < 97) && (adc.lp1 > 2000)) {
     67c:	88 85       	ldd	r24, Y+8	; 0x08
     67e:	99 85       	ldd	r25, Y+9	; 0x09
     680:	81 36       	cpi	r24, 0x61	; 97
     682:	91 05       	cpc	r25, r1
     684:	08 f0       	brcs	.+2      	; 0x688 <__stack+0x189>
     686:	4f c0       	rjmp	.+158    	; 0x726 <__stack+0x227>
     688:	a8 89       	ldd	r26, Y+16	; 0x10
     68a:	b9 89       	ldd	r27, Y+17	; 0x11
     68c:	e7 e0       	ldi	r30, 0x07	; 7
     68e:	a1 3d       	cpi	r26, 0xD1	; 209
     690:	be 07       	cpc	r27, r30
     692:	08 f4       	brcc	.+2      	; 0x696 <__stack+0x197>
     694:	48 c0       	rjmp	.+144    	; 0x726 <__stack+0x227>
                 //is flow voltage low enough in the closed  state?
                 //(since D-Mode-FET would be by mistake detected as E-Mode )
        	 PartFound = PART_FET;		//P-Kanal-MOSFET if found (Basis/Gate moves not to VCC)
     696:	83 e0       	ldi	r24, 0x03	; 3
     698:	80 93 09 01 	sts	0x0109, r24
        	 PartMode = PART_MODE_P_E_MOS;
     69c:	82 e0       	ldi	r24, 0x02	; 2
     69e:	80 93 08 01 	sts	0x0108, r24
                 PinMSK = LoADCm & 7;
     6a2:	ac 80       	ldd	r10, Y+4	; 0x04
     6a4:	f7 e0       	ldi	r31, 0x07	; 7
     6a6:	af 22       	and	r10, r31
        	 //measure the Gate threshold voltage
        	 ADMUX = TristatePin | (1<<REFS0);	// switch to TristatePin, Ref. VCC
     6a8:	89 81       	ldd	r24, Y+1	; 0x01
     6aa:	80 64       	ori	r24, 0x40	; 64
     6ac:	80 93 7c 00 	sts	0x007C, r24
        	 gthvoltage = 1;		// round up ((1*4)/9)
     6b0:	81 e0       	ldi	r24, 0x01	; 1
     6b2:	90 e0       	ldi	r25, 0x00	; 0
     6b4:	90 93 45 01 	sts	0x0145, r25
     6b8:	80 93 44 01 	sts	0x0144, r24
     6bc:	bb e0       	ldi	r27, 0x0B	; 11
     6be:	fb 2e       	mov	r15, r27
        	 for(ii=0;ii<11;ii++) {
        	    wdt_reset();
     6c0:	a8 95       	wdr
        	    ChargePin10ms(TriPinRL,1);
     6c2:	8d 2d       	mov	r24, r13
     6c4:	61 e0       	ldi	r22, 0x01	; 1
     6c6:	0e 94 79 01 	call	0x2f2	; 0x2f2 <ChargePin10ms>
                    R_DDR = LoPinRL | TriPinRH;	//switch R_H for Tristate-Pin (Basis) to GND
     6ca:	2f 85       	ldd	r18, Y+15	; 0x0f
     6cc:	24 b9       	out	0x04, r18	; 4
        	    while (!(ADC_PIN&PinMSK));  // Wait, until the MOSFET switches and Drain moves to VCC
     6ce:	86 b1       	in	r24, 0x06	; 6
     6d0:	8a 21       	and	r24, r10
     6d2:	e9 f3       	breq	.-6      	; 0x6ce <__stack+0x1cf>
        	    R_DDR = LoPinRL;
     6d4:	3a 81       	ldd	r19, Y+2	; 0x02
     6d6:	34 b9       	out	0x04, r19	; 4
        	    ADCSRA |= (1<<ADSC);	// Start Conversion
     6d8:	80 91 7a 00 	lds	r24, 0x007A
     6dc:	80 64       	ori	r24, 0x40	; 64
     6de:	80 93 7a 00 	sts	0x007A, r24
        	    while (ADCSRA&(1<<ADSC));	// wait
     6e2:	80 91 7a 00 	lds	r24, 0x007A
     6e6:	86 fd       	sbrc	r24, 6
     6e8:	fc cf       	rjmp	.-8      	; 0x6e2 <__stack+0x1e3>
      		    gthvoltage += (1023 - ADCW); // Add Tristatepin-Voltage
     6ea:	20 91 78 00 	lds	r18, 0x0078
     6ee:	30 91 79 00 	lds	r19, 0x0079
     6f2:	80 91 44 01 	lds	r24, 0x0144
     6f6:	90 91 45 01 	lds	r25, 0x0145
     6fa:	81 50       	subi	r24, 0x01	; 1
     6fc:	9c 4f       	sbci	r25, 0xFC	; 252
     6fe:	82 1b       	sub	r24, r18
     700:	93 0b       	sbc	r25, r19
     702:	90 93 45 01 	sts	0x0145, r25
     706:	80 93 44 01 	sts	0x0144, r24
     70a:	fa 94       	dec	r15
        	 PartMode = PART_MODE_P_E_MOS;
                 PinMSK = LoADCm & 7;
        	 //measure the Gate threshold voltage
        	 ADMUX = TristatePin | (1<<REFS0);	// switch to TristatePin, Ref. VCC
        	 gthvoltage = 1;		// round up ((1*4)/9)
        	 for(ii=0;ii<11;ii++) {
     70c:	c9 f6       	brne	.-78     	; 0x6c0 <__stack+0x1c1>
        	    R_DDR = LoPinRL;
        	    ADCSRA |= (1<<ADSC);	// Start Conversion
        	    while (ADCSRA&(1<<ADSC));	// wait
      		    gthvoltage += (1023 - ADCW); // Add Tristatepin-Voltage
                 }
                 gthvoltage *= 4;		// is equal to 44*ADCW
     70e:	88 0f       	add	r24, r24
     710:	99 1f       	adc	r25, r25
     712:	88 0f       	add	r24, r24
     714:	99 1f       	adc	r25, r25
                 gthvoltage /= 9;		// gives resolution in mV
     716:	69 e0       	ldi	r22, 0x09	; 9
     718:	70 e0       	ldi	r23, 0x00	; 0
     71a:	0e 94 cd 13 	call	0x279a	; 0x279a <__udivmodhi4>
     71e:	70 93 45 01 	sts	0x0145, r23
     722:	60 93 44 01 	sts	0x0144, r22
              }
           }
           trans.b = TristatePin;
     726:	89 81       	ldd	r24, Y+1	; 0x01
     728:	80 93 3c 01 	sts	0x013C, r24
           trans.c = LowPin;
     72c:	00 93 3d 01 	sts	0x013D, r16
           trans.e = HighPin;
     730:	10 93 3e 01 	sts	0x013E, r17
        }  // end if PartFound != PART_THYRISTOR
    } // end component has current => pnp

#ifdef COMMON_COLLECTOR
    // Low-Pin=RL- HighPin=VCC
    R_DDR = LoPinRL | TriPinRL;
     734:	9e 85       	ldd	r25, Y+14	; 0x0e
     736:	94 b9       	out	0x04, r25	; 4
    R_PORT = TriPinRL;			// TriPin=RL+  NPN with common Collector
     738:	d5 b8       	out	0x05, r13	; 5
    adc.lp1 = W5msReadADC(LowPin);	// voltage at Emitter resistor
     73a:	80 2f       	mov	r24, r16
     73c:	0e 94 4f 13 	call	0x269e	; 0x269e <W5msReadADC>
     740:	5c 01       	movw	r10, r24
    adc.tp1 = U_VCC - ReadADC(TristatePin);	// voltage at Base resistor
     742:	89 81       	ldd	r24, Y+1	; 0x01
     744:	0e 94 51 13 	call	0x26a2	; 0x26a2 <ReadADC>
     748:	f9 e8       	ldi	r31, 0x89	; 137
     74a:	6f 2e       	mov	r6, r31
     74c:	f3 e1       	ldi	r31, 0x13	; 19
     74e:	7f 2e       	mov	r7, r31
     750:	b3 01       	movw	r22, r6
     752:	68 1b       	sub	r22, r24
     754:	79 0b       	sbc	r23, r25
    if (adc.tp1 < 10) {
     756:	6a 30       	cpi	r22, 0x0A	; 10
     758:	71 05       	cpc	r23, r1
     75a:	78 f5       	brcc	.+94     	; 0x7ba <__stack+0x2bb>
       R_DDR = LoPinRL | TriPinRH;
     75c:	8a 81       	ldd	r24, Y+2	; 0x02
     75e:	8e 29       	or	r24, r14
     760:	84 b9       	out	0x04, r24	; 4
       R_PORT = TriPinRH;		// Tripin=RH+
     762:	e5 b8       	out	0x05, r14	; 5
       adc.lp1 = W5msReadADC(LowPin);
     764:	80 2f       	mov	r24, r16
     766:	0e 94 4f 13 	call	0x269e	; 0x269e <W5msReadADC>
     76a:	4c 01       	movw	r8, r24
       adc.tp1 = U_VCC - ReadADC(TristatePin);	// voltage at Base resistor
     76c:	89 81       	ldd	r24, Y+1	; 0x01
     76e:	0e 94 51 13 	call	0x26a2	; 0x26a2 <ReadADC>
     772:	1c 01       	movw	r2, r24
#ifdef LONG_HFE
       c_hfe = ((unsigned long)adc.lp1 * (unsigned long)(((unsigned long)R_H_VAL * 100) / 
     774:	aa 24       	eor	r10, r10
     776:	bb 24       	eor	r11, r11
     778:	ac 85       	ldd	r26, Y+12	; 0x0c
     77a:	bd 85       	ldd	r27, Y+13	; 0x0d
     77c:	9d 01       	movw	r18, r26
     77e:	40 e0       	ldi	r20, 0x00	; 0
     780:	50 e0       	ldi	r21, 0x00	; 0
     782:	60 e6       	ldi	r22, 0x60	; 96
     784:	77 eb       	ldi	r23, 0xB7	; 183
     786:	87 e4       	ldi	r24, 0x47	; 71
     788:	90 e0       	ldi	r25, 0x00	; 0
     78a:	0e 94 e1 13 	call	0x27c2	; 0x27c2 <__udivmodsi4>
     78e:	c5 01       	movw	r24, r10
     790:	b4 01       	movw	r22, r8
     792:	0e 94 ae 13 	call	0x275c	; 0x275c <__mulsi3>
    adc.tp1 = U_VCC - ReadADC(TristatePin);	// voltage at Base resistor
    if (adc.tp1 < 10) {
       R_DDR = LoPinRL | TriPinRH;
       R_PORT = TriPinRH;		// Tripin=RH+
       adc.lp1 = W5msReadADC(LowPin);
       adc.tp1 = U_VCC - ReadADC(TristatePin);	// voltage at Base resistor
     796:	62 18       	sub	r6, r2
     798:	73 08       	sbc	r7, r3
#ifdef LONG_HFE
       c_hfe = ((unsigned long)adc.lp1 * (unsigned long)(((unsigned long)R_H_VAL * 100) / 
              (unsigned int)RR680MI)) / (unsigned int)adc.tp1;	
     79a:	93 01       	movw	r18, r6
     79c:	40 e0       	ldi	r20, 0x00	; 0
     79e:	50 e0       	ldi	r21, 0x00	; 0
       R_DDR = LoPinRL | TriPinRH;
       R_PORT = TriPinRH;		// Tripin=RH+
       adc.lp1 = W5msReadADC(LowPin);
       adc.tp1 = U_VCC - ReadADC(TristatePin);	// voltage at Base resistor
#ifdef LONG_HFE
       c_hfe = ((unsigned long)adc.lp1 * (unsigned long)(((unsigned long)R_H_VAL * 100) / 
     7a0:	0e 94 e1 13 	call	0x27c2	; 0x27c2 <__udivmodsi4>
     7a4:	49 01       	movw	r8, r18
     7a6:	5a 01       	movw	r10, r20
              (unsigned int)RR680MI)) / (unsigned int)adc.tp1;	
       if (c_hfe > 65535) {
     7a8:	20 30       	cpi	r18, 0x00	; 0
     7aa:	b0 e0       	ldi	r27, 0x00	; 0
     7ac:	3b 07       	cpc	r19, r27
     7ae:	b1 e0       	ldi	r27, 0x01	; 1
     7b0:	4b 07       	cpc	r20, r27
     7b2:	b0 e0       	ldi	r27, 0x00	; 0
     7b4:	5b 07       	cpc	r21, r27
     7b6:	50 f4       	brcc	.+20     	; 0x7cc <__stack+0x2cd>
     7b8:	0f c0       	rjmp	.+30     	; 0x7d8 <__stack+0x2d9>
       }
#else
       c_hfe = ((adc.lp1 / ((RR680MI+500)/1000)) * (R_H_VAL/500)) / (adc.tp2/500);
#endif
    } else {
       c_hfe = (adc.lp1 - adc.tp1) / adc.tp1;
     7ba:	c5 01       	movw	r24, r10
     7bc:	86 1b       	sub	r24, r22
     7be:	97 0b       	sbc	r25, r23
     7c0:	0e 94 cd 13 	call	0x279a	; 0x279a <__udivmodhi4>
     7c4:	4b 01       	movw	r8, r22
     7c6:	aa 24       	eor	r10, r10
     7c8:	bb 24       	eor	r11, r11
     7ca:	06 c0       	rjmp	.+12     	; 0x7d8 <__stack+0x2d9>
       adc.tp1 = U_VCC - ReadADC(TristatePin);	// voltage at Base resistor
#ifdef LONG_HFE
       c_hfe = ((unsigned long)adc.lp1 * (unsigned long)(((unsigned long)R_H_VAL * 100) / 
              (unsigned int)RR680MI)) / (unsigned int)adc.tp1;	
       if (c_hfe > 65535) {
          c_hfe = 65535;
     7cc:	ef ef       	ldi	r30, 0xFF	; 255
     7ce:	8e 2e       	mov	r8, r30
     7d0:	ef ef       	ldi	r30, 0xFF	; 255
     7d2:	9e 2e       	mov	r9, r30
     7d4:	a1 2c       	mov	r10, r1
     7d6:	b1 2c       	mov	r11, r1
    } else {
       c_hfe = (adc.lp1 - adc.tp1) / adc.tp1;
    }
#endif
    //Tristate (can be Base) to VCC, Test if npn
    ADC_DDR = LoADCm;		//Low-Pin to output 0V
     7d8:	ec 81       	ldd	r30, Y+4	; 0x04
     7da:	e7 b9       	out	0x07, r30	; 7
    ADC_PORT = TXD_VAL;			//switch Low-Pin to GND
     7dc:	18 b8       	out	0x08, r1	; 8
    R_DDR = TriPinRL | HiPinRL;		//RL port for High-Pin and Tristate-Pin to output
     7de:	fd 81       	ldd	r31, Y+5	; 0x05
     7e0:	f4 b9       	out	0x04, r31	; 4
    R_PORT = TriPinRL | HiPinRL;	//RL port for High-Pin and Tristate-Pin to Vcc
     7e2:	f5 b9       	out	0x05, r31	; 5
    adc.hp1 = W5msReadADC(HighPin);	//measure voltage at High-Pin 
     7e4:	81 2f       	mov	r24, r17
     7e6:	0e 94 4f 13 	call	0x269e	; 0x269e <W5msReadADC>
    if(adc.hp1 < 1600) {
     7ea:	26 e0       	ldi	r18, 0x06	; 6
     7ec:	80 34       	cpi	r24, 0x40	; 64
     7ee:	92 07       	cpc	r25, r18
     7f0:	08 f0       	brcs	.+2      	; 0x7f4 <__stack+0x2f5>
     7f2:	1b c1       	rjmp	.+566    	; 0xa2a <__stack+0x52b>
       lcd_data('N');
       lcd_testpin(HighPin);
       lcd_data(' ');
       wait1s();
#endif
       if(PartReady==1) {
     7f4:	80 91 06 01 	lds	r24, 0x0106
     7f8:	81 30       	cpi	r24, 0x01	; 1
     7fa:	09 f4       	brne	.+2      	; 0x7fe <__stack+0x2ff>
     7fc:	81 c1       	rjmp	.+770    	; 0xb00 <__stack+0x601>
          goto widmes;
       }

       //Test auf Thyristor:
       //Gate discharge
       ChargePin10ms(TriPinRL,0);	//Tristate-Pin (Gate) across R_L 10ms to GND
     7fe:	8d 2d       	mov	r24, r13
     800:	60 e0       	ldi	r22, 0x00	; 0
     802:	0e 94 79 01 	call	0x2f2	; 0x2f2 <ChargePin10ms>
       adc.hp3 = W5msReadADC(HighPin);	//read voltage at High-Pin (probably Anode) again
     806:	81 2f       	mov	r24, r17
     808:	0e 94 4f 13 	call	0x269e	; 0x269e <W5msReadADC>
     80c:	3c 01       	movw	r6, r24
					//current should still flow, if not,
					// no Thyristor or holding current to low 
		 	
       R_PORT = 0;			//switch R_L for High-Pin (probably Anode) to GND (turn off)
     80e:	15 b8       	out	0x05, r1	; 5
       wait5ms();
     810:	0e 94 34 13 	call	0x2668	; 0x2668 <wait5ms>
       R_PORT = HiPinRL;		//switch R_L for High-Pin (probably Anode) again to VCC
     814:	c5 b8       	out	0x05, r12	; 5
       adc.hp2 = W5msReadADC(HighPin);	//measure voltage at the High-Pin (probably Anode) again
     816:	81 2f       	mov	r24, r17
     818:	0e 94 4f 13 	call	0x269e	; 0x269e <W5msReadADC>
       if((adc.hp3 < 1600) && (adc.hp2 > 4400)) {
     81c:	30 e4       	ldi	r19, 0x40	; 64
     81e:	63 16       	cp	r6, r19
     820:	36 e0       	ldi	r19, 0x06	; 6
     822:	73 06       	cpc	r7, r19
     824:	08 f0       	brcs	.+2      	; 0x828 <__stack+0x329>
     826:	42 c0       	rjmp	.+132    	; 0x8ac <__stack+0x3ad>
     828:	a1 e1       	ldi	r26, 0x11	; 17
     82a:	81 33       	cpi	r24, 0x31	; 49
     82c:	9a 07       	cpc	r25, r26
     82e:	f0 f1       	brcs	.+124    	; 0x8ac <__stack+0x3ad>
          //if the holding current was switched off the thyristor must be switched off too. 
          //if Thyristor was still swiched on, if gate was switched off => Thyristor
          PartFound = PART_THYRISTOR;
     830:	85 e0       	ldi	r24, 0x05	; 5
     832:	80 93 09 01 	sts	0x0109, r24
          //Test if Triac
          R_DDR = 0;
     836:	14 b8       	out	0x04, r1	; 4
          R_PORT = 0;
     838:	15 b8       	out	0x05, r1	; 5
          ADC_PORT = LoADCp;	//Low-Pin fix to VCC
     83a:	bc 81       	ldd	r27, Y+4	; 0x04
     83c:	b8 b9       	out	0x08, r27	; 8
          wait5ms();
     83e:	0e 94 34 13 	call	0x2668	; 0x2668 <wait5ms>
          R_DDR = HiPinRL;		//switch R_L port HighPin to output (GND)
     842:	c4 b8       	out	0x04, r12	; 4
          if(W5msReadADC(HighPin) > 244) {
     844:	81 2f       	mov	r24, r17
     846:	0e 94 4f 13 	call	0x269e	; 0x269e <W5msReadADC>
     84a:	85 3f       	cpi	r24, 0xF5	; 245
     84c:	91 05       	cpc	r25, r1
     84e:	08 f0       	brcs	.+2      	; 0x852 <__stack+0x353>
     850:	e5 c0       	rjmp	.+458    	; 0xa1c <__stack+0x51d>
             goto savenresult;		//measure voltage at the  High-Pin (probably A2); if too high:
                                	//component has current => kein Triac
          }
          R_DDR = HiPinRL | TriPinRL;	//switch R_L port for TristatePin (Gate) to output (GND) => Triac should be triggered 
     852:	ed 81       	ldd	r30, Y+5	; 0x05
     854:	e4 b9       	out	0x04, r30	; 4
          if(W5msReadADC(TristatePin) < 977) {
     856:	89 81       	ldd	r24, Y+1	; 0x01
     858:	0e 94 4f 13 	call	0x269e	; 0x269e <W5msReadADC>
     85c:	f3 e0       	ldi	r31, 0x03	; 3
     85e:	81 3d       	cpi	r24, 0xD1	; 209
     860:	9f 07       	cpc	r25, r31
     862:	08 f4       	brcc	.+2      	; 0x866 <__stack+0x367>
     864:	db c0       	rjmp	.+438    	; 0xa1c <__stack+0x51d>
             goto savenresult; 		//measure voltage at the Tristate-Pin (probably Gate) ;
                              		// if to low, abort 
          }
          if(ReadADC(HighPin) < 733) {
     866:	81 2f       	mov	r24, r17
     868:	0e 94 51 13 	call	0x26a2	; 0x26a2 <ReadADC>
     86c:	22 e0       	ldi	r18, 0x02	; 2
     86e:	8d 3d       	cpi	r24, 0xDD	; 221
     870:	92 07       	cpc	r25, r18
     872:	08 f4       	brcc	.+2      	; 0x876 <__stack+0x377>
     874:	d3 c0       	rjmp	.+422    	; 0xa1c <__stack+0x51d>
             goto savenresult; 		//component has no current => no Triac => abort
          }
          R_DDR = HiPinRL;		//TristatePin (Gate) to input 
     876:	c4 b8       	out	0x04, r12	; 4
          if(W5msReadADC(HighPin) < 733) {
     878:	81 2f       	mov	r24, r17
     87a:	0e 94 4f 13 	call	0x269e	; 0x269e <W5msReadADC>
     87e:	32 e0       	ldi	r19, 0x02	; 2
     880:	8d 3d       	cpi	r24, 0xDD	; 221
     882:	93 07       	cpc	r25, r19
     884:	08 f4       	brcc	.+2      	; 0x888 <__stack+0x389>
     886:	ca c0       	rjmp	.+404    	; 0xa1c <__stack+0x51d>
             goto savenresult; 		//component has no current without base current => no Triac => abort
          }
          R_PORT = HiPinRL;		//switch R_L port for HighPin to VCC => switch off holding current 
     888:	c5 b8       	out	0x05, r12	; 5
          wait5ms();
     88a:	0e 94 34 13 	call	0x2668	; 0x2668 <wait5ms>
          R_PORT = 0;			//switch R_L port for HighPin again to GND; Triac should now switched off
     88e:	15 b8       	out	0x05, r1	; 5
          if(W5msReadADC(HighPin) > 244) {
     890:	81 2f       	mov	r24, r17
     892:	0e 94 4f 13 	call	0x269e	; 0x269e <W5msReadADC>
     896:	85 3f       	cpi	r24, 0xF5	; 245
     898:	91 05       	cpc	r25, r1
     89a:	08 f0       	brcs	.+2      	; 0x89e <__stack+0x39f>
     89c:	bf c0       	rjmp	.+382    	; 0xa1c <__stack+0x51d>
             goto savenresult;		//measure voltage at the High-Pin (probably A2) ;
                                	//if to high, component is not switched off => no Triac, abort
         }
         PartFound = PART_TRIAC;
     89e:	84 e0       	ldi	r24, 0x04	; 4
     8a0:	80 93 09 01 	sts	0x0109, r24
         PartReady = 1;
     8a4:	81 e0       	ldi	r24, 0x01	; 1
     8a6:	80 93 06 01 	sts	0x0106, r24
         goto savenresult;
     8aa:	b8 c0       	rjmp	.+368    	; 0xa1c <__stack+0x51d>
        }
      //Test auf Transistor or MOSFET
      // ADC_DDR = LoADCm;	//Low-Pin to output 0V
      R_DDR = HiPinRL | TriPinRH;	//R_H port of Tristate-Pin (Basis) to output
     8ac:	6e 2c       	mov	r6, r14
     8ae:	6c 28       	or	r6, r12
     8b0:	64 b8       	out	0x04, r6	; 4
      R_PORT = HiPinRL | TriPinRH;	//R_H port of Tristate-Pin (Basis) to VCC
     8b2:	65 b8       	out	0x05, r6	; 5
      wait50ms();
     8b4:	0e 94 2f 13 	call	0x265e	; 0x265e <wait50ms>
      adc.hp2 = U_VCC - ReadADC(HighPin);	//measure the voltage at the collector resistor 
     8b8:	81 2f       	mov	r24, r17
     8ba:	0e 94 51 13 	call	0x26a2	; 0x26a2 <ReadADC>
     8be:	79 e8       	ldi	r23, 0x89	; 137
     8c0:	e7 2e       	mov	r14, r23
     8c2:	73 e1       	ldi	r23, 0x13	; 19
     8c4:	f7 2e       	mov	r15, r23
     8c6:	d7 01       	movw	r26, r14
     8c8:	a8 1b       	sub	r26, r24
     8ca:	b9 0b       	sbc	r27, r25
     8cc:	be 83       	std	Y+6, r27	; 0x06
     8ce:	ad 83       	std	Y+5, r26	; 0x05
      adc.tp2 = U_VCC - ReadADC(TristatePin);	//measure the voltage at the base resistor 
     8d0:	89 81       	ldd	r24, Y+1	; 0x01
     8d2:	0e 94 51 13 	call	0x26a2	; 0x26a2 <ReadADC>
     8d6:	e8 1a       	sub	r14, r24
     8d8:	f9 0a       	sbc	r15, r25
       lcd_data('T');
       lcd_data('P');
       lcd_string(utoa(adc.tp1,outval,10));
       wait1s();
#endif
      if((PartFound == PART_TRANSISTOR) || (PartFound == PART_FET)) {
     8da:	80 91 09 01 	lds	r24, 0x0109
     8de:	82 50       	subi	r24, 0x02	; 2
     8e0:	82 30       	cpi	r24, 0x02	; 2
     8e2:	18 f4       	brcc	.+6      	; 0x8ea <__stack+0x3eb>
         PartReady = 1;	//check, if test is already done once
     8e4:	81 e0       	ldi	r24, 0x01	; 1
     8e6:	80 93 06 01 	sts	0x0106, r24
      }

      //compute current amplification factor for common Emitter
      //hFE = B = Collector current / Base current
      if(adc.tp2 < 53) {
     8ea:	b5 e3       	ldi	r27, 0x35	; 53
     8ec:	eb 16       	cp	r14, r27
     8ee:	f1 04       	cpc	r15, r1
     8f0:	18 f4       	brcc	.+6      	; 0x8f8 <__stack+0x3f9>
#if DebugOut == 5
         lcd_data('<');
         lcd_data('5');
         lcd_data('3');
#endif
         adc.tp2 = 53;
     8f2:	65 e3       	ldi	r22, 0x35	; 53
     8f4:	e6 2e       	mov	r14, r22
     8f6:	f1 2c       	mov	r15, r1
      }

#ifdef LONG_HFE
      trans.hfe[PartReady] = ((unsigned int)adc.hp2 * (unsigned long)(((unsigned long)R_H_VAL * 100) / 
     8f8:	80 91 06 01 	lds	r24, 0x0106
     8fc:	e8 2f       	mov	r30, r24
     8fe:	f0 e0       	ldi	r31, 0x00	; 0
     900:	f9 8b       	std	Y+17, r31	; 0x11
     902:	e8 8b       	std	Y+16, r30	; 0x10
     904:	2d 81       	ldd	r18, Y+5	; 0x05
     906:	3e 81       	ldd	r19, Y+6	; 0x06
     908:	19 01       	movw	r2, r18
     90a:	44 24       	eor	r4, r4
     90c:	55 24       	eor	r5, r5
     90e:	8a 85       	ldd	r24, Y+10	; 0x0a
     910:	9b 85       	ldd	r25, Y+11	; 0x0b
     912:	9c 01       	movw	r18, r24
     914:	40 e0       	ldi	r20, 0x00	; 0
     916:	50 e0       	ldi	r21, 0x00	; 0
     918:	60 e6       	ldi	r22, 0x60	; 96
     91a:	77 eb       	ldi	r23, 0xB7	; 183
     91c:	87 e4       	ldi	r24, 0x47	; 71
     91e:	90 e0       	ldi	r25, 0x00	; 0
     920:	0e 94 e1 13 	call	0x27c2	; 0x27c2 <__udivmodsi4>
     924:	c2 01       	movw	r24, r4
     926:	b1 01       	movw	r22, r2
     928:	0e 94 ae 13 	call	0x275c	; 0x275c <__mulsi3>
              (unsigned int)RR680PL)) / (unsigned int)adc.tp2;	
     92c:	97 01       	movw	r18, r14
     92e:	40 e0       	ldi	r20, 0x00	; 0
     930:	50 e0       	ldi	r21, 0x00	; 0
     932:	0e 94 e1 13 	call	0x27c2	; 0x27c2 <__udivmodsi4>
#endif
         adc.tp2 = 53;
      }

#ifdef LONG_HFE
      trans.hfe[PartReady] = ((unsigned int)adc.hp2 * (unsigned long)(((unsigned long)R_H_VAL * 100) / 
     936:	a8 89       	ldd	r26, Y+16	; 0x10
     938:	b9 89       	ldd	r27, Y+17	; 0x11
     93a:	aa 0f       	add	r26, r26
     93c:	bb 1f       	adc	r27, r27
     93e:	a8 5c       	subi	r26, 0xC8	; 200
     940:	be 4f       	sbci	r27, 0xFE	; 254
     942:	b9 8b       	std	Y+17, r27	; 0x11
     944:	a8 8b       	std	Y+16, r26	; 0x10
     946:	11 96       	adiw	r26, 0x01	; 1
     948:	3c 93       	st	X, r19
     94a:	2e 93       	st	-X, r18
      trans.hfe[PartReady] = ((adc.hp2 / ((RR680PL+500)/1000)) * (R_H_VAL/500)) / (adc.tp2/500);
#endif
#ifdef COMMON_COLLECTOR
       //compare current amplification factor for common Collector (Emitter follower)
       // hFE = (Emitterstrom - Basisstrom) / Basisstrom
       if (c_hfe >  trans.hfe[PartReady]) {
     94c:	40 e0       	ldi	r20, 0x00	; 0
     94e:	50 e0       	ldi	r21, 0x00	; 0
     950:	28 15       	cp	r18, r8
     952:	39 05       	cpc	r19, r9
     954:	4a 05       	cpc	r20, r10
     956:	5b 05       	cpc	r21, r11
     958:	18 f4       	brcc	.+6      	; 0x960 <__stack+0x461>
          trans.hfe[PartReady] = (unsigned int)c_hfe;
     95a:	11 96       	adiw	r26, 0x01	; 1
     95c:	9c 92       	st	X, r9
     95e:	8e 92       	st	-X, r8
       }
#endif

      if(adc.tp2 > 2557) {		// Basis-voltage R_H is low enough
     960:	be ef       	ldi	r27, 0xFE	; 254
     962:	eb 16       	cp	r14, r27
     964:	b9 e0       	ldi	r27, 0x09	; 9
     966:	fb 06       	cpc	r15, r27
     968:	38 f0       	brcs	.+14     	; 0x978 <__stack+0x479>
         PartFound = PART_TRANSISTOR;	//NPN-Transistor is found (Base is near GND)
     96a:	82 e0       	ldi	r24, 0x02	; 2
     96c:	80 93 09 01 	sts	0x0109, r24
         PartMode = PART_MODE_NPN;
     970:	81 e0       	ldi	r24, 0x01	; 1
     972:	80 93 08 01 	sts	0x0108, r24
     976:	52 c0       	rjmp	.+164    	; 0xa1c <__stack+0x51d>
      } else { // Basis has low current
         if((adc.lp_otr < 97) && (adc.hp2 > 3400)) {
     978:	e8 85       	ldd	r30, Y+8	; 0x08
     97a:	f9 85       	ldd	r31, Y+9	; 0x09
     97c:	e1 36       	cpi	r30, 0x61	; 97
     97e:	f1 05       	cpc	r31, r1
     980:	08 f0       	brcs	.+2      	; 0x984 <__stack+0x485>
     982:	4c c0       	rjmp	.+152    	; 0xa1c <__stack+0x51d>
     984:	2d 81       	ldd	r18, Y+5	; 0x05
     986:	3e 81       	ldd	r19, Y+6	; 0x06
     988:	8d e0       	ldi	r24, 0x0D	; 13
     98a:	29 34       	cpi	r18, 0x49	; 73
     98c:	38 07       	cpc	r19, r24
     98e:	08 f4       	brcc	.+2      	; 0x992 <__stack+0x493>
     990:	45 c0       	rjmp	.+138    	; 0xa1c <__stack+0x51d>
            //if flow voltage in switched off mode low enough?
            //(since D-Mode-FET will be detected in error as E-Mode )
            PartFound = PART_FET;	//N-Kanal-MOSFET is found (Basis/Gate will Not be pulled down)
     992:	83 e0       	ldi	r24, 0x03	; 3
     994:	80 93 09 01 	sts	0x0109, r24
            PartMode = PART_MODE_N_E_MOS;
     998:	81 e0       	ldi	r24, 0x01	; 1
     99a:	80 93 08 01 	sts	0x0108, r24
            lcd_line3();
            lcd_data('N');
            lcd_data('F');
            wait1s();
#endif
            PinMSK = HiADCm & 7;
     99e:	eb 80       	ldd	r14, Y+3	; 0x03
     9a0:	97 e0       	ldi	r25, 0x07	; 7
     9a2:	e9 22       	and	r14, r25
            // measure Threshold voltage of Gate
            ADMUX = TristatePin | (1<<REFS0);	// measure TristatePin, Ref. VCC
     9a4:	89 81       	ldd	r24, Y+1	; 0x01
     9a6:	80 64       	ori	r24, 0x40	; 64
     9a8:	80 93 7c 00 	sts	0x007C, r24
            gthvoltage = 1;			// round up ((1*4)/9)
     9ac:	81 e0       	ldi	r24, 0x01	; 1
     9ae:	90 e0       	ldi	r25, 0x00	; 0
     9b0:	90 93 45 01 	sts	0x0145, r25
     9b4:	80 93 44 01 	sts	0x0144, r24
     9b8:	4b e0       	ldi	r20, 0x0B	; 11
     9ba:	f4 2e       	mov	r15, r20
            for(ii=0;ii<11;ii++) {
            	wdt_reset();
     9bc:	a8 95       	wdr
            	ChargePin10ms(TriPinRL,0);	// discharge Gate 10ms with RL 
     9be:	8d 2d       	mov	r24, r13
     9c0:	60 e0       	ldi	r22, 0x00	; 0
     9c2:	0e 94 79 01 	call	0x2f2	; 0x2f2 <ChargePin10ms>
                R_DDR = HiPinRL | TriPinRH;	// slowly charge Gate 
     9c6:	64 b8       	out	0x04, r6	; 4
                R_PORT = HiPinRL | TriPinRH;
     9c8:	65 b8       	out	0x05, r6	; 5
            	while ((ADC_PIN&PinMSK));  // Wait, until the MOSFET switch and Drain moved to low 
     9ca:	86 b1       	in	r24, 0x06	; 6
     9cc:	8e 21       	and	r24, r14
     9ce:	e9 f7       	brne	.-6      	; 0x9ca <__stack+0x4cb>
                R_DDR = HiPinRL;
     9d0:	c4 b8       	out	0x04, r12	; 4
            	ADCSRA |= (1<<ADSC);		// start ADC conversion
     9d2:	80 91 7a 00 	lds	r24, 0x007A
     9d6:	80 64       	ori	r24, 0x40	; 64
     9d8:	80 93 7a 00 	sts	0x007A, r24
            	while (ADCSRA&(1<<ADSC));	// wait until ADC finished
     9dc:	80 91 7a 00 	lds	r24, 0x007A
     9e0:	86 fd       	sbrc	r24, 6
     9e2:	fc cf       	rjmp	.-8      	; 0x9dc <__stack+0x4dd>
            	gthvoltage += ADCW;		// add result of ADC
     9e4:	80 91 78 00 	lds	r24, 0x0078
     9e8:	90 91 79 00 	lds	r25, 0x0079
     9ec:	20 91 44 01 	lds	r18, 0x0144
     9f0:	30 91 45 01 	lds	r19, 0x0145
     9f4:	82 0f       	add	r24, r18
     9f6:	93 1f       	adc	r25, r19
     9f8:	90 93 45 01 	sts	0x0145, r25
     9fc:	80 93 44 01 	sts	0x0144, r24
     a00:	fa 94       	dec	r15
#endif
            PinMSK = HiADCm & 7;
            // measure Threshold voltage of Gate
            ADMUX = TristatePin | (1<<REFS0);	// measure TristatePin, Ref. VCC
            gthvoltage = 1;			// round up ((1*4)/9)
            for(ii=0;ii<11;ii++) {
     a02:	e1 f6       	brne	.-72     	; 0x9bc <__stack+0x4bd>
            	gthvoltage += ADCW;		// add result of ADC
#if DebugOut == 5
                lcd_data('.');
#endif
            }
            gthvoltage *= 4;	//is equal to 44 * ADCW
     a04:	88 0f       	add	r24, r24
     a06:	99 1f       	adc	r25, r25
     a08:	88 0f       	add	r24, r24
     a0a:	99 1f       	adc	r25, r25
            gthvoltage /= 9;	//scale to mV
     a0c:	69 e0       	ldi	r22, 0x09	; 9
     a0e:	70 e0       	ldi	r23, 0x00	; 0
     a10:	0e 94 cd 13 	call	0x279a	; 0x279a <__udivmodhi4>
     a14:	70 93 45 01 	sts	0x0145, r23
     a18:	60 93 44 01 	sts	0x0144, r22
         }
      }
savenresult:
      trans.b = TristatePin;	// save Pin-constellation
     a1c:	a9 81       	ldd	r26, Y+1	; 0x01
     a1e:	a0 93 3c 01 	sts	0x013C, r26
      trans.c = HighPin;
     a22:	10 93 3d 01 	sts	0x013D, r17
      trans.e = LowPin;
     a26:	00 93 3e 01 	sts	0x013E, r16
   } // end component conduct => npn
   ADC_DDR = TXD_MSK;		// switch all ADC-Ports to input
     a2a:	17 b8       	out	0x07, r1	; 7
   ADC_PORT = TXD_VAL;		// switch all ADC-Ports to 0 (no Pull up)
     a2c:	18 b8       	out	0x08, r1	; 8
   //Fertig
   //end das component has no connection between HighPin and LowPin
   goto widmes;
     a2e:	68 c0       	rjmp	.+208    	; 0xb00 <__stack+0x601>
  }
  // component has current
  //Test if Diode
  ADC_PORT = TXD_VAL;
     a30:	18 b8       	out	0x08, r1	; 8
  ADC_DDR = LoADCm;	//Low-Pin fix to GND
     a32:	bc 81       	ldd	r27, Y+4	; 0x04
     a34:	b7 b9       	out	0x07, r27	; 7
  R_DDR = HiPinRL;		//switch R_L port for High-Pin to output (VCC)
     a36:	c4 b8       	out	0x04, r12	; 4
  R_PORT = HiPinRL;
     a38:	c5 b8       	out	0x05, r12	; 5
  ChargePin10ms(TriPinRL,1);	//discharge of P-Kanal-MOSFET gate
     a3a:	8d 2d       	mov	r24, r13
     a3c:	61 e0       	ldi	r22, 0x01	; 1
     a3e:	0e 94 79 01 	call	0x2f2	; 0x2f2 <ChargePin10ms>
  adc.lp_otr = W5msReadADC(HighPin) - ReadADC(LowPin);
     a42:	81 2f       	mov	r24, r17
     a44:	0e 94 4f 13 	call	0x269e	; 0x269e <W5msReadADC>
     a48:	4c 01       	movw	r8, r24
     a4a:	80 2f       	mov	r24, r16
     a4c:	0e 94 51 13 	call	0x26a2	; 0x26a2 <ReadADC>
     a50:	88 1a       	sub	r8, r24
     a52:	99 0a       	sbc	r9, r25
  R_DDR = HiPinRH;		//switch R_H port for High-Pin output (VCC)
     a54:	ef 81       	ldd	r30, Y+7	; 0x07
     a56:	e4 b9       	out	0x04, r30	; 4
  R_PORT = HiPinRH;
     a58:	e5 b9       	out	0x05, r30	; 5
  adc.hp2 = W5msReadADC(HighPin); 		// M--|<--HP--R_H--VCC
     a5a:	81 2f       	mov	r24, r17
     a5c:	0e 94 4f 13 	call	0x269e	; 0x269e <W5msReadADC>
     a60:	5c 01       	movw	r10, r24

  R_DDR = HiPinRL;		//switch R_L port for High-Pin to output (VCC)
     a62:	c4 b8       	out	0x04, r12	; 4
  R_PORT = HiPinRL;
     a64:	c5 b8       	out	0x05, r12	; 5
  ChargePin10ms(TriPinRL,0);	//discharge for N-Kanal-MOSFET gate
     a66:	8d 2d       	mov	r24, r13
     a68:	60 e0       	ldi	r22, 0x00	; 0
     a6a:	0e 94 79 01 	call	0x2f2	; 0x2f2 <ChargePin10ms>
  adc.hp1 = W5msReadADC(HighPin) - W5msReadADC(LowPin);
     a6e:	81 2f       	mov	r24, r17
     a70:	0e 94 4f 13 	call	0x269e	; 0x269e <W5msReadADC>
     a74:	7c 01       	movw	r14, r24
     a76:	80 2f       	mov	r24, r16
     a78:	0e 94 4f 13 	call	0x269e	; 0x269e <W5msReadADC>
     a7c:	e8 1a       	sub	r14, r24
     a7e:	f9 0a       	sbc	r15, r25
  R_DDR = HiPinRH;		//switch R_H port for High-Pin to output (VCC)
     a80:	ff 81       	ldd	r31, Y+7	; 0x07
     a82:	f4 b9       	out	0x04, r31	; 4
  R_PORT = HiPinRH;
     a84:	f5 b9       	out	0x05, r31	; 5
  adc.hp3 = W5msReadADC(HighPin);		// M--|<--HP--R_H--VCC
     a86:	81 2f       	mov	r24, r17
     a88:	0e 94 4f 13 	call	0x269e	; 0x269e <W5msReadADC>
      The additional measurement with the big resistor R_H is made, to differ antiparallel diodes
      from resistors.
      A diode has a voltage, that is nearly independent from the current.
      The voltage of a resistor is proportional to the current.
    */
  if(adc.lp_otr > adc.hp1) {
     a8c:	e8 14       	cp	r14, r8
     a8e:	f9 04       	cpc	r15, r9
     a90:	18 f0       	brcs	.+6      	; 0xa98 <__stack+0x599>
  R_PORT = HiPinRL;
  ChargePin10ms(TriPinRL,0);	//discharge for N-Kanal-MOSFET gate
  adc.hp1 = W5msReadADC(HighPin) - W5msReadADC(LowPin);
  R_DDR = HiPinRH;		//switch R_H port for High-Pin to output (VCC)
  R_PORT = HiPinRH;
  adc.hp3 = W5msReadADC(HighPin);		// M--|<--HP--R_H--VCC
     a92:	a8 2e       	mov	r10, r24
     a94:	b9 2e       	mov	r11, r25
      The additional measurement with the big resistor R_H is made, to differ antiparallel diodes
      from resistors.
      A diode has a voltage, that is nearly independent from the current.
      The voltage of a resistor is proportional to the current.
    */
  if(adc.lp_otr > adc.hp1) {
     a96:	47 01       	movw	r8, r14
  lcd_string(utoa(adc.hp3,outval,10));
  lcd_data(' ');
  wait1s();
#endif

  if((adc.hp1 > 150) && (adc.hp1 < 4640) && (adc.hp1 > (adc.hp3+(adc.hp3/8))) && (adc.hp3*8 > adc.hp1)) {
     a98:	c4 01       	movw	r24, r8
     a9a:	87 59       	subi	r24, 0x97	; 151
     a9c:	90 40       	sbci	r25, 0x00	; 0
     a9e:	21 e1       	ldi	r18, 0x11	; 17
     aa0:	89 38       	cpi	r24, 0x89	; 137
     aa2:	92 07       	cpc	r25, r18
     aa4:	68 f5       	brcc	.+90     	; 0xb00 <__stack+0x601>
     aa6:	c5 01       	movw	r24, r10
     aa8:	23 e0       	ldi	r18, 0x03	; 3
     aaa:	96 95       	lsr	r25
     aac:	87 95       	ror	r24
     aae:	2a 95       	dec	r18
     ab0:	e1 f7       	brne	.-8      	; 0xaaa <__stack+0x5ab>
     ab2:	8a 0d       	add	r24, r10
     ab4:	9b 1d       	adc	r25, r11
     ab6:	88 15       	cp	r24, r8
     ab8:	99 05       	cpc	r25, r9
     aba:	10 f5       	brcc	.+68     	; 0xb00 <__stack+0x601>
     abc:	b3 e0       	ldi	r27, 0x03	; 3
     abe:	aa 0c       	add	r10, r10
     ac0:	bb 1c       	adc	r11, r11
     ac2:	ba 95       	dec	r27
     ac4:	e1 f7       	brne	.-8      	; 0xabe <__stack+0x5bf>
     ac6:	8a 14       	cp	r8, r10
     ac8:	9b 04       	cpc	r9, r11
     aca:	d0 f4       	brcc	.+52     	; 0xb00 <__stack+0x601>
     //voltage is above 0,15V and below 4,64V => Ok
     if((PartFound == PART_NONE) || (PartFound == PART_RESISTOR)) {
     acc:	80 91 09 01 	lds	r24, 0x0109
     ad0:	88 23       	and	r24, r24
     ad2:	11 f0       	breq	.+4      	; 0xad8 <__stack+0x5d9>
     ad4:	86 30       	cpi	r24, 0x06	; 6
     ad6:	19 f4       	brne	.+6      	; 0xade <__stack+0x5df>
        PartFound = PART_DIODE;	//mark for diode only, if no other component is found
     ad8:	81 e0       	ldi	r24, 0x01	; 1
     ada:	80 93 09 01 	sts	0x0109, r24
				//since there is a problem with Transistors with a protection diode
#if DebugOut == 4
        lcd_data('D');
#endif
     }
     diodes[NumOfDiodes].Anode = HighPin;
     ade:	80 91 07 01 	lds	r24, 0x0107
     ae2:	e8 2f       	mov	r30, r24
     ae4:	f0 e0       	ldi	r31, 0x00	; 0
     ae6:	ee 0f       	add	r30, r30
     ae8:	ff 1f       	adc	r31, r31
     aea:	ee 0f       	add	r30, r30
     aec:	ff 1f       	adc	r31, r31
     aee:	e7 5b       	subi	r30, 0xB7	; 183
     af0:	fe 4f       	sbci	r31, 0xFE	; 254
     af2:	10 83       	st	Z, r17
     diodes[NumOfDiodes].Cathode = LowPin;
     af4:	01 83       	std	Z+1, r16	; 0x01
     diodes[NumOfDiodes].Voltage = adc.hp1;	// voltage in Millivolt 
     af6:	93 82       	std	Z+3, r9	; 0x03
     af8:	82 82       	std	Z+2, r8	; 0x02
     NumOfDiodes++;
     afa:	8f 5f       	subi	r24, 0xFF	; 255
     afc:	80 93 07 01 	sts	0x0107, r24
#endif

widmes:
#ifdef R_MESS
  // resistor measurement
  wdt_reset();
     b00:	a8 95       	wdr
  ADC_PORT = TXD_VAL;
     b02:	18 b8       	out	0x08, r1	; 8
  ADC_DDR = LoADCm;		//switch Low-Pin to output (GND)
     b04:	3c 81       	ldd	r19, Y+4	; 0x04
     b06:	37 b9       	out	0x07, r19	; 7
  R_DDR = HiPinRL;		//switch R_L port for High-Pin to output (VCC)
     b08:	c4 b8       	out	0x04, r12	; 4
  R_PORT = HiPinRL;	
     b0a:	c5 b8       	out	0x05, r12	; 5
  adc.tp1 = W5msReadADC(LowPin);	// low-voltage at Rx with load
     b0c:	80 2f       	mov	r24, r16
     b0e:	0e 94 4f 13 	call	0x269e	; 0x269e <W5msReadADC>
     b12:	5c 01       	movw	r10, r24
  adc.hp1 = ReadADC(HighPin);		// voltage at resistor Rx with R_L
     b14:	81 2f       	mov	r24, r17
     b16:	0e 94 51 13 	call	0x26a2	; 0x26a2 <ReadADC>
     b1a:	1c 01       	movw	r2, r24
  if (adc.tp1 > adc.hp1) {
     adc.tp1 = adc.hp1;
  }
  R_PORT = 0;
     b1c:	15 b8       	out	0x05, r1	; 5
  R_DDR = HiPinRH;		//switch R_H port for High-Pin to output (GND)
     b1e:	8f 81       	ldd	r24, Y+7	; 0x07
     b20:	84 b9       	out	0x04, r24	; 4
  adc.hp2 = W5msReadADC(HighPin);	// read voltage, should be down
     b22:	81 2f       	mov	r24, r17
     b24:	0e 94 4f 13 	call	0x269e	; 0x269e <W5msReadADC>
  if (adc.hp2 > 20) {
     b28:	85 31       	cpi	r24, 0x15	; 21
     b2a:	91 05       	cpc	r25, r1
     b2c:	08 f0       	brcs	.+2      	; 0xb30 <__stack+0x631>
     b2e:	7a c1       	rjmp	.+756    	; 0xe24 <__stack+0x925>
     lcd_string(utoa(adc.hp2, outval, 10));
     lcd_data(' ');
 #endif
     goto testend;
  }
  R_PORT = HiPinRH;		//switch R_H for High-Pin to VCC
     b30:	9f 81       	ldd	r25, Y+7	; 0x07
     b32:	95 b9       	out	0x05, r25	; 5
  adc.hp2 = W5msReadADC(HighPin);	// voltage at resistor Rx with R_H
     b34:	81 2f       	mov	r24, r17
     b36:	0e 94 4f 13 	call	0x269e	; 0x269e <W5msReadADC>
     b3a:	6c 01       	movw	r12, r24

  ADC_DDR = HiADCm;		//switch High-Pin to output
     b3c:	ab 81       	ldd	r26, Y+3	; 0x03
     b3e:	a7 b9       	out	0x07, r26	; 7
  ADC_PORT = HiADCp;		//switch High-Pin to VCC
     b40:	a8 b9       	out	0x08, r26	; 8
  R_PORT = 0;
     b42:	15 b8       	out	0x05, r1	; 5
  R_DDR = LoPinRL;			//switch R_L for Low-Pin to GND
     b44:	ba 81       	ldd	r27, Y+2	; 0x02
     b46:	b4 b9       	out	0x04, r27	; 4
  adc.tp2 = W5msReadADC(HighPin);	//high voltage with load
     b48:	81 2f       	mov	r24, r17
     b4a:	0e 94 4f 13 	call	0x269e	; 0x269e <W5msReadADC>
     b4e:	4c 01       	movw	r8, r24
  adc.lp1 = ReadADC(LowPin);		//voltage at the other end of Rx
     b50:	80 2f       	mov	r24, r16
     b52:	0e 94 51 13 	call	0x26a2	; 0x26a2 <ReadADC>
     b56:	7c 01       	movw	r14, r24
#else
  #define RR680PL (R_L_VAL + PIN_RP)
  #define RR680MI (R_L_VAL + PIN_RM)
#endif
  LoPinRL = MEM_read_byte(&PinRLtab[LowPin]);		// intruction for LowPin R_L
  LoPinRH = LoPinRL + LoPinRL;				// intruction for LowPin R_H
     b58:	8a 81       	ldd	r24, Y+2	; 0x02
     b5a:	88 0f       	add	r24, r24
  adc.tp2 = W5msReadADC(HighPin);	//high voltage with load
  adc.lp1 = ReadADC(LowPin);		//voltage at the other end of Rx
  if (adc.tp2 < adc.lp1) {
     adc.tp2 = adc.lp1;
  }
  R_DDR = LoPinRH;			//switch R_H for Low-Pin to GND
     b5c:	84 b9       	out	0x04, r24	; 4
  adc.lp2 = W5msReadADC(LowPin);
     b5e:	80 2f       	mov	r24, r16
     b60:	0e 94 4f 13 	call	0x269e	; 0x269e <W5msReadADC>
     b64:	3c 01       	movw	r6, r24
		
  if((adc.hp1 < 4400) && (adc.hp2 > 97)) {
     b66:	e0 e3       	ldi	r30, 0x30	; 48
     b68:	2e 16       	cp	r2, r30
     b6a:	e1 e1       	ldi	r30, 0x11	; 17
     b6c:	3e 06       	cpc	r3, r30
     b6e:	28 f4       	brcc	.+10     	; 0xb7a <__stack+0x67b>
     b70:	f2 e6       	ldi	r31, 0x62	; 98
     b72:	cf 16       	cp	r12, r31
     b74:	d1 04       	cpc	r13, r1
     b76:	38 f0       	brcs	.+14     	; 0xb86 <__stack+0x687>
     b78:	55 c1       	rjmp	.+682    	; 0xe24 <__stack+0x925>
     lcd_data('F');
 #endif
     goto testend; 
  }
//    if((adc.hp2 + (adc.hp2 / 61)) < adc.hp1)
  if (adc.hp2 < 4972) { 
     b7a:	2c e6       	ldi	r18, 0x6C	; 108
     b7c:	c2 16       	cp	r12, r18
     b7e:	23 e1       	ldi	r18, 0x13	; 19
     b80:	d2 06       	cpc	r13, r18
     b82:	08 f0       	brcs	.+2      	; 0xb86 <__stack+0x687>
     b84:	4f c1       	rjmp	.+670    	; 0xe24 <__stack+0x925>
     // voltage breaks down with low test current and it is not nearly shorted  => resistor
//     if (adc.lp1 < 120) { // take measurement with R_H 
     if (adc.lp1 < 169) { // take measurement with R_H 
     b86:	39 ea       	ldi	r19, 0xA9	; 169
     b88:	e3 16       	cp	r14, r19
     b8a:	f1 04       	cpc	r15, r1
     b8c:	08 f0       	brcs	.+2      	; 0xb90 <__stack+0x691>
     b8e:	72 c0       	rjmp	.+228    	; 0xc74 <__stack+0x775>
        ii = 'H';
        if (adc.lp2 < 38) {
     b90:	86 e2       	ldi	r24, 0x26	; 38
     b92:	68 16       	cp	r6, r24
     b94:	71 04       	cpc	r7, r1
     b96:	08 f4       	brcc	.+2      	; 0xb9a <__stack+0x69b>
     b98:	45 c1       	rjmp	.+650    	; 0xe24 <__stack+0x925>
           // measurement > 60MOhm to big resistance
           goto testend;
        }
        // two measurements with R_H resistors (470k) are made:
        // lirx1 (measurement at HighPin)
        lirx1 = (unsigned long)((unsigned int)R_H_VAL) * (unsigned long)adc.hp2 / (U_VCC - adc.hp2);
     b9a:	b6 01       	movw	r22, r12
     b9c:	80 e0       	ldi	r24, 0x00	; 0
     b9e:	90 e0       	ldi	r25, 0x00	; 0
     ba0:	28 e9       	ldi	r18, 0x98	; 152
     ba2:	37 eb       	ldi	r19, 0xB7	; 183
     ba4:	40 e0       	ldi	r20, 0x00	; 0
     ba6:	50 e0       	ldi	r21, 0x00	; 0
     ba8:	0e 94 ae 13 	call	0x275c	; 0x275c <__mulsi3>
     bac:	f9 e8       	ldi	r31, 0x89	; 137
     bae:	ef 2e       	mov	r14, r31
     bb0:	f3 e1       	ldi	r31, 0x13	; 19
     bb2:	ff 2e       	mov	r15, r31
     bb4:	97 01       	movw	r18, r14
     bb6:	2c 19       	sub	r18, r12
     bb8:	3d 09       	sbc	r19, r13
     bba:	40 e0       	ldi	r20, 0x00	; 0
     bbc:	50 e0       	ldi	r21, 0x00	; 0
     bbe:	0e 94 e1 13 	call	0x27c2	; 0x27c2 <__udivmodsi4>
     bc2:	49 01       	movw	r8, r18
     bc4:	5a 01       	movw	r10, r20
        // lirx2 (measurement at LowPin)
        lirx2 = (unsigned long)((unsigned int)R_H_VAL) * (unsigned long)(U_VCC - adc.lp2) / adc.lp2;
     bc6:	e6 18       	sub	r14, r6
     bc8:	f7 08       	sbc	r15, r7
     bca:	b7 01       	movw	r22, r14
     bcc:	80 e0       	ldi	r24, 0x00	; 0
     bce:	90 e0       	ldi	r25, 0x00	; 0
     bd0:	28 e9       	ldi	r18, 0x98	; 152
     bd2:	37 eb       	ldi	r19, 0xB7	; 183
     bd4:	40 e0       	ldi	r20, 0x00	; 0
     bd6:	50 e0       	ldi	r21, 0x00	; 0
     bd8:	0e 94 ae 13 	call	0x275c	; 0x275c <__mulsi3>
     bdc:	93 01       	movw	r18, r6
     bde:	40 e0       	ldi	r20, 0x00	; 0
     be0:	50 e0       	ldi	r21, 0x00	; 0
     be2:	0e 94 e1 13 	call	0x27c2	; 0x27c2 <__udivmodsi4>
#define FAKT_LOW 2		//resolution is about twice as good
#else
#define FAKT_LOW 4		//resolution is about four times better
#endif
#ifdef AUTOSCALE_ADC
        if (adc.hp2 < U_INT_LIMIT) {
     be6:	9e ed       	ldi	r25, 0xDE	; 222
     be8:	c9 16       	cp	r12, r25
     bea:	93 e0       	ldi	r25, 0x03	; 3
     bec:	d9 06       	cpc	r13, r25
     bee:	70 f4       	brcc	.+28     	; 0xc0c <__stack+0x70d>
           lrx1 = (lirx1*FAKT_LOW + lirx2) / (FAKT_LOW+1);	//weighted average of both R_H measurements
     bf0:	c5 01       	movw	r24, r10
     bf2:	b4 01       	movw	r22, r8
     bf4:	e2 e0       	ldi	r30, 0x02	; 2
     bf6:	66 0f       	add	r22, r22
     bf8:	77 1f       	adc	r23, r23
     bfa:	88 1f       	adc	r24, r24
     bfc:	99 1f       	adc	r25, r25
     bfe:	ea 95       	dec	r30
     c00:	d1 f7       	brne	.-12     	; 0xbf6 <__stack+0x6f7>
     c02:	62 0f       	add	r22, r18
     c04:	73 1f       	adc	r23, r19
     c06:	84 1f       	adc	r24, r20
     c08:	95 1f       	adc	r25, r21
     c0a:	12 c0       	rjmp	.+36     	; 0xc30 <__stack+0x731>
        } else if (adc.lp2 < U_INT_LIMIT){
     c0c:	ae ed       	ldi	r26, 0xDE	; 222
     c0e:	6a 16       	cp	r6, r26
     c10:	a3 e0       	ldi	r26, 0x03	; 3
     c12:	7a 06       	cpc	r7, r26
     c14:	a0 f4       	brcc	.+40     	; 0xc3e <__stack+0x73f>
           lrx1 = (lirx2*FAKT_LOW + lirx1) / (FAKT_LOW+1);	//weighted average of both R_H measurements
     c16:	ca 01       	movw	r24, r20
     c18:	b9 01       	movw	r22, r18
     c1a:	b2 e0       	ldi	r27, 0x02	; 2
     c1c:	66 0f       	add	r22, r22
     c1e:	77 1f       	adc	r23, r23
     c20:	88 1f       	adc	r24, r24
     c22:	99 1f       	adc	r25, r25
     c24:	ba 95       	dec	r27
     c26:	d1 f7       	brne	.-12     	; 0xc1c <__stack+0x71d>
     c28:	68 0d       	add	r22, r8
     c2a:	79 1d       	adc	r23, r9
     c2c:	8a 1d       	adc	r24, r10
     c2e:	9b 1d       	adc	r25, r11
     c30:	25 e0       	ldi	r18, 0x05	; 5
     c32:	30 e0       	ldi	r19, 0x00	; 0
     c34:	40 e0       	ldi	r20, 0x00	; 0
     c36:	50 e0       	ldi	r21, 0x00	; 0
     c38:	0e 94 e1 13 	call	0x27c2	; 0x27c2 <__udivmodsi4>
     c3c:	08 c0       	rjmp	.+16     	; 0xc4e <__stack+0x74f>
        } else 
#endif
        {
           lrx1 = (lirx1 + lirx2) / 2;		//average of both R_H measurements
     c3e:	28 0d       	add	r18, r8
     c40:	39 1d       	adc	r19, r9
     c42:	4a 1d       	adc	r20, r10
     c44:	5b 1d       	adc	r21, r11
     c46:	56 95       	lsr	r21
     c48:	47 95       	ror	r20
     c4a:	37 95       	ror	r19
     c4c:	27 95       	ror	r18
        }
        lrx1 *= 100;
     c4e:	ca 01       	movw	r24, r20
     c50:	b9 01       	movw	r22, r18
     c52:	24 e6       	ldi	r18, 0x64	; 100
     c54:	30 e0       	ldi	r19, 0x00	; 0
     c56:	40 e0       	ldi	r20, 0x00	; 0
     c58:	50 e0       	ldi	r21, 0x00	; 0
     c5a:	0e 94 ae 13 	call	0x275c	; 0x275c <__mulsi3>
     c5e:	6b 01       	movw	r12, r22
     c60:	7c 01       	movw	r14, r24
        lrx1 += RH_OFFSET;			// add constant for correction of systematic error
     c62:	88 e5       	ldi	r24, 0x58	; 88
     c64:	9b e1       	ldi	r25, 0x1B	; 27
     c66:	a0 e0       	ldi	r26, 0x00	; 0
     c68:	b0 e0       	ldi	r27, 0x00	; 0
     c6a:	c8 0e       	add	r12, r24
     c6c:	d9 1e       	adc	r13, r25
     c6e:	ea 1e       	adc	r14, r26
     c70:	fb 1e       	adc	r15, r27
     c72:	73 c0       	rjmp	.+230    	; 0xd5a <__stack+0x85b>
     c74:	c1 01       	movw	r24, r2
     c76:	a2 14       	cp	r10, r2
     c78:	b3 04       	cpc	r11, r3
     c7a:	08 f4       	brcc	.+2      	; 0xc7e <__stack+0x77f>
     c7c:	c5 01       	movw	r24, r10
     c7e:	67 01       	movw	r12, r14
     c80:	e8 14       	cp	r14, r8
     c82:	f9 04       	cpc	r15, r9
     c84:	08 f4       	brcc	.+2      	; 0xc88 <__stack+0x789>
     c86:	64 01       	movw	r12, r8
     c88:	3c 01       	movw	r6, r24
     c8a:	82 15       	cp	r24, r2
     c8c:	93 05       	cpc	r25, r3
     c8e:	08 f4       	brcc	.+2      	; 0xc92 <__stack+0x793>
     c90:	31 01       	movw	r6, r2
        // two measurements with R_L resistors (680) are made:
        // lirx1 (measurement at HighPin)
        if (adc.tp1 > adc.hp1) {
           adc.hp1 = adc.tp1;		//diff negativ is illegal
        }
        lirx1 =(unsigned long)RR680PL * (unsigned long)(adc.hp1 - adc.tp1) / (U_VCC - adc.hp1);
     c92:	b3 01       	movw	r22, r6
     c94:	68 1b       	sub	r22, r24
     c96:	79 0b       	sbc	r23, r25
     c98:	80 e0       	ldi	r24, 0x00	; 0
     c9a:	90 e0       	ldi	r25, 0x00	; 0
     c9c:	aa 85       	ldd	r26, Y+10	; 0x0a
     c9e:	bb 85       	ldd	r27, Y+11	; 0x0b
     ca0:	9d 01       	movw	r18, r26
     ca2:	40 e0       	ldi	r20, 0x00	; 0
     ca4:	50 e0       	ldi	r21, 0x00	; 0
     ca6:	0e 94 ae 13 	call	0x275c	; 0x275c <__mulsi3>
     caa:	29 e8       	ldi	r18, 0x89	; 137
     cac:	33 e1       	ldi	r19, 0x13	; 19
     cae:	26 19       	sub	r18, r6
     cb0:	37 09       	sbc	r19, r7
     cb2:	40 e0       	ldi	r20, 0x00	; 0
     cb4:	50 e0       	ldi	r21, 0x00	; 0
     cb6:	0e 94 e1 13 	call	0x27c2	; 0x27c2 <__udivmodsi4>
     cba:	49 01       	movw	r8, r18
     cbc:	5a 01       	movw	r10, r20
     cbe:	16 01       	movw	r2, r12
     cc0:	ec 14       	cp	r14, r12
     cc2:	fd 04       	cpc	r15, r13
     cc4:	08 f4       	brcc	.+2      	; 0xcc8 <__stack+0x7c9>
     cc6:	17 01       	movw	r2, r14
        if (adc.tp2 < adc.lp1) {
           adc.lp1 = adc.tp2;		//diff negativ is illegal
        }
        // lirx2 (Measurement at LowPin)
        lirx2 =(unsigned long)RR680MI * (unsigned long)(adc.tp2 -adc.lp1) / adc.lp1;
     cc8:	c2 18       	sub	r12, r2
     cca:	d3 08       	sbc	r13, r3
     ccc:	b6 01       	movw	r22, r12
     cce:	80 e0       	ldi	r24, 0x00	; 0
     cd0:	90 e0       	ldi	r25, 0x00	; 0
     cd2:	ec 85       	ldd	r30, Y+12	; 0x0c
     cd4:	fd 85       	ldd	r31, Y+13	; 0x0d
     cd6:	9f 01       	movw	r18, r30
     cd8:	40 e0       	ldi	r20, 0x00	; 0
     cda:	50 e0       	ldi	r21, 0x00	; 0
     cdc:	0e 94 ae 13 	call	0x275c	; 0x275c <__mulsi3>
     ce0:	91 01       	movw	r18, r2
     ce2:	40 e0       	ldi	r20, 0x00	; 0
     ce4:	50 e0       	ldi	r21, 0x00	; 0
     ce6:	0e 94 e1 13 	call	0x27c2	; 0x27c2 <__udivmodsi4>
//     lrx1 =(unsigned long)R_L_VAL * (unsigned long)adc.hp1 / (adc.hp3 - adc.hp1);
#ifdef AUTOSCALE_ADC
        if (adc.hp1 < U_INT_LIMIT) {
     cea:	fe ed       	ldi	r31, 0xDE	; 222
     cec:	6f 16       	cp	r6, r31
     cee:	f3 e0       	ldi	r31, 0x03	; 3
     cf0:	7f 06       	cpc	r7, r31
     cf2:	70 f4       	brcc	.+28     	; 0xd10 <__stack+0x811>
           lrx1 = (lirx1*FAKT_LOW + lirx2) / (FAKT_LOW+1);	//weighted average of both R_L measurements
     cf4:	c5 01       	movw	r24, r10
     cf6:	b4 01       	movw	r22, r8
     cf8:	f2 e0       	ldi	r31, 0x02	; 2
     cfa:	66 0f       	add	r22, r22
     cfc:	77 1f       	adc	r23, r23
     cfe:	88 1f       	adc	r24, r24
     d00:	99 1f       	adc	r25, r25
     d02:	fa 95       	dec	r31
     d04:	d1 f7       	brne	.-12     	; 0xcfa <__stack+0x7fb>
     d06:	62 0f       	add	r22, r18
     d08:	73 1f       	adc	r23, r19
     d0a:	84 1f       	adc	r24, r20
     d0c:	95 1f       	adc	r25, r21
     d0e:	12 c0       	rjmp	.+36     	; 0xd34 <__stack+0x835>
        } else if (adc.lp1 < U_INT_LIMIT) {
     d10:	8e ed       	ldi	r24, 0xDE	; 222
     d12:	28 16       	cp	r2, r24
     d14:	83 e0       	ldi	r24, 0x03	; 3
     d16:	38 06       	cpc	r3, r24
     d18:	b0 f4       	brcc	.+44     	; 0xd46 <__stack+0x847>
           lrx1 = (lirx2*FAKT_LOW + lirx1) / (FAKT_LOW+1);	//weighted average of both R_L measurements
     d1a:	ca 01       	movw	r24, r20
     d1c:	b9 01       	movw	r22, r18
     d1e:	e2 e0       	ldi	r30, 0x02	; 2
     d20:	66 0f       	add	r22, r22
     d22:	77 1f       	adc	r23, r23
     d24:	88 1f       	adc	r24, r24
     d26:	99 1f       	adc	r25, r25
     d28:	ea 95       	dec	r30
     d2a:	d1 f7       	brne	.-12     	; 0xd20 <__stack+0x821>
     d2c:	68 0d       	add	r22, r8
     d2e:	79 1d       	adc	r23, r9
     d30:	8a 1d       	adc	r24, r10
     d32:	9b 1d       	adc	r25, r11
     d34:	25 e0       	ldi	r18, 0x05	; 5
     d36:	30 e0       	ldi	r19, 0x00	; 0
     d38:	40 e0       	ldi	r20, 0x00	; 0
     d3a:	50 e0       	ldi	r21, 0x00	; 0
     d3c:	0e 94 e1 13 	call	0x27c2	; 0x27c2 <__udivmodsi4>
     d40:	69 01       	movw	r12, r18
     d42:	7a 01       	movw	r14, r20
     d44:	0a c0       	rjmp	.+20     	; 0xd5a <__stack+0x85b>
        } else
#endif
        {
           lrx1 = (lirx1 + lirx2) / 2;		//average of both R_L measurements
     d46:	69 01       	movw	r12, r18
     d48:	7a 01       	movw	r14, r20
     d4a:	c8 0c       	add	r12, r8
     d4c:	d9 1c       	adc	r13, r9
     d4e:	ea 1c       	adc	r14, r10
     d50:	fb 1c       	adc	r15, r11
     d52:	f6 94       	lsr	r15
     d54:	e7 94       	ror	r14
     d56:	d7 94       	ror	r13
     d58:	c7 94       	ror	r12
  lcd_line4();
  (void) value_out(lrx1, 2);
  lcd_data(' ');
  lcd_line2();
#endif
     if((PartFound == PART_DIODE) || (PartFound == PART_NONE) || (PartFound == PART_RESISTOR)) {
     d5a:	80 91 09 01 	lds	r24, 0x0109
     d5e:	82 30       	cpi	r24, 0x02	; 2
     d60:	18 f0       	brcs	.+6      	; 0xd68 <__stack+0x869>
     d62:	86 30       	cpi	r24, 0x06	; 6
     d64:	09 f0       	breq	.+2      	; 0xd68 <__stack+0x869>
     d66:	5e c0       	rjmp	.+188    	; 0xe24 <__stack+0x925>
        for (ii=0; ii<ResistorsFound; ii++) {
     d68:	30 91 3f 01 	lds	r19, 0x013F
     d6c:	20 e0       	ldi	r18, 0x00	; 0
     d6e:	40 c0       	rjmp	.+128    	; 0xdf0 <__stack+0x8f1>
           // search measurements with inverse polarity 
           thisR = &resis[ii];
     d70:	82 2f       	mov	r24, r18
     d72:	90 e0       	ldi	r25, 0x00	; 0
           if (thisR->rt != TristatePin) {
     d74:	fc 01       	movw	r30, r24
     d76:	43 e0       	ldi	r20, 0x03	; 3
     d78:	ee 0f       	add	r30, r30
     d7a:	ff 1f       	adc	r31, r31
     d7c:	4a 95       	dec	r20
     d7e:	e1 f7       	brne	.-8      	; 0xd78 <__stack+0x879>
     d80:	e8 1b       	sub	r30, r24
     d82:	f9 0b       	sbc	r31, r25
     d84:	e7 5e       	subi	r30, 0xE7	; 231
     d86:	fe 4f       	sbci	r31, 0xFE	; 254
     d88:	86 81       	ldd	r24, Z+6	; 0x06
     d8a:	99 81       	ldd	r25, Y+1	; 0x01
     d8c:	89 17       	cp	r24, r25
     d8e:	11 f0       	breq	.+4      	; 0xd94 <__stack+0x895>
  (void) value_out(lrx1, 2);
  lcd_data(' ');
  lcd_line2();
#endif
     if((PartFound == PART_DIODE) || (PartFound == PART_NONE) || (PartFound == PART_RESISTOR)) {
        for (ii=0; ii<ResistorsFound; ii++) {
     d90:	2f 5f       	subi	r18, 0xFF	; 255
     d92:	2e c0       	rjmp	.+92     	; 0xdf0 <__stack+0x8f1>
           if (thisR->rt != TristatePin) {
              continue;
           }
           // must be measurement with inverse polarity 
           // resolution is 0.1 Ohm, 1 Ohm = 10 !
           lirx1 = (labs((long)lrx1 - (long)thisR->rx) * 10) / (lrx1 + thisR->rx + 100);
     d94:	80 80       	ld	r8, Z
     d96:	91 80       	ldd	r9, Z+1	; 0x01
     d98:	a2 80       	ldd	r10, Z+2	; 0x02
     d9a:	b3 80       	ldd	r11, Z+3	; 0x03
     d9c:	c7 01       	movw	r24, r14
     d9e:	b6 01       	movw	r22, r12
     da0:	68 19       	sub	r22, r8
     da2:	79 09       	sbc	r23, r9
     da4:	8a 09       	sbc	r24, r10
     da6:	9b 09       	sbc	r25, r11
     da8:	97 ff       	sbrs	r25, 7
     daa:	07 c0       	rjmp	.+14     	; 0xdba <__stack+0x8bb>
     dac:	90 95       	com	r25
     dae:	80 95       	com	r24
     db0:	70 95       	com	r23
     db2:	61 95       	neg	r22
     db4:	7f 4f       	sbci	r23, 0xFF	; 255
     db6:	8f 4f       	sbci	r24, 0xFF	; 255
     db8:	9f 4f       	sbci	r25, 0xFF	; 255
     dba:	2a e0       	ldi	r18, 0x0A	; 10
     dbc:	30 e0       	ldi	r19, 0x00	; 0
     dbe:	40 e0       	ldi	r20, 0x00	; 0
     dc0:	50 e0       	ldi	r21, 0x00	; 0
     dc2:	0e 94 ae 13 	call	0x275c	; 0x275c <__mulsi3>
     dc6:	a5 01       	movw	r20, r10
     dc8:	94 01       	movw	r18, r8
     dca:	2c 59       	subi	r18, 0x9C	; 156
     dcc:	3f 4f       	sbci	r19, 0xFF	; 255
     dce:	4f 4f       	sbci	r20, 0xFF	; 255
     dd0:	5f 4f       	sbci	r21, 0xFF	; 255
     dd2:	2c 0d       	add	r18, r12
     dd4:	3d 1d       	adc	r19, r13
     dd6:	4e 1d       	adc	r20, r14
     dd8:	5f 1d       	adc	r21, r15
     dda:	0e 94 e1 13 	call	0x27c2	; 0x27c2 <__udivmodsi4>
           if (lirx1  > 0) {
     dde:	21 15       	cp	r18, r1
     de0:	31 05       	cpc	r19, r1
     de2:	41 05       	cpc	r20, r1
     de4:	51 05       	cpc	r21, r1
     de6:	f1 f4       	brne	.+60     	; 0xe24 <__stack+0x925>
              (void) value_out(lirx1, 2);
              lcd_data(' ');
 #endif
              goto testend; // <10% mismatch
           }
           PartFound = PART_RESISTOR;
     de8:	86 e0       	ldi	r24, 0x06	; 6
     dea:	80 93 09 01 	sts	0x0109, r24
           goto testend;
     dee:	1a c0       	rjmp	.+52     	; 0xe24 <__stack+0x925>
  (void) value_out(lrx1, 2);
  lcd_data(' ');
  lcd_line2();
#endif
     if((PartFound == PART_DIODE) || (PartFound == PART_NONE) || (PartFound == PART_RESISTOR)) {
        for (ii=0; ii<ResistorsFound; ii++) {
     df0:	23 17       	cp	r18, r19
     df2:	08 f4       	brcc	.+2      	; 0xdf6 <__stack+0x8f7>
     df4:	bd cf       	rjmp	.-134    	; 0xd70 <__stack+0x871>
           }
           PartFound = PART_RESISTOR;
           goto testend;
        } // end for
        // no same resistor with the same Tristate-Pin found, new one
        thisR = &resis[ResistorsFound];		// pointer to a free resistor structure
     df6:	83 2f       	mov	r24, r19
     df8:	90 e0       	ldi	r25, 0x00	; 0
        thisR->rx = lrx1;		// save resistor value
     dfa:	fc 01       	movw	r30, r24
     dfc:	23 e0       	ldi	r18, 0x03	; 3
     dfe:	ee 0f       	add	r30, r30
     e00:	ff 1f       	adc	r31, r31
     e02:	2a 95       	dec	r18
     e04:	e1 f7       	brne	.-8      	; 0xdfe <__stack+0x8ff>
     e06:	e8 1b       	sub	r30, r24
     e08:	f9 0b       	sbc	r31, r25
     e0a:	e7 5e       	subi	r30, 0xE7	; 231
     e0c:	fe 4f       	sbci	r31, 0xFE	; 254
     e0e:	c0 82       	st	Z, r12
     e10:	d1 82       	std	Z+1, r13	; 0x01
     e12:	e2 82       	std	Z+2, r14	; 0x02
     e14:	f3 82       	std	Z+3, r15	; 0x03
        thisR->ra = LowPin;		// save Pin numbers
     e16:	04 83       	std	Z+4, r16	; 0x04
        thisR->rb = HighPin;
     e18:	15 83       	std	Z+5, r17	; 0x05
        thisR->rt = TristatePin;	// Tristate is saved for easier search of inverse measurement
     e1a:	a9 81       	ldd	r26, Y+1	; 0x01
     e1c:	a6 83       	std	Z+6, r26	; 0x06
        ResistorsFound++;			// 1 more resistor found
     e1e:	3f 5f       	subi	r19, 0xFF	; 255
     e20:	30 93 3f 01 	sts	0x013F, r19
#ifdef DebugOut
#if DebugOut < 10
  wait2s();
#endif
#endif
  ADC_DDR = TXD_MSK;		// all ADC-Pins Input
     e24:	17 b8       	out	0x07, r1	; 7
  ADC_PORT = TXD_VAL;		// all ADC outputs to Ground, keine Pull up
     e26:	18 b8       	out	0x08, r1	; 8
  R_DDR = 0;			// all resistor-outputs to Input
     e28:	14 b8       	out	0x04, r1	; 4
  R_PORT = 0;			// all resistor-outputs to Ground, no Pull up
     e2a:	15 b8       	out	0x05, r1	; 5
} // end CheckPins()
     e2c:	63 96       	adiw	r28, 0x13	; 19
     e2e:	0f b6       	in	r0, 0x3f	; 63
     e30:	f8 94       	cli
     e32:	de bf       	out	0x3e, r29	; 62
     e34:	0f be       	out	0x3f, r0	; 63
     e36:	cd bf       	out	0x3d, r28	; 61
     e38:	cf 91       	pop	r28
     e3a:	df 91       	pop	r29
     e3c:	1f 91       	pop	r17
     e3e:	0f 91       	pop	r16
     e40:	ff 90       	pop	r15
     e42:	ef 90       	pop	r14
     e44:	df 90       	pop	r13
     e46:	cf 90       	pop	r12
     e48:	bf 90       	pop	r11
     e4a:	af 90       	pop	r10
     e4c:	9f 90       	pop	r9
     e4e:	8f 90       	pop	r8
     e50:	7f 90       	pop	r7
     e52:	6f 90       	pop	r6
     e54:	5f 90       	pop	r5
     e56:	4f 90       	pop	r4
     e58:	3f 90       	pop	r3
     e5a:	2f 90       	pop	r2
     e5c:	08 95       	ret

00000e5e <EntladePins>:

// first discharge any charge of capacitors
void EntladePins() {
     e5e:	af 92       	push	r10
     e60:	bf 92       	push	r11
     e62:	cf 92       	push	r12
     e64:	df 92       	push	r13
     e66:	ef 92       	push	r14
     e68:	ff 92       	push	r15
     e6a:	0f 93       	push	r16
     e6c:	1f 93       	push	r17
     e6e:	cf 93       	push	r28
     e70:	df 93       	push	r29
     e72:	6a e0       	ldi	r22, 0x0A	; 10
     e74:	d6 2e       	mov	r13, r22
  for(lop_cnt=0;lop_cnt<10;lop_cnt++) {
     adc_gnd = TXD_MSK;		// put all ADC to Input
     ADC_DDR = adc_gnd;
     ADC_PORT = TXD_VAL;		// ADC-outputs auf 0
     R_PORT = 0;			// R-outputs auf 0
     R_DDR = (2<<(PC2*2)) | (2<<(PC1*2)) | (2<<(PC0*2)); // R_H for all Pins to GND
     e76:	5a e2       	ldi	r21, 0x2A	; 42
     e78:	a5 2e       	mov	r10, r21
     ADC_DDR = adc_gnd;		// switch all selected ADC-Ports at the same time

     // additionally switch the leaving Ports with R_L to GND.
     // since there is no disadvantage for the already directly switched pins, we can
     // simply switch all  R_L resistors to GND
     R_DDR = (1<<(PC2*2)) | (1<<(PC1*2)) | (1<<(PC0*2));	// Pins across R_L resistors to GND
     e7a:	45 e1       	ldi	r20, 0x15	; 21
     e7c:	b4 2e       	mov	r11, r20
        if ((adcmv[0] < (CAP_EMPTY_LEVEL+2)) && (adcmv[1] < (CAP_EMPTY_LEVEL+2)) && (adcmv[2] < (CAP_EMPTY_LEVEL+2))) {
           break;
        }
     }
     if (clr_cnt == MAX_ENTLADE_ZEIT) {
        PartFound = PART_CELL;	// mark as Battery
     e7e:	38 e0       	ldi	r19, 0x08	; 8
     e80:	c3 2e       	mov	r12, r19
// time of discharge in ms  (10000/20)
#define MAX_ENTLADE_ZEIT  (10000/20)

  for(lop_cnt=0;lop_cnt<10;lop_cnt++) {
     adc_gnd = TXD_MSK;		// put all ADC to Input
     ADC_DDR = adc_gnd;
     e82:	17 b8       	out	0x07, r1	; 7
     ADC_PORT = TXD_VAL;		// ADC-outputs auf 0
     e84:	18 b8       	out	0x08, r1	; 8
     R_PORT = 0;			// R-outputs auf 0
     e86:	15 b8       	out	0x05, r1	; 5
     R_DDR = (2<<(PC2*2)) | (2<<(PC1*2)) | (2<<(PC0*2)); // R_H for all Pins to GND
     e88:	a4 b8       	out	0x04, r10	; 4
     adcmv[0] = W5msReadADC(PC0);	// which voltage has Pin 1?
     e8a:	80 e0       	ldi	r24, 0x00	; 0
     e8c:	0e 94 4f 13 	call	0x269e	; 0x269e <W5msReadADC>
     e90:	8c 01       	movw	r16, r24
     adcmv[1] = ReadADC(PC1);	// which voltage has Pin 2?
     e92:	81 e0       	ldi	r24, 0x01	; 1
     e94:	0e 94 51 13 	call	0x26a2	; 0x26a2 <ReadADC>
     e98:	ec 01       	movw	r28, r24
     adcmv[2] = ReadADC(PC2);	// which voltage has Pin 3?
     e9a:	82 e0       	ldi	r24, 0x02	; 2
     e9c:	0e 94 51 13 	call	0x26a2	; 0x26a2 <ReadADC>
     if ((PartFound == PART_CELL) || (adcmv[0] < CAP_EMPTY_LEVEL) & (adcmv[1] < CAP_EMPTY_LEVEL) & (adcmv[2] < CAP_EMPTY_LEVEL)) {
     ea0:	20 91 09 01 	lds	r18, 0x0109
     ea4:	28 30       	cpi	r18, 0x08	; 8
     ea6:	c1 f0       	breq	.+48     	; 0xed8 <EntladePins+0x7a>
     ea8:	41 e0       	ldi	r20, 0x01	; 1
     eaa:	c3 30       	cpi	r28, 0x03	; 3
     eac:	d1 05       	cpc	r29, r1
     eae:	08 f0       	brcs	.+2      	; 0xeb2 <EntladePins+0x54>
     eb0:	40 e0       	ldi	r20, 0x00	; 0
     eb2:	21 e0       	ldi	r18, 0x01	; 1
     eb4:	03 30       	cpi	r16, 0x03	; 3
     eb6:	11 05       	cpc	r17, r1
     eb8:	08 f0       	brcs	.+2      	; 0xebc <EntladePins+0x5e>
     eba:	20 e0       	ldi	r18, 0x00	; 0
     ebc:	42 23       	and	r20, r18
     ebe:	50 e0       	ldi	r21, 0x00	; 0
     ec0:	21 e0       	ldi	r18, 0x01	; 1
     ec2:	30 e0       	ldi	r19, 0x00	; 0
     ec4:	83 30       	cpi	r24, 0x03	; 3
     ec6:	91 05       	cpc	r25, r1
     ec8:	10 f0       	brcs	.+4      	; 0xece <EntladePins+0x70>
     eca:	20 e0       	ldi	r18, 0x00	; 0
     ecc:	30 e0       	ldi	r19, 0x00	; 0
     ece:	24 23       	and	r18, r20
     ed0:	35 23       	and	r19, r21
     ed2:	21 15       	cp	r18, r1
     ed4:	31 05       	cpc	r19, r1
     ed6:	19 f0       	breq	.+6      	; 0xede <EntladePins+0x80>
        ADC_DDR = TXD_MSK;		// switch all ADC-Pins to input
     ed8:	17 b8       	out	0x07, r1	; 7
        R_DDR = 0;			// switch all R_L Ports (and R_H) to input
     eda:	14 b8       	out	0x04, r1	; 4
        return;
     edc:	4e c0       	rjmp	.+156    	; 0xf7a <EntladePins+0x11c>
  uint8_t lop_cnt;		// loop counter
// time of discharge in ms  (10000/20)
#define MAX_ENTLADE_ZEIT  (10000/20)

  for(lop_cnt=0;lop_cnt<10;lop_cnt++) {
     adc_gnd = TXD_MSK;		// put all ADC to Input
     ede:	21 e0       	ldi	r18, 0x01	; 1
     ee0:	33 e0       	ldi	r19, 0x03	; 3
     ee2:	08 3e       	cpi	r16, 0xE8	; 232
     ee4:	13 07       	cpc	r17, r19
     ee6:	08 f0       	brcs	.+2      	; 0xeea <EntladePins+0x8c>
     ee8:	20 e0       	ldi	r18, 0x00	; 0
     }
     // all Pins with voltage lower than 1V can be connected directly to GND (ADC-Port)
     if (adcmv[0] < 1000) {
        adc_gnd |= (1<<PC0);	//Pin 1 directly to GND
     }
     if (adcmv[1] < 1000) {
     eea:	33 e0       	ldi	r19, 0x03	; 3
     eec:	c8 3e       	cpi	r28, 0xE8	; 232
     eee:	d3 07       	cpc	r29, r19
     ef0:	08 f4       	brcc	.+2      	; 0xef4 <EntladePins+0x96>
        adc_gnd |= (1<<PC1);	//Pin 2 directly to GND
     ef2:	22 60       	ori	r18, 0x02	; 2
     }
     if (adcmv[2] < 1000) {
     ef4:	33 e0       	ldi	r19, 0x03	; 3
     ef6:	88 3e       	cpi	r24, 0xE8	; 232
     ef8:	93 07       	cpc	r25, r19
     efa:	08 f4       	brcc	.+2      	; 0xefe <EntladePins+0xa0>
        adc_gnd |= (1<<PC2);	//Pin 3 directly to  GND
     efc:	24 60       	ori	r18, 0x04	; 4
     }
     ADC_DDR = adc_gnd;		// switch all selected ADC-Ports at the same time
     efe:	27 b9       	out	0x07, r18	; 7

     // additionally switch the leaving Ports with R_L to GND.
     // since there is no disadvantage for the already directly switched pins, we can
     // simply switch all  R_L resistors to GND
     R_DDR = (1<<(PC2*2)) | (1<<(PC1*2)) | (1<<(PC0*2));	// Pins across R_L resistors to GND
     f00:	b4 b8       	out	0x04, r11	; 4
     for(clr_cnt=0;clr_cnt<MAX_ENTLADE_ZEIT;clr_cnt++) {
     f02:	c0 e0       	ldi	r28, 0x00	; 0
     f04:	d0 e0       	ldi	r29, 0x00	; 0
        wdt_reset();
     f06:	a8 95       	wdr
        adcmv[0] = W20msReadADC(PC0);	// which voltage has Pin 1?
     f08:	80 e0       	ldi	r24, 0x00	; 0
     f0a:	0e 94 4b 13 	call	0x2696	; 0x2696 <W20msReadADC>
     f0e:	7c 01       	movw	r14, r24
        adcmv[1] = ReadADC(PC1);	// which voltage has Pin 2?
     f10:	81 e0       	ldi	r24, 0x01	; 1
     f12:	0e 94 51 13 	call	0x26a2	; 0x26a2 <ReadADC>
     f16:	8c 01       	movw	r16, r24
        adcmv[2] = ReadADC(PC2);	// which voltage has Pin 3?
     f18:	82 e0       	ldi	r24, 0x02	; 2
     f1a:	0e 94 51 13 	call	0x26a2	; 0x26a2 <ReadADC>
        if (adcmv[0] < 1300) {
     f1e:	24 e1       	ldi	r18, 0x14	; 20
     f20:	e2 16       	cp	r14, r18
     f22:	25 e0       	ldi	r18, 0x05	; 5
     f24:	f2 06       	cpc	r15, r18
     f26:	08 f4       	brcc	.+2      	; 0xf2a <EntladePins+0xcc>
           ADC_DDR |= (1<<PC0);	// below 1.3V , switch directly with ADC-Port to GND
     f28:	38 9a       	sbi	0x07, 0	; 7
        }
        if (adcmv[1] < 1300) {
     f2a:	35 e0       	ldi	r19, 0x05	; 5
     f2c:	04 31       	cpi	r16, 0x14	; 20
     f2e:	13 07       	cpc	r17, r19
     f30:	08 f4       	brcc	.+2      	; 0xf34 <EntladePins+0xd6>
           ADC_DDR |= (1<<PC1);	// below 1.3V, switch directly with ADC-Port to GND
     f32:	39 9a       	sbi	0x07, 1	; 7
        }
        if (adcmv[2] < 1300) {
     f34:	25 e0       	ldi	r18, 0x05	; 5
     f36:	84 31       	cpi	r24, 0x14	; 20
     f38:	92 07       	cpc	r25, r18
     f3a:	08 f4       	brcc	.+2      	; 0xf3e <EntladePins+0xe0>
           ADC_DDR |= (1<<PC2);	// below 1.3V, switch directly with ADC-Port to GND
     f3c:	3a 9a       	sbi	0x07, 2	; 7
        }
        if ((adcmv[0] < (CAP_EMPTY_LEVEL+2)) && (adcmv[1] < (CAP_EMPTY_LEVEL+2)) && (adcmv[2] < (CAP_EMPTY_LEVEL+2))) {
     f3e:	35 e0       	ldi	r19, 0x05	; 5
     f40:	e3 16       	cp	r14, r19
     f42:	f1 04       	cpc	r15, r1
     f44:	30 f4       	brcc	.+12     	; 0xf52 <EntladePins+0xf4>
     f46:	05 30       	cpi	r16, 0x05	; 5
     f48:	11 05       	cpc	r17, r1
     f4a:	18 f4       	brcc	.+6      	; 0xf52 <EntladePins+0xf4>
     f4c:	85 30       	cpi	r24, 0x05	; 5
     f4e:	91 05       	cpc	r25, r1
     f50:	38 f0       	brcs	.+14     	; 0xf60 <EntladePins+0x102>

     // additionally switch the leaving Ports with R_L to GND.
     // since there is no disadvantage for the already directly switched pins, we can
     // simply switch all  R_L resistors to GND
     R_DDR = (1<<(PC2*2)) | (1<<(PC1*2)) | (1<<(PC0*2));	// Pins across R_L resistors to GND
     for(clr_cnt=0;clr_cnt<MAX_ENTLADE_ZEIT;clr_cnt++) {
     f52:	21 96       	adiw	r28, 0x01	; 1
     f54:	81 e0       	ldi	r24, 0x01	; 1
     f56:	c4 3f       	cpi	r28, 0xF4	; 244
     f58:	d8 07       	cpc	r29, r24
     f5a:	a9 f6       	brne	.-86     	; 0xf06 <EntladePins+0xa8>
        if ((adcmv[0] < (CAP_EMPTY_LEVEL+2)) && (adcmv[1] < (CAP_EMPTY_LEVEL+2)) && (adcmv[2] < (CAP_EMPTY_LEVEL+2))) {
           break;
        }
     }
     if (clr_cnt == MAX_ENTLADE_ZEIT) {
        PartFound = PART_CELL;	// mark as Battery
     f5c:	c0 92 09 01 	sts	0x0109, r12

     // additionally switch the leaving Ports with R_L to GND.
     // since there is no disadvantage for the already directly switched pins, we can
     // simply switch all  R_L resistors to GND
     R_DDR = (1<<(PC2*2)) | (1<<(PC1*2)) | (1<<(PC0*2));	// Pins across R_L resistors to GND
     for(clr_cnt=0;clr_cnt<MAX_ENTLADE_ZEIT;clr_cnt++) {
     f60:	00 e0       	ldi	r16, 0x00	; 0
     f62:	10 e0       	ldi	r17, 0x00	; 0
     f64:	04 c0       	rjmp	.+8      	; 0xf6e <EntladePins+0x110>
//        lcd_data(' ');
//        lcd_string(utoa(adcmv[2], outval, 10));
     }
     for(adcmv[0]=0;adcmv[0]<clr_cnt;adcmv[0]++) {
        // for safety, discharge 5% of discharge  time
        wait1ms();
     f66:	0e 94 38 13 	call	0x2670	; 0x2670 <wait1ms>
     f6a:	0f 5f       	subi	r16, 0xFF	; 255
     f6c:	1f 4f       	sbci	r17, 0xFF	; 255
//        lcd_data(' ');
//        lcd_string(utoa(adcmv[1], outval, 10));
//        lcd_data(' ');
//        lcd_string(utoa(adcmv[2], outval, 10));
     }
     for(adcmv[0]=0;adcmv[0]<clr_cnt;adcmv[0]++) {
     f6e:	0c 17       	cp	r16, r28
     f70:	1d 07       	cpc	r17, r29
     f72:	c8 f3       	brcs	.-14     	; 0xf66 <EntladePins+0x108>
     f74:	da 94       	dec	r13
  unsigned int clr_cnt;		// Clear Counter
  uint8_t lop_cnt;		// loop counter
// time of discharge in ms  (10000/20)
#define MAX_ENTLADE_ZEIT  (10000/20)

  for(lop_cnt=0;lop_cnt<10;lop_cnt++) {
     f76:	09 f0       	breq	.+2      	; 0xf7a <EntladePins+0x11c>
     f78:	84 cf       	rjmp	.-248    	; 0xe82 <EntladePins+0x24>
     for(adcmv[0]=0;adcmv[0]<clr_cnt;adcmv[0]++) {
        // for safety, discharge 5% of discharge  time
        wait1ms();
     }
  } // end while
 }
     f7a:	df 91       	pop	r29
     f7c:	cf 91       	pop	r28
     f7e:	1f 91       	pop	r17
     f80:	0f 91       	pop	r16
     f82:	ff 90       	pop	r15
     f84:	ef 90       	pop	r14
     f86:	df 90       	pop	r13
     f88:	cf 90       	pop	r12
     f8a:	bf 90       	pop	r11
     f8c:	af 90       	pop	r10
     f8e:	08 95       	ret

00000f90 <getRLmultip>:
  cpre += value_out(cval,1);	// output cval, and change prefix if nessasary
  tmpval2 = pgm_read_byte(&C_Prefix_tab[cpre]); //get prefix from table
  lcd_data(tmpval2);		// p or n or  or m  prefix
  lcd_data('F');
 }
unsigned int getRLmultip(unsigned int cvolt) {
     f90:	ff 92       	push	r15
     f92:	0f 93       	push	r16
     f94:	1f 93       	push	r17
     f96:	cf 93       	push	r28
     f98:	df 93       	push	r29

  unsigned int uvolt;
  unsigned int y1, y2;
  uint8_t tabind;
  uint8_t tabres;
  if (cvolt >= RL_Tab_Beginn) {
     f9a:	21 e0       	ldi	r18, 0x01	; 1
     f9c:	8c 32       	cpi	r24, 0x2C	; 44
     f9e:	92 07       	cpc	r25, r18
     fa0:	18 f0       	brcs	.+6      	; 0xfa8 <getRLmultip+0x18>
     uvolt = cvolt - RL_Tab_Beginn;
     fa2:	8c 52       	subi	r24, 0x2C	; 44
     fa4:	91 40       	sbci	r25, 0x01	; 1
     fa6:	02 c0       	rjmp	.+4      	; 0xfac <getRLmultip+0x1c>
  } else {
     uvolt = 0;		// limit to begin of table
     fa8:	80 e0       	ldi	r24, 0x00	; 0
     faa:	90 e0       	ldi	r25, 0x00	; 0
  }
  tabind = uvolt / RL_Tab_Abstand;
     fac:	69 e1       	ldi	r22, 0x19	; 25
     fae:	70 e0       	ldi	r23, 0x00	; 0
     fb0:	0e 94 cd 13 	call	0x279a	; 0x279a <__udivmodhi4>
  tabres = uvolt % RL_Tab_Abstand;
     fb4:	f8 2e       	mov	r15, r24
  tabres = RL_Tab_Abstand - tabres;
  if (tabind > (RL_Tab_Length/RL_Tab_Abstand)) {
     tabind = (RL_Tab_Length/RL_Tab_Abstand);	// limit to end of table
  }
  y1 = MEM_read_word(&RLtab[tabind]);
     fb6:	6d 32       	cpi	r22, 0x2D	; 45
     fb8:	08 f0       	brcs	.+2      	; 0xfbc <getRLmultip+0x2c>
     fba:	6c e2       	ldi	r22, 0x2C	; 44
     fbc:	c6 2f       	mov	r28, r22
     fbe:	d0 e0       	ldi	r29, 0x00	; 0
     fc0:	ce 01       	movw	r24, r28
     fc2:	88 0f       	add	r24, r24
     fc4:	99 1f       	adc	r25, r25
     fc6:	80 50       	subi	r24, 0x00	; 0
     fc8:	90 40       	sbci	r25, 0x00	; 0
     fca:	0e 94 21 14 	call	0x2842	; 0x2842 <__eerd_word_m168>
     fce:	8c 01       	movw	r16, r24
  y2 = MEM_read_word(&RLtab[tabind+1]);
     fd0:	ce 01       	movw	r24, r28
     fd2:	88 0f       	add	r24, r24
     fd4:	99 1f       	adc	r25, r25
     fd6:	8e 5f       	subi	r24, 0xFE	; 254
     fd8:	9f 4f       	sbci	r25, 0xFF	; 255
     fda:	0e 94 21 14 	call	0x2842	; 0x2842 <__eerd_word_m168>
     fde:	9c 01       	movw	r18, r24
  } else {
     uvolt = 0;		// limit to begin of table
  }
  tabind = uvolt / RL_Tab_Abstand;
  tabres = uvolt % RL_Tab_Abstand;
  tabres = RL_Tab_Abstand - tabres;
     fe0:	49 e1       	ldi	r20, 0x19	; 25
     fe2:	4f 19       	sub	r20, r15
  if (tabind > (RL_Tab_Length/RL_Tab_Abstand)) {
     tabind = (RL_Tab_Length/RL_Tab_Abstand);	// limit to end of table
  }
  y1 = MEM_read_word(&RLtab[tabind]);
  y2 = MEM_read_word(&RLtab[tabind+1]);
  return ( ((y1 - y2) * tabres + (RL_Tab_Abstand/2)) / RL_Tab_Abstand + y2); // interpolate table
     fe4:	50 e0       	ldi	r21, 0x00	; 0
     fe6:	08 1b       	sub	r16, r24
     fe8:	19 0b       	sbc	r17, r25
     fea:	40 9f       	mul	r20, r16
     fec:	c0 01       	movw	r24, r0
     fee:	41 9f       	mul	r20, r17
     ff0:	90 0d       	add	r25, r0
     ff2:	50 9f       	mul	r21, r16
     ff4:	90 0d       	add	r25, r0
     ff6:	11 24       	eor	r1, r1
     ff8:	0c 96       	adiw	r24, 0x0c	; 12
     ffa:	69 e1       	ldi	r22, 0x19	; 25
     ffc:	70 e0       	ldi	r23, 0x00	; 0
     ffe:	0e 94 cd 13 	call	0x279a	; 0x279a <__udivmodhi4>
    1002:	62 0f       	add	r22, r18
    1004:	73 1f       	adc	r23, r19
}
    1006:	cb 01       	movw	r24, r22
    1008:	df 91       	pop	r29
    100a:	cf 91       	pop	r28
    100c:	1f 91       	pop	r17
    100e:	0f 91       	pop	r16
    1010:	ff 90       	pop	r15
    1012:	08 95       	ret

00001014 <ReadCapacity>:

unsigned long CombineII2Long( unsigned int ovcnt16, unsigned int tmpcnt); //tricky function to build unsigned long from two unsigned int values


//=================================================================
void ReadCapacity(uint8_t HighPin, uint8_t LowPin) {
    1014:	9f 92       	push	r9
    1016:	af 92       	push	r10
    1018:	bf 92       	push	r11
    101a:	cf 92       	push	r12
    101c:	df 92       	push	r13
    101e:	ef 92       	push	r14
    1020:	ff 92       	push	r15
    1022:	0f 93       	push	r16
    1024:	1f 93       	push	r17
    1026:	cf 93       	push	r28
    1028:	df 93       	push	r29
    102a:	18 2f       	mov	r17, r24
    102c:	96 2e       	mov	r9, r22
  unsigned int ovcnt16;
  uint8_t HiPinR_L, HiPinR_H;
  uint8_t LoADC;
  uint8_t ii;

  LoADC = MEM_read_byte(&PinADCtab[LowPin]) | TXD_MSK;
    102e:	86 2f       	mov	r24, r22
    1030:	90 e0       	ldi	r25, 0x00	; 0
    1032:	88 52       	subi	r24, 0x28	; 40
    1034:	9e 4f       	sbci	r25, 0xFE	; 254
    1036:	0e 94 19 14 	call	0x2832	; 0x2832 <__eerd_byte_m168>
    103a:	c8 2e       	mov	r12, r24
  HiPinR_L = MEM_read_byte(&PinRLtab[HighPin]);	//R_L mask for HighPin R_L load
    103c:	21 2f       	mov	r18, r17
    103e:	30 e0       	ldi	r19, 0x00	; 0
    1040:	c9 01       	movw	r24, r18
    1042:	8b 52       	subi	r24, 0x2B	; 43
    1044:	9e 4f       	sbci	r25, 0xFE	; 254
    1046:	0e 94 19 14 	call	0x2832	; 0x2832 <__eerd_byte_m168>
    104a:	08 2f       	mov	r16, r24
  HiPinR_H = HiPinR_L + HiPinR_L;	//double for HighPin R_H load

  if(PartFound == PART_CAPACITOR) {
    104c:	80 91 09 01 	lds	r24, 0x0109
    1050:	87 30       	cpi	r24, 0x07	; 7
    1052:	09 f4       	brne	.+2      	; 0x1056 <ReadCapacity+0x42>
    1054:	d6 c1       	rjmp	.+940    	; 0x1402 <ReadCapacity+0x3ee>
     lcd_string(ultoa(cval,outval,10));
     wait2s();
#endif
     return;	//We have found a capacitor already
  }
  if(PartFound == PART_RESISTOR) {
    1056:	86 30       	cpi	r24, 0x06	; 6
    1058:	09 f4       	brne	.+2      	; 0x105c <ReadCapacity+0x48>
    105a:	d3 c1       	rjmp	.+934    	; 0x1402 <ReadCapacity+0x3ee>
     return;	//We have found a resistor already 
  }
  for (ii=0;ii<NumOfDiodes;ii++) {
    105c:	30 91 07 01 	lds	r19, 0x0107
    1060:	e9 e4       	ldi	r30, 0x49	; 73
    1062:	f1 e0       	ldi	r31, 0x01	; 1
    1064:	20 e0       	ldi	r18, 0x00	; 0
    1066:	0f c0       	rjmp	.+30     	; 0x1086 <ReadCapacity+0x72>
     if ((diodes[ii].Cathode == LowPin) && (diodes[ii].Anode == HighPin) && (diodes[ii].Voltage < 1500)) {
    1068:	81 81       	ldd	r24, Z+1	; 0x01
    106a:	89 15       	cp	r24, r9
    106c:	51 f4       	brne	.+20     	; 0x1082 <ReadCapacity+0x6e>
    106e:	80 81       	ld	r24, Z
    1070:	81 17       	cp	r24, r17
    1072:	39 f4       	brne	.+14     	; 0x1082 <ReadCapacity+0x6e>
    1074:	82 81       	ldd	r24, Z+2	; 0x02
    1076:	93 81       	ldd	r25, Z+3	; 0x03
    1078:	45 e0       	ldi	r20, 0x05	; 5
    107a:	8c 3d       	cpi	r24, 0xDC	; 220
    107c:	94 07       	cpc	r25, r20
    107e:	08 f4       	brcc	.+2      	; 0x1082 <ReadCapacity+0x6e>
    1080:	c0 c1       	rjmp	.+896    	; 0x1402 <ReadCapacity+0x3ee>
     return;	//We have found a capacitor already
  }
  if(PartFound == PART_RESISTOR) {
     return;	//We have found a resistor already 
  }
  for (ii=0;ii<NumOfDiodes;ii++) {
    1082:	2f 5f       	subi	r18, 0xFF	; 255
    1084:	34 96       	adiw	r30, 0x04	; 4
    1086:	23 17       	cp	r18, r19
    1088:	78 f3       	brcs	.-34     	; 0x1068 <ReadCapacity+0x54>
     if ((diodes[ii].Cathode == LowPin) && (diodes[ii].Anode == HighPin) && (diodes[ii].Voltage < 1500)) {
        return;
     }
  }
  
  EntladePins();			// discharge capacitor
    108a:	0e 94 2f 07 	call	0xe5e	; 0xe5e <EntladePins>
  ADC_PORT = TXD_VAL;			// switch ADC-Port to GND
    108e:	18 b8       	out	0x08, r1	; 8
  R_PORT = 0;				// switch R-Port to GND
    1090:	15 b8       	out	0x05, r1	; 5
  ADC_DDR = LoADC;			// switch Low-Pin to output (GND)
    1092:	c7 b8       	out	0x07, r12	; 7
  R_DDR = HiPinR_L;			// switch R_L port for HighPin to output (GND)
    1094:	04 b9       	out	0x04, r16	; 4
  adcv[0] = ReadADC(HighPin);		// voltage before any load 
    1096:	81 2f       	mov	r24, r17
    1098:	0e 94 51 13 	call	0x26a2	; 0x26a2 <ReadADC>
    109c:	5c 01       	movw	r10, r24
// ******** should adcv[0] be measured without current???
  for (ovcnt16=0;ovcnt16<500;ovcnt16++) {
    109e:	c0 e0       	ldi	r28, 0x00	; 0
    10a0:	d0 e0       	ldi	r29, 0x00	; 0
     ChargePin10ms(HiPinR_L,1);		//HighPin with R_L 10ms to VCC ,then currentless
    10a2:	80 2f       	mov	r24, r16
    10a4:	61 e0       	ldi	r22, 0x01	; 1
    10a6:	0e 94 79 01 	call	0x2f2	; 0x2f2 <ChargePin10ms>
     wait500us();			//wait a little time
    10aa:	0e 94 39 13 	call	0x2672	; 0x2672 <wait500us>
     wdt_reset();
    10ae:	a8 95       	wdr
     // read voltage without current, is already charged enough?
//     adcv[2] = ReadADC(HighPin) - adcv[0] + C_H_KORR;
     adcv[2] = ReadADC(HighPin) - adcv[0];
    10b0:	81 2f       	mov	r24, r17
    10b2:	0e 94 51 13 	call	0x26a2	; 0x26a2 <ReadADC>
    10b6:	7c 01       	movw	r14, r24
    10b8:	ea 18       	sub	r14, r10
    10ba:	fb 08       	sbc	r15, r11
     if ((ovcnt16 == 126) && (adcv[2] < 75)) {
    10bc:	ce 37       	cpi	r28, 0x7E	; 126
    10be:	d1 05       	cpc	r29, r1
    10c0:	21 f4       	brne	.+8      	; 0x10ca <ReadCapacity+0xb6>
    10c2:	8b e4       	ldi	r24, 0x4B	; 75
    10c4:	e8 16       	cp	r14, r24
    10c6:	f1 04       	cpc	r15, r1
    10c8:	50 f0       	brcs	.+20     	; 0x10de <ReadCapacity+0xca>
        // 300mV can not be reached well-timed 
        break;		// don't try to load any more
     }
     if (adcv[2] > 300) {
    10ca:	9d e2       	ldi	r25, 0x2D	; 45
    10cc:	e9 16       	cp	r14, r25
    10ce:	91 e0       	ldi	r25, 0x01	; 1
    10d0:	f9 06       	cpc	r15, r25
    10d2:	28 f4       	brcc	.+10     	; 0x10de <ReadCapacity+0xca>
  R_PORT = 0;				// switch R-Port to GND
  ADC_DDR = LoADC;			// switch Low-Pin to output (GND)
  R_DDR = HiPinR_L;			// switch R_L port for HighPin to output (GND)
  adcv[0] = ReadADC(HighPin);		// voltage before any load 
// ******** should adcv[0] be measured without current???
  for (ovcnt16=0;ovcnt16<500;ovcnt16++) {
    10d4:	21 96       	adiw	r28, 0x01	; 1
    10d6:	21 e0       	ldi	r18, 0x01	; 1
    10d8:	c4 3f       	cpi	r28, 0xF4	; 244
    10da:	d2 07       	cpc	r29, r18
    10dc:	11 f7       	brne	.-60     	; 0x10a2 <ReadCapacity+0x8e>
     }
  }
  // wait 5ms and read voltage again, does the capacitor keep the voltage?
//  adcv[1] = W5msReadADC(HighPin) - adcv[0];
//  wdt_reset();
  cpre = 0;			//default unit is pF
    10de:	10 92 37 01 	sts	0x0137, r1
  if (adcv[2] < 301) {
    10e2:	3d e2       	ldi	r19, 0x2D	; 45
    10e4:	e3 16       	cp	r14, r19
    10e6:	31 e0       	ldi	r19, 0x01	; 1
    10e8:	f3 06       	cpc	r15, r19
    10ea:	08 f4       	brcc	.+2      	; 0x10ee <ReadCapacity+0xda>
    10ec:	81 c1       	rjmp	.+770    	; 0x13f0 <ReadCapacity+0x3dc>
     wait1s();
#endif
     goto keinC;		// was never charged enough, >100mF or shorted
  }
  //voltage is rised properly and keeps the voltage enough
  if ((ovcnt16 == 0 ) && (adcv[2] > 1300)) {
    10ee:	20 97       	sbiw	r28, 0x00	; 0
    10f0:	31 f4       	brne	.+12     	; 0x10fe <ReadCapacity+0xea>
    10f2:	45 e1       	ldi	r20, 0x15	; 21
    10f4:	e4 16       	cp	r14, r20
    10f6:	45 e0       	ldi	r20, 0x05	; 5
    10f8:	f4 06       	cpc	r15, r20
    10fa:	08 f0       	brcs	.+2      	; 0x10fe <ReadCapacity+0xea>
    10fc:	55 c0       	rjmp	.+170    	; 0x11a8 <ReadCapacity+0x194>
     goto messe_mit_rh;		// Voltage of more than 1300mV is reached in one pulse, to fast loaded
  }
  // Capacity is more than about 50F
  cpre = 1;		// switch units to nF 
    10fe:	81 e0       	ldi	r24, 0x01	; 1
    1100:	80 93 37 01 	sts	0x0137, r24
  }
  cval_uncorrected = ovcnt16 + 1;
  cval_uncorrected *= getRLmultip(adcv[2]);		// get factor to convert time to capacity from table
#else
  // wait the same time which is required for loading
  for (tmpint=0;tmpint<=ovcnt16;tmpint++) {
    1104:	cc 24       	eor	r12, r12
    1106:	dd 24       	eor	r13, r13
     wait10ms();
    1108:	0e 94 33 13 	call	0x2666	; 0x2666 <wait10ms>
     adcv[3] = ReadADC(HighPin) - adcv[0]; // read voltage again, is discharged only a little bit ?
    110c:	81 2f       	mov	r24, r17
    110e:	0e 94 51 13 	call	0x26a2	; 0x26a2 <ReadADC>
    1112:	8a 19       	sub	r24, r10
    1114:	9b 09       	sbc	r25, r11
     wdt_reset();
    1116:	a8 95       	wdr
  }
  cval_uncorrected = ovcnt16 + 1;
  cval_uncorrected *= getRLmultip(adcv[2]);		// get factor to convert time to capacity from table
#else
  // wait the same time which is required for loading
  for (tmpint=0;tmpint<=ovcnt16;tmpint++) {
    1118:	08 94       	sec
    111a:	c1 1c       	adc	r12, r1
    111c:	d1 1c       	adc	r13, r1
    111e:	cc 15       	cp	r28, r12
    1120:	dd 05       	cpc	r29, r13
    1122:	90 f7       	brcc	.-28     	; 0x1108 <ReadCapacity+0xf4>
     wait10ms();
     adcv[3] = ReadADC(HighPin) - adcv[0]; // read voltage again, is discharged only a little bit ?
     wdt_reset();
  }
  if (adcv[2] > adcv[3]) {
    1124:	8e 15       	cp	r24, r14
    1126:	9f 05       	cpc	r25, r15
    1128:	48 f4       	brcc	.+18     	; 0x113c <ReadCapacity+0x128>
     // build difference to load voltage
     adcv[3] = adcv[2] - adcv[3];
    112a:	97 01       	movw	r18, r14
    112c:	28 1b       	sub	r18, r24
    112e:	39 0b       	sbc	r19, r25
    1130:	c9 01       	movw	r24, r18
  } else {
     adcv[3] = 0;
  }
  if (adcv[3] > 100) {
    1132:	25 36       	cpi	r18, 0x65	; 101
    1134:	31 05       	cpc	r19, r1
    1136:	08 f0       	brcs	.+2      	; 0x113a <ReadCapacity+0x126>
    1138:	5b c1       	rjmp	.+694    	; 0x13f0 <ReadCapacity+0x3dc>
    113a:	02 c0       	rjmp	.+4      	; 0x1140 <ReadCapacity+0x12c>
  }
  if (adcv[2] > adcv[3]) {
     // build difference to load voltage
     adcv[3] = adcv[2] - adcv[3];
  } else {
     adcv[3] = 0;
    113c:	80 e0       	ldi	r24, 0x00	; 0
    113e:	90 e0       	ldi	r25, 0x00	; 0
     lcd_data(' ');
     wait1s();
 #endif
     goto keinC;		// capacitor does not keep the voltage about 5ms
  }
  cval_uncorrected = ovcnt16 + 1;
    1140:	21 96       	adiw	r28, 0x01	; 1
    1142:	5e 01       	movw	r10, r28
    1144:	cc 24       	eor	r12, r12
    1146:	dd 24       	eor	r13, r13
    1148:	a0 92 40 01 	sts	0x0140, r10
    114c:	b0 92 41 01 	sts	0x0141, r11
    1150:	c0 92 42 01 	sts	0x0142, r12
    1154:	d0 92 43 01 	sts	0x0143, r13
  // compute factor with load voltage + lost voltage during the voltage load time
  cval_uncorrected *= getRLmultip(adcv[2]+adcv[3]);	// get factor to convert time to capacity from table
    1158:	8e 0d       	add	r24, r14
    115a:	9f 1d       	adc	r25, r15
    115c:	0e 94 c8 07 	call	0xf90	; 0xf90 <getRLmultip>
    1160:	bc 01       	movw	r22, r24
    1162:	80 e0       	ldi	r24, 0x00	; 0
    1164:	90 e0       	ldi	r25, 0x00	; 0
    1166:	a6 01       	movw	r20, r12
    1168:	95 01       	movw	r18, r10
    116a:	0e 94 ae 13 	call	0x275c	; 0x275c <__mulsi3>
    116e:	60 93 40 01 	sts	0x0140, r22
    1172:	70 93 41 01 	sts	0x0141, r23
    1176:	80 93 42 01 	sts	0x0142, r24
    117a:	90 93 43 01 	sts	0x0143, r25
#endif
   cval = cval_uncorrected;		// set result to uncorrected
   cval *= (400 - ((C_H_KORR)*2)/5);	// correct with C_H_KORR with 0.1% resolution, but prevent overflow
    117e:	20 e9       	ldi	r18, 0x90	; 144
    1180:	31 e0       	ldi	r19, 0x01	; 1
    1182:	40 e0       	ldi	r20, 0x00	; 0
    1184:	50 e0       	ldi	r21, 0x00	; 0
    1186:	0e 94 ae 13 	call	0x275c	; 0x275c <__mulsi3>
   cval /= 40;
    118a:	28 e2       	ldi	r18, 0x28	; 40
    118c:	30 e0       	ldi	r19, 0x00	; 0
    118e:	40 e0       	ldi	r20, 0x00	; 0
    1190:	50 e0       	ldi	r21, 0x00	; 0
    1192:	0e 94 e1 13 	call	0x27c2	; 0x27c2 <__udivmodsi4>
    1196:	20 93 61 01 	sts	0x0161, r18
    119a:	30 93 62 01 	sts	0x0162, r19
    119e:	40 93 63 01 	sts	0x0163, r20
    11a2:	50 93 64 01 	sts	0x0164, r21
   lcd_string(ultoa(cval,outval,10));
   lcd_data('n');
   lcd_string(utoa(ovcnt16,outval,10));
   wait3s();
#endif
   goto checkDiodes;
    11a6:	15 c1       	rjmp	.+554    	; 0x13d2 <ReadCapacity+0x3be>
  uint8_t LoADC;
  uint8_t ii;

  LoADC = MEM_read_byte(&PinADCtab[LowPin]) | TXD_MSK;
  HiPinR_L = MEM_read_byte(&PinRLtab[HighPin]);	//R_L mask for HighPin R_L load
  HiPinR_H = HiPinR_L + HiPinR_L;	//double for HighPin R_H load
    11a8:	e0 2e       	mov	r14, r16
    11aa:	ee 0c       	add	r14, r14

//==================================================================================
// Measurement of little capacity values
messe_mit_rh:
  //little capacity value, about  < 50 F
  EntladePins();			// discharge capacitor
    11ac:	0e 94 2f 07 	call	0xe5e	; 0xe5e <EntladePins>
  //measure with the R_H (470kOhm) resistor 
  R_PORT = 0;		// R_DDR ist HiPinR_L
    11b0:	15 b8       	out	0x05, r1	; 5
  ADC_DDR = (1<<TP1) | (1<<TP2) | (1<<TP3) | (1<<TxD);	//switch all Pins to output
    11b2:	8f e0       	ldi	r24, 0x0F	; 15
    11b4:	87 b9       	out	0x07, r24	; 7
  ADC_PORT = TXD_VAL;		//switch all ADC Pins to GND
    11b6:	18 b8       	out	0x08, r1	; 8
  R_DDR = HiPinR_H;   		// switch R_H resistor port for HighPin to output (GND)
    11b8:	e4 b8       	out	0x04, r14	; 4
// setup Analog Comparator
  ADC_COMP_CONTROL = (1<<ACME);			//enable Analog Comparator Multiplexer
    11ba:	80 e4       	ldi	r24, 0x40	; 64
    11bc:	80 93 7b 00 	sts	0x007B, r24
  ACSR =  (1<<ACBG) | (1<<ACI)  | (1<<ACIC);	// enable, 1.3V, no Interrupt, Connect to Timer1 
    11c0:	84 e5       	ldi	r24, 0x54	; 84
    11c2:	80 bf       	out	0x30, r24	; 48
  ADMUX = (1<<REFS0) | HighPin;			// switch Mux to High-Pin
    11c4:	81 2f       	mov	r24, r17
    11c6:	80 64       	ori	r24, 0x40	; 64
    11c8:	80 93 7c 00 	sts	0x007C, r24
  ADCSRA = (1<<ADIF) | AUTO_CLOCK_DIV; //disable ADC
    11cc:	86 e1       	ldi	r24, 0x16	; 22
    11ce:	80 93 7a 00 	sts	0x007A, r24
  wait200us();
    11d2:	0e 94 3c 13 	call	0x2678	; 0x2678 <wait200us>

  ovcnt16 = 0;
// setup Counter1
  TCCR1A = 0;			// set Counter1 to normal Mode
    11d6:	10 92 80 00 	sts	0x0080, r1
  TCNT1 = 0;			//set Counter to 0
    11da:	10 92 85 00 	sts	0x0085, r1
    11de:	10 92 84 00 	sts	0x0084, r1
  TI1_INT_FLAGS = (1<<ICF1) | (1<<OCF1B) | (1<<OCF1A) | (1<<TOV1);	// mega88
    11e2:	87 e2       	ldi	r24, 0x27	; 39
    11e4:	86 bb       	out	0x16, r24	; 22
  R_PORT = HiPinR_H;           	// switch R_H resistor port for HighPin to VCC
    11e6:	e5 b8       	out	0x05, r14	; 5
  if(PartFound == PART_FET) {
    11e8:	80 91 09 01 	lds	r24, 0x0109
    11ec:	83 30       	cpi	r24, 0x03	; 3
    11ee:	79 f4       	brne	.+30     	; 0x120e <ReadCapacity+0x1fa>
     // charge capacitor with R_H resistor
     TCCR1B = (1<<CS10);	//Start counter 1MHz or 8MHz
    11f0:	81 e0       	ldi	r24, 0x01	; 1
    11f2:	80 93 81 00 	sts	0x0081, r24
     ADC_DDR = (((1<<TP1) | (1<<TP2) | (1<<TP3) | TXD_MSK) & ~(1<<HighPin));	// release only HighPin ADC port
    11f6:	81 e0       	ldi	r24, 0x01	; 1
    11f8:	90 e0       	ldi	r25, 0x00	; 0
    11fa:	01 2e       	mov	r0, r17
    11fc:	02 c0       	rjmp	.+4      	; 0x1202 <ReadCapacity+0x1ee>
    11fe:	88 0f       	add	r24, r24
    1200:	99 1f       	adc	r25, r25
    1202:	0a 94       	dec	r0
    1204:	e2 f7       	brpl	.-8      	; 0x11fe <ReadCapacity+0x1ea>
    1206:	80 95       	com	r24
    1208:	87 70       	andi	r24, 0x07	; 7
    120a:	87 b9       	out	0x07, r24	; 7
    120c:	04 c0       	rjmp	.+8      	; 0x1216 <ReadCapacity+0x202>
  } else {
     TCCR1B =  (1<<CS10);	//start counter 1MHz or 8MHz
    120e:	81 e0       	ldi	r24, 0x01	; 1
    1210:	80 93 81 00 	sts	0x0081, r24
     ADC_DDR = LoADC;		// stay LoADC Pin switched to GND, charge capacitor with R_H slowly
    1214:	c7 b8       	out	0x07, r12	; 7
     ii = TI1_INT_FLAGS;		//read Timer flags
     if (ii & (1<<ICF1))  {
        break;
     }
     if((ii & (1<<TOV1))) {		// counter overflow, 65.536 ms @ 1MHz, 8.192ms @ 8MHz
        TI1_INT_FLAGS = (1<<TOV1);	// Reset OV Flag
    1216:	81 e0       	ldi	r24, 0x01	; 1
     ADC_DDR = LoADC;		// stay LoADC Pin switched to GND, charge capacitor with R_H slowly
  }
//******************************
  while(1) {
     // Wait, until  Input Capture is set
     ii = TI1_INT_FLAGS;		//read Timer flags
    1218:	26 b3       	in	r18, 0x16	; 22
     if (ii & (1<<ICF1))  {
    121a:	25 fd       	sbrc	r18, 5
    121c:	09 c0       	rjmp	.+18     	; 0x1230 <ReadCapacity+0x21c>
        break;
     }
     if((ii & (1<<TOV1))) {		// counter overflow, 65.536 ms @ 1MHz, 8.192ms @ 8MHz
    121e:	20 ff       	sbrs	r18, 0
    1220:	fb cf       	rjmp	.-10     	; 0x1218 <ReadCapacity+0x204>
        TI1_INT_FLAGS = (1<<TOV1);	// Reset OV Flag
    1222:	86 bb       	out	0x16, r24	; 22
        wdt_reset();
    1224:	a8 95       	wdr
        ovcnt16++;
    1226:	21 96       	adiw	r28, 0x01	; 1
        if(ovcnt16 == (F_CPU/5000)) {
    1228:	36 e0       	ldi	r19, 0x06	; 6
    122a:	c0 34       	cpi	r28, 0x40	; 64
    122c:	d3 07       	cpc	r29, r19
    122e:	a1 f7       	brne	.-24     	; 0x1218 <ReadCapacity+0x204>
           break; 	//Timeout for Charging, above 12 s
        }
     }
  }
  TCCR1B = (0<<ICNC1) | (0<<ICES1) | (0<<CS10);  // stop counter
    1230:	10 92 81 00 	sts	0x0081, r1
  TI1_INT_FLAGS = (1<<ICF1);			// Reset Input Capture
    1234:	80 e2       	ldi	r24, 0x20	; 32
    1236:	86 bb       	out	0x16, r24	; 22
  tmpint = ICR1;		// get previous Input Capture Counter flag
    1238:	60 91 86 00 	lds	r22, 0x0086
    123c:	70 91 87 00 	lds	r23, 0x0087
// check actual counter, if an additional overflow must be added
  if((TCNT1 > tmpint) && (ii & (1<<TOV1))) {
    1240:	80 91 84 00 	lds	r24, 0x0084
    1244:	90 91 85 00 	lds	r25, 0x0085
    1248:	68 17       	cp	r22, r24
    124a:	79 07       	cpc	r23, r25
    124c:	28 f4       	brcc	.+10     	; 0x1258 <ReadCapacity+0x244>
    124e:	20 ff       	sbrs	r18, 0
    1250:	03 c0       	rjmp	.+6      	; 0x1258 <ReadCapacity+0x244>
     // this OV was not counted, but was before the Input Capture
     TI1_INT_FLAGS = (1<<TOV1);		// Reset OV Flag
    1252:	81 e0       	ldi	r24, 0x01	; 1
    1254:	86 bb       	out	0x16, r24	; 22
     ovcnt16++;
    1256:	21 96       	adiw	r28, 0x01	; 1
  }
  R_PORT = 0;			//discharge the capacitor
    1258:	15 b8       	out	0x05, r1	; 5
  if (ovcnt16 >= (F_CPU/10000)) {
    125a:	43 e0       	ldi	r20, 0x03	; 3
    125c:	c0 32       	cpi	r28, 0x20	; 32
    125e:	d4 07       	cpc	r29, r20
    1260:	08 f0       	brcs	.+2      	; 0x1264 <ReadCapacity+0x250>
    1262:	c6 c0       	rjmp	.+396    	; 0x13f0 <ReadCapacity+0x3dc>
     goto keinC;	// no normal end
  }
  cval_uncorrected = CombineII2Long(ovcnt16, tmpint);
    1264:	ce 01       	movw	r24, r28
    1266:	0e 94 4a 13 	call	0x2694	; 0x2694 <CombineII2Long>
    126a:	60 93 40 01 	sts	0x0140, r22
    126e:	70 93 41 01 	sts	0x0141, r23
    1272:	80 93 42 01 	sts	0x0142, r24
    1276:	90 93 43 01 	sts	0x0143, r25

  cpre = 0;			// cval unit is pF 
    127a:	10 92 37 01 	sts	0x0137, r1
  if (ovcnt16 > 65) {
    127e:	c2 34       	cpi	r28, 0x42	; 66
    1280:	d1 05       	cpc	r29, r1
    1282:	88 f0       	brcs	.+34     	; 0x12a6 <ReadCapacity+0x292>
     // cval_uncorrected > 4259840
     cval_uncorrected /= 1000;		// switch from pF to nF unit
    1284:	28 ee       	ldi	r18, 0xE8	; 232
    1286:	33 e0       	ldi	r19, 0x03	; 3
    1288:	40 e0       	ldi	r20, 0x00	; 0
    128a:	50 e0       	ldi	r21, 0x00	; 0
    128c:	0e 94 e1 13 	call	0x27c2	; 0x27c2 <__udivmodsi4>
    1290:	20 93 40 01 	sts	0x0140, r18
    1294:	30 93 41 01 	sts	0x0141, r19
    1298:	40 93 42 01 	sts	0x0142, r20
    129c:	50 93 43 01 	sts	0x0143, r21
     cpre = 1;			// set unit, prevent overflow
    12a0:	81 e0       	ldi	r24, 0x01	; 1
    12a2:	80 93 37 01 	sts	0x0137, r24
  }
  cval_uncorrected *= RHmultip;		// 708
    12a6:	60 91 00 01 	lds	r22, 0x0100
    12aa:	70 91 01 01 	lds	r23, 0x0101
    12ae:	80 e0       	ldi	r24, 0x00	; 0
    12b0:	90 e0       	ldi	r25, 0x00	; 0
    12b2:	20 91 40 01 	lds	r18, 0x0140
    12b6:	30 91 41 01 	lds	r19, 0x0141
    12ba:	40 91 42 01 	lds	r20, 0x0142
    12be:	50 91 43 01 	lds	r21, 0x0143
    12c2:	0e 94 ae 13 	call	0x275c	; 0x275c <__mulsi3>
  cval_uncorrected /= (F_CPU / 10000);	// divide by 100 (@ 1MHz clock), 800 (@ 8MHz clock)
    12c6:	20 e2       	ldi	r18, 0x20	; 32
    12c8:	33 e0       	ldi	r19, 0x03	; 3
    12ca:	40 e0       	ldi	r20, 0x00	; 0
    12cc:	50 e0       	ldi	r21, 0x00	; 0
    12ce:	0e 94 e1 13 	call	0x27c2	; 0x27c2 <__udivmodsi4>
    12d2:	69 01       	movw	r12, r18
    12d4:	7a 01       	movw	r14, r20
    12d6:	20 93 40 01 	sts	0x0140, r18
    12da:	30 93 41 01 	sts	0x0141, r19
    12de:	40 93 42 01 	sts	0x0142, r20
    12e2:	50 93 43 01 	sts	0x0143, r21
  cval = cval_uncorrected;		// set the corrected cval
    12e6:	20 93 61 01 	sts	0x0161, r18
    12ea:	30 93 62 01 	sts	0x0162, r19
    12ee:	40 93 63 01 	sts	0x0163, r20
    12f2:	50 93 64 01 	sts	0x0164, r21
  if (cpre == 0) {
    12f6:	80 91 37 01 	lds	r24, 0x0137
    12fa:	88 23       	and	r24, r24
    12fc:	09 f0       	breq	.+2      	; 0x1300 <ReadCapacity+0x2ec>
    12fe:	5b c0       	rjmp	.+182    	; 0x13b6 <ReadCapacity+0x3a2>
#if COMP_SLEW1 > COMP_SLEW2
     if (cval < COMP_SLEW1) {
    1300:	20 3a       	cpi	r18, 0xA0	; 160
    1302:	8f e0       	ldi	r24, 0x0F	; 15
    1304:	38 07       	cpc	r19, r24
    1306:	80 e0       	ldi	r24, 0x00	; 0
    1308:	48 07       	cpc	r20, r24
    130a:	80 e0       	ldi	r24, 0x00	; 0
    130c:	58 07       	cpc	r21, r24
    130e:	b0 f4       	brcc	.+44     	; 0x133c <ReadCapacity+0x328>
        // add slew rate dependent offset
        cval += (COMP_SLEW1 / (cval+COMP_SLEW2 ));
    1310:	24 52       	subi	r18, 0x24	; 36
    1312:	3f 4f       	sbci	r19, 0xFF	; 255
    1314:	4f 4f       	sbci	r20, 0xFF	; 255
    1316:	5f 4f       	sbci	r21, 0xFF	; 255
    1318:	60 ea       	ldi	r22, 0xA0	; 160
    131a:	7f e0       	ldi	r23, 0x0F	; 15
    131c:	80 e0       	ldi	r24, 0x00	; 0
    131e:	90 e0       	ldi	r25, 0x00	; 0
    1320:	0e 94 e1 13 	call	0x27c2	; 0x27c2 <__udivmodsi4>
    1324:	2c 0d       	add	r18, r12
    1326:	3d 1d       	adc	r19, r13
    1328:	4e 1d       	adc	r20, r14
    132a:	5f 1d       	adc	r21, r15
    132c:	20 93 61 01 	sts	0x0161, r18
    1330:	30 93 62 01 	sts	0x0162, r19
    1334:	40 93 63 01 	sts	0x0163, r20
    1338:	50 93 64 01 	sts	0x0164, r21
     }
#endif
     if (HighPin == TP2) cval += 2;	// measurements with TP2 have 2pF less capacity
    133c:	11 30       	cpi	r17, 0x01	; 1
    133e:	99 f4       	brne	.+38     	; 0x1366 <ReadCapacity+0x352>
    1340:	80 91 61 01 	lds	r24, 0x0161
    1344:	90 91 62 01 	lds	r25, 0x0162
    1348:	a0 91 63 01 	lds	r26, 0x0163
    134c:	b0 91 64 01 	lds	r27, 0x0164
    1350:	02 96       	adiw	r24, 0x02	; 2
    1352:	a1 1d       	adc	r26, r1
    1354:	b1 1d       	adc	r27, r1
    1356:	80 93 61 01 	sts	0x0161, r24
    135a:	90 93 62 01 	sts	0x0162, r25
    135e:	a0 93 63 01 	sts	0x0163, r26
    1362:	b0 93 64 01 	sts	0x0164, r27
//     if ((HighPin == TP3) && (LowPin == TP2)) cval -= 1; // this combination has 1pF to much
//     if ((HighPin == TP1) && (LowPin == TP3)) cval += 1; // this combinations has 1pF to less
#ifdef AUTO_CAL
     // auto calibration mode, cap_null can be updated in selftest section
     tmpint = eeprom_read_word(&cap_null);	// read zero offset
    1366:	8f ed       	ldi	r24, 0xDF	; 223
    1368:	91 e0       	ldi	r25, 0x01	; 1
    136a:	0e 94 21 14 	call	0x2842	; 0x2842 <__eerd_word_m168>
     if (cval > tmpint) {
    136e:	20 91 61 01 	lds	r18, 0x0161
    1372:	30 91 62 01 	lds	r19, 0x0162
    1376:	40 91 63 01 	lds	r20, 0x0163
    137a:	50 91 64 01 	lds	r21, 0x0164
    137e:	a0 e0       	ldi	r26, 0x00	; 0
    1380:	b0 e0       	ldi	r27, 0x00	; 0
    1382:	82 17       	cp	r24, r18
    1384:	93 07       	cpc	r25, r19
    1386:	a4 07       	cpc	r26, r20
    1388:	b5 07       	cpc	r27, r21
    138a:	68 f4       	brcc	.+26     	; 0x13a6 <ReadCapacity+0x392>
         cval -= tmpint;		//subtract zero offset (pF)
    138c:	28 1b       	sub	r18, r24
    138e:	39 0b       	sbc	r19, r25
    1390:	4a 0b       	sbc	r20, r26
    1392:	5b 0b       	sbc	r21, r27
    1394:	20 93 61 01 	sts	0x0161, r18
    1398:	30 93 62 01 	sts	0x0162, r19
    139c:	40 93 63 01 	sts	0x0163, r20
    13a0:	50 93 64 01 	sts	0x0164, r21
    13a4:	08 c0       	rjmp	.+16     	; 0x13b6 <ReadCapacity+0x3a2>
     } else {
         cval = 0;			//unsigned long may not reach negativ value
    13a6:	10 92 61 01 	sts	0x0161, r1
    13aa:	10 92 62 01 	sts	0x0162, r1
    13ae:	10 92 63 01 	sts	0x0163, r1
    13b2:	10 92 64 01 	sts	0x0164, r1
  lcd_data(' ');
  lcd_string(ultoa(cval,outval,10));
  lcd_data('p');
  wait3s();
#endif
  R_DDR = HiPinR_L; 		//switch R_L for High-Pin to GND
    13b6:	04 b9       	out	0x04, r16	; 4
#if F_CPU < 2000001
   if(cval < 50)
#else 
   if(cval < 25)
    13b8:	80 91 61 01 	lds	r24, 0x0161
    13bc:	90 91 62 01 	lds	r25, 0x0162
    13c0:	a0 91 63 01 	lds	r26, 0x0163
    13c4:	b0 91 64 01 	lds	r27, 0x0164
    13c8:	89 31       	cpi	r24, 0x19	; 25
    13ca:	91 05       	cpc	r25, r1
    13cc:	a1 05       	cpc	r26, r1
    13ce:	b1 05       	cpc	r27, r1
    13d0:	78 f0       	brcs	.+30     	; 0x13f0 <ReadCapacity+0x3dc>
#endif
      goto keinC;	//capacity to low, < 70pF @1MHz (35pF @8MHz)
   }
   // end low capacity 
checkDiodes:
   if((NumOfDiodes > 0)  && (PartFound != PART_FET)) {
    13d2:	80 91 07 01 	lds	r24, 0x0107
    13d6:	88 23       	and	r24, r24
    13d8:	21 f0       	breq	.+8      	; 0x13e2 <ReadCapacity+0x3ce>
    13da:	80 91 09 01 	lds	r24, 0x0109
    13de:	83 30       	cpi	r24, 0x03	; 3
    13e0:	39 f4       	brne	.+14     	; 0x13f0 <ReadCapacity+0x3dc>
#endif
      // nearly shure, that there is one or more diodes in reverse direction,
      // which would be wrongly detected as capacitor 
   } else {

   PartFound = PART_CAPACITOR;	//capacitor is found
    13e2:	87 e0       	ldi	r24, 0x07	; 7
    13e4:	80 93 09 01 	sts	0x0109, r24
   ca = LowPin;			// save LowPin
    13e8:	90 92 48 01 	sts	0x0148, r9
   cb = HighPin;		// save HighPin
    13ec:	10 93 0a 01 	sts	0x010A, r17
   }

keinC:
  // discharge capacitor again
  ADCSRA = (1<<ADEN) | (1<<ADIF) | AUTO_CLOCK_DIV; //enable ADC
    13f0:	86 e9       	ldi	r24, 0x96	; 150
    13f2:	80 93 7a 00 	sts	0x007A, r24
  EntladePins();		// discharge capacitors
    13f6:	0e 94 2f 07 	call	0xe5e	; 0xe5e <EntladePins>
  //ready
  // switch all ports to input
  ADC_DDR =  TXD_MSK;		// switch all ADC ports to input
    13fa:	17 b8       	out	0x07, r1	; 7
  ADC_PORT = TXD_VAL;		// switch all ADC outputs to GNG, no pull up
    13fc:	18 b8       	out	0x08, r1	; 8
  R_DDR = 0;			// switch all resistor ports to input
    13fe:	14 b8       	out	0x04, r1	; 4
  R_PORT = 0; 			// switch all resistor outputs to GND, no pull up
    1400:	15 b8       	out	0x05, r1	; 5
  return;
 } // end ReadCapacity()
    1402:	df 91       	pop	r29
    1404:	cf 91       	pop	r28
    1406:	1f 91       	pop	r17
    1408:	0f 91       	pop	r16
    140a:	ff 90       	pop	r15
    140c:	ef 90       	pop	r14
    140e:	df 90       	pop	r13
    1410:	cf 90       	pop	r12
    1412:	bf 90       	pop	r11
    1414:	af 90       	pop	r10
    1416:	9f 90       	pop	r9
    1418:	08 95       	ret

0000141a <RefVoltage>:


 #ifdef WITH_AUTO_REF
void RefVoltage(void) {
    141a:	ff 92       	push	r15
    141c:	0f 93       	push	r16
    141e:	1f 93       	push	r17
    1420:	cf 93       	push	r28
    1422:	df 93       	push	r29
  unsigned int referenz;
  unsigned int y1, y2;
  uint8_t tabind;
  uint8_t tabres;

  referenz = ref_mv;
    1424:	80 91 32 01 	lds	r24, 0x0132
    1428:	90 91 33 01 	lds	r25, 0x0133
  if (referenz >= Ref_Tab_Beginn) {
    142c:	23 e0       	ldi	r18, 0x03	; 3
    142e:	88 3e       	cpi	r24, 0xE8	; 232
    1430:	92 07       	cpc	r25, r18
    1432:	18 f0       	brcs	.+6      	; 0x143a <RefVoltage+0x20>
     referenz -= Ref_Tab_Beginn;
    1434:	88 5e       	subi	r24, 0xE8	; 232
    1436:	93 40       	sbci	r25, 0x03	; 3
    1438:	02 c0       	rjmp	.+4      	; 0x143e <RefVoltage+0x24>
  } else  {
     referenz = 0;		// limit to begin of table
    143a:	80 e0       	ldi	r24, 0x00	; 0
    143c:	90 e0       	ldi	r25, 0x00	; 0
  }
  tabind = referenz / Ref_Tab_Abstand;
    143e:	62 e3       	ldi	r22, 0x32	; 50
    1440:	70 e0       	ldi	r23, 0x00	; 0
    1442:	0e 94 cd 13 	call	0x279a	; 0x279a <__udivmodhi4>
  tabres = referenz % Ref_Tab_Abstand;
    1446:	f8 2e       	mov	r15, r24
  tabres = Ref_Tab_Abstand-tabres;
  if (tabind > 7) {
     tabind = 7;		// limit to end of table
  }
  // interpolate the table of factors
  y1 = MEM_read_word(&RHtab[tabind]);
    1448:	68 30       	cpi	r22, 0x08	; 8
    144a:	08 f0       	brcs	.+2      	; 0x144e <RefVoltage+0x34>
    144c:	67 e0       	ldi	r22, 0x07	; 7
    144e:	c6 2f       	mov	r28, r22
    1450:	d0 e0       	ldi	r29, 0x00	; 0
    1452:	ce 01       	movw	r24, r28
    1454:	88 0f       	add	r24, r24
    1456:	99 1f       	adc	r25, r25
    1458:	86 5a       	subi	r24, 0xA6	; 166
    145a:	9f 4f       	sbci	r25, 0xFF	; 255
    145c:	0e 94 21 14 	call	0x2842	; 0x2842 <__eerd_word_m168>
    1460:	8c 01       	movw	r16, r24
  y2 = MEM_read_word(&RHtab[tabind+1]);
    1462:	ce 01       	movw	r24, r28
    1464:	88 0f       	add	r24, r24
    1466:	99 1f       	adc	r25, r25
    1468:	84 5a       	subi	r24, 0xA4	; 164
    146a:	9f 4f       	sbci	r25, 0xFF	; 255
    146c:	0e 94 21 14 	call	0x2842	; 0x2842 <__eerd_word_m168>
    1470:	9c 01       	movw	r18, r24
  } else  {
     referenz = 0;		// limit to begin of table
  }
  tabind = referenz / Ref_Tab_Abstand;
  tabres = referenz % Ref_Tab_Abstand;
  tabres = Ref_Tab_Abstand-tabres;
    1472:	42 e3       	ldi	r20, 0x32	; 50
    1474:	4f 19       	sub	r20, r15
  }
  // interpolate the table of factors
  y1 = MEM_read_word(&RHtab[tabind]);
  y2 = MEM_read_word(&RHtab[tabind+1]);
  // RHmultip is the interpolated factor to compute capacity from load time with 470k
  RHmultip = ((y1 - y2) * tabres + (Ref_Tab_Abstand/2)) / Ref_Tab_Abstand + y2;
    1476:	50 e0       	ldi	r21, 0x00	; 0
    1478:	08 1b       	sub	r16, r24
    147a:	19 0b       	sbc	r17, r25
    147c:	40 9f       	mul	r20, r16
    147e:	c0 01       	movw	r24, r0
    1480:	41 9f       	mul	r20, r17
    1482:	90 0d       	add	r25, r0
    1484:	50 9f       	mul	r21, r16
    1486:	90 0d       	add	r25, r0
    1488:	11 24       	eor	r1, r1
    148a:	49 96       	adiw	r24, 0x19	; 25
    148c:	62 e3       	ldi	r22, 0x32	; 50
    148e:	70 e0       	ldi	r23, 0x00	; 0
    1490:	0e 94 cd 13 	call	0x279a	; 0x279a <__udivmodhi4>
    1494:	62 0f       	add	r22, r18
    1496:	73 1f       	adc	r23, r19
    1498:	70 93 01 01 	sts	0x0101, r23
    149c:	60 93 00 01 	sts	0x0100, r22
 }
    14a0:	df 91       	pop	r29
    14a2:	cf 91       	pop	r28
    14a4:	1f 91       	pop	r17
    14a6:	0f 91       	pop	r16
    14a8:	ff 90       	pop	r15
    14aa:	08 95       	ret

000014ac <lcd_clear_line>:
 #endif
#endif

#ifdef LCD_CLEAR
void lcd_clear_line(void) {
    14ac:	1f 93       	push	r17
    14ae:	14 e1       	ldi	r17, 0x14	; 20
 // writes 20 spaces to LCD-Display, Cursor must be positioned to first column
 unsigned char ll;
 for (ll=0;ll<20;ll++) {
    lcd_data(' ');
    14b0:	80 e2       	ldi	r24, 0x20	; 32
    14b2:	0e 94 82 00 	call	0x104	; 0x104 <lcd_data>
    14b6:	11 50       	subi	r17, 0x01	; 1

#ifdef LCD_CLEAR
void lcd_clear_line(void) {
 // writes 20 spaces to LCD-Display, Cursor must be positioned to first column
 unsigned char ll;
 for (ll=0;ll<20;ll++) {
    14b8:	d9 f7       	brne	.-10     	; 0x14b0 <lcd_clear_line+0x4>
    lcd_data(' ');
 }
}
    14ba:	1f 91       	pop	r17
    14bc:	08 95       	ret

000014be <value_out>:
#endif

#ifdef AUSGABE_FUNKTION
uint8_t value_out(unsigned long vval,uint8_t pp) {
    14be:	af 92       	push	r10
    14c0:	bf 92       	push	r11
    14c2:	cf 92       	push	r12
    14c4:	df 92       	push	r13
    14c6:	ef 92       	push	r14
    14c8:	ff 92       	push	r15
    14ca:	0f 93       	push	r16
    14cc:	1f 93       	push	r17
    14ce:	cf 93       	push	r28
    14d0:	df 93       	push	r29
    14d2:	8b 01       	movw	r16, r22
    14d4:	9c 01       	movw	r18, r24
    14d6:	f4 2e       	mov	r15, r20
  // pp = 1    Point after last digit
  // pp = 2    Point before last digit
  uint8_t strlength;
  uint8_t ll;
  uint8_t rr;
   rr = 0;
    14d8:	ee 24       	eor	r14, r14
   while(vval > 999999) {
     vval = (vval + 500) / 1000;	// with round up 
    14da:	b8 ee       	ldi	r27, 0xE8	; 232
    14dc:	ab 2e       	mov	r10, r27
    14de:	b3 e0       	ldi	r27, 0x03	; 3
    14e0:	bb 2e       	mov	r11, r27
    14e2:	c1 2c       	mov	r12, r1
    14e4:	d1 2c       	mov	r13, r1
  // pp = 2    Point before last digit
  uint8_t strlength;
  uint8_t ll;
  uint8_t rr;
   rr = 0;
   while(vval > 999999) {
    14e6:	0d c0       	rjmp	.+26     	; 0x1502 <value_out+0x44>
     vval = (vval + 500) / 1000;	// with round up 
    14e8:	c9 01       	movw	r24, r18
    14ea:	b8 01       	movw	r22, r16
    14ec:	6c 50       	subi	r22, 0x0C	; 12
    14ee:	7e 4f       	sbci	r23, 0xFE	; 254
    14f0:	8f 4f       	sbci	r24, 0xFF	; 255
    14f2:	9f 4f       	sbci	r25, 0xFF	; 255
    14f4:	a6 01       	movw	r20, r12
    14f6:	95 01       	movw	r18, r10
    14f8:	0e 94 e1 13 	call	0x27c2	; 0x27c2 <__udivmodsi4>
    14fc:	89 01       	movw	r16, r18
    14fe:	9a 01       	movw	r18, r20
     rr++;				// increase prefix for factor 1000 
    1500:	e3 94       	inc	r14
  // pp = 2    Point before last digit
  uint8_t strlength;
  uint8_t ll;
  uint8_t rr;
   rr = 0;
   while(vval > 999999) {
    1502:	00 34       	cpi	r16, 0x40	; 64
    1504:	82 e4       	ldi	r24, 0x42	; 66
    1506:	18 07       	cpc	r17, r24
    1508:	8f e0       	ldi	r24, 0x0F	; 15
    150a:	28 07       	cpc	r18, r24
    150c:	80 e0       	ldi	r24, 0x00	; 0
    150e:	38 07       	cpc	r19, r24
    1510:	58 f7       	brcc	.-42     	; 0x14e8 <value_out+0x2a>
     vval = (vval + 500) / 1000;	// with round up 
     rr++;				// increase prefix for factor 1000 
  }
   if (vval > 99999) {
    1512:	00 3a       	cpi	r16, 0xA0	; 160
    1514:	96 e8       	ldi	r25, 0x86	; 134
    1516:	19 07       	cpc	r17, r25
    1518:	91 e0       	ldi	r25, 0x01	; 1
    151a:	29 07       	cpc	r18, r25
    151c:	90 e0       	ldi	r25, 0x00	; 0
    151e:	39 07       	cpc	r19, r25
    1520:	80 f0       	brcs	.+32     	; 0x1542 <value_out+0x84>
      vval = (vval + 50) / 100;
    1522:	c9 01       	movw	r24, r18
    1524:	b8 01       	movw	r22, r16
    1526:	6e 5c       	subi	r22, 0xCE	; 206
    1528:	7f 4f       	sbci	r23, 0xFF	; 255
    152a:	8f 4f       	sbci	r24, 0xFF	; 255
    152c:	9f 4f       	sbci	r25, 0xFF	; 255
    152e:	24 e6       	ldi	r18, 0x64	; 100
    1530:	30 e0       	ldi	r19, 0x00	; 0
    1532:	40 e0       	ldi	r20, 0x00	; 0
    1534:	50 e0       	ldi	r21, 0x00	; 0
    1536:	0e 94 e1 13 	call	0x27c2	; 0x27c2 <__udivmodsi4>
    153a:	89 01       	movw	r16, r18
    153c:	9a 01       	movw	r18, r20
      pp++;				// 1 position more after point
    153e:	f3 94       	inc	r15
      rr++;				// increase prefix (factor 1000)
    1540:	e3 94       	inc	r14
   }
   if (vval > 9999) {
    1542:	00 31       	cpi	r16, 0x10	; 16
    1544:	e7 e2       	ldi	r30, 0x27	; 39
    1546:	1e 07       	cpc	r17, r30
    1548:	e0 e0       	ldi	r30, 0x00	; 0
    154a:	2e 07       	cpc	r18, r30
    154c:	e0 e0       	ldi	r30, 0x00	; 0
    154e:	3e 07       	cpc	r19, r30
    1550:	b0 f0       	brcs	.+44     	; 0x157e <value_out+0xc0>
      vval = (vval + 5) / 10;
    1552:	c9 01       	movw	r24, r18
    1554:	b8 01       	movw	r22, r16
    1556:	6b 5f       	subi	r22, 0xFB	; 251
    1558:	7f 4f       	sbci	r23, 0xFF	; 255
    155a:	8f 4f       	sbci	r24, 0xFF	; 255
    155c:	9f 4f       	sbci	r25, 0xFF	; 255
    155e:	2a e0       	ldi	r18, 0x0A	; 10
    1560:	30 e0       	ldi	r19, 0x00	; 0
    1562:	40 e0       	ldi	r20, 0x00	; 0
    1564:	50 e0       	ldi	r21, 0x00	; 0
    1566:	0e 94 e1 13 	call	0x27c2	; 0x27c2 <__udivmodsi4>
    156a:	89 01       	movw	r16, r18
    156c:	9a 01       	movw	r18, r20
      if (pp >= 2) {
    156e:	ff 2d       	mov	r31, r15
    1570:	f2 30       	cpi	r31, 0x02	; 2
    1572:	10 f0       	brcs	.+4      	; 0x1578 <value_out+0xba>
         pp -= 1;			// 1 digit less after decimal point
    1574:	fa 94       	dec	r15
    1576:	03 c0       	rjmp	.+6      	; 0x157e <value_out+0xc0>
      } else {
         pp += 2;			// 2 digits more after decimal point
    1578:	82 e0       	ldi	r24, 0x02	; 2
    157a:	f8 0e       	add	r15, r24
         rr++;				// increase prefix (factor 1000)
    157c:	e3 94       	inc	r14
      }
   }
   utoa((unsigned int)vval,outval,10);
    157e:	cd e0       	ldi	r28, 0x0D	; 13
    1580:	d1 e0       	ldi	r29, 0x01	; 1
    1582:	c8 01       	movw	r24, r16
    1584:	be 01       	movw	r22, r28
    1586:	4a e0       	ldi	r20, 0x0A	; 10
    1588:	50 e0       	ldi	r21, 0x00	; 0
    158a:	0e 94 03 14 	call	0x2806	; 0x2806 <utoa>
   strlength = strlen(outval);	// total length of string
    158e:	09 90       	ld	r0, Y+
    1590:	00 20       	and	r0, r0
    1592:	e9 f7       	brne	.-6      	; 0x158e <value_out+0xd0>
    1594:	21 97       	sbiw	r28, 0x01	; 1
    1596:	cd 50       	subi	r28, 0x0D	; 13
    1598:	d1 40       	sbci	r29, 0x01	; 1
    159a:	ac 2e       	mov	r10, r28
   if (pp > strlength) {
    159c:	cf 15       	cp	r28, r15
    159e:	30 f4       	brcc	.+12     	; 0x15ac <value_out+0xee>
      lcd_data('0');
    15a0:	80 e3       	ldi	r24, 0x30	; 48
    15a2:	0e 94 82 00 	call	0x104	; 0x104 <lcd_data>
      lcd_data('.');
    15a6:	8e e2       	ldi	r24, 0x2E	; 46
    15a8:	0e 94 82 00 	call	0x104	; 0x104 <lcd_data>
    15ac:	0d e0       	ldi	r16, 0x0D	; 13
    15ae:	11 e0       	ldi	r17, 0x01	; 1
    15b0:	cf 2d       	mov	r28, r15
    15b2:	d0 e0       	ldi	r29, 0x00	; 0
   }
   for (ll=0;ll<strlength;ll++) {
      lcd_data(outval[ll]);
      if ((pp > 1) && ((ll + pp) == strlength)) lcd_data('.'); //fill the point at right position
    15b4:	ca 2c       	mov	r12, r10
    15b6:	dd 24       	eor	r13, r13
    15b8:	0f c0       	rjmp	.+30     	; 0x15d8 <value_out+0x11a>
   if (pp > strlength) {
      lcd_data('0');
      lcd_data('.');
   }
   for (ll=0;ll<strlength;ll++) {
      lcd_data(outval[ll]);
    15ba:	f8 01       	movw	r30, r16
    15bc:	81 91       	ld	r24, Z+
    15be:	8f 01       	movw	r16, r30
    15c0:	0e 94 82 00 	call	0x104	; 0x104 <lcd_data>
      if ((pp > 1) && ((ll + pp) == strlength)) lcd_data('.'); //fill the point at right position
    15c4:	ff 2d       	mov	r31, r15
    15c6:	f2 30       	cpi	r31, 0x02	; 2
    15c8:	30 f0       	brcs	.+12     	; 0x15d6 <value_out+0x118>
    15ca:	cc 15       	cp	r28, r12
    15cc:	dd 05       	cpc	r29, r13
    15ce:	19 f4       	brne	.+6      	; 0x15d6 <value_out+0x118>
    15d0:	8e e2       	ldi	r24, 0x2E	; 46
    15d2:	0e 94 82 00 	call	0x104	; 0x104 <lcd_data>
    15d6:	21 96       	adiw	r28, 0x01	; 1
   strlength = strlen(outval);	// total length of string
   if (pp > strlength) {
      lcd_data('0');
      lcd_data('.');
   }
   for (ll=0;ll<strlength;ll++) {
    15d8:	9e 01       	movw	r18, r28
    15da:	2f 19       	sub	r18, r15
    15dc:	2a 15       	cp	r18, r10
    15de:	68 f3       	brcs	.-38     	; 0x15ba <value_out+0xfc>
      lcd_data(outval[ll]);
      if ((pp > 1) && ((ll + pp) == strlength)) lcd_data('.'); //fill the point at right position
   }
   return rr;
}
    15e0:	8e 2d       	mov	r24, r14
    15e2:	df 91       	pop	r29
    15e4:	cf 91       	pop	r28
    15e6:	1f 91       	pop	r17
    15e8:	0f 91       	pop	r16
    15ea:	ff 90       	pop	r15
    15ec:	ef 90       	pop	r14
    15ee:	df 90       	pop	r13
    15f0:	cf 90       	pop	r12
    15f2:	bf 90       	pop	r11
    15f4:	af 90       	pop	r10
    15f6:	08 95       	ret

000015f8 <lcd_show_format_cap>:

#ifdef C_MESS	//measurement of capacity is wanted
#include "ReadCapacity.c"


void lcd_show_format_cap(void) {
    15f8:	1f 93       	push	r17
//  ultoa(cval, outval, 10);
  cpre += value_out(cval,1);	// output cval, and change prefix if nessasary
    15fa:	10 91 37 01 	lds	r17, 0x0137
    15fe:	60 91 61 01 	lds	r22, 0x0161
    1602:	70 91 62 01 	lds	r23, 0x0162
    1606:	80 91 63 01 	lds	r24, 0x0163
    160a:	90 91 64 01 	lds	r25, 0x0164
    160e:	41 e0       	ldi	r20, 0x01	; 1
    1610:	0e 94 5f 0a 	call	0x14be	; 0x14be <value_out>
    1614:	81 0f       	add	r24, r17
    1616:	80 93 37 01 	sts	0x0137, r24
  tmpval2 = pgm_read_byte(&C_Prefix_tab[cpre]); //get prefix from table
    161a:	e8 2f       	mov	r30, r24
    161c:	f0 e0       	ldi	r31, 0x00	; 0
    161e:	e8 59       	subi	r30, 0x98	; 152
    1620:	ff 4f       	sbci	r31, 0xFF	; 255
    1622:	84 91       	lpm	r24, Z+
    1624:	80 93 34 01 	sts	0x0134, r24
  lcd_data(tmpval2);		// p or n or  or m  prefix
    1628:	0e 94 82 00 	call	0x104	; 0x104 <lcd_data>
  lcd_data('F');
    162c:	86 e4       	ldi	r24, 0x46	; 70
    162e:	0e 94 82 00 	call	0x104	; 0x104 <lcd_data>
 }
    1632:	1f 91       	pop	r17
    1634:	08 95       	ret

00001636 <RvalOut>:
void RvalOut(uint8_t ii) {	
   // output of resistor value
   unsigned long rrx;
   uint8_t prefix;

   rrx = resis[ii].rx;
    1636:	90 e0       	ldi	r25, 0x00	; 0
    1638:	fc 01       	movw	r30, r24
    163a:	23 e0       	ldi	r18, 0x03	; 3
    163c:	ee 0f       	add	r30, r30
    163e:	ff 1f       	adc	r31, r31
    1640:	2a 95       	dec	r18
    1642:	e1 f7       	brne	.-8      	; 0x163c <RvalOut+0x6>
    1644:	e8 1b       	sub	r30, r24
    1646:	f9 0b       	sbc	r31, r25
    1648:	e7 5e       	subi	r30, 0xE7	; 231
    164a:	fe 4f       	sbci	r31, 0xFE	; 254
   prefix = value_out(rrx,2);
    164c:	60 81       	ld	r22, Z
    164e:	71 81       	ldd	r23, Z+1	; 0x01
    1650:	82 81       	ldd	r24, Z+2	; 0x02
    1652:	93 81       	ldd	r25, Z+3	; 0x03
    1654:	42 e0       	ldi	r20, 0x02	; 2
    1656:	0e 94 5f 0a 	call	0x14be	; 0x14be <value_out>

   if (prefix == 1) {
    165a:	81 30       	cpi	r24, 0x01	; 1
    165c:	11 f4       	brne	.+4      	; 0x1662 <RvalOut+0x2c>
      lcd_data('k');
    165e:	8b e6       	ldi	r24, 0x6B	; 107
    1660:	03 c0       	rjmp	.+6      	; 0x1668 <RvalOut+0x32>
   }
   if (prefix == 2) {
    1662:	82 30       	cpi	r24, 0x02	; 2
    1664:	19 f4       	brne	.+6      	; 0x166c <RvalOut+0x36>
      lcd_data('M');
    1666:	8d e4       	ldi	r24, 0x4D	; 77
    1668:	0e 94 82 00 	call	0x104	; 0x104 <lcd_data>
   }
   lcd_data(LCD_CHAR_OMEGA);	//Omega is sign for Ohm 
    166c:	84 ef       	ldi	r24, 0xF4	; 244
    166e:	0e 94 82 00 	call	0x104	; 0x104 <lcd_data>
   lcd_data(' ');
    1672:	80 e2       	ldi	r24, 0x20	; 32
    1674:	0e 94 82 00 	call	0x104	; 0x104 <lcd_data>
 }
    1678:	08 95       	ret

0000167a <AutoCheck>:
void AutoCheck(void) {
    167a:	2f 92       	push	r2
    167c:	3f 92       	push	r3
    167e:	4f 92       	push	r4
    1680:	5f 92       	push	r5
    1682:	6f 92       	push	r6
    1684:	7f 92       	push	r7
    1686:	8f 92       	push	r8
    1688:	9f 92       	push	r9
    168a:	af 92       	push	r10
    168c:	bf 92       	push	r11
    168e:	cf 92       	push	r12
    1690:	df 92       	push	r13
    1692:	ef 92       	push	r14
    1694:	ff 92       	push	r15
    1696:	0f 93       	push	r16
    1698:	1f 93       	push	r17
    169a:	df 93       	push	r29
    169c:	cf 93       	push	r28
    169e:	cd b7       	in	r28, 0x3d	; 61
    16a0:	de b7       	in	r29, 0x3e	; 62
    16a2:	2c 97       	sbiw	r28, 0x0c	; 12
    16a4:	0f b6       	in	r0, 0x3f	; 63
    16a6:	f8 94       	cli
    16a8:	de bf       	out	0x3e, r29	; 62
    16aa:	0f be       	out	0x3f, r0	; 63
    16ac:	cd bf       	out	0x3d, r28	; 61
  uint16_t sum_rm=0;	// sum of 3 Pin voltages with 680 Ohm load
  uint16_t u680;	// 3 * (Voltage at 680 Ohm)
  uint16_t pin_rp;
  uint16_t pin_rm;
#endif
  ADC_PORT = TXD_VAL;
    16ae:	18 b8       	out	0x08, r1	; 8
  ADC_DDR = TXD_MSK;
    16b0:	17 b8       	out	0x07, r1	; 7
  R_PORT = (1<<(TP1*2));		//Pin 1 over RL to +
    16b2:	81 e0       	ldi	r24, 0x01	; 1
    16b4:	85 b9       	out	0x05, r24	; 5
  R_DDR = (1<<(TP1*2)) | (1<<(TP2*2));	//Pin 2 over RL to -
    16b6:	85 e0       	ldi	r24, 0x05	; 5
    16b8:	84 b9       	out	0x04, r24	; 4
  adcmv[0] = W5msReadADC(PC0);		// voltage at Pin 1
    16ba:	80 e0       	ldi	r24, 0x00	; 0
    16bc:	0e 94 4f 13 	call	0x269e	; 0x269e <W5msReadADC>
    16c0:	7c 01       	movw	r14, r24
  adcmv[1] = ReadADC(PC1);		// voltage at Pin 2
    16c2:	81 e0       	ldi	r24, 0x01	; 1
    16c4:	0e 94 51 13 	call	0x26a2	; 0x26a2 <ReadADC>
    16c8:	8c 01       	movw	r16, r24
  adcmv[2] = ReadADC(PC2);		// voltage at Pin 3
    16ca:	82 e0       	ldi	r24, 0x02	; 2
    16cc:	0e 94 51 13 	call	0x26a2	; 0x26a2 <ReadADC>
  if (abs((int)(adcmv[1] - adcmv[0])) > 20) {
    16d0:	0e 19       	sub	r16, r14
    16d2:	1f 09       	sbc	r17, r15
    16d4:	17 ff       	sbrs	r17, 7
    16d6:	03 c0       	rjmp	.+6      	; 0x16de <AutoCheck+0x64>
    16d8:	10 95       	com	r17
    16da:	01 95       	neg	r16
    16dc:	1f 4f       	sbci	r17, 0xFF	; 255
    16de:	05 31       	cpi	r16, 0x15	; 21
    16e0:	11 05       	cpc	r17, r1
    16e2:	0c f0       	brlt	.+2      	; 0x16e6 <AutoCheck+0x6c>
    16e4:	cf c2       	rjmp	.+1438   	; 0x1c84 <AutoCheck+0x60a>
     return;				//difference to big, no selftest
  }
  if (abs((int)(adcmv[2] - adcmv[0])) > 20) {
    16e6:	8e 19       	sub	r24, r14
    16e8:	9f 09       	sbc	r25, r15
    16ea:	97 ff       	sbrs	r25, 7
    16ec:	03 c0       	rjmp	.+6      	; 0x16f4 <AutoCheck+0x7a>
    16ee:	90 95       	com	r25
    16f0:	81 95       	neg	r24
    16f2:	9f 4f       	sbci	r25, 0xFF	; 255
    16f4:	85 31       	cpi	r24, 0x15	; 21
    16f6:	91 05       	cpc	r25, r1
    16f8:	0c f0       	brlt	.+2      	; 0x16fc <AutoCheck+0x82>
    16fa:	c4 c2       	rjmp	.+1416   	; 0x1c84 <AutoCheck+0x60a>
     return;				//difference to big, no selftest
  }
  if (abs((int)(adcmv[0] - (U_VCC/2))) > 30) {
    16fc:	c7 01       	movw	r24, r14
    16fe:	84 5c       	subi	r24, 0xC4	; 196
    1700:	99 40       	sbci	r25, 0x09	; 9
    1702:	97 ff       	sbrs	r25, 7
    1704:	03 c0       	rjmp	.+6      	; 0x170c <AutoCheck+0x92>
    1706:	90 95       	com	r25
    1708:	81 95       	neg	r24
    170a:	9f 4f       	sbci	r25, 0xFF	; 255
    170c:	8f 31       	cpi	r24, 0x1F	; 31
    170e:	91 05       	cpc	r25, r1
    1710:	0c f0       	brlt	.+2      	; 0x1714 <AutoCheck+0x9a>
    1712:	b8 c2       	rjmp	.+1392   	; 0x1c84 <AutoCheck+0x60a>
     return;				//difference to big, no selftest
  }
  R_DDR = (1<<(TP1*2)) | (1<<(TP3*2));	//Pin 3 over RL to - (Pin 1 over RL to +)
    1714:	81 e1       	ldi	r24, 0x11	; 17
    1716:	84 b9       	out	0x04, r24	; 4
  adcmv[0] = W5msReadADC(PC0);		// voltage at Pin 1
    1718:	80 e0       	ldi	r24, 0x00	; 0
    171a:	0e 94 4f 13 	call	0x269e	; 0x269e <W5msReadADC>
    171e:	7c 01       	movw	r14, r24
  adcmv[1] = ReadADC(PC1);		// voltage at Pin 2
    1720:	81 e0       	ldi	r24, 0x01	; 1
    1722:	0e 94 51 13 	call	0x26a2	; 0x26a2 <ReadADC>
    1726:	5c 01       	movw	r10, r24
  adcmv[2] = ReadADC(PC2);		// voltage at Pin 3
    1728:	82 e0       	ldi	r24, 0x02	; 2
    172a:	0e 94 51 13 	call	0x26a2	; 0x26a2 <ReadADC>
    172e:	8c 01       	movw	r16, r24
  if (abs((int)(adcmv[1] - adcmv[0])) > 20) {
    1730:	c5 01       	movw	r24, r10
    1732:	8e 19       	sub	r24, r14
    1734:	9f 09       	sbc	r25, r15
    1736:	97 ff       	sbrs	r25, 7
    1738:	03 c0       	rjmp	.+6      	; 0x1740 <AutoCheck+0xc6>
    173a:	90 95       	com	r25
    173c:	81 95       	neg	r24
    173e:	9f 4f       	sbci	r25, 0xFF	; 255
    1740:	85 31       	cpi	r24, 0x15	; 21
    1742:	91 05       	cpc	r25, r1
    1744:	0c f0       	brlt	.+2      	; 0x1748 <AutoCheck+0xce>
    1746:	9e c2       	rjmp	.+1340   	; 0x1c84 <AutoCheck+0x60a>
     return;				//difference to big, no selftest
  }
  if (abs((int)(adcmv[2] - adcmv[0])) > 20) {
    1748:	c8 01       	movw	r24, r16
    174a:	8e 19       	sub	r24, r14
    174c:	9f 09       	sbc	r25, r15
    174e:	97 ff       	sbrs	r25, 7
    1750:	03 c0       	rjmp	.+6      	; 0x1758 <AutoCheck+0xde>
    1752:	90 95       	com	r25
    1754:	81 95       	neg	r24
    1756:	9f 4f       	sbci	r25, 0xFF	; 255
    1758:	85 31       	cpi	r24, 0x15	; 21
    175a:	91 05       	cpc	r25, r1
    175c:	0c f0       	brlt	.+2      	; 0x1760 <AutoCheck+0xe6>
    175e:	92 c2       	rjmp	.+1316   	; 0x1c84 <AutoCheck+0x60a>
     return;				//difference to big, no selftest
  }
  if (abs((int)(adcmv[0] - (U_VCC/2))) > 30) {
    1760:	c7 01       	movw	r24, r14
    1762:	84 5c       	subi	r24, 0xC4	; 196
    1764:	99 40       	sbci	r25, 0x09	; 9
    1766:	97 ff       	sbrs	r25, 7
    1768:	03 c0       	rjmp	.+6      	; 0x1770 <AutoCheck+0xf6>
    176a:	90 95       	com	r25
    176c:	81 95       	neg	r24
    176e:	9f 4f       	sbci	r25, 0xFF	; 255
    1770:	8f 31       	cpi	r24, 0x1F	; 31
    1772:	91 05       	cpc	r25, r1
    1774:	0c f0       	brlt	.+2      	; 0x1778 <AutoCheck+0xfe>
    1776:	86 c2       	rjmp	.+1292   	; 0x1c84 <AutoCheck+0x60a>
     return;				//difference to big, no selftest
  }
  lcd_clear();
    1778:	0e 94 8a 00 	call	0x114	; 0x114 <lcd_clear>
  lcd_line1();
    177c:	80 e8       	ldi	r24, 0x80	; 128
    177e:	0e 94 7e 00 	call	0xfc	; 0xfc <lcd_command>
  lcd_fix_string(SELFTEST);		// "Selftest mode.."
    1782:	88 e5       	ldi	r24, 0x58	; 88
    1784:	91 e0       	ldi	r25, 0x01	; 1
    1786:	0e 94 cf 00 	call	0x19e	; 0x19e <lcd_fix_string>
  wait1s();
    178a:	0e 94 28 13 	call	0x2650	; 0x2650 <wait1000ms>
    178e:	80 e0       	ldi	r24, 0x00	; 0
    1790:	90 e0       	ldi	r25, 0x00	; 0
 
  for(tt=1;tt<10;tt++) {		// loop for all Tests
    1792:	dd 24       	eor	r13, r13
    1794:	d3 94       	inc	r13
  unsigned int  adcmv[3];

#ifdef AUTO_CAL
  uint16_t sum_c0;	// sum of empty probe C measurement
  uint8_t c0_count;	// counter for accumulated Cap measurements
  uint16_t sum_rm=0;	// sum of 3 Pin voltages with 680 Ohm load
    1796:	1e 82       	std	Y+6, r1	; 0x06
    1798:	1d 82       	std	Y+5, r1	; 0x05
void AutoCheck(void) {
    179a:	a8 e0       	ldi	r26, 0x08	; 8
    179c:	3a 2e       	mov	r3, r26
        if (tt == 8) { // measurement of internal resistance of the ADC port output switched to VCC
           R_PORT = 0;			// R-Ports to GND
           ADC_PORT = 1<<TP1 | TXD_VAL;	//ADC-Port 1 to VCC
           ADC_DDR = 1<<TP1 | TXD_MSK;	//ADC-Pin  1 to output 0V
           R_DDR = 1<<(TP1*2);		//Pin 1 to output and over R_L to GND
           adcmv[0] = U_VCC - W5msReadADC(TP1);
    179e:	f9 e8       	ldi	r31, 0x89	; 137
    17a0:	8f 2e       	mov	r8, r31
    17a2:	f3 e1       	ldi	r31, 0x13	; 19
    17a4:	9f 2e       	mov	r9, r31
      
           ADC_PORT = 1<<TP2 | TXD_VAL;	//ADC-Port 2 to VCC
           ADC_DDR = 1<<TP2 | TXD_MSK;	//ADC-Pin  2 to output 0V
           R_DDR = 1<<(TP2*2);		//Pin 2 to output and over R_L to GND
    17a6:	e4 e0       	ldi	r30, 0x04	; 4
    17a8:	ce 2e       	mov	r12, r30
    17aa:	38 01       	movw	r6, r16
    17ac:	13 c2       	rjmp	.+1062   	; 0x1bd4 <AutoCheck+0x55a>
#ifdef AUTO_CAL
     sum_c0 = 0;			//reset sum of capacity measurements
     c0_count = 0;			//counter for capacity measurement
#endif
     for(ww=0;ww<8;ww++) {		// repeat the test 8 times
        lcd_line2();			//Cursor to column 1, row 2
    17ae:	80 ec       	ldi	r24, 0xC0	; 192
    17b0:	0e 94 7e 00 	call	0xfc	; 0xfc <lcd_command>
        lcd_clear_line();		// clear total line
    17b4:	0e 94 56 0a 	call	0x14ac	; 0x14ac <lcd_clear_line>
        lcd_line1();			//Cursor to column 1, row 1
    17b8:	80 e8       	ldi	r24, 0x80	; 128
    17ba:	0e 94 7e 00 	call	0xfc	; 0xfc <lcd_command>
        lcd_clear_line();		// clear total line
    17be:	0e 94 56 0a 	call	0x14ac	; 0x14ac <lcd_clear_line>
        lcd_line1();			//Cursor to column 1, row 1
    17c2:	80 e8       	ldi	r24, 0x80	; 128
    17c4:	0e 94 7e 00 	call	0xfc	; 0xfc <lcd_command>
        lcd_data('T');			//output the Testmode "T"
    17c8:	84 e5       	ldi	r24, 0x54	; 84
    17ca:	0e 94 82 00 	call	0x104	; 0x104 <lcd_data>
        lcd_string(utoa(tt, outval, 10));	//output Test number
    17ce:	8b 85       	ldd	r24, Y+11	; 0x0b
    17d0:	9c 85       	ldd	r25, Y+12	; 0x0c
    17d2:	6d e0       	ldi	r22, 0x0D	; 13
    17d4:	71 e0       	ldi	r23, 0x01	; 1
    17d6:	4a e0       	ldi	r20, 0x0A	; 10
    17d8:	50 e0       	ldi	r21, 0x00	; 0
    17da:	0e 94 03 14 	call	0x2806	; 0x2806 <utoa>
    17de:	0e 94 bb 00 	call	0x176	; 0x176 <lcd_string>
        lcd_data(' ');
    17e2:	80 e2       	ldi	r24, 0x20	; 32
    17e4:	0e 94 82 00 	call	0x104	; 0x104 <lcd_data>
        if (tt == 1) {   // output of reference voltage and factors for capacity measurement
    17e8:	2d 2d       	mov	r18, r13
    17ea:	21 30       	cpi	r18, 0x01	; 1
    17ec:	89 f5       	brne	.+98     	; 0x1850 <AutoCheck+0x1d6>
           ref_mv = ReadADC(0x0e);      // read reference voltage 
    17ee:	8e e0       	ldi	r24, 0x0E	; 14
    17f0:	0e 94 51 13 	call	0x26a2	; 0x26a2 <ReadADC>
    17f4:	90 93 33 01 	sts	0x0133, r25
    17f8:	80 93 32 01 	sts	0x0132, r24
           ref_mv = W5msReadADC(0x0e) + REF_C_KORR;  // read reference voltage 
    17fc:	8e e0       	ldi	r24, 0x0E	; 14
    17fe:	0e 94 4f 13 	call	0x269e	; 0x269e <W5msReadADC>
    1802:	42 96       	adiw	r24, 0x12	; 18
    1804:	90 93 33 01 	sts	0x0133, r25
    1808:	80 93 32 01 	sts	0x0132, r24
           lcd_fix_string(URefT);	//"URef="
    180c:	8b e3       	ldi	r24, 0x3B	; 59
    180e:	91 e0       	ldi	r25, 0x01	; 1
    1810:	0e 94 cf 00 	call	0x19e	; 0x19e <lcd_fix_string>
           lcd_string(utoa(ref_mv, outval, 10));
    1814:	80 91 32 01 	lds	r24, 0x0132
    1818:	90 91 33 01 	lds	r25, 0x0133
    181c:	6d e0       	ldi	r22, 0x0D	; 13
    181e:	71 e0       	ldi	r23, 0x01	; 1
    1820:	4a e0       	ldi	r20, 0x0A	; 10
    1822:	50 e0       	ldi	r21, 0x00	; 0
    1824:	0e 94 03 14 	call	0x2806	; 0x2806 <utoa>
    1828:	0e 94 bb 00 	call	0x176	; 0x176 <lcd_string>
           lcd_fix_string(mVT);		//"mV "
    182c:	87 e3       	ldi	r24, 0x37	; 55
    182e:	91 e0       	ldi	r25, 0x01	; 1
    1830:	0e 94 cf 00 	call	0x19e	; 0x19e <lcd_fix_string>
           lcd_line2();			//Cursor to column 1, row 2
    1834:	80 ec       	ldi	r24, 0xC0	; 192
    1836:	0e 94 7e 00 	call	0xfc	; 0xfc <lcd_command>
#ifdef WITH_AUTO_REF
           RefVoltage();		//compute RHmultip = f(reference voltage)
    183a:	0e 94 0d 0a 	call	0x141a	; 0x141a <RefVoltage>
#endif
           lcd_fix_string(RHfakt);	//"RHf="
    183e:	80 e4       	ldi	r24, 0x40	; 64
    1840:	91 e0       	ldi	r25, 0x01	; 1
    1842:	0e 94 cf 00 	call	0x19e	; 0x19e <lcd_fix_string>
           lcd_string(utoa(RHmultip, outval, 10));
    1846:	80 91 00 01 	lds	r24, 0x0100
    184a:	90 91 01 01 	lds	r25, 0x0101
    184e:	a3 c1       	rjmp	.+838    	; 0x1b96 <AutoCheck+0x51c>
        }
        if (tt == 2) { // how equal are the RL resistors? 
    1850:	3d 2d       	mov	r19, r13
    1852:	32 30       	cpi	r19, 0x02	; 2
    1854:	c1 f4       	brne	.+48     	; 0x1886 <AutoCheck+0x20c>
           R_PORT = 1<<(TP1*2);		//RL1 to VCC
    1856:	81 e0       	ldi	r24, 0x01	; 1
    1858:	85 b9       	out	0x05, r24	; 5
           R_DDR = (1<<(TP1*2)) | (1<<(TP2*2));	//RL2 to -
    185a:	45 e0       	ldi	r20, 0x05	; 5
    185c:	44 b9       	out	0x04, r20	; 4
           adcmv[0] = W20msReadADC(TP1);
    185e:	80 e0       	ldi	r24, 0x00	; 0
    1860:	0e 94 4b 13 	call	0x2696	; 0x2696 <W20msReadADC>
    1864:	7c 01       	movw	r14, r24
           R_DDR = (1<<(TP1*2)) | (1<<(TP3*2));	//RL3 to -
    1866:	51 e1       	ldi	r21, 0x11	; 17
    1868:	54 b9       	out	0x04, r21	; 4
           adcmv[1] = W20msReadADC(TP1);
    186a:	80 e0       	ldi	r24, 0x00	; 0
    186c:	0e 94 4b 13 	call	0x2696	; 0x2696 <W20msReadADC>
    1870:	5c 01       	movw	r10, r24
           R_PORT = 1<<(TP2*2);		//RL2 to VCC
    1872:	c5 b8       	out	0x05, r12	; 5
           R_DDR = (1<<(TP2*2)) | (1<<(TP3*2));	//RL3 to -
    1874:	84 e1       	ldi	r24, 0x14	; 20
    1876:	84 b9       	out	0x04, r24	; 4
           adcmv[2] = W20msReadADC(TP2);
    1878:	81 e0       	ldi	r24, 0x01	; 1
    187a:	0e 94 4b 13 	call	0x2696	; 0x2696 <W20msReadADC>
    187e:	3c 01       	movw	r6, r24
           lcd_fix_string(RLRL);	// "RLRL"
    1880:	83 e8       	ldi	r24, 0x83	; 131
    1882:	91 e0       	ldi	r25, 0x01	; 1
    1884:	51 c0       	rjmp	.+162    	; 0x1928 <AutoCheck+0x2ae>
        }
        if (tt == 3) { // how equal are the RH resistors
    1886:	6d 2d       	mov	r22, r13
    1888:	63 30       	cpi	r22, 0x03	; 3
    188a:	b9 f4       	brne	.+46     	; 0x18ba <AutoCheck+0x240>
           R_PORT = 2<<(TP1*2);		//RH1 to VCC
    188c:	82 e0       	ldi	r24, 0x02	; 2
    188e:	85 b9       	out	0x05, r24	; 5
           R_DDR = (2<<(TP1*2)) | (2<<(TP2*2));	//RH2 to -
    1890:	54 b8       	out	0x04, r5	; 4
           adcmv[0] = W20msReadADC(TP1);
    1892:	80 e0       	ldi	r24, 0x00	; 0
    1894:	0e 94 4b 13 	call	0x2696	; 0x2696 <W20msReadADC>
    1898:	7c 01       	movw	r14, r24
           R_DDR = (2<<(TP1*2)) | (2<<(TP3*2));	//RH3 to -
    189a:	82 e2       	ldi	r24, 0x22	; 34
    189c:	84 b9       	out	0x04, r24	; 4
           adcmv[1] = W20msReadADC(TP1);
    189e:	80 e0       	ldi	r24, 0x00	; 0
    18a0:	0e 94 4b 13 	call	0x2696	; 0x2696 <W20msReadADC>
    18a4:	5c 01       	movw	r10, r24
           R_PORT = 2<<(TP2*2);		//RL2 to VCC
    18a6:	35 b8       	out	0x05, r3	; 5
           R_DDR = (2<<(TP2*2)) | (2<<(TP3*2));	//RH3 to -
    18a8:	98 e2       	ldi	r25, 0x28	; 40
    18aa:	94 b9       	out	0x04, r25	; 4
           adcmv[2] = W20msReadADC(TP2);
    18ac:	81 e0       	ldi	r24, 0x01	; 1
    18ae:	0e 94 4b 13 	call	0x2696	; 0x2696 <W20msReadADC>
    18b2:	3c 01       	movw	r6, r24
           lcd_fix_string(RHRH);	// "RHRH"
    18b4:	81 e9       	ldi	r24, 0x91	; 145
    18b6:	91 e0       	ldi	r25, 0x01	; 1
    18b8:	37 c0       	rjmp	.+110    	; 0x1928 <AutoCheck+0x2ae>
        }
        if (tt == 4) { // Text release probes
    18ba:	ed 2d       	mov	r30, r13
    18bc:	e4 30       	cpi	r30, 0x04	; 4
    18be:	19 f4       	brne	.+6      	; 0x18c6 <AutoCheck+0x24c>
           lcd_fix_string(RELPROBE);	// "Release Probes"
    18c0:	8f e9       	ldi	r24, 0x9F	; 159
    18c2:	91 e0       	ldi	r25, 0x01	; 1
    18c4:	31 c0       	rjmp	.+98     	; 0x1928 <AutoCheck+0x2ae>
        }
        if (tt == 5) { // can we switch the ADC pins to GND across R_H resistor?
    18c6:	fd 2d       	mov	r31, r13
    18c8:	f5 30       	cpi	r31, 0x05	; 5
    18ca:	a9 f4       	brne	.+42     	; 0x18f6 <AutoCheck+0x27c>
           R_PORT = 0;
    18cc:	15 b8       	out	0x05, r1	; 5
           R_DDR = 2<<(TP1*2);		//Pin 1 over R_H to GND
    18ce:	82 e0       	ldi	r24, 0x02	; 2
    18d0:	84 b9       	out	0x04, r24	; 4
           adcmv[0] = W20msReadADC(TP1);
    18d2:	80 e0       	ldi	r24, 0x00	; 0
    18d4:	0e 94 4b 13 	call	0x2696	; 0x2696 <W20msReadADC>
    18d8:	7c 01       	movw	r14, r24

           R_DDR = 2<<(TP2*2);		//Pin 2 over R_H to GND
    18da:	34 b8       	out	0x04, r3	; 4
           adcmv[1] = W20msReadADC(TP2);
    18dc:	81 e0       	ldi	r24, 0x01	; 1
    18de:	0e 94 4b 13 	call	0x2696	; 0x2696 <W20msReadADC>
    18e2:	5c 01       	movw	r10, r24

           R_DDR = 2<<(TP3*2);		//Pin 3 over R_H to GND
    18e4:	80 e2       	ldi	r24, 0x20	; 32
    18e6:	84 b9       	out	0x04, r24	; 4
           adcmv[2] = W20msReadADC(TP3);
    18e8:	82 e0       	ldi	r24, 0x02	; 2
    18ea:	0e 94 4b 13 	call	0x2696	; 0x2696 <W20msReadADC>
    18ee:	3c 01       	movw	r6, r24
           lcd_fix_string(RH1L);	// "RH_Lo="
    18f0:	88 e6       	ldi	r24, 0x68	; 104
    18f2:	91 e0       	ldi	r25, 0x01	; 1
    18f4:	19 c0       	rjmp	.+50     	; 0x1928 <AutoCheck+0x2ae>
        }
        if (tt == 6) { // can we switch the ADC pins to VCC across the R_H resistor?
    18f6:	2d 2d       	mov	r18, r13
    18f8:	26 30       	cpi	r18, 0x06	; 6
    18fa:	c9 f4       	brne	.+50     	; 0x192e <AutoCheck+0x2b4>
           R_DDR = 2<<(TP1*2);		//Pin 1 over R_H to VCC
    18fc:	82 e0       	ldi	r24, 0x02	; 2
    18fe:	84 b9       	out	0x04, r24	; 4
           R_PORT = 2<<(TP1*2);
    1900:	85 b9       	out	0x05, r24	; 5
           adcmv[0] = W20msReadADC(TP1);
    1902:	80 e0       	ldi	r24, 0x00	; 0
    1904:	0e 94 4b 13 	call	0x2696	; 0x2696 <W20msReadADC>
    1908:	7c 01       	movw	r14, r24
           R_DDR = 2<<(TP2*2);		//Pin 2 over R_H to VCC
    190a:	34 b8       	out	0x04, r3	; 4
           R_PORT = 2<<(TP2*2);
    190c:	35 b8       	out	0x05, r3	; 5
           adcmv[1] = W20msReadADC(TP2);
    190e:	81 e0       	ldi	r24, 0x01	; 1
    1910:	0e 94 4b 13 	call	0x2696	; 0x2696 <W20msReadADC>
    1914:	5c 01       	movw	r10, r24
           R_DDR = 2<<(TP3*2);		//Pin 3 over R_H to VCC
    1916:	80 e2       	ldi	r24, 0x20	; 32
    1918:	84 b9       	out	0x04, r24	; 4
           R_PORT = 2<<(TP3*2);
    191a:	85 b9       	out	0x05, r24	; 5
           adcmv[2] = W20msReadADC(TP3);
    191c:	82 e0       	ldi	r24, 0x02	; 2
    191e:	0e 94 4b 13 	call	0x2696	; 0x2696 <W20msReadADC>
    1922:	3c 01       	movw	r6, r24
           lcd_fix_string(RH1H);	// "RH_Hi="
    1924:	8c e6       	ldi	r24, 0x6C	; 108
    1926:	91 e0       	ldi	r25, 0x01	; 1
    1928:	0e 94 cf 00 	call	0x19e	; 0x19e <lcd_fix_string>
    192c:	18 c1       	rjmp	.+560    	; 0x1b5e <AutoCheck+0x4e4>
        }
        if (tt == 7) { // measurement of internal resistance of the ADC port outputs switched to GND
    192e:	3d 2d       	mov	r19, r13
    1930:	37 30       	cpi	r19, 0x07	; 7
    1932:	89 f5       	brne	.+98     	; 0x1996 <AutoCheck+0x31c>
           ADC_DDR = 1<<TP1 | TXD_MSK;	//ADC-Pin  1 to output 0V
    1934:	81 e0       	ldi	r24, 0x01	; 1
    1936:	87 b9       	out	0x07, r24	; 7
           R_PORT = 1<<(TP1*2);		//R_L-PORT 1 to VCC
    1938:	85 b9       	out	0x05, r24	; 5
           R_DDR = 1<<(TP1*2);		//Pin 1 to output and over R_L to VCC
    193a:	84 b9       	out	0x04, r24	; 4
           adcmv[0] = W5msReadADC(TP1);
    193c:	80 e0       	ldi	r24, 0x00	; 0
    193e:	0e 94 4f 13 	call	0x269e	; 0x269e <W5msReadADC>
    1942:	7c 01       	movw	r14, r24

           ADC_DDR = 1<<TP2 | TXD_MSK;	//ADC-Pin 2 to output 0V
    1944:	82 e0       	ldi	r24, 0x02	; 2
    1946:	87 b9       	out	0x07, r24	; 7
           R_PORT =  1<<(TP2*2);	//R_L-PORT 2 to VCC
    1948:	c5 b8       	out	0x05, r12	; 5
           R_DDR = 1<<(TP2*2);		//Pin 2 to output and over R_L to VCC
    194a:	c4 b8       	out	0x04, r12	; 4
           adcmv[1] = W5msReadADC(TP2);
    194c:	81 e0       	ldi	r24, 0x01	; 1
    194e:	0e 94 4f 13 	call	0x269e	; 0x269e <W5msReadADC>
    1952:	5c 01       	movw	r10, r24

           ADC_DDR = 1<<TP3 | TXD_MSK;	//ADC-Pin 3 to output 0V
    1954:	c7 b8       	out	0x07, r12	; 7
           R_PORT =  1<<(TP3*2);	//R_L-PORT 3 to VCC
    1956:	40 e1       	ldi	r20, 0x10	; 16
    1958:	45 b9       	out	0x05, r20	; 5
           R_DDR = 1<<(TP3*2);		//Pin 3 to output and over R_L to VCC
    195a:	44 b9       	out	0x04, r20	; 4
           adcmv[2] = W5msReadADC(TP3);
    195c:	82 e0       	ldi	r24, 0x02	; 2
    195e:	0e 94 4f 13 	call	0x269e	; 0x269e <W5msReadADC>
    1962:	3c 01       	movw	r6, r24
           lcd_fix_string(RILO);	// "RiLo="
    1964:	80 e7       	ldi	r24, 0x70	; 112
    1966:	91 e0       	ldi	r25, 0x01	; 1
    1968:	0e 94 cf 00 	call	0x19e	; 0x19e <lcd_fix_string>
#ifdef AUTO_CAL
           sum_c0 += adcmv[0] + adcmv[1] + adcmv[2];
    196c:	c7 01       	movw	r24, r14
    196e:	8a 0d       	add	r24, r10
    1970:	9b 1d       	adc	r25, r11
    1972:	08 0f       	add	r16, r24
    1974:	19 1f       	adc	r17, r25
    1976:	06 0d       	add	r16, r6
    1978:	17 1d       	adc	r17, r7
           c0_count += 3;
    197a:	53 e0       	ldi	r21, 0x03	; 3
    197c:	45 0e       	add	r4, r21
           if (c0_count == 24) {
    197e:	64 2d       	mov	r22, r4
    1980:	68 31       	cpi	r22, 0x18	; 24
    1982:	09 f0       	breq	.+2      	; 0x1986 <AutoCheck+0x30c>
    1984:	ec c0       	rjmp	.+472    	; 0x1b5e <AutoCheck+0x4e4>
              sum_c0 /= 8;
    1986:	73 e0       	ldi	r23, 0x03	; 3
    1988:	16 95       	lsr	r17
    198a:	07 95       	ror	r16
    198c:	7a 95       	dec	r23
    198e:	e1 f7       	brne	.-8      	; 0x1988 <AutoCheck+0x30e>
              sum_rm = sum_c0;          // sum of 3 Pin voltages switched to GND
    1990:	1e 83       	std	Y+6, r17	; 0x06
    1992:	0d 83       	std	Y+5, r16	; 0x05
    1994:	e4 c0       	rjmp	.+456    	; 0x1b5e <AutoCheck+0x4e4>
           }
#endif
        }
        if (tt == 8) { // measurement of internal resistance of the ADC port output switched to VCC
    1996:	8d 2d       	mov	r24, r13
    1998:	88 30       	cpi	r24, 0x08	; 8
    199a:	09 f0       	breq	.+2      	; 0x199e <AutoCheck+0x324>
    199c:	90 c0       	rjmp	.+288    	; 0x1abe <AutoCheck+0x444>
           R_PORT = 0;			// R-Ports to GND
    199e:	15 b8       	out	0x05, r1	; 5
           ADC_PORT = 1<<TP1 | TXD_VAL;	//ADC-Port 1 to VCC
    19a0:	81 e0       	ldi	r24, 0x01	; 1
    19a2:	88 b9       	out	0x08, r24	; 8
           ADC_DDR = 1<<TP1 | TXD_MSK;	//ADC-Pin  1 to output 0V
    19a4:	87 b9       	out	0x07, r24	; 7
           R_DDR = 1<<(TP1*2);		//Pin 1 to output and over R_L to GND
    19a6:	84 b9       	out	0x04, r24	; 4
           adcmv[0] = U_VCC - W5msReadADC(TP1);
    19a8:	80 e0       	ldi	r24, 0x00	; 0
    19aa:	0e 94 4f 13 	call	0x269e	; 0x269e <W5msReadADC>
    19ae:	74 01       	movw	r14, r8
    19b0:	e8 1a       	sub	r14, r24
    19b2:	f9 0a       	sbc	r15, r25
      
           ADC_PORT = 1<<TP2 | TXD_VAL;	//ADC-Port 2 to VCC
    19b4:	82 e0       	ldi	r24, 0x02	; 2
    19b6:	88 b9       	out	0x08, r24	; 8
           ADC_DDR = 1<<TP2 | TXD_MSK;	//ADC-Pin  2 to output 0V
    19b8:	87 b9       	out	0x07, r24	; 7
           R_DDR = 1<<(TP2*2);		//Pin 2 to output and over R_L to GND
    19ba:	c4 b8       	out	0x04, r12	; 4
           adcmv[1] = U_VCC - W5msReadADC(TP2);
    19bc:	81 e0       	ldi	r24, 0x01	; 1
    19be:	0e 94 4f 13 	call	0x269e	; 0x269e <W5msReadADC>
    19c2:	54 01       	movw	r10, r8
    19c4:	a8 1a       	sub	r10, r24
    19c6:	b9 0a       	sbc	r11, r25

           ADC_PORT = 1<<TP3 | TXD_VAL;	//ADC-Port 3 to VCC
    19c8:	c8 b8       	out	0x08, r12	; 8
           ADC_DDR = 1<<TP3 | TXD_MSK;	//ADC-Pin  3 to output 0V
    19ca:	c7 b8       	out	0x07, r12	; 7
           R_DDR = 1<<(TP3*2);		//Pin 3 to output and over R_L to GND
    19cc:	90 e1       	ldi	r25, 0x10	; 16
    19ce:	94 b9       	out	0x04, r25	; 4
           adcmv[2] = U_VCC - W5msReadADC(TP3);
    19d0:	82 e0       	ldi	r24, 0x02	; 2
    19d2:	0e 94 4f 13 	call	0x269e	; 0x269e <W5msReadADC>
    19d6:	34 01       	movw	r6, r8
    19d8:	68 1a       	sub	r6, r24
    19da:	79 0a       	sbc	r7, r25

           lcd_fix_string(RIHI);	// "RiHi="
    19dc:	8c e7       	ldi	r24, 0x7C	; 124
    19de:	91 e0       	ldi	r25, 0x01	; 1
    19e0:	0e 94 cf 00 	call	0x19e	; 0x19e <lcd_fix_string>
#ifdef AUTO_CAL
           sum_c0 += adcmv[0] + adcmv[1] + adcmv[2];
    19e4:	c7 01       	movw	r24, r14
    19e6:	8a 0d       	add	r24, r10
    19e8:	9b 1d       	adc	r25, r11
    19ea:	08 0f       	add	r16, r24
    19ec:	19 1f       	adc	r17, r25
    19ee:	06 0d       	add	r16, r6
    19f0:	17 1d       	adc	r17, r7
           c0_count += 3;
    19f2:	e3 e0       	ldi	r30, 0x03	; 3
    19f4:	4e 0e       	add	r4, r30
           if (c0_count == 24) {
    19f6:	f4 2d       	mov	r31, r4
    19f8:	f8 31       	cpi	r31, 0x18	; 24
    19fa:	09 f0       	breq	.+2      	; 0x19fe <AutoCheck+0x384>
    19fc:	b0 c0       	rjmp	.+352    	; 0x1b5e <AutoCheck+0x4e4>
              sum_c0 /= 8;		// sum of 3 Pin voltages switched to VCC
    19fe:	63 e0       	ldi	r22, 0x03	; 3
    1a00:	16 95       	lsr	r17
    1a02:	07 95       	ror	r16
    1a04:	6a 95       	dec	r22
    1a06:	e1 f7       	brne	.-8      	; 0x1a00 <AutoCheck+0x386>
              u680 = ((U_VCC * 3) - sum_rm - sum_c0);
    1a08:	8d 81       	ldd	r24, Y+5	; 0x05
    1a0a:	9e 81       	ldd	r25, Y+6	; 0x06
    1a0c:	90 95       	com	r25
    1a0e:	81 95       	neg	r24
    1a10:	9f 4f       	sbci	r25, 0xFF	; 255
    1a12:	85 56       	subi	r24, 0x65	; 101
    1a14:	95 4c       	sbci	r25, 0xC5	; 197
    1a16:	80 1b       	sub	r24, r16
    1a18:	91 0b       	sbc	r25, r17
              pin_rm = (unsigned long)((unsigned long)sum_rm * (unsigned long)R_L_VAL) / (unsigned long)u680;
    1a1a:	9c 01       	movw	r18, r24
    1a1c:	40 e0       	ldi	r20, 0x00	; 0
    1a1e:	50 e0       	ldi	r21, 0x00	; 0
    1a20:	2f 83       	std	Y+7, r18	; 0x07
    1a22:	38 87       	std	Y+8, r19	; 0x08
    1a24:	49 87       	std	Y+9, r20	; 0x09
    1a26:	5a 87       	std	Y+10, r21	; 0x0a
    1a28:	4d 81       	ldd	r20, Y+5	; 0x05
    1a2a:	5e 81       	ldd	r21, Y+6	; 0x06
    1a2c:	ba 01       	movw	r22, r20
    1a2e:	80 e0       	ldi	r24, 0x00	; 0
    1a30:	90 e0       	ldi	r25, 0x00	; 0
    1a32:	20 e9       	ldi	r18, 0x90	; 144
    1a34:	3a e1       	ldi	r19, 0x1A	; 26
    1a36:	40 e0       	ldi	r20, 0x00	; 0
    1a38:	50 e0       	ldi	r21, 0x00	; 0
    1a3a:	0e 94 ae 13 	call	0x275c	; 0x275c <__mulsi3>
    1a3e:	2f 81       	ldd	r18, Y+7	; 0x07
    1a40:	38 85       	ldd	r19, Y+8	; 0x08
    1a42:	49 85       	ldd	r20, Y+9	; 0x09
    1a44:	5a 85       	ldd	r21, Y+10	; 0x0a
    1a46:	0e 94 e1 13 	call	0x27c2	; 0x27c2 <__udivmodsi4>
    1a4a:	29 83       	std	Y+1, r18	; 0x01
    1a4c:	3a 83       	std	Y+2, r19	; 0x02
    1a4e:	4b 83       	std	Y+3, r20	; 0x03
    1a50:	5c 83       	std	Y+4, r21	; 0x04
    1a52:	69 80       	ldd	r6, Y+1	; 0x01
    1a54:	7a 80       	ldd	r7, Y+2	; 0x02
              adcmv[2] = pin_rm;	// for last output in row 2
              pin_rp = (unsigned long)((unsigned long)sum_c0 * (unsigned long)R_L_VAL) / (unsigned long)u680;
    1a56:	b8 01       	movw	r22, r16
    1a58:	80 e0       	ldi	r24, 0x00	; 0
    1a5a:	90 e0       	ldi	r25, 0x00	; 0
    1a5c:	20 e9       	ldi	r18, 0x90	; 144
    1a5e:	3a e1       	ldi	r19, 0x1A	; 26
    1a60:	40 e0       	ldi	r20, 0x00	; 0
    1a62:	50 e0       	ldi	r21, 0x00	; 0
    1a64:	0e 94 ae 13 	call	0x275c	; 0x275c <__mulsi3>
    1a68:	2f 81       	ldd	r18, Y+7	; 0x07
    1a6a:	38 85       	ldd	r19, Y+8	; 0x08
    1a6c:	49 85       	ldd	r20, Y+9	; 0x09
    1a6e:	5a 85       	ldd	r21, Y+10	; 0x0a
    1a70:	0e 94 e1 13 	call	0x27c2	; 0x27c2 <__udivmodsi4>
    1a74:	38 87       	std	Y+8, r19	; 0x08
    1a76:	2f 83       	std	Y+7, r18	; 0x07
              if ((pin_rp < 280) && (pin_rm < 250)) {
    1a78:	c9 01       	movw	r24, r18
    1a7a:	e1 e0       	ldi	r30, 0x01	; 1
    1a7c:	28 31       	cpi	r18, 0x18	; 24
    1a7e:	3e 07       	cpc	r19, r30
    1a80:	08 f0       	brcs	.+2      	; 0x1a84 <AutoCheck+0x40a>
    1a82:	fd c0       	rjmp	.+506    	; 0x1c7e <AutoCheck+0x604>
    1a84:	fa ef       	ldi	r31, 0xFA	; 250
    1a86:	6f 16       	cp	r6, r31
    1a88:	71 04       	cpc	r7, r1
    1a8a:	08 f0       	brcs	.+2      	; 0x1a8e <AutoCheck+0x414>
    1a8c:	f8 c0       	rjmp	.+496    	; 0x1c7e <AutoCheck+0x604>
                 lcd_string(utoa(pin_rp, outval, 10));
    1a8e:	6d e0       	ldi	r22, 0x0D	; 13
    1a90:	71 e0       	ldi	r23, 0x01	; 1
    1a92:	4a e0       	ldi	r20, 0x0A	; 10
    1a94:	50 e0       	ldi	r21, 0x00	; 0
    1a96:	0e 94 03 14 	call	0x2806	; 0x2806 <utoa>
    1a9a:	0e 94 bb 00 	call	0x176	; 0x176 <lcd_string>
                 (void) eeprom_write_word(&R680pl, pin_rp+R_L_VAL);
    1a9e:	6f 81       	ldd	r22, Y+7	; 0x07
    1aa0:	78 85       	ldd	r23, Y+8	; 0x08
    1aa2:	60 57       	subi	r22, 0x70	; 112
    1aa4:	75 4e       	sbci	r23, 0xE5	; 229
    1aa6:	8b ed       	ldi	r24, 0xDB	; 219
    1aa8:	91 e0       	ldi	r25, 0x01	; 1
    1aaa:	0e 94 27 14 	call	0x284e	; 0x284e <__eewr_word_m168>
                 (void) eeprom_write_word(&R680mi, pin_rm+R_L_VAL);
    1aae:	b3 01       	movw	r22, r6
    1ab0:	60 57       	subi	r22, 0x70	; 112
    1ab2:	75 4e       	sbci	r23, 0xE5	; 229
    1ab4:	8d ed       	ldi	r24, 0xDD	; 221
    1ab6:	91 e0       	ldi	r25, 0x01	; 1
    1ab8:	0e 94 27 14 	call	0x284e	; 0x284e <__eewr_word_m168>
    1abc:	e0 c0       	rjmp	.+448    	; 0x1c7e <AutoCheck+0x604>
              }
           }
#endif
        }
        if (tt == 9) {			//measure Zero offset for Capacity measurement
    1abe:	2d 2d       	mov	r18, r13
    1ac0:	29 30       	cpi	r18, 0x09	; 9
    1ac2:	09 f0       	breq	.+2      	; 0x1ac6 <AutoCheck+0x44c>
    1ac4:	49 c0       	rjmp	.+146    	; 0x1b58 <AutoCheck+0x4de>
#ifdef C_MESS
           ReadCapacity(TP3, TP1);
    1ac6:	82 e0       	ldi	r24, 0x02	; 2
    1ac8:	60 e0       	ldi	r22, 0x00	; 0
    1aca:	0e 94 0a 08 	call	0x1014	; 0x1014 <ReadCapacity>
           adcmv[0] = (unsigned int) cval_uncorrected;
    1ace:	e0 90 40 01 	lds	r14, 0x0140
    1ad2:	f0 90 41 01 	lds	r15, 0x0141
           ReadCapacity(TP3, TP2);
    1ad6:	82 e0       	ldi	r24, 0x02	; 2
    1ad8:	61 e0       	ldi	r22, 0x01	; 1
    1ada:	0e 94 0a 08 	call	0x1014	; 0x1014 <ReadCapacity>
           adcmv[1] = (unsigned int) cval_uncorrected;
    1ade:	a0 90 40 01 	lds	r10, 0x0140
    1ae2:	b0 90 41 01 	lds	r11, 0x0141
           ReadCapacity(TP2, TP1);
    1ae6:	81 e0       	ldi	r24, 0x01	; 1
    1ae8:	60 e0       	ldi	r22, 0x00	; 0
    1aea:	0e 94 0a 08 	call	0x1014	; 0x1014 <ReadCapacity>
           adcmv[2] = (unsigned int) cval_uncorrected;
    1aee:	60 90 40 01 	lds	r6, 0x0140
    1af2:	70 90 41 01 	lds	r7, 0x0141
#ifdef AUTO_CAL
           sum_c0 += adcmv[0] + adcmv[1] + adcmv[2] + 3;
    1af6:	c7 01       	movw	r24, r14
    1af8:	8a 0d       	add	r24, r10
    1afa:	9b 1d       	adc	r25, r11
    1afc:	03 96       	adiw	r24, 0x03	; 3
    1afe:	86 0d       	add	r24, r6
    1b00:	97 1d       	adc	r25, r7
    1b02:	08 0f       	add	r16, r24
    1b04:	19 1f       	adc	r17, r25
           c0_count += 3;
    1b06:	33 e0       	ldi	r19, 0x03	; 3
    1b08:	43 0e       	add	r4, r19
           if ((c0_count == 24) && (sum_c0 < (60*24))){
    1b0a:	44 2d       	mov	r20, r4
    1b0c:	48 31       	cpi	r20, 0x18	; 24
    1b0e:	39 f5       	brne	.+78     	; 0x1b5e <AutoCheck+0x4e4>
    1b10:	55 e0       	ldi	r21, 0x05	; 5
    1b12:	00 3a       	cpi	r16, 0xA0	; 160
    1b14:	15 07       	cpc	r17, r21
    1b16:	18 f5       	brcc	.+70     	; 0x1b5e <AutoCheck+0x4e4>
              sum_c0 /= 24;
    1b18:	c8 01       	movw	r24, r16
    1b1a:	68 e1       	ldi	r22, 0x18	; 24
    1b1c:	70 e0       	ldi	r23, 0x00	; 0
    1b1e:	0e 94 cd 13 	call	0x279a	; 0x279a <__udivmodhi4>
    1b22:	8b 01       	movw	r16, r22
              lcd_data('E');
    1b24:	85 e4       	ldi	r24, 0x45	; 69
    1b26:	0e 94 82 00 	call	0x104	; 0x104 <lcd_data>
              lcd_data('E');
    1b2a:	85 e4       	ldi	r24, 0x45	; 69
    1b2c:	0e 94 82 00 	call	0x104	; 0x104 <lcd_data>
              lcd_data('=');
    1b30:	8d e3       	ldi	r24, 0x3D	; 61
    1b32:	0e 94 82 00 	call	0x104	; 0x104 <lcd_data>
              lcd_string(utoa(sum_c0, outval, 10));
    1b36:	c8 01       	movw	r24, r16
    1b38:	6d e0       	ldi	r22, 0x0D	; 13
    1b3a:	71 e0       	ldi	r23, 0x01	; 1
    1b3c:	4a e0       	ldi	r20, 0x0A	; 10
    1b3e:	50 e0       	ldi	r21, 0x00	; 0
    1b40:	0e 94 03 14 	call	0x2806	; 0x2806 <utoa>
    1b44:	0e 94 bb 00 	call	0x176	; 0x176 <lcd_string>
              sum_c0 += (COMP_SLEW1 / (CC0 + CABLE_CAP + COMP_SLEW2)); //add slew rate dependend offset
    1b48:	01 5f       	subi	r16, 0xF1	; 241
    1b4a:	1f 4f       	sbci	r17, 0xFF	; 255
              (void) eeprom_write_word(&cap_null, sum_c0);
    1b4c:	8f ed       	ldi	r24, 0xDF	; 223
    1b4e:	91 e0       	ldi	r25, 0x01	; 1
    1b50:	b8 01       	movw	r22, r16
    1b52:	0e 94 27 14 	call	0x284e	; 0x284e <__eewr_word_m168>
    1b56:	03 c0       	rjmp	.+6      	; 0x1b5e <AutoCheck+0x4e4>
#endif
#else
           continue;
#endif
        }
        if (tt > 1) {			// output 3 voltages 
    1b58:	6d 2d       	mov	r22, r13
    1b5a:	61 30       	cpi	r22, 0x01	; 1
    1b5c:	21 f1       	breq	.+72     	; 0x1ba6 <AutoCheck+0x52c>
           lcd_line2();			//Cursor to column 1, row 2
    1b5e:	80 ec       	ldi	r24, 0xC0	; 192
    1b60:	0e 94 7e 00 	call	0xfc	; 0xfc <lcd_command>
           lcd_string(utoa(adcmv[0], outval, 10));	//output voltage 1
    1b64:	c7 01       	movw	r24, r14
    1b66:	6d e0       	ldi	r22, 0x0D	; 13
    1b68:	71 e0       	ldi	r23, 0x01	; 1
    1b6a:	4a e0       	ldi	r20, 0x0A	; 10
    1b6c:	50 e0       	ldi	r21, 0x00	; 0
    1b6e:	0e 94 03 14 	call	0x2806	; 0x2806 <utoa>
    1b72:	0e 94 bb 00 	call	0x176	; 0x176 <lcd_string>
           lcd_data(' ');
    1b76:	80 e2       	ldi	r24, 0x20	; 32
    1b78:	0e 94 82 00 	call	0x104	; 0x104 <lcd_data>
           lcd_string(utoa(adcmv[1], outval, 10));	//output voltage 2
    1b7c:	c5 01       	movw	r24, r10
    1b7e:	6d e0       	ldi	r22, 0x0D	; 13
    1b80:	71 e0       	ldi	r23, 0x01	; 1
    1b82:	4a e0       	ldi	r20, 0x0A	; 10
    1b84:	50 e0       	ldi	r21, 0x00	; 0
    1b86:	0e 94 03 14 	call	0x2806	; 0x2806 <utoa>
    1b8a:	0e 94 bb 00 	call	0x176	; 0x176 <lcd_string>
           lcd_data(' ');
    1b8e:	80 e2       	ldi	r24, 0x20	; 32
    1b90:	0e 94 82 00 	call	0x104	; 0x104 <lcd_data>
           lcd_string(utoa(adcmv[2], outval, 10));	//output voltage 3
    1b94:	c3 01       	movw	r24, r6
    1b96:	6d e0       	ldi	r22, 0x0D	; 13
    1b98:	71 e0       	ldi	r23, 0x01	; 1
    1b9a:	4a e0       	ldi	r20, 0x0A	; 10
    1b9c:	50 e0       	ldi	r21, 0x00	; 0
    1b9e:	0e 94 03 14 	call	0x2806	; 0x2806 <utoa>
    1ba2:	0e 94 bb 00 	call	0x176	; 0x176 <lcd_string>
        }
        ADC_DDR =  TXD_MSK;		// all-Pins to Input
    1ba6:	17 b8       	out	0x07, r1	; 7
        ADC_PORT = TXD_VAL;		// all ADC-Ports to GND
    1ba8:	18 b8       	out	0x08, r1	; 8
        R_DDR = 0;			// all R-Ports to Input
    1baa:	14 b8       	out	0x04, r1	; 4
        R_PORT = 0;
    1bac:	15 b8       	out	0x05, r1	; 5
        if(!(ON_PIN_REG & (1<<RST_PIN))) {
    1bae:	4f 9b       	sbis	0x09, 7	; 9
    1bb0:	09 c0       	rjmp	.+18     	; 0x1bc4 <AutoCheck+0x54a>
	   // if key is pressed, don't repeat
           break;
        }
        wait500ms();
    1bb2:	0e 94 29 13 	call	0x2652	; 0x2652 <wait500ms>
        if(!(ON_PIN_REG & (1<<RST_PIN))) {
    1bb6:	4f 9b       	sbis	0x09, 7	; 9
    1bb8:	05 c0       	rjmp	.+10     	; 0x1bc4 <AutoCheck+0x54a>
	   // if key is pressed, don't repeat
           break;
        }
        wait500ms();
    1bba:	0e 94 29 13 	call	0x2652	; 0x2652 <wait500ms>
    1bbe:	2a 94       	dec	r2
  for(tt=1;tt<10;tt++) {		// loop for all Tests
#ifdef AUTO_CAL
     sum_c0 = 0;			//reset sum of capacity measurements
     c0_count = 0;			//counter for capacity measurement
#endif
     for(ww=0;ww<8;ww++) {		// repeat the test 8 times
    1bc0:	09 f0       	breq	.+2      	; 0x1bc4 <AutoCheck+0x54a>
    1bc2:	f5 cd       	rjmp	.-1046   	; 0x17ae <AutoCheck+0x134>
	   // if key is pressed, don't repeat
           break;
        }
        wait500ms();
     } //end for ww
     wait1s();
    1bc4:	0e 94 28 13 	call	0x2650	; 0x2650 <wait1000ms>
  lcd_clear();
  lcd_line1();
  lcd_fix_string(SELFTEST);		// "Selftest mode.."
  wait1s();
 
  for(tt=1;tt<10;tt++) {		// loop for all Tests
    1bc8:	d3 94       	inc	r13
    1bca:	8d 2d       	mov	r24, r13
    1bcc:	8a 30       	cpi	r24, 0x0A	; 10
    1bce:	71 f0       	breq	.+28     	; 0x1bec <AutoCheck+0x572>
    1bd0:	8b 85       	ldd	r24, Y+11	; 0x0b
    1bd2:	9c 85       	ldd	r25, Y+12	; 0x0c
void AutoCheck(void) {
    1bd4:	58 e0       	ldi	r21, 0x08	; 8
    1bd6:	25 2e       	mov	r2, r21
    1bd8:	44 24       	eor	r4, r4
    1bda:	00 e0       	ldi	r16, 0x00	; 0
    1bdc:	10 e0       	ldi	r17, 0x00	; 0
        lcd_line2();			//Cursor to column 1, row 2
        lcd_clear_line();		// clear total line
        lcd_line1();			//Cursor to column 1, row 1
        lcd_clear_line();		// clear total line
        lcd_line1();			//Cursor to column 1, row 1
        lcd_data('T');			//output the Testmode "T"
    1bde:	fc 01       	movw	r30, r24
    1be0:	31 96       	adiw	r30, 0x01	; 1
    1be2:	fc 87       	std	Y+12, r31	; 0x0c
    1be4:	eb 87       	std	Y+11, r30	; 0x0b
           adcmv[2] = W20msReadADC(TP2);
           lcd_fix_string(RLRL);	// "RLRL"
        }
        if (tt == 3) { // how equal are the RH resistors
           R_PORT = 2<<(TP1*2);		//RH1 to VCC
           R_DDR = (2<<(TP1*2)) | (2<<(TP2*2));	//RH2 to -
    1be6:	4a e0       	ldi	r20, 0x0A	; 10
    1be8:	54 2e       	mov	r5, r20
    1bea:	e1 cd       	rjmp	.-1086   	; 0x17ae <AutoCheck+0x134>
        }
        wait500ms();
     } //end for ww
     wait1s();
  } //end for tt
  lcd_clear();
    1bec:	0e 94 8a 00 	call	0x114	; 0x114 <lcd_clear>
  lcd_line1();
    1bf0:	80 e8       	ldi	r24, 0x80	; 128
    1bf2:	0e 94 7e 00 	call	0xfc	; 0xfc <lcd_command>
  lcd_fix_string(ATE);		//"Selftest End"
    1bf6:	8b e4       	ldi	r24, 0x4B	; 75
    1bf8:	91 e0       	ldi	r25, 0x01	; 1
    1bfa:	0e 94 cf 00 	call	0x19e	; 0x19e <lcd_fix_string>
  lcd_line2();
    1bfe:	80 ec       	ldi	r24, 0xC0	; 192
    1c00:	0e 94 7e 00 	call	0xfc	; 0xfc <lcd_command>
  lcd_fix_string(VERSION);	//"Version ..."
    1c04:	89 e2       	ldi	r24, 0x29	; 41
    1c06:	91 e0       	ldi	r25, 0x01	; 1
    1c08:	0e 94 cf 00 	call	0x19e	; 0x19e <lcd_fix_string>
 #ifdef FREQUENCY_50HZ
  lcd_line1();
    1c0c:	80 e8       	ldi	r24, 0x80	; 128
    1c0e:	0e 94 7e 00 	call	0xfc	; 0xfc <lcd_command>
  lcd_fix_string(ATE);		//"Selftest End"
    1c12:	8b e4       	ldi	r24, 0x4B	; 75
    1c14:	91 e0       	ldi	r25, 0x01	; 1
    1c16:	0e 94 cf 00 	call	0x19e	; 0x19e <lcd_fix_string>
  lcd_data(' ');
    1c1a:	80 e2       	ldi	r24, 0x20	; 32
    1c1c:	0e 94 82 00 	call	0x104	; 0x104 <lcd_data>
  lcd_data('5');
    1c20:	85 e3       	ldi	r24, 0x35	; 53
    1c22:	0e 94 82 00 	call	0x104	; 0x104 <lcd_data>
  lcd_data('0');
    1c26:	80 e3       	ldi	r24, 0x30	; 48
    1c28:	0e 94 82 00 	call	0x104	; 0x104 <lcd_data>
  lcd_data('H');
    1c2c:	88 e4       	ldi	r24, 0x48	; 72
    1c2e:	0e 94 82 00 	call	0x104	; 0x104 <lcd_data>
  lcd_data('z');
    1c32:	8a e7       	ldi	r24, 0x7A	; 122
    1c34:	0e 94 82 00 	call	0x104	; 0x104 <lcd_data>
  ADC_PORT = TXD_VAL;
    1c38:	18 b8       	out	0x08, r1	; 8
  ADC_DDR = 1<<TP1 | TXD_MSK;	// Pin 1 to GND
    1c3a:	81 e0       	ldi	r24, 0x01	; 1
    1c3c:	87 b9       	out	0x07, r24	; 7
  R_DDR = (1<<(TP3*2)) | (1<<(TP2*2));
    1c3e:	84 e1       	ldi	r24, 0x14	; 20
    1c40:	84 b9       	out	0x04, r24	; 4
    1c42:	0e e1       	ldi	r16, 0x1E	; 30
  for(ww=0;ww<30;ww++) {	// repeat the signal up to 30 times (1 minute)
     for (ii=0;ii<100;ii++) {	// for 2 s generate 50 Hz
         R_PORT = (1<<(TP2*2));	// Pin 2 over R_L to VCC, Pin 3 over R_L to GND
    1c44:	34 e0       	ldi	r19, 0x04	; 4
    1c46:	e3 2e       	mov	r14, r19
         wait10ms();
         R_PORT = (1<<(TP3*2));	// Pin 3 over R_L to VCC, Pin 2 over R_L to GND
    1c48:	10 e1       	ldi	r17, 0x10	; 16
  lcd_data('z');
  ADC_PORT = TXD_VAL;
  ADC_DDR = 1<<TP1 | TXD_MSK;	// Pin 1 to GND
  R_DDR = (1<<(TP3*2)) | (1<<(TP2*2));
  for(ww=0;ww<30;ww++) {	// repeat the signal up to 30 times (1 minute)
     for (ii=0;ii<100;ii++) {	// for 2 s generate 50 Hz
    1c4a:	10 92 36 01 	sts	0x0136, r1
    1c4e:	0c c0       	rjmp	.+24     	; 0x1c68 <AutoCheck+0x5ee>
         R_PORT = (1<<(TP2*2));	// Pin 2 over R_L to VCC, Pin 3 over R_L to GND
    1c50:	e5 b8       	out	0x05, r14	; 5
         wait10ms();
    1c52:	0e 94 33 13 	call	0x2666	; 0x2666 <wait10ms>
         R_PORT = (1<<(TP3*2));	// Pin 3 over R_L to VCC, Pin 2 over R_L to GND
    1c56:	15 b9       	out	0x05, r17	; 5
         wait10ms();
    1c58:	0e 94 33 13 	call	0x2666	; 0x2666 <wait10ms>
         wdt_reset();
    1c5c:	a8 95       	wdr
  lcd_data('z');
  ADC_PORT = TXD_VAL;
  ADC_DDR = 1<<TP1 | TXD_MSK;	// Pin 1 to GND
  R_DDR = (1<<(TP3*2)) | (1<<(TP2*2));
  for(ww=0;ww<30;ww++) {	// repeat the signal up to 30 times (1 minute)
     for (ii=0;ii<100;ii++) {	// for 2 s generate 50 Hz
    1c5e:	80 91 36 01 	lds	r24, 0x0136
    1c62:	8f 5f       	subi	r24, 0xFF	; 255
    1c64:	80 93 36 01 	sts	0x0136, r24
    1c68:	80 91 36 01 	lds	r24, 0x0136
    1c6c:	84 36       	cpi	r24, 0x64	; 100
    1c6e:	80 f3       	brcs	.-32     	; 0x1c50 <AutoCheck+0x5d6>
         wait10ms();
         R_PORT = (1<<(TP3*2));	// Pin 3 over R_L to VCC, Pin 2 over R_L to GND
         wait10ms();
         wdt_reset();
     }
     if (!(ON_PIN_REG & (1<<RST_PIN))) {
    1c70:	4f 9b       	sbis	0x09, 7	; 9
    1c72:	02 c0       	rjmp	.+4      	; 0x1c78 <AutoCheck+0x5fe>
    1c74:	01 50       	subi	r16, 0x01	; 1
  lcd_data('H');
  lcd_data('z');
  ADC_PORT = TXD_VAL;
  ADC_DDR = 1<<TP1 | TXD_MSK;	// Pin 1 to GND
  R_DDR = (1<<(TP3*2)) | (1<<(TP2*2));
  for(ww=0;ww<30;ww++) {	// repeat the signal up to 30 times (1 minute)
    1c76:	49 f7       	brne	.-46     	; 0x1c4a <AutoCheck+0x5d0>
        // if key is pressed, don't repeat
        break;
     }
  }
 #endif
  wait2s();			//wait 2 seconds
    1c78:	0e 94 27 13 	call	0x264e	; 0x264e <wait2s>
    1c7c:	03 c0       	rjmp	.+6      	; 0x1c84 <AutoCheck+0x60a>
              sum_c0 /= 8;		// sum of 3 Pin voltages switched to VCC
              u680 = ((U_VCC * 3) - sum_rm - sum_c0);
              pin_rm = (unsigned long)((unsigned long)sum_rm * (unsigned long)R_L_VAL) / (unsigned long)u680;
              adcmv[2] = pin_rm;	// for last output in row 2
              pin_rp = (unsigned long)((unsigned long)sum_c0 * (unsigned long)R_L_VAL) / (unsigned long)u680;
              if ((pin_rp < 280) && (pin_rm < 250)) {
    1c7e:	69 80       	ldd	r6, Y+1	; 0x01
    1c80:	7a 80       	ldd	r7, Y+2	; 0x02
    1c82:	6d cf       	rjmp	.-294    	; 0x1b5e <AutoCheck+0x4e4>
        break;
     }
  }
 #endif
  wait2s();			//wait 2 seconds
 } 
    1c84:	2c 96       	adiw	r28, 0x0c	; 12
    1c86:	0f b6       	in	r0, 0x3f	; 63
    1c88:	f8 94       	cli
    1c8a:	de bf       	out	0x3e, r29	; 62
    1c8c:	0f be       	out	0x3f, r0	; 63
    1c8e:	cd bf       	out	0x3d, r28	; 61
    1c90:	cf 91       	pop	r28
    1c92:	df 91       	pop	r29
    1c94:	1f 91       	pop	r17
    1c96:	0f 91       	pop	r16
    1c98:	ff 90       	pop	r15
    1c9a:	ef 90       	pop	r14
    1c9c:	df 90       	pop	r13
    1c9e:	cf 90       	pop	r12
    1ca0:	bf 90       	pop	r11
    1ca2:	af 90       	pop	r10
    1ca4:	9f 90       	pop	r9
    1ca6:	8f 90       	pop	r8
    1ca8:	7f 90       	pop	r7
    1caa:	6f 90       	pop	r6
    1cac:	5f 90       	pop	r5
    1cae:	4f 90       	pop	r4
    1cb0:	3f 90       	pop	r3
    1cb2:	2f 90       	pop	r2
    1cb4:	08 95       	ret

00001cb6 <main>:
//#define DebugOut 5		// if set, output of Transistor checks in row 2+3
//#define DebugOut 10		// if set, output of capacity measurements (ReadCapacity) in row 3+4 
#include "Transistortester.h"

//begin of transistortester program
int main(void) {
    1cb6:	1f 93       	push	r17
    1cb8:	cf 93       	push	r28
    1cba:	df 93       	push	r29
  //switch on
  ON_DDR = (1<<ON_PIN);
    1cbc:	80 e4       	ldi	r24, 0x40	; 64
    1cbe:	8a b9       	out	0x0a, r24	; 10
  ON_PORT = (1<<ON_PIN) | (1<<RST_PIN);	//power on and Pullup for the Reset-Pin
    1cc0:	80 ec       	ldi	r24, 0xC0	; 192
    1cc2:	8b b9       	out	0x0b, r24	; 11
  uint8_t tmp;
  //ADC-Init
  ADCSRA = (1<<ADEN) | AUTO_CLOCK_DIV;	//prescaler=8 or 64 (if 8Mhz clock)
    1cc4:	86 e8       	ldi	r24, 0x86	; 134
    1cc6:	80 93 7a 00 	sts	0x007A, r24
// #define WDRF_HOME MCU_STATUS_REG
 #define WDRF_HOME MCUCSR
#else
 #define WDRF_HOME MCUSR
#endif
  tmp = (WDRF_HOME & (1<<WDRF));	// save Watch Dog Flag
    1cca:	14 b7       	in	r17, 0x34	; 52
  WDRF_HOME &= ~(1<<WDRF);	 	//reset Watch Dog flag
    1ccc:	84 b7       	in	r24, 0x34	; 52
    1cce:	87 7f       	andi	r24, 0xF7	; 247
    1cd0:	84 bf       	out	0x34, r24	; 52
  wdt_disable();			// disable Watch Dog
    1cd2:	88 e1       	ldi	r24, 0x18	; 24
    1cd4:	0f b6       	in	r0, 0x3f	; 63
    1cd6:	f8 94       	cli
    1cd8:	80 93 60 00 	sts	0x0060, r24
    1cdc:	10 92 60 00 	sts	0x0060, r1
    1ce0:	0f be       	out	0x3f, r0	; 63
  lcd_init();				//initialize LCD
    1ce2:	0e 94 90 00 	call	0x120	; 0x120 <lcd_init>
	
//  ADC_PORT = TXD_VAL;
//  ADC_DDR = TXD_MSK;
  if(tmp) { 
    1ce6:	13 ff       	sbrs	r17, 3
    1ce8:	0a c0       	rjmp	.+20     	; 0x1cfe <main+0x48>
     // check if  Watchdog-Event 
     // this happens, if the Watchdog is not reset for 2s
     // can happen, if any loop in the Program doen't finish.
     lcd_line1();
    1cea:	80 e8       	ldi	r24, 0x80	; 128
    1cec:	0e 94 7e 00 	call	0xfc	; 0xfc <lcd_command>
     lcd_fix_string(TestTimedOut);	//Output Timeout
    1cf0:	80 e2       	ldi	r24, 0x20	; 32
    1cf2:	91 e0       	ldi	r25, 0x01	; 1
    1cf4:	0e 94 cf 00 	call	0x19e	; 0x19e <lcd_fix_string>
     wait3s();				//wait for 3 s
    1cf8:	0e 94 26 13 	call	0x264c	; 0x264c <wait3s>
    1cfc:	c4 c0       	rjmp	.+392    	; 0x1e86 <main+0x1d0>
     ON_PORT = 0;			//shut off!
     return 0;
  }
  LCDLoadCustomChar(LCD_CHAR_DIODE1);	//Custom-Character Diode symbol
    1cfe:	88 e4       	ldi	r24, 0x48	; 72
    1d00:	0e 94 7e 00 	call	0xfc	; 0xfc <lcd_command>
  lcd_fix_customchar(DiodeIcon1);	//load Character  >|
    1d04:	8d ea       	ldi	r24, 0xAD	; 173
    1d06:	91 e0       	ldi	r25, 0x01	; 1
    1d08:	0e 94 e0 00 	call	0x1c0	; 0x1c0 <lcd_fix_customchar>
  LCDLoadCustomChar(LCD_CHAR_DIODE2);	//Custom-Character 
    1d0c:	80 e5       	ldi	r24, 0x50	; 80
    1d0e:	0e 94 7e 00 	call	0xfc	; 0xfc <lcd_command>
  lcd_fix_customchar(DiodeIcon2);	//load Character  |<
    1d12:	85 eb       	ldi	r24, 0xB5	; 181
    1d14:	91 e0       	ldi	r25, 0x01	; 1
    1d16:	0e 94 e0 00 	call	0x1c0	; 0x1c0 <lcd_fix_customchar>
#ifdef C_MESS
  LCDLoadCustomChar(LCD_CHAR_CAP);	//Custom-Character  Capacitor symbol
    1d1a:	88 e5       	ldi	r24, 0x58	; 88
    1d1c:	0e 94 7e 00 	call	0xfc	; 0xfc <lcd_command>
  lcd_fix_customchar(CapIcon);		//load Character  ||
    1d20:	8d eb       	ldi	r24, 0xBD	; 189
    1d22:	91 e0       	ldi	r25, 0x01	; 1
    1d24:	0e 94 e0 00 	call	0x1c0	; 0x1c0 <lcd_fix_customchar>
#endif
#ifdef R_MESS
  LCDLoadCustomChar(LCD_CHAR_RESIS1);	//Custom-Character Resistor symbol
    1d28:	80 e7       	ldi	r24, 0x70	; 112
    1d2a:	0e 94 7e 00 	call	0xfc	; 0xfc <lcd_command>
  lcd_fix_customchar(ResIcon1);		//load Character  [
    1d2e:	85 ec       	ldi	r24, 0xC5	; 197
    1d30:	91 e0       	ldi	r25, 0x01	; 1
    1d32:	0e 94 e0 00 	call	0x1c0	; 0x1c0 <lcd_fix_customchar>
  LCDLoadCustomChar(LCD_CHAR_RESIS2);	//Custom-Character 
    1d36:	88 e7       	ldi	r24, 0x78	; 120
    1d38:	0e 94 7e 00 	call	0xfc	; 0xfc <lcd_command>
  lcd_fix_customchar(ResIcon2);		//load Character  ]
    1d3c:	8d ec       	ldi	r24, 0xCD	; 205
    1d3e:	91 e0       	ldi	r25, 0x01	; 1
    1d40:	0e 94 e0 00 	call	0x1c0	; 0x1c0 <lcd_fix_customchar>
#endif
#ifdef PULLUP_DISABLE
 #ifdef __AVR_ATmega8__
  SFIOR = (1<<PUD);		// disable Pull-Up Resistors mega8
 #else
  MCUCR = (1<<PUD);		// disable Pull-Up Resistors mega168 family
    1d44:	80 e1       	ldi	r24, 0x10	; 16
    1d46:	85 bf       	out	0x35, r24	; 53
 #endif
#endif

#if POWER_OFF+0 > 1
  // tester display time selection
  display_time = OFF_WAIT_TIME;		// LONG_WAIT_TIME for single mode, else SHORT_WAIT_TIME
    1d48:	88 eb       	ldi	r24, 0xB8	; 184
    1d4a:	9b e0       	ldi	r25, 0x0B	; 11
    1d4c:	90 93 05 01 	sts	0x0105, r25
    1d50:	80 93 04 01 	sts	0x0104, r24
  if (!(ON_PIN_REG & (1<<RST_PIN))) {
    1d54:	4f 99       	sbic	0x09, 7	; 9
    1d56:	0a c0       	rjmp	.+20     	; 0x1d6c <main+0xb6>
     // if power button is pressed ...
     wait300ms();			// wait to catch a long key press
    1d58:	0e 94 2b 13 	call	0x2656	; 0x2656 <wait300ms>
     if (!(ON_PIN_REG & (1<<RST_PIN))) {
    1d5c:	4f 99       	sbic	0x09, 7	; 9
    1d5e:	06 c0       	rjmp	.+12     	; 0x1d6c <main+0xb6>
        // check if power button is still pressed
        display_time = LONG_WAIT_TIME;	// ... set long time display anyway
    1d60:	80 e1       	ldi	r24, 0x10	; 16
    1d62:	97 e2       	ldi	r25, 0x27	; 39
    1d64:	90 93 05 01 	sts	0x0105, r25
    1d68:	80 93 04 01 	sts	0x0104, r24
  }
#else
  #define display_time OFF_WAIT_TIME
#endif

  empty_count = 0;
    1d6c:	10 92 35 01 	sts	0x0135, r1
  mess_count = 0;
    1d70:	10 92 0c 01 	sts	0x010C, r1
 #ifdef BAT_OUT
  // display Battery voltage
  // The divisor to get the voltage in 0.1V units is ((100*33)/133) witch is about 24.812
  // The result in integer is 24, which is about 3.3% to less.
  // A better result can be get with multiply by 5 and divide by 124 (about 0.05%).
  utoa((trans.hfe[0]*5)/124+((BAT_OUT+50)/100), outval, 10); // usually output only 2 digits
    1d74:	cd e0       	ldi	r28, 0x0D	; 13
    1d76:	d1 e0       	ldi	r29, 0x01	; 1


//*****************************************************************
//Entry: if start key is pressed before shut down
start:
  PartFound = PART_NONE;
    1d78:	10 92 09 01 	sts	0x0109, r1
  NumOfDiodes = 0;
    1d7c:	10 92 07 01 	sts	0x0107, r1
  PartReady = 0;
    1d80:	10 92 06 01 	sts	0x0106, r1
  PartMode = 0;
    1d84:	10 92 08 01 	sts	0x0108, r1
  lcd_clear();
    1d88:	0e 94 8a 00 	call	0x114	; 0x114 <lcd_clear>
  ADC_DDR = TXD_MSK;		//activate Software-UART 
    1d8c:	17 b8       	out	0x07, r1	; 7
#ifdef R_MESS
  ResistorsFound = 0;
    1d8e:	10 92 3f 01 	sts	0x013F, r1
#endif
#ifdef C_MESS
  ca = 0;
    1d92:	10 92 48 01 	sts	0x0148, r1
  cb = 0;
    1d96:	10 92 0a 01 	sts	0x010A, r1
#endif
#ifdef WITH_UART
  uart_newline();		// start of new measurement
#endif
  ref_mv = ReadADC(0x0e);      // read Reference-voltage 
    1d9a:	8e e0       	ldi	r24, 0x0E	; 14
    1d9c:	0e 94 51 13 	call	0x26a2	; 0x26a2 <ReadADC>
    1da0:	90 93 33 01 	sts	0x0133, r25
    1da4:	80 93 32 01 	sts	0x0132, r24
  ref_mv = W20msReadADC(0x0e);  // read Reference-voltage
    1da8:	8e e0       	ldi	r24, 0x0E	; 14
    1daa:	0e 94 4b 13 	call	0x2696	; 0x2696 <W20msReadADC>
    1dae:	90 93 33 01 	sts	0x0133, r25
    1db2:	80 93 32 01 	sts	0x0132, r24
  ref_mv += REF_R_KORR;		// correction for the resistor measurement 
#ifdef AUTOSCALE_ADC
  scale_intref_adc();	       // scale ADC to internal Reference
    1db6:	0e 94 37 01 	call	0x26e	; 0x26e <scale_intref_adc>
#endif

  ref_mv += (REF_C_KORR - REF_R_KORR);	// correction for the capacity measurement 
    1dba:	80 91 32 01 	lds	r24, 0x0132
    1dbe:	90 91 33 01 	lds	r25, 0x0133
    1dc2:	42 96       	adiw	r24, 0x12	; 18
    1dc4:	90 93 33 01 	sts	0x0133, r25
    1dc8:	80 93 32 01 	sts	0x0132, r24

#ifdef BAT_CHECK
  // Battery check is selected
  ReadADC(5);	//Dummy-Readout
    1dcc:	85 e0       	ldi	r24, 0x05	; 5
    1dce:	0e 94 51 13 	call	0x26a2	; 0x26a2 <ReadADC>
  trans.hfe[0] = W5msReadADC(5); 	//with 5V reference
    1dd2:	85 e0       	ldi	r24, 0x05	; 5
    1dd4:	0e 94 4f 13 	call	0x269e	; 0x269e <W5msReadADC>
    1dd8:	90 93 39 01 	sts	0x0139, r25
    1ddc:	80 93 38 01 	sts	0x0138, r24
  lcd_line1();	//1. row 
    1de0:	80 e8       	ldi	r24, 0x80	; 128
    1de2:	0e 94 7e 00 	call	0xfc	; 0xfc <lcd_command>
  lcd_fix_string(Bat);		//output: "Bat. "
    1de6:	83 ed       	ldi	r24, 0xD3	; 211
    1de8:	90 e0       	ldi	r25, 0x00	; 0
    1dea:	0e 94 cf 00 	call	0x19e	; 0x19e <lcd_fix_string>
 #ifdef BAT_OUT
  // display Battery voltage
  // The divisor to get the voltage in 0.1V units is ((100*33)/133) witch is about 24.812
  // The result in integer is 24, which is about 3.3% to less.
  // A better result can be get with multiply by 5 and divide by 124 (about 0.05%).
  utoa((trans.hfe[0]*5)/124+((BAT_OUT+50)/100), outval, 10); // usually output only 2 digits
    1dee:	20 91 38 01 	lds	r18, 0x0138
    1df2:	30 91 39 01 	lds	r19, 0x0139
    1df6:	c9 01       	movw	r24, r18
    1df8:	88 0f       	add	r24, r24
    1dfa:	99 1f       	adc	r25, r25
    1dfc:	88 0f       	add	r24, r24
    1dfe:	99 1f       	adc	r25, r25
    1e00:	82 0f       	add	r24, r18
    1e02:	93 1f       	adc	r25, r19
    1e04:	6c e7       	ldi	r22, 0x7C	; 124
    1e06:	70 e0       	ldi	r23, 0x00	; 0
    1e08:	0e 94 cd 13 	call	0x279a	; 0x279a <__udivmodhi4>
    1e0c:	cb 01       	movw	r24, r22
    1e0e:	02 96       	adiw	r24, 0x02	; 2
    1e10:	6d e0       	ldi	r22, 0x0D	; 13
    1e12:	71 e0       	ldi	r23, 0x01	; 1
    1e14:	4a e0       	ldi	r20, 0x0A	; 10
    1e16:	50 e0       	ldi	r21, 0x00	; 0
    1e18:	0e 94 03 14 	call	0x2806	; 0x2806 <utoa>
  lcd_data(outval[0]);
    1e1c:	80 91 0d 01 	lds	r24, 0x010D
    1e20:	0e 94 82 00 	call	0x104	; 0x104 <lcd_data>
  if (strlen(outval) == 3) {
    1e24:	fe 01       	movw	r30, r28
    1e26:	01 90       	ld	r0, Z+
    1e28:	00 20       	and	r0, r0
    1e2a:	e9 f7       	brne	.-6      	; 0x1e26 <main+0x170>
    1e2c:	21 e0       	ldi	r18, 0x01	; 1
    1e2e:	e1 31       	cpi	r30, 0x11	; 17
    1e30:	f2 07       	cpc	r31, r18
    1e32:	51 f4       	brne	.+20     	; 0x1e48 <main+0x192>
     lcd_data(outval[1]);	// above 9,9V, 3 digits
    1e34:	80 91 0e 01 	lds	r24, 0x010E
    1e38:	0e 94 82 00 	call	0x104	; 0x104 <lcd_data>
     lcd_data('.');
    1e3c:	8e e2       	ldi	r24, 0x2E	; 46
    1e3e:	0e 94 82 00 	call	0x104	; 0x104 <lcd_data>
     lcd_data(outval[2]);
    1e42:	80 91 0f 01 	lds	r24, 0x010F
    1e46:	05 c0       	rjmp	.+10     	; 0x1e52 <main+0x19c>
  } else {
     lcd_data('.');
    1e48:	8e e2       	ldi	r24, 0x2E	; 46
    1e4a:	0e 94 82 00 	call	0x104	; 0x104 <lcd_data>
     lcd_data(outval[1]);
    1e4e:	80 91 0e 01 	lds	r24, 0x010E
    1e52:	0e 94 82 00 	call	0x104	; 0x104 <lcd_data>
  }
  lcd_data('V');
    1e56:	86 e5       	ldi	r24, 0x56	; 86
    1e58:	0e 94 82 00 	call	0x104	; 0x104 <lcd_data>
  lcd_data(' ');
    1e5c:	80 e2       	ldi	r24, 0x20	; 32
    1e5e:	0e 94 82 00 	call	0x104	; 0x104 <lcd_data>
 #warning "Battery POOR level is set for 7805 regulator"
 #define WARN_LEVEL (((unsigned long)7300*(unsigned long)33)/133)
 #define POOR_LEVEL (((unsigned long)6300*(unsigned long)33)/133)
 #endif
  // check the battery voltage
  if (trans.hfe[0] <  WARN_LEVEL) {
    1e62:	80 91 38 01 	lds	r24, 0x0138
    1e66:	90 91 39 01 	lds	r25, 0x0139
    1e6a:	27 e0       	ldi	r18, 0x07	; 7
    1e6c:	8c 32       	cpi	r24, 0x2C	; 44
    1e6e:	92 07       	cpc	r25, r18
    1e70:	a0 f4       	brcc	.+40     	; 0x1e9a <main+0x1e4>
     //Vcc < 7,3V; show Warning 
     if(trans.hfe[0] < POOR_LEVEL) {	
    1e72:	26 e0       	ldi	r18, 0x06	; 6
    1e74:	83 33       	cpi	r24, 0x33	; 51
    1e76:	92 07       	cpc	r25, r18
    1e78:	68 f4       	brcc	.+26     	; 0x1e94 <main+0x1de>
        //Vcc <6,3V; no proper operation is possible
        lcd_fix_string(BatEmpty);	//Battery empty!
    1e7a:	8c e7       	ldi	r24, 0x7C	; 124
    1e7c:	90 e0       	ldi	r25, 0x00	; 0
    1e7e:	0e 94 cf 00 	call	0x19e	; 0x19e <lcd_fix_string>
        wait2s();
    1e82:	0e 94 27 13 	call	0x264e	; 0x264e <wait2s>
        PORTD = 0;			//switch power off
    1e86:	1b b8       	out	0x0b, r1	; 11
  }
#else
  goto start;	// POWER_OFF not selected, repeat measurement
#endif
  return 0;
}   // end main
    1e88:	80 e0       	ldi	r24, 0x00	; 0
    1e8a:	90 e0       	ldi	r25, 0x00	; 0
    1e8c:	df 91       	pop	r29
    1e8e:	cf 91       	pop	r28
    1e90:	1f 91       	pop	r17
    1e92:	08 95       	ret
        lcd_fix_string(BatEmpty);	//Battery empty!
        wait2s();
        PORTD = 0;			//switch power off
        return 0;
     }
     lcd_fix_string(BatWeak);		//Battery weak
    1e94:	87 e7       	ldi	r24, 0x77	; 119
    1e96:	90 e0       	ldi	r25, 0x00	; 0
    1e98:	02 c0       	rjmp	.+4      	; 0x1e9e <main+0x1e8>
  } else { // Battery-voltage OK
     lcd_fix_string(OK); 		// "OK"
    1e9a:	89 ed       	ldi	r24, 0xD9	; 217
    1e9c:	90 e0       	ldi	r25, 0x00	; 0
    1e9e:	0e 94 cf 00 	call	0x19e	; 0x19e <lcd_fix_string>
  }
#else
  lcd_fix_string(VERSION);		// if no Battery check, Version .. in row 1
#endif
#ifdef WDT_enabled
  wdt_enable(WDTO_2S);		//Watchdog on
    1ea2:	2f e0       	ldi	r18, 0x0F	; 15
    1ea4:	88 e1       	ldi	r24, 0x18	; 24
    1ea6:	90 e0       	ldi	r25, 0x00	; 0
    1ea8:	0f b6       	in	r0, 0x3f	; 63
    1eaa:	f8 94       	cli
    1eac:	a8 95       	wdr
    1eae:	80 93 60 00 	sts	0x0060, r24
    1eb2:	0f be       	out	0x3f, r0	; 63
    1eb4:	20 93 60 00 	sts	0x0060, r18
#endif

//  wait1s();			// add mor time for reading batterie voltage
  // begin tests
#ifdef WITH_AUTO_REF
  RefVoltage();			//compute RHmultip = f(reference voltage)
    1eb8:	0e 94 0d 0a 	call	0x141a	; 0x141a <RefVoltage>
#endif
  lcd_line2();			//LCD position row2, column 1
    1ebc:	80 ec       	ldi	r24, 0xC0	; 192
    1ebe:	0e 94 7e 00 	call	0xfc	; 0xfc <lcd_command>
  lcd_fix_string(TestRunning);		//String: testing...
    1ec2:	8c e6       	ldi	r24, 0x6C	; 108
    1ec4:	90 e0       	ldi	r25, 0x00	; 0
    1ec6:	0e 94 cf 00 	call	0x19e	; 0x19e <lcd_fix_string>
  lcd_string(itoa((int)(trans.hfe[0] - 289), outval, 10));	//output temperature
  lcd_data(LCD_CHAR_DEGREE);
  lcd_data('C');
#endif
#ifndef DebugOut
  lcd_line2();			//LCD position row 2, column 1
    1eca:	80 ec       	ldi	r24, 0xC0	; 192
    1ecc:	0e 94 7e 00 	call	0xfc	; 0xfc <lcd_command>
#endif
#ifdef C_MESS
  #define AUSGABE_FUNKTION
  EntladePins();		// discharge all capacitors!
    1ed0:	0e 94 2f 07 	call	0xe5e	; 0xe5e <EntladePins>
  if(PartFound == PART_CELL) {
    1ed4:	80 91 09 01 	lds	r24, 0x0109
    1ed8:	88 30       	cpi	r24, 0x08	; 8
    1eda:	a9 f4       	brne	.+42     	; 0x1f06 <main+0x250>
    lcd_clear();
    1edc:	0e 94 8a 00 	call	0x114	; 0x114 <lcd_clear>
    lcd_line1();
    1ee0:	80 e8       	ldi	r24, 0x80	; 128
    1ee2:	0e 94 7e 00 	call	0xfc	; 0xfc <lcd_command>
    lcd_data('C');
    1ee6:	83 e4       	ldi	r24, 0x43	; 67
    1ee8:	0e 94 82 00 	call	0x104	; 0x104 <lcd_data>
    lcd_data('e');
    1eec:	85 e6       	ldi	r24, 0x65	; 101
    1eee:	0e 94 82 00 	call	0x104	; 0x104 <lcd_data>
    lcd_data('l');
    1ef2:	8c e6       	ldi	r24, 0x6C	; 108
    1ef4:	0e 94 82 00 	call	0x104	; 0x104 <lcd_data>
    lcd_data('l');
    1ef8:	8c e6       	ldi	r24, 0x6C	; 108
    1efa:	0e 94 82 00 	call	0x104	; 0x104 <lcd_data>
    lcd_data('!');
    1efe:	81 e2       	ldi	r24, 0x21	; 33
    1f00:	0e 94 82 00 	call	0x104	; 0x104 <lcd_data>
    goto end2;
    1f04:	69 c3       	rjmp	.+1746   	; 0x25d8 <main+0x922>
  }
#endif
#ifdef WITH_SELFTEST
  AutoCheck();			//check, if selftest should be done
    1f06:	0e 94 3d 0b 	call	0x167a	; 0x167a <AutoCheck>
#endif
     
  // check all 6 combinations for the 3 pins 
  CheckPins(TP1, TP2, TP3);
    1f0a:	80 e0       	ldi	r24, 0x00	; 0
    1f0c:	61 e0       	ldi	r22, 0x01	; 1
    1f0e:	42 e0       	ldi	r20, 0x02	; 2
    1f10:	0e 94 9a 01 	call	0x334	; 0x334 <CheckPins>
  CheckPins(TP1, TP3, TP2);
    1f14:	80 e0       	ldi	r24, 0x00	; 0
    1f16:	62 e0       	ldi	r22, 0x02	; 2
    1f18:	41 e0       	ldi	r20, 0x01	; 1
    1f1a:	0e 94 9a 01 	call	0x334	; 0x334 <CheckPins>
  CheckPins(TP2, TP1, TP3);
    1f1e:	81 e0       	ldi	r24, 0x01	; 1
    1f20:	60 e0       	ldi	r22, 0x00	; 0
    1f22:	42 e0       	ldi	r20, 0x02	; 2
    1f24:	0e 94 9a 01 	call	0x334	; 0x334 <CheckPins>
  CheckPins(TP2, TP3, TP1);
    1f28:	81 e0       	ldi	r24, 0x01	; 1
    1f2a:	62 e0       	ldi	r22, 0x02	; 2
    1f2c:	40 e0       	ldi	r20, 0x00	; 0
    1f2e:	0e 94 9a 01 	call	0x334	; 0x334 <CheckPins>
  CheckPins(TP3, TP2, TP1);
    1f32:	82 e0       	ldi	r24, 0x02	; 2
    1f34:	61 e0       	ldi	r22, 0x01	; 1
    1f36:	40 e0       	ldi	r20, 0x00	; 0
    1f38:	0e 94 9a 01 	call	0x334	; 0x334 <CheckPins>
  CheckPins(TP3, TP1, TP2);
    1f3c:	82 e0       	ldi	r24, 0x02	; 2
    1f3e:	60 e0       	ldi	r22, 0x00	; 0
    1f40:	41 e0       	ldi	r20, 0x01	; 1
    1f42:	0e 94 9a 01 	call	0x334	; 0x334 <CheckPins>
  
#ifdef C_MESS
  //separate check if is is a capacitor
  if(((PartFound == PART_NONE) || (PartFound == PART_RESISTOR) || (PartFound == PART_DIODE)) ) {
    1f46:	80 91 09 01 	lds	r24, 0x0109
    1f4a:	88 23       	and	r24, r24
    1f4c:	21 f0       	breq	.+8      	; 0x1f56 <main+0x2a0>
    1f4e:	86 30       	cpi	r24, 0x06	; 6
    1f50:	11 f0       	breq	.+4      	; 0x1f56 <main+0x2a0>
    1f52:	81 30       	cpi	r24, 0x01	; 1
    1f54:	71 f4       	brne	.+28     	; 0x1f72 <main+0x2bc>
     EntladePins();		// discharge capacities
    1f56:	0e 94 2f 07 	call	0xe5e	; 0xe5e <EntladePins>
     //measurement of capacities in all 3 combinations
     ReadCapacity(TP3, TP1);
    1f5a:	82 e0       	ldi	r24, 0x02	; 2
    1f5c:	60 e0       	ldi	r22, 0x00	; 0
    1f5e:	0e 94 0a 08 	call	0x1014	; 0x1014 <ReadCapacity>
     ReadCapacity(TP3, TP2);
    1f62:	82 e0       	ldi	r24, 0x02	; 2
    1f64:	61 e0       	ldi	r22, 0x01	; 1
    1f66:	0e 94 0a 08 	call	0x1014	; 0x1014 <ReadCapacity>
     ReadCapacity(TP2, TP1);
    1f6a:	81 e0       	ldi	r24, 0x01	; 1
    1f6c:	60 e0       	ldi	r22, 0x00	; 0
    1f6e:	0e 94 0a 08 	call	0x1014	; 0x1014 <ReadCapacity>
  }
#endif
  //All checks are done, output result to display
  lcd_clear();
    1f72:	0e 94 8a 00 	call	0x114	; 0x114 <lcd_clear>
  lcd_line1();
    1f76:	80 e8       	ldi	r24, 0x80	; 128
    1f78:	0e 94 7e 00 	call	0xfc	; 0xfc <lcd_command>
  if(PartFound == PART_DIODE) {
    1f7c:	80 91 09 01 	lds	r24, 0x0109
    1f80:	81 30       	cpi	r24, 0x01	; 1
    1f82:	09 f0       	breq	.+2      	; 0x1f86 <main+0x2d0>
    1f84:	f4 c0       	rjmp	.+488    	; 0x216e <main+0x4b8>
     if(NumOfDiodes == 1) {		//single Diode
    1f86:	90 91 07 01 	lds	r25, 0x0107
    1f8a:	91 30       	cpi	r25, 0x01	; 1
    1f8c:	f1 f4       	brne	.+60     	; 0x1fca <main+0x314>
        lcd_fix_string(Diode);		//"Diode: "
    1f8e:	81 e9       	ldi	r24, 0x91	; 145
    1f90:	90 e0       	ldi	r25, 0x00	; 0
    1f92:	0e 94 cf 00 	call	0x19e	; 0x19e <lcd_fix_string>
        lcd_testpin(diodes[0].Anode);
    1f96:	80 91 49 01 	lds	r24, 0x0149
    1f9a:	0e 94 86 00 	call	0x10c	; 0x10c <lcd_testpin>
        lcd_fix_string(AnKat);		//"->|-"
    1f9e:	8e e0       	ldi	r24, 0x0E	; 14
    1fa0:	91 e0       	ldi	r25, 0x01	; 1
    1fa2:	0e 94 cf 00 	call	0x19e	; 0x19e <lcd_fix_string>
        lcd_testpin(diodes[0].Cathode);
    1fa6:	80 91 4a 01 	lds	r24, 0x014A
    1faa:	0e 94 86 00 	call	0x10c	; 0x10c <lcd_testpin>
        UfAusgabe(0x70);
    1fae:	80 e7       	ldi	r24, 0x70	; 112
    1fb0:	0e 94 23 01 	call	0x246	; 0x246 <UfAusgabe>
#ifdef C_MESS
        lcd_fix_string(GateCap);		//"C="
    1fb4:	87 ee       	ldi	r24, 0xE7	; 231
    1fb6:	90 e0       	ldi	r25, 0x00	; 0
    1fb8:	0e 94 cf 00 	call	0x19e	; 0x19e <lcd_fix_string>
        ReadCapacity(diodes[0].Cathode,diodes[0].Anode);	// Capacity opposite flow direction
    1fbc:	80 91 4a 01 	lds	r24, 0x014A
    1fc0:	60 91 49 01 	lds	r22, 0x0149
    1fc4:	0e 94 0a 08 	call	0x1014	; 0x1014 <ReadCapacity>
    1fc8:	cb c2       	rjmp	.+1430   	; 0x2560 <main+0x8aa>
        lcd_show_format_cap();
#endif
        goto end;
     } else if(NumOfDiodes == 2) { // double diode
    1fca:	92 30       	cpi	r25, 0x02	; 2
    1fcc:	09 f0       	breq	.+2      	; 0x1fd0 <main+0x31a>
    1fce:	4c c0       	rjmp	.+152    	; 0x2068 <main+0x3b2>
        lcd_data('2');
    1fd0:	82 e3       	ldi	r24, 0x32	; 50
    1fd2:	0e 94 82 00 	call	0x104	; 0x104 <lcd_data>
        lcd_fix_string(Dioden);		//"diodes "
    1fd6:	86 e1       	ldi	r24, 0x16	; 22
    1fd8:	91 e0       	ldi	r25, 0x01	; 1
    1fda:	0e 94 cf 00 	call	0x19e	; 0x19e <lcd_fix_string>
        if(diodes[0].Anode == diodes[1].Anode) { //Common Anode
    1fde:	90 91 49 01 	lds	r25, 0x0149
    1fe2:	20 91 4d 01 	lds	r18, 0x014D
    1fe6:	92 17       	cp	r25, r18
    1fe8:	59 f4       	brne	.+22     	; 0x2000 <main+0x34a>
           lcd_testpin(diodes[0].Cathode);
    1fea:	80 91 4a 01 	lds	r24, 0x014A
    1fee:	0e 94 86 00 	call	0x10c	; 0x10c <lcd_testpin>
           lcd_fix_string(KatAn);	//"-|<-"
    1ff2:	82 e1       	ldi	r24, 0x12	; 18
    1ff4:	91 e0       	ldi	r25, 0x01	; 1
    1ff6:	0e 94 cf 00 	call	0x19e	; 0x19e <lcd_fix_string>
           lcd_testpin(diodes[0].Anode);
    1ffa:	80 91 49 01 	lds	r24, 0x0149
    1ffe:	2b c0       	rjmp	.+86     	; 0x2056 <main+0x3a0>
           lcd_fix_string(AnKat);	//"->|-"
           lcd_testpin(diodes[1].Cathode);
           UfAusgabe(0x01);
           goto end;
        } else if(diodes[0].Cathode == diodes[1].Cathode) { //Common Cathode
    2000:	30 91 4a 01 	lds	r19, 0x014A
    2004:	80 91 4e 01 	lds	r24, 0x014E
    2008:	38 17       	cp	r19, r24
    200a:	b9 f4       	brne	.+46     	; 0x203a <main+0x384>
           lcd_testpin(diodes[0].Anode);
    200c:	89 2f       	mov	r24, r25
    200e:	0e 94 86 00 	call	0x10c	; 0x10c <lcd_testpin>
           lcd_fix_string(AnKat);	//"->|-"
    2012:	8e e0       	ldi	r24, 0x0E	; 14
    2014:	91 e0       	ldi	r25, 0x01	; 1
    2016:	0e 94 cf 00 	call	0x19e	; 0x19e <lcd_fix_string>
	   lcd_testpin(diodes[0].Cathode);
    201a:	80 91 4a 01 	lds	r24, 0x014A
    201e:	0e 94 86 00 	call	0x10c	; 0x10c <lcd_testpin>
           lcd_fix_string(KatAn);	//"-|<-"
    2022:	82 e1       	ldi	r24, 0x12	; 18
    2024:	91 e0       	ldi	r25, 0x01	; 1
    2026:	0e 94 cf 00 	call	0x19e	; 0x19e <lcd_fix_string>
           lcd_testpin(diodes[1].Anode);
    202a:	80 91 4d 01 	lds	r24, 0x014D
    202e:	0e 94 86 00 	call	0x10c	; 0x10c <lcd_testpin>
           UfAusgabe(0x01);
    2032:	81 e0       	ldi	r24, 0x01	; 1
    2034:	0e 94 23 01 	call	0x246	; 0x246 <UfAusgabe>
           goto end;
    2038:	c8 c2       	rjmp	.+1424   	; 0x25ca <main+0x914>
          }
        else if ((diodes[0].Cathode == diodes[1].Anode) && (diodes[1].Cathode == diodes[0].Anode)) {
    203a:	32 17       	cp	r19, r18
    203c:	09 f0       	breq	.+2      	; 0x2040 <main+0x38a>
    203e:	93 c2       	rjmp	.+1318   	; 0x2566 <main+0x8b0>
    2040:	89 17       	cp	r24, r25
    2042:	09 f0       	breq	.+2      	; 0x2046 <main+0x390>
    2044:	90 c2       	rjmp	.+1312   	; 0x2566 <main+0x8b0>
           //Antiparallel
           lcd_testpin(diodes[0].Anode);
    2046:	0e 94 86 00 	call	0x10c	; 0x10c <lcd_testpin>
           lcd_fix_string(AnKat);	//"->|-"
    204a:	8e e0       	ldi	r24, 0x0E	; 14
    204c:	91 e0       	ldi	r25, 0x01	; 1
    204e:	0e 94 cf 00 	call	0x19e	; 0x19e <lcd_fix_string>
           lcd_testpin(diodes[0].Cathode);
    2052:	80 91 4a 01 	lds	r24, 0x014A
    2056:	0e 94 86 00 	call	0x10c	; 0x10c <lcd_testpin>
           lcd_fix_string(AnKat);	//"->|-"
    205a:	8e e0       	ldi	r24, 0x0E	; 14
    205c:	91 e0       	ldi	r25, 0x01	; 1
    205e:	0e 94 cf 00 	call	0x19e	; 0x19e <lcd_fix_string>
           lcd_testpin(diodes[1].Cathode);
    2062:	80 91 4e 01 	lds	r24, 0x014E
    2066:	e3 cf       	rjmp	.-58     	; 0x202e <main+0x378>
           UfAusgabe(0x01);
           goto end;
        }
     } else if(NumOfDiodes == 3) {
    2068:	93 30       	cpi	r25, 0x03	; 3
    206a:	09 f0       	breq	.+2      	; 0x206e <main+0x3b8>
    206c:	7c c2       	rjmp	.+1272   	; 0x2566 <main+0x8b0>
        //Serial of 2 Diodes; was detected as 3 Diodes 
        trans.b = 3;
    206e:	90 93 3c 01 	sts	0x013C, r25
        trans.c = 3;
    2072:	90 93 3d 01 	sts	0x013D, r25
        /* Check for any constallation of 2 serial diodes:
          Only once the pin No of anyone Cathode is identical of another anode.
          two diodes in series is additionally detected as third big diode.
        */
        if(diodes[0].Cathode == diodes[1].Anode)
    2076:	50 91 4a 01 	lds	r21, 0x014A
    207a:	90 91 4d 01 	lds	r25, 0x014D
    207e:	59 17       	cp	r21, r25
    2080:	21 f4       	brne	.+8      	; 0x208a <main+0x3d4>
          {
           trans.b = 0;
    2082:	10 92 3c 01 	sts	0x013C, r1
           trans.c = 1;
    2086:	80 93 3d 01 	sts	0x013D, r24
          }
        if(diodes[0].Anode == diodes[1].Cathode)
    208a:	40 91 49 01 	lds	r20, 0x0149
    208e:	30 91 4e 01 	lds	r19, 0x014E
    2092:	43 17       	cp	r20, r19
    2094:	29 f4       	brne	.+10     	; 0x20a0 <main+0x3ea>
          {
           trans.b = 1;
    2096:	81 e0       	ldi	r24, 0x01	; 1
    2098:	80 93 3c 01 	sts	0x013C, r24
           trans.c = 0;
    209c:	10 92 3d 01 	sts	0x013D, r1
          }
        if(diodes[0].Cathode == diodes[2].Anode)
    20a0:	20 91 51 01 	lds	r18, 0x0151
    20a4:	52 17       	cp	r21, r18
    20a6:	29 f4       	brne	.+10     	; 0x20b2 <main+0x3fc>
          {
           trans.b = 0;
    20a8:	10 92 3c 01 	sts	0x013C, r1
           trans.c = 2;
    20ac:	82 e0       	ldi	r24, 0x02	; 2
    20ae:	80 93 3d 01 	sts	0x013D, r24
          }
        if(diodes[0].Anode == diodes[2].Cathode)
    20b2:	80 91 52 01 	lds	r24, 0x0152
    20b6:	48 17       	cp	r20, r24
    20b8:	29 f4       	brne	.+10     	; 0x20c4 <main+0x40e>
          {
           trans.b = 2;
    20ba:	42 e0       	ldi	r20, 0x02	; 2
    20bc:	40 93 3c 01 	sts	0x013C, r20
           trans.c = 0;
    20c0:	10 92 3d 01 	sts	0x013D, r1
          }
        if(diodes[1].Cathode == diodes[2].Anode)
    20c4:	32 17       	cp	r19, r18
    20c6:	31 f4       	brne	.+12     	; 0x20d4 <main+0x41e>
          {
           trans.b = 1;
    20c8:	21 e0       	ldi	r18, 0x01	; 1
    20ca:	20 93 3c 01 	sts	0x013C, r18
           trans.c = 2;
    20ce:	22 e0       	ldi	r18, 0x02	; 2
    20d0:	20 93 3d 01 	sts	0x013D, r18
          }
        if(diodes[1].Anode == diodes[2].Cathode)
    20d4:	98 17       	cp	r25, r24
    20d6:	31 f4       	brne	.+12     	; 0x20e4 <main+0x42e>
          {
           trans.b = 2;
    20d8:	82 e0       	ldi	r24, 0x02	; 2
    20da:	80 93 3c 01 	sts	0x013C, r24
           trans.c = 1;
    20de:	81 e0       	ldi	r24, 0x01	; 1
    20e0:	80 93 3d 01 	sts	0x013D, r24
        lcd_testpin(diodes[2].Cathode);
        lcd_data(' ');
        lcd_string(utoa(diodes[2].Voltage, outval, 10));
        lcd_line1();
#endif
        if((trans.b<3) && (trans.c<3)) {
    20e4:	80 91 3c 01 	lds	r24, 0x013C
    20e8:	83 30       	cpi	r24, 0x03	; 3
    20ea:	08 f0       	brcs	.+2      	; 0x20ee <main+0x438>
    20ec:	3c c2       	rjmp	.+1144   	; 0x2566 <main+0x8b0>
    20ee:	80 91 3d 01 	lds	r24, 0x013D
    20f2:	83 30       	cpi	r24, 0x03	; 3
    20f4:	08 f0       	brcs	.+2      	; 0x20f8 <main+0x442>
    20f6:	37 c2       	rjmp	.+1134   	; 0x2566 <main+0x8b0>
           lcd_data('3');
    20f8:	83 e3       	ldi	r24, 0x33	; 51
    20fa:	0e 94 82 00 	call	0x104	; 0x104 <lcd_data>
           lcd_fix_string(Dioden);	//"Diodes "
    20fe:	86 e1       	ldi	r24, 0x16	; 22
    2100:	91 e0       	ldi	r25, 0x01	; 1
    2102:	0e 94 cf 00 	call	0x19e	; 0x19e <lcd_fix_string>
           lcd_testpin(diodes[trans.b].Anode);
    2106:	e0 91 3c 01 	lds	r30, 0x013C
    210a:	f0 e0       	ldi	r31, 0x00	; 0
    210c:	ee 0f       	add	r30, r30
    210e:	ff 1f       	adc	r31, r31
    2110:	ee 0f       	add	r30, r30
    2112:	ff 1f       	adc	r31, r31
    2114:	e7 5b       	subi	r30, 0xB7	; 183
    2116:	fe 4f       	sbci	r31, 0xFE	; 254
    2118:	80 81       	ld	r24, Z
    211a:	0e 94 86 00 	call	0x10c	; 0x10c <lcd_testpin>
           lcd_fix_string(AnKat);	//"->|-"
    211e:	8e e0       	ldi	r24, 0x0E	; 14
    2120:	91 e0       	ldi	r25, 0x01	; 1
    2122:	0e 94 cf 00 	call	0x19e	; 0x19e <lcd_fix_string>
           lcd_testpin(diodes[trans.b].Cathode);
    2126:	e0 91 3c 01 	lds	r30, 0x013C
    212a:	f0 e0       	ldi	r31, 0x00	; 0
    212c:	ee 0f       	add	r30, r30
    212e:	ff 1f       	adc	r31, r31
    2130:	ee 0f       	add	r30, r30
    2132:	ff 1f       	adc	r31, r31
    2134:	e7 5b       	subi	r30, 0xB7	; 183
    2136:	fe 4f       	sbci	r31, 0xFE	; 254
    2138:	81 81       	ldd	r24, Z+1	; 0x01
    213a:	0e 94 86 00 	call	0x10c	; 0x10c <lcd_testpin>
           lcd_fix_string(AnKat);	//"->|-"
    213e:	8e e0       	ldi	r24, 0x0E	; 14
    2140:	91 e0       	ldi	r25, 0x01	; 1
    2142:	0e 94 cf 00 	call	0x19e	; 0x19e <lcd_fix_string>
           lcd_testpin(diodes[trans.c].Cathode);
    2146:	e0 91 3d 01 	lds	r30, 0x013D
    214a:	f0 e0       	ldi	r31, 0x00	; 0
    214c:	ee 0f       	add	r30, r30
    214e:	ff 1f       	adc	r31, r31
    2150:	ee 0f       	add	r30, r30
    2152:	ff 1f       	adc	r31, r31
    2154:	e7 5b       	subi	r30, 0xB7	; 183
    2156:	fe 4f       	sbci	r31, 0xFE	; 254
    2158:	81 81       	ldd	r24, Z+1	; 0x01
    215a:	0e 94 86 00 	call	0x10c	; 0x10c <lcd_testpin>
           UfAusgabe( (trans.b<<4)|trans.c);
    215e:	80 91 3c 01 	lds	r24, 0x013C
    2162:	82 95       	swap	r24
    2164:	80 7f       	andi	r24, 0xF0	; 240
    2166:	90 91 3d 01 	lds	r25, 0x013D
    216a:	89 2b       	or	r24, r25
    216c:	63 cf       	rjmp	.-314    	; 0x2034 <main+0x37e>
           goto end;
        }
     }
     // end (PartFound == PART_DIODE)
  } else if (PartFound == PART_TRANSISTOR) {
    216e:	82 30       	cpi	r24, 0x02	; 2
    2170:	09 f0       	breq	.+2      	; 0x2174 <main+0x4be>
    2172:	9d c0       	rjmp	.+314    	; 0x22ae <main+0x5f8>
    if(PartReady == 0) {
    2174:	80 91 06 01 	lds	r24, 0x0106
    2178:	88 23       	and	r24, r24
    217a:	41 f4       	brne	.+16     	; 0x218c <main+0x4d6>
       //if never a second test is done, (Transistor with protection diode)
       trans.hfe[1] = trans.hfe[0];
    217c:	80 91 38 01 	lds	r24, 0x0138
    2180:	90 91 39 01 	lds	r25, 0x0139
    2184:	90 93 3b 01 	sts	0x013B, r25
    2188:	80 93 3a 01 	sts	0x013A, r24
    }
    if((trans.hfe[0]>trans.hfe[1])) {
    218c:	80 91 38 01 	lds	r24, 0x0138
    2190:	90 91 39 01 	lds	r25, 0x0139
    2194:	20 91 3a 01 	lds	r18, 0x013A
    2198:	30 91 3b 01 	lds	r19, 0x013B
    219c:	28 17       	cp	r18, r24
    219e:	39 07       	cpc	r19, r25
    21a0:	60 f4       	brcc	.+24     	; 0x21ba <main+0x504>
       //if the amplification factor was higher at first testr: swap C and E !
       trans.hfe[1] = trans.hfe[0];
    21a2:	90 93 3b 01 	sts	0x013B, r25
    21a6:	80 93 3a 01 	sts	0x013A, r24
       tmp = trans.c;
    21aa:	80 91 3d 01 	lds	r24, 0x013D
       trans.c = trans.e;
    21ae:	90 91 3e 01 	lds	r25, 0x013E
    21b2:	90 93 3d 01 	sts	0x013D, r25
       trans.e = tmp;
    21b6:	80 93 3e 01 	sts	0x013E, r24
    }

    if(PartMode == PART_MODE_NPN) {
    21ba:	80 91 08 01 	lds	r24, 0x0108
    21be:	81 30       	cpi	r24, 0x01	; 1
    21c0:	19 f4       	brne	.+6      	; 0x21c8 <main+0x512>
       lcd_fix_string(NPN);		//"NPN "
    21c2:	8d ee       	ldi	r24, 0xED	; 237
    21c4:	90 e0       	ldi	r25, 0x00	; 0
    21c6:	02 c0       	rjmp	.+4      	; 0x21cc <main+0x516>
    } else {
       lcd_fix_string(PNP);		//"PNP "
    21c8:	82 ef       	ldi	r24, 0xF2	; 242
    21ca:	90 e0       	ldi	r25, 0x00	; 0
    21cc:	0e 94 cf 00 	call	0x19e	; 0x19e <lcd_fix_string>
    }
    if(NumOfDiodes > 2) {	//Transistor with protection diode
    21d0:	80 91 07 01 	lds	r24, 0x0107
    21d4:	83 30       	cpi	r24, 0x03	; 3
    21d6:	58 f0       	brcs	.+22     	; 0x21ee <main+0x538>
       if(PartMode == PART_MODE_NPN) {
    21d8:	80 91 08 01 	lds	r24, 0x0108
    21dc:	81 30       	cpi	r24, 0x01	; 1
    21de:	19 f4       	brne	.+6      	; 0x21e6 <main+0x530>
          lcd_fix_string(AnKat);	//"->|-"
    21e0:	8e e0       	ldi	r24, 0x0E	; 14
    21e2:	91 e0       	ldi	r25, 0x01	; 1
    21e4:	02 c0       	rjmp	.+4      	; 0x21ea <main+0x534>
       } else {
          lcd_fix_string(KatAn);	//"-|<-"
    21e6:	82 e1       	ldi	r24, 0x12	; 18
    21e8:	91 e0       	ldi	r25, 0x01	; 1
    21ea:	0e 94 cf 00 	call	0x19e	; 0x19e <lcd_fix_string>
       }
    }
    lcd_fix_string(ebcstr);		//" EBC="
    21ee:	87 ef       	ldi	r24, 0xF7	; 247
    21f0:	90 e0       	ldi	r25, 0x00	; 0
    21f2:	0e 94 cf 00 	call	0x19e	; 0x19e <lcd_fix_string>
    lcd_testpin(trans.e);
    21f6:	80 91 3e 01 	lds	r24, 0x013E
    21fa:	0e 94 86 00 	call	0x10c	; 0x10c <lcd_testpin>
    lcd_testpin(trans.b);
    21fe:	80 91 3c 01 	lds	r24, 0x013C
    2202:	0e 94 86 00 	call	0x10c	; 0x10c <lcd_testpin>
    lcd_testpin(trans.c);
    2206:	80 91 3d 01 	lds	r24, 0x013D
    220a:	0e 94 86 00 	call	0x10c	; 0x10c <lcd_testpin>
    lcd_line2(); //2. row 
    220e:	80 ec       	ldi	r24, 0xC0	; 192
    2210:	0e 94 7e 00 	call	0xfc	; 0xfc <lcd_command>
    lcd_fix_string(hfestr);		//"B="  (hFE)
    2214:	8a ee       	ldi	r24, 0xEA	; 234
    2216:	90 e0       	ldi	r25, 0x00	; 0
    2218:	0e 94 cf 00 	call	0x19e	; 0x19e <lcd_fix_string>
    lcd_string(utoa(trans.hfe[1], outval, 10));
    221c:	80 91 3a 01 	lds	r24, 0x013A
    2220:	90 91 3b 01 	lds	r25, 0x013B
    2224:	6d e0       	ldi	r22, 0x0D	; 13
    2226:	71 e0       	ldi	r23, 0x01	; 1
    2228:	4a e0       	ldi	r20, 0x0A	; 10
    222a:	50 e0       	ldi	r21, 0x00	; 0
    222c:	0e 94 03 14 	call	0x2806	; 0x2806 <utoa>
    2230:	0e 94 bb 00 	call	0x176	; 0x176 <lcd_string>
    lcd_data(' ');
    2234:	80 e2       	ldi	r24, 0x20	; 32
    2236:	0e 94 82 00 	call	0x104	; 0x104 <lcd_data>

    for(trans.c=0;trans.c<NumOfDiodes;trans.c++) {
    223a:	70 91 07 01 	lds	r23, 0x0107
       if(((diodes[trans.c].Cathode == trans.e) && (diodes[trans.c].Anode == trans.b) && (PartMode == PART_MODE_NPN)) ||
    223e:	50 91 3e 01 	lds	r21, 0x013E
    2242:	40 91 3c 01 	lds	r20, 0x013C
    2246:	30 91 08 01 	lds	r19, 0x0108
    lcd_line2(); //2. row 
    lcd_fix_string(hfestr);		//"B="  (hFE)
    lcd_string(utoa(trans.hfe[1], outval, 10));
    lcd_data(' ');

    for(trans.c=0;trans.c<NumOfDiodes;trans.c++) {
    224a:	20 e0       	ldi	r18, 0x00	; 0
    224c:	2b c0       	rjmp	.+86     	; 0x22a4 <main+0x5ee>
       if(((diodes[trans.c].Cathode == trans.e) && (diodes[trans.c].Anode == trans.b) && (PartMode == PART_MODE_NPN)) ||
    224e:	82 2f       	mov	r24, r18
    2250:	90 e0       	ldi	r25, 0x00	; 0
    2252:	fc 01       	movw	r30, r24
    2254:	ee 0f       	add	r30, r30
    2256:	ff 1f       	adc	r31, r31
    2258:	ee 0f       	add	r30, r30
    225a:	ff 1f       	adc	r31, r31
    225c:	e7 5b       	subi	r30, 0xB7	; 183
    225e:	fe 4f       	sbci	r31, 0xFE	; 254
    2260:	61 81       	ldd	r22, Z+1	; 0x01
    2262:	65 17       	cp	r22, r21
    2264:	29 f4       	brne	.+10     	; 0x2270 <main+0x5ba>
    2266:	e0 81       	ld	r30, Z
    2268:	e4 17       	cp	r30, r20
    226a:	11 f4       	brne	.+4      	; 0x2270 <main+0x5ba>
    226c:	31 30       	cpi	r19, 0x01	; 1
    226e:	71 f0       	breq	.+28     	; 0x228c <main+0x5d6>
          ((diodes[trans.c].Anode == trans.e) && (diodes[trans.c].Cathode == trans.b) && (PartMode == PART_MODE_PNP))) {
    2270:	fc 01       	movw	r30, r24
    2272:	ee 0f       	add	r30, r30
    2274:	ff 1f       	adc	r31, r31
    2276:	ee 0f       	add	r30, r30
    2278:	ff 1f       	adc	r31, r31
    227a:	e7 5b       	subi	r30, 0xB7	; 183
    227c:	fe 4f       	sbci	r31, 0xFE	; 254
    lcd_fix_string(hfestr);		//"B="  (hFE)
    lcd_string(utoa(trans.hfe[1], outval, 10));
    lcd_data(' ');

    for(trans.c=0;trans.c<NumOfDiodes;trans.c++) {
       if(((diodes[trans.c].Cathode == trans.e) && (diodes[trans.c].Anode == trans.b) && (PartMode == PART_MODE_NPN)) ||
    227e:	80 81       	ld	r24, Z
    2280:	85 17       	cp	r24, r21
    2282:	79 f4       	brne	.+30     	; 0x22a2 <main+0x5ec>
          ((diodes[trans.c].Anode == trans.e) && (diodes[trans.c].Cathode == trans.b) && (PartMode == PART_MODE_PNP))) {
    2284:	64 17       	cp	r22, r20
    2286:	69 f4       	brne	.+26     	; 0x22a2 <main+0x5ec>
    2288:	32 30       	cpi	r19, 0x02	; 2
    228a:	59 f4       	brne	.+22     	; 0x22a2 <main+0x5ec>
    228c:	20 93 3d 01 	sts	0x013D, r18
          lcd_fix_string(Uf);		//"Uf="
    2290:	82 e0       	ldi	r24, 0x02	; 2
    2292:	91 e0       	ldi	r25, 0x01	; 1
    2294:	0e 94 cf 00 	call	0x19e	; 0x19e <lcd_fix_string>
          mVAusgabe(trans.c);		// output: xxxxmV
    2298:	80 91 3d 01 	lds	r24, 0x013D
    229c:	0e 94 f7 00 	call	0x1ee	; 0x1ee <mVAusgabe>
          goto end;
    22a0:	94 c1       	rjmp	.+808    	; 0x25ca <main+0x914>
    22a2:	2f 5f       	subi	r18, 0xFF	; 255
    lcd_line2(); //2. row 
    lcd_fix_string(hfestr);		//"B="  (hFE)
    lcd_string(utoa(trans.hfe[1], outval, 10));
    lcd_data(' ');

    for(trans.c=0;trans.c<NumOfDiodes;trans.c++) {
    22a4:	27 17       	cp	r18, r23
    22a6:	98 f2       	brcs	.-90     	; 0x224e <main+0x598>
    22a8:	20 93 3d 01 	sts	0x013D, r18
    22ac:	8e c1       	rjmp	.+796    	; 0x25ca <main+0x914>
          goto end;
       }
    }
    goto end;
    // end (PartFound == PART_TRANSISTOR)
  } else if (PartFound == PART_FET) {	//JFET or MOSFET
    22ae:	83 30       	cpi	r24, 0x03	; 3
    22b0:	09 f0       	breq	.+2      	; 0x22b4 <main+0x5fe>
    22b2:	6a c0       	rjmp	.+212    	; 0x2388 <main+0x6d2>
    if(PartMode&1) {
    22b4:	80 91 08 01 	lds	r24, 0x0108
    22b8:	80 ff       	sbrs	r24, 0
    22ba:	02 c0       	rjmp	.+4      	; 0x22c0 <main+0x60a>
       //N-Kanal
       lcd_data('N');
    22bc:	8e e4       	ldi	r24, 0x4E	; 78
    22be:	01 c0       	rjmp	.+2      	; 0x22c2 <main+0x60c>
    } else {
       lcd_data('P');			//P-Kanal
    22c0:	80 e5       	ldi	r24, 0x50	; 80
    22c2:	0e 94 82 00 	call	0x104	; 0x104 <lcd_data>
    }
    lcd_data('-');
    22c6:	8d e2       	ldi	r24, 0x2D	; 45
    22c8:	0e 94 82 00 	call	0x104	; 0x104 <lcd_data>
    if((PartMode==PART_MODE_N_D_MOS) || (PartMode==PART_MODE_P_D_MOS)) {
    22cc:	80 91 08 01 	lds	r24, 0x0108
    22d0:	98 2f       	mov	r25, r24
    22d2:	93 50       	subi	r25, 0x03	; 3
    22d4:	92 30       	cpi	r25, 0x02	; 2
    22d6:	10 f4       	brcc	.+4      	; 0x22dc <main+0x626>
       lcd_data('D');			// N-D
    22d8:	84 e4       	ldi	r24, 0x44	; 68
    22da:	07 c0       	rjmp	.+14     	; 0x22ea <main+0x634>
       lcd_fix_string(mosfet);		//"-MOS "
    } else {
       if((PartMode==PART_MODE_N_JFET) || (PartMode==PART_MODE_P_JFET)) {
    22dc:	85 50       	subi	r24, 0x05	; 5
    22de:	82 30       	cpi	r24, 0x02	; 2
    22e0:	18 f4       	brcc	.+6      	; 0x22e8 <main+0x632>
          lcd_fix_string(jfet);		//"-JFET"
    22e2:	82 ee       	ldi	r24, 0xE2	; 226
    22e4:	90 e0       	ldi	r25, 0x00	; 0
    22e6:	05 c0       	rjmp	.+10     	; 0x22f2 <main+0x63c>
       } else {
          lcd_data('E');		// -E
    22e8:	85 e4       	ldi	r24, 0x45	; 69
    22ea:	0e 94 82 00 	call	0x104	; 0x104 <lcd_data>
          lcd_fix_string(mosfet);	//"-MOS "
    22ee:	8c ed       	ldi	r24, 0xDC	; 220
    22f0:	90 e0       	ldi	r25, 0x00	; 0
    22f2:	0e 94 cf 00 	call	0x19e	; 0x19e <lcd_fix_string>
       }
    }
 #ifdef C_MESS	//Gate capacity
    if(PartMode < 3) {  //enhancement-MOSFET
    22f6:	80 91 08 01 	lds	r24, 0x0108
    22fa:	83 30       	cpi	r24, 0x03	; 3
    22fc:	60 f4       	brcc	.+24     	; 0x2316 <main+0x660>
       lcd_fix_string(GateCap);		//"C="
    22fe:	87 ee       	ldi	r24, 0xE7	; 231
    2300:	90 e0       	ldi	r25, 0x00	; 0
    2302:	0e 94 cf 00 	call	0x19e	; 0x19e <lcd_fix_string>
       ReadCapacity(trans.b,trans.e);	//measure capacity
    2306:	80 91 3c 01 	lds	r24, 0x013C
    230a:	60 91 3e 01 	lds	r22, 0x013E
    230e:	0e 94 0a 08 	call	0x1014	; 0x1014 <ReadCapacity>
       lcd_show_format_cap();
    2312:	0e 94 fc 0a 	call	0x15f8	; 0x15f8 <lcd_show_format_cap>
    }
 #endif
    lcd_line2(); //2. row 
    2316:	80 ec       	ldi	r24, 0xC0	; 192
    2318:	0e 94 7e 00 	call	0xfc	; 0xfc <lcd_command>
    lcd_fix_string(gds);		//"GDS="
    231c:	8d ef       	ldi	r24, 0xFD	; 253
    231e:	90 e0       	ldi	r25, 0x00	; 0
    2320:	0e 94 cf 00 	call	0x19e	; 0x19e <lcd_fix_string>
    lcd_testpin(trans.b);
    2324:	80 91 3c 01 	lds	r24, 0x013C
    2328:	0e 94 86 00 	call	0x10c	; 0x10c <lcd_testpin>
    lcd_testpin(trans.c);
    232c:	80 91 3d 01 	lds	r24, 0x013D
    2330:	0e 94 86 00 	call	0x10c	; 0x10c <lcd_testpin>
    lcd_testpin(trans.e);
    2334:	80 91 3e 01 	lds	r24, 0x013E
    2338:	0e 94 86 00 	call	0x10c	; 0x10c <lcd_testpin>
    if((NumOfDiodes > 0) && (PartMode < 3)) {
    233c:	80 91 07 01 	lds	r24, 0x0107
    2340:	88 23       	and	r24, r24
    2342:	31 f0       	breq	.+12     	; 0x2350 <main+0x69a>
    2344:	80 91 08 01 	lds	r24, 0x0108
    2348:	83 30       	cpi	r24, 0x03	; 3
    234a:	10 f4       	brcc	.+4      	; 0x2350 <main+0x69a>
       //MOSFET with protection diode; only with enhancement-FETs
       lcd_data(LCD_CHAR_DIODE1);	//show Diode symbol >|
    234c:	81 e0       	ldi	r24, 0x01	; 1
    234e:	01 c0       	rjmp	.+2      	; 0x2352 <main+0x69c>
    } else {
       lcd_data(' ');	// ' '
    2350:	80 e2       	ldi	r24, 0x20	; 32
    2352:	0e 94 82 00 	call	0x104	; 0x104 <lcd_data>
    }
    if(PartMode < 3) {	//enhancement-MOSFET
    2356:	80 91 08 01 	lds	r24, 0x0108
    235a:	83 30       	cpi	r24, 0x03	; 3
    235c:	08 f0       	brcs	.+2      	; 0x2360 <main+0x6aa>
    235e:	35 c1       	rjmp	.+618    	; 0x25ca <main+0x914>
       lcd_fix_string(vt);
    2360:	86 e0       	ldi	r24, 0x06	; 6
    2362:	91 e0       	ldi	r25, 0x01	; 1
    2364:	0e 94 cf 00 	call	0x19e	; 0x19e <lcd_fix_string>
       //Gate-threshold voltage
       lcd_string(utoa(gthvoltage, outval, 10));
    2368:	80 91 44 01 	lds	r24, 0x0144
    236c:	90 91 45 01 	lds	r25, 0x0145
    2370:	6d e0       	ldi	r22, 0x0D	; 13
    2372:	71 e0       	ldi	r23, 0x01	; 1
    2374:	4a e0       	ldi	r20, 0x0A	; 10
    2376:	50 e0       	ldi	r21, 0x00	; 0
    2378:	0e 94 03 14 	call	0x2806	; 0x2806 <utoa>
    237c:	0e 94 bb 00 	call	0x176	; 0x176 <lcd_string>
       lcd_data('m');
    2380:	8d e6       	ldi	r24, 0x6D	; 109
    2382:	0e 94 82 00 	call	0x104	; 0x104 <lcd_data>
    2386:	21 c1       	rjmp	.+578    	; 0x25ca <main+0x914>
    }
    goto end;
    // end (PartFound == PART_FET)
  } else if (PartFound == PART_THYRISTOR) {
    2388:	85 30       	cpi	r24, 0x05	; 5
    238a:	19 f4       	brne	.+6      	; 0x2392 <main+0x6dc>
    lcd_fix_string(Thyristor);		//"Thyristor"
    238c:	84 ea       	ldi	r24, 0xA4	; 164
    238e:	90 e0       	ldi	r25, 0x00	; 0
    2390:	04 c0       	rjmp	.+8      	; 0x239a <main+0x6e4>
    goto gakAusgabe;
  } else if (PartFound == PART_TRIAC) {
    2392:	84 30       	cpi	r24, 0x04	; 4
    2394:	c1 f4       	brne	.+48     	; 0x23c6 <main+0x710>
    lcd_fix_string(Triac);		//"Triac"
    2396:	8e e9       	ldi	r24, 0x9E	; 158
    2398:	90 e0       	ldi	r25, 0x00	; 0
    239a:	0e 94 cf 00 	call	0x19e	; 0x19e <lcd_fix_string>
  mess_count = 0;
  goto end2;


gakAusgabe:
  lcd_line2(); //2. row 
    239e:	80 ec       	ldi	r24, 0xC0	; 192
    23a0:	0e 94 7e 00 	call	0xfc	; 0xfc <lcd_command>
  lcd_fix_string(GAK);		//"GAK="
    23a4:	89 e9       	ldi	r24, 0x99	; 153
    23a6:	90 e0       	ldi	r25, 0x00	; 0
    23a8:	0e 94 cf 00 	call	0x19e	; 0x19e <lcd_fix_string>
  lcd_testpin(trans.b);
    23ac:	80 91 3c 01 	lds	r24, 0x013C
    23b0:	0e 94 86 00 	call	0x10c	; 0x10c <lcd_testpin>
  lcd_testpin(trans.c);
    23b4:	80 91 3d 01 	lds	r24, 0x013D
    23b8:	0e 94 86 00 	call	0x10c	; 0x10c <lcd_testpin>
  lcd_testpin(trans.e);
    23bc:	80 91 3e 01 	lds	r24, 0x013E
    23c0:	0e 94 86 00 	call	0x10c	; 0x10c <lcd_testpin>
    23c4:	02 c1       	rjmp	.+516    	; 0x25ca <main+0x914>
  } else if (PartFound == PART_TRIAC) {
    lcd_fix_string(Triac);		//"Triac"
    goto gakAusgabe;
  }
 #ifdef R_MESS	//resistor measurement is wanted
  else if(PartFound == PART_RESISTOR) {
    23c6:	86 30       	cpi	r24, 0x06	; 6
    23c8:	09 f0       	breq	.+2      	; 0x23cc <main+0x716>
    23ca:	b9 c0       	rjmp	.+370    	; 0x253e <main+0x888>
    if (ResistorsFound == 1) { // single resistor
    23cc:	60 91 3f 01 	lds	r22, 0x013F
    23d0:	61 30       	cpi	r22, 0x01	; 1
    23d2:	69 f4       	brne	.+26     	; 0x23ee <main+0x738>
       lcd_testpin(resis[0].rb);  	//Pin-number 1
    23d4:	80 91 1e 01 	lds	r24, 0x011E
    23d8:	0e 94 86 00 	call	0x10c	; 0x10c <lcd_testpin>
       lcd_fix_string(Resistor_str);
    23dc:	8b e1       	ldi	r24, 0x1B	; 27
    23de:	91 e0       	ldi	r25, 0x01	; 1
    23e0:	0e 94 cf 00 	call	0x19e	; 0x19e <lcd_fix_string>
       lcd_testpin(resis[0].ra);		//Pin-number 2
    23e4:	80 91 1d 01 	lds	r24, 0x011D
    23e8:	0e 94 86 00 	call	0x10c	; 0x10c <lcd_testpin>
    23ec:	7f c0       	rjmp	.+254    	; 0x24ec <main+0x836>
    } else { // R-Max suchen
       ii = 0;
    23ee:	10 92 36 01 	sts	0x0136, r1
       if (resis[1].rx > resis[0].rx)
    23f2:	20 91 20 01 	lds	r18, 0x0120
    23f6:	30 91 21 01 	lds	r19, 0x0121
    23fa:	40 91 22 01 	lds	r20, 0x0122
    23fe:	50 91 23 01 	lds	r21, 0x0123
    2402:	80 91 19 01 	lds	r24, 0x0119
    2406:	90 91 1a 01 	lds	r25, 0x011A
    240a:	a0 91 1b 01 	lds	r26, 0x011B
    240e:	b0 91 1c 01 	lds	r27, 0x011C
    2412:	82 17       	cp	r24, r18
    2414:	93 07       	cpc	r25, r19
    2416:	a4 07       	cpc	r26, r20
    2418:	b5 07       	cpc	r27, r21
    241a:	18 f4       	brcc	.+6      	; 0x2422 <main+0x76c>
          ii = 1;
    241c:	81 e0       	ldi	r24, 0x01	; 1
    241e:	80 93 36 01 	sts	0x0136, r24
       if (ResistorsFound == 2) {
    2422:	62 30       	cpi	r22, 0x02	; 2
    2424:	19 f4       	brne	.+6      	; 0x242c <main+0x776>
          ii = 2;
    2426:	60 93 36 01 	sts	0x0136, r22
    242a:	21 c0       	rjmp	.+66     	; 0x246e <main+0x7b8>
       } else {
          if (resis[2].rx > resis[ii].rx) {
    242c:	80 91 36 01 	lds	r24, 0x0136
    2430:	90 e0       	ldi	r25, 0x00	; 0
    2432:	fc 01       	movw	r30, r24
    2434:	b3 e0       	ldi	r27, 0x03	; 3
    2436:	ee 0f       	add	r30, r30
    2438:	ff 1f       	adc	r31, r31
    243a:	ba 95       	dec	r27
    243c:	e1 f7       	brne	.-8      	; 0x2436 <main+0x780>
    243e:	e8 1b       	sub	r30, r24
    2440:	f9 0b       	sbc	r31, r25
    2442:	e7 5e       	subi	r30, 0xE7	; 231
    2444:	fe 4f       	sbci	r31, 0xFE	; 254
    2446:	20 91 27 01 	lds	r18, 0x0127
    244a:	30 91 28 01 	lds	r19, 0x0128
    244e:	40 91 29 01 	lds	r20, 0x0129
    2452:	50 91 2a 01 	lds	r21, 0x012A
    2456:	80 81       	ld	r24, Z
    2458:	91 81       	ldd	r25, Z+1	; 0x01
    245a:	a2 81       	ldd	r26, Z+2	; 0x02
    245c:	b3 81       	ldd	r27, Z+3	; 0x03
    245e:	82 17       	cp	r24, r18
    2460:	93 07       	cpc	r25, r19
    2462:	a4 07       	cpc	r26, r20
    2464:	b5 07       	cpc	r27, r21
    2466:	18 f4       	brcc	.+6      	; 0x246e <main+0x7b8>
             ii = 2;
    2468:	82 e0       	ldi	r24, 0x02	; 2
    246a:	80 93 36 01 	sts	0x0136, r24
          }
       }

       if (ii == 0) {
    246e:	80 91 36 01 	lds	r24, 0x0136
    2472:	88 23       	and	r24, r24
    2474:	89 f4       	brne	.+34     	; 0x2498 <main+0x7e2>
          lcd_data('1');
    2476:	81 e3       	ldi	r24, 0x31	; 49
    2478:	0e 94 82 00 	call	0x104	; 0x104 <lcd_data>
          lcd_fix_string(Resistor_str);	// -[=]-
    247c:	8b e1       	ldi	r24, 0x1B	; 27
    247e:	91 e0       	ldi	r25, 0x01	; 1
    2480:	0e 94 cf 00 	call	0x19e	; 0x19e <lcd_fix_string>
          lcd_data('3');
    2484:	83 e3       	ldi	r24, 0x33	; 51
    2486:	0e 94 82 00 	call	0x104	; 0x104 <lcd_data>
          lcd_fix_string(Resistor_str);	// -[=]-
    248a:	8b e1       	ldi	r24, 0x1B	; 27
    248c:	91 e0       	ldi	r25, 0x01	; 1
    248e:	0e 94 cf 00 	call	0x19e	; 0x19e <lcd_fix_string>
          lcd_data('2');
    2492:	82 e3       	ldi	r24, 0x32	; 50
    2494:	0e 94 82 00 	call	0x104	; 0x104 <lcd_data>
       }
       if (ii == 1) {
    2498:	80 91 36 01 	lds	r24, 0x0136
    249c:	81 30       	cpi	r24, 0x01	; 1
    249e:	89 f4       	brne	.+34     	; 0x24c2 <main+0x80c>
          lcd_data('1');
    24a0:	81 e3       	ldi	r24, 0x31	; 49
    24a2:	0e 94 82 00 	call	0x104	; 0x104 <lcd_data>
          lcd_fix_string(Resistor_str);	// -[=]-
    24a6:	8b e1       	ldi	r24, 0x1B	; 27
    24a8:	91 e0       	ldi	r25, 0x01	; 1
    24aa:	0e 94 cf 00 	call	0x19e	; 0x19e <lcd_fix_string>
          lcd_data('2');
    24ae:	82 e3       	ldi	r24, 0x32	; 50
    24b0:	0e 94 82 00 	call	0x104	; 0x104 <lcd_data>
          lcd_fix_string(Resistor_str);	// -[=]-
    24b4:	8b e1       	ldi	r24, 0x1B	; 27
    24b6:	91 e0       	ldi	r25, 0x01	; 1
    24b8:	0e 94 cf 00 	call	0x19e	; 0x19e <lcd_fix_string>
          lcd_data('3');
    24bc:	83 e3       	ldi	r24, 0x33	; 51
    24be:	0e 94 82 00 	call	0x104	; 0x104 <lcd_data>
       }
       if (ii == 2) {
    24c2:	80 91 36 01 	lds	r24, 0x0136
    24c6:	82 30       	cpi	r24, 0x02	; 2
    24c8:	89 f4       	brne	.+34     	; 0x24ec <main+0x836>
          lcd_data('2');
    24ca:	82 e3       	ldi	r24, 0x32	; 50
    24cc:	0e 94 82 00 	call	0x104	; 0x104 <lcd_data>
          lcd_fix_string(Resistor_str);	// -[=]-
    24d0:	8b e1       	ldi	r24, 0x1B	; 27
    24d2:	91 e0       	ldi	r25, 0x01	; 1
    24d4:	0e 94 cf 00 	call	0x19e	; 0x19e <lcd_fix_string>
          lcd_data('1');
    24d8:	81 e3       	ldi	r24, 0x31	; 49
    24da:	0e 94 82 00 	call	0x104	; 0x104 <lcd_data>
          lcd_fix_string(Resistor_str);	// -[=]-
    24de:	8b e1       	ldi	r24, 0x1B	; 27
    24e0:	91 e0       	ldi	r25, 0x01	; 1
    24e2:	0e 94 cf 00 	call	0x19e	; 0x19e <lcd_fix_string>
          lcd_data('3');
    24e6:	83 e3       	ldi	r24, 0x33	; 51
    24e8:	0e 94 82 00 	call	0x104	; 0x104 <lcd_data>
       }
    }
    lcd_line2(); //2. row 
    24ec:	80 ec       	ldi	r24, 0xC0	; 192
    24ee:	0e 94 7e 00 	call	0xfc	; 0xfc <lcd_command>
    if (ResistorsFound == 1) {
    24f2:	80 91 3f 01 	lds	r24, 0x013F
    24f6:	81 30       	cpi	r24, 0x01	; 1
    24f8:	11 f4       	brne	.+4      	; 0x24fe <main+0x848>
       RvalOut(0);
    24fa:	80 e0       	ldi	r24, 0x00	; 0
    24fc:	1d c0       	rjmp	.+58     	; 0x2538 <main+0x882>
    } else {
       // output resistor values in right order
       if (ii == 0) {
    24fe:	80 91 36 01 	lds	r24, 0x0136
    2502:	88 23       	and	r24, r24
    2504:	31 f4       	brne	.+12     	; 0x2512 <main+0x85c>
          RvalOut(1);
    2506:	81 e0       	ldi	r24, 0x01	; 1
    2508:	0e 94 1b 0b 	call	0x1636	; 0x1636 <RvalOut>
          RvalOut(2);
    250c:	82 e0       	ldi	r24, 0x02	; 2
    250e:	0e 94 1b 0b 	call	0x1636	; 0x1636 <RvalOut>
       }
       if (ii == 1) {
    2512:	80 91 36 01 	lds	r24, 0x0136
    2516:	81 30       	cpi	r24, 0x01	; 1
    2518:	31 f4       	brne	.+12     	; 0x2526 <main+0x870>
          RvalOut(0);
    251a:	80 e0       	ldi	r24, 0x00	; 0
    251c:	0e 94 1b 0b 	call	0x1636	; 0x1636 <RvalOut>
          RvalOut(2);
    2520:	82 e0       	ldi	r24, 0x02	; 2
    2522:	0e 94 1b 0b 	call	0x1636	; 0x1636 <RvalOut>
       }
       if (ii == 2) {
    2526:	80 91 36 01 	lds	r24, 0x0136
    252a:	82 30       	cpi	r24, 0x02	; 2
    252c:	09 f0       	breq	.+2      	; 0x2530 <main+0x87a>
    252e:	4d c0       	rjmp	.+154    	; 0x25ca <main+0x914>
          RvalOut(0);
    2530:	80 e0       	ldi	r24, 0x00	; 0
    2532:	0e 94 1b 0b 	call	0x1636	; 0x1636 <RvalOut>
          RvalOut(1);
    2536:	81 e0       	ldi	r24, 0x01	; 1
    2538:	0e 94 1b 0b 	call	0x1636	; 0x1636 <RvalOut>
    253c:	46 c0       	rjmp	.+140    	; 0x25ca <main+0x914>
  } // end (PartFound == PART_RESISTOR)
#endif

#ifdef C_MESS
//capacity measurement is wanted
  else if(PartFound == PART_CAPACITOR) {
    253e:	87 30       	cpi	r24, 0x07	; 7
    2540:	91 f4       	brne	.+36     	; 0x2566 <main+0x8b0>
//     lcd_fix_string(Capacitor);
     lcd_testpin(ca);			//Pin number 1
    2542:	80 91 48 01 	lds	r24, 0x0148
    2546:	0e 94 86 00 	call	0x10c	; 0x10c <lcd_testpin>
     lcd_fix_string(CapZeich);		// capacitor sign
    254a:	8a e0       	ldi	r24, 0x0A	; 10
    254c:	91 e0       	ldi	r25, 0x01	; 1
    254e:	0e 94 cf 00 	call	0x19e	; 0x19e <lcd_fix_string>
     lcd_testpin(cb);			//Pin number 2
    2552:	80 91 0a 01 	lds	r24, 0x010A
    2556:	0e 94 86 00 	call	0x10c	; 0x10c <lcd_testpin>
     lcd_line2(); 				//2. row 
    255a:	80 ec       	ldi	r24, 0xC0	; 192
    255c:	0e 94 7e 00 	call	0xfc	; 0xfc <lcd_command>
     lcd_show_format_cap();
    2560:	0e 94 fc 0a 	call	0x15f8	; 0x15f8 <lcd_show_format_cap>
     goto end;
    2564:	32 c0       	rjmp	.+100    	; 0x25ca <main+0x914>
  }
#endif
  if(NumOfDiodes == 0) { //no diodes are found
    2566:	80 91 07 01 	lds	r24, 0x0107
    256a:	88 23       	and	r24, r24
    256c:	71 f4       	brne	.+28     	; 0x258a <main+0x8d4>
     lcd_fix_string(TestFailed1); 	//"Kein,unbek. oder"
    256e:	87 eb       	ldi	r24, 0xB7	; 183
    2570:	90 e0       	ldi	r25, 0x00	; 0
    2572:	0e 94 cf 00 	call	0x19e	; 0x19e <lcd_fix_string>
     lcd_line2(); //2. row 
    2576:	80 ec       	ldi	r24, 0xC0	; 192
    2578:	0e 94 7e 00 	call	0xfc	; 0xfc <lcd_command>
     lcd_fix_string(TestFailed2); 	//"defektes "
    257c:	83 e8       	ldi	r24, 0x83	; 131
    257e:	90 e0       	ldi	r25, 0x00	; 0
    2580:	0e 94 cf 00 	call	0x19e	; 0x19e <lcd_fix_string>
     lcd_fix_string(Bauteil);		//"Bauteil"
    2584:	8c e8       	ldi	r24, 0x8C	; 140
    2586:	90 e0       	ldi	r25, 0x00	; 0
    2588:	16 c0       	rjmp	.+44     	; 0x25b6 <main+0x900>
  } else {
     lcd_fix_string(Bauteil);		//"Bauteil"
    258a:	8c e8       	ldi	r24, 0x8C	; 140
    258c:	90 e0       	ldi	r25, 0x00	; 0
    258e:	0e 94 cf 00 	call	0x19e	; 0x19e <lcd_fix_string>
     lcd_fix_string(Unknown); 		//" unbek."
    2592:	8e ea       	ldi	r24, 0xAE	; 174
    2594:	90 e0       	ldi	r25, 0x00	; 0
    2596:	0e 94 cf 00 	call	0x19e	; 0x19e <lcd_fix_string>
     lcd_line2(); //2. row 
    259a:	80 ec       	ldi	r24, 0xC0	; 192
    259c:	0e 94 7e 00 	call	0xfc	; 0xfc <lcd_command>
     lcd_fix_string(OrBroken); 		//"oder defekt "
    25a0:	87 ec       	ldi	r24, 0xC7	; 199
    25a2:	90 e0       	ldi	r25, 0x00	; 0
    25a4:	0e 94 cf 00 	call	0x19e	; 0x19e <lcd_fix_string>
     lcd_data(NumOfDiodes + '0');
    25a8:	80 91 07 01 	lds	r24, 0x0107
    25ac:	80 5d       	subi	r24, 0xD0	; 208
    25ae:	0e 94 82 00 	call	0x104	; 0x104 <lcd_data>
     lcd_fix_string(AnKat);		//"->|-"
    25b2:	8e e0       	ldi	r24, 0x0E	; 14
    25b4:	91 e0       	ldi	r25, 0x01	; 1
    25b6:	0e 94 cf 00 	call	0x19e	; 0x19e <lcd_fix_string>
  }
  empty_count++;
    25ba:	80 91 35 01 	lds	r24, 0x0135
    25be:	8f 5f       	subi	r24, 0xFF	; 255
    25c0:	80 93 35 01 	sts	0x0135, r24
  mess_count = 0;
    25c4:	10 92 0c 01 	sts	0x010C, r1
  goto end2;
    25c8:	07 c0       	rjmp	.+14     	; 0x25d8 <main+0x922>
  lcd_testpin(trans.b);
  lcd_testpin(trans.c);
  lcd_testpin(trans.e);
//- - - - - - - - - - - - - - - - - - - - - - - - - - - - 
 end:
  empty_count = 0;		// reset counter, if part is found
    25ca:	10 92 35 01 	sts	0x0135, r1
  mess_count++;			// count measurements
    25ce:	80 91 0c 01 	lds	r24, 0x010C
    25d2:	8f 5f       	subi	r24, 0xFF	; 255
    25d4:	80 93 0c 01 	sts	0x010C, r24

 end2:
  while(!(ON_PIN_REG & (1<<RST_PIN)));	//wait ,until button is released
    25d8:	4f 9b       	sbis	0x09, 7	; 9
    25da:	fe cf       	rjmp	.-4      	; 0x25d8 <main+0x922>
  wait200ms();
    25dc:	0e 94 2c 13 	call	0x2658	; 0x2658 <wait200ms>
// wait 10 seconds or 3 seconds (if repeat function)
  for(gthvoltage = 0;gthvoltage<display_time;gthvoltage++) {
    25e0:	10 92 45 01 	sts	0x0145, r1
    25e4:	10 92 44 01 	sts	0x0144, r1
    25e8:	0e c0       	rjmp	.+28     	; 0x2606 <main+0x950>
     if(!(ON_PIN_REG & (1<<RST_PIN))) {
    25ea:	4f 9b       	sbis	0x09, 7	; 9
    25ec:	c5 cb       	rjmp	.-2166   	; 0x1d78 <main+0xc2>
        // If the key is pressed again... 
        // goto start of measurement 
        goto start;
     }
     wdt_reset();
    25ee:	a8 95       	wdr
     wait1ms();
    25f0:	0e 94 38 13 	call	0x2670	; 0x2670 <wait1ms>

 end2:
  while(!(ON_PIN_REG & (1<<RST_PIN)));	//wait ,until button is released
  wait200ms();
// wait 10 seconds or 3 seconds (if repeat function)
  for(gthvoltage = 0;gthvoltage<display_time;gthvoltage++) {
    25f4:	80 91 44 01 	lds	r24, 0x0144
    25f8:	90 91 45 01 	lds	r25, 0x0145
    25fc:	01 96       	adiw	r24, 0x01	; 1
    25fe:	90 93 45 01 	sts	0x0145, r25
    2602:	80 93 44 01 	sts	0x0144, r24
    2606:	20 91 44 01 	lds	r18, 0x0144
    260a:	30 91 45 01 	lds	r19, 0x0145
    260e:	80 91 04 01 	lds	r24, 0x0104
    2612:	90 91 05 01 	lds	r25, 0x0105
    2616:	28 17       	cp	r18, r24
    2618:	39 07       	cpc	r19, r25
    261a:	38 f3       	brcs	.-50     	; 0x25ea <main+0x934>
  #define POWER2_OFF 255
 #else
  #define POWER2_OFF POWER_OFF*2
 #endif
 #if POWER_OFF+0 > 1
  if ((empty_count < POWER_OFF) && (mess_count < POWER2_OFF)) {
    261c:	80 91 35 01 	lds	r24, 0x0135
    2620:	85 30       	cpi	r24, 0x05	; 5
    2622:	28 f4       	brcc	.+10     	; 0x262e <main+0x978>
    2624:	80 91 0c 01 	lds	r24, 0x010C
    2628:	8a 30       	cpi	r24, 0x0A	; 10
    262a:	08 f4       	brcc	.+2      	; 0x262e <main+0x978>
    262c:	a5 cb       	rjmp	.-2230   	; 0x1d78 <main+0xc2>
     goto start;			// repeat measurement POWER_OFF times
  }
 #endif
  // only one Measurement requested, shut off
  wdt_disable();			//Watchdog off
    262e:	88 e1       	ldi	r24, 0x18	; 24
    2630:	0f b6       	in	r0, 0x3f	; 63
    2632:	f8 94       	cli
    2634:	80 93 60 00 	sts	0x0060, r24
    2638:	10 92 60 00 	sts	0x0060, r1
    263c:	0f be       	out	0x3f, r0	; 63
  ON_PORT &= ~(1<<ON_PIN);		//switch off power
    263e:	5e 98       	cbi	0x0b, 6	; 11
  //never ending loop 
  while(1) {
     if(!(ON_PIN_REG & (1<<RST_PIN))) {
    2640:	4f 99       	sbic	0x09, 7	; 9
    2642:	fe cf       	rjmp	.-4      	; 0x2640 <main+0x98a>
    2644:	99 cb       	rjmp	.-2254   	; 0x1d78 <main+0xc2>

00002646 <uart_putc>:
    2646:	08 95       	ret

00002648 <wait5s>:
    2648:	03 d0       	rcall	.+6      	; 0x2650 <wait1000ms>

0000264a <wait4s>:
    264a:	02 d0       	rcall	.+4      	; 0x2650 <wait1000ms>

0000264c <wait3s>:
    264c:	01 d0       	rcall	.+2      	; 0x2650 <wait1000ms>

0000264e <wait2s>:
    264e:	00 d0       	rcall	.+0      	; 0x2650 <wait1000ms>

00002650 <wait1000ms>:
    2650:	00 d0       	rcall	.+0      	; 0x2652 <wait500ms>

00002652 <wait500ms>:
    2652:	03 d0       	rcall	.+6      	; 0x265a <wait100ms>

00002654 <wait400ms>:
    2654:	02 d0       	rcall	.+4      	; 0x265a <wait100ms>

00002656 <wait300ms>:
    2656:	01 d0       	rcall	.+2      	; 0x265a <wait100ms>

00002658 <wait200ms>:
    2658:	00 d0       	rcall	.+0      	; 0x265a <wait100ms>

0000265a <wait100ms>:
    265a:	a8 95       	wdr
    265c:	00 d0       	rcall	.+0      	; 0x265e <wait50ms>

0000265e <wait50ms>:
    265e:	03 d0       	rcall	.+6      	; 0x2666 <wait10ms>

00002660 <wait40ms>:
    2660:	02 d0       	rcall	.+4      	; 0x2666 <wait10ms>

00002662 <wait30ms>:
    2662:	01 d0       	rcall	.+2      	; 0x2666 <wait10ms>

00002664 <wait20ms>:
    2664:	00 d0       	rcall	.+0      	; 0x2666 <wait10ms>

00002666 <wait10ms>:
    2666:	00 d0       	rcall	.+0      	; 0x2668 <wait5ms>

00002668 <wait5ms>:
    2668:	03 d0       	rcall	.+6      	; 0x2670 <wait1ms>

0000266a <wait4ms>:
    266a:	02 d0       	rcall	.+4      	; 0x2670 <wait1ms>

0000266c <wait3ms>:
    266c:	01 d0       	rcall	.+2      	; 0x2670 <wait1ms>

0000266e <wait2ms>:
    266e:	00 d0       	rcall	.+0      	; 0x2670 <wait1ms>

00002670 <wait1ms>:
    2670:	00 d0       	rcall	.+0      	; 0x2672 <wait500us>

00002672 <wait500us>:
    2672:	03 d0       	rcall	.+6      	; 0x267a <wait100us>

00002674 <wait400us>:
    2674:	02 d0       	rcall	.+4      	; 0x267a <wait100us>

00002676 <wait300us>:
    2676:	01 d0       	rcall	.+2      	; 0x267a <wait100us>

00002678 <wait200us>:
    2678:	00 d0       	rcall	.+0      	; 0x267a <wait100us>

0000267a <wait100us>:
    267a:	00 d0       	rcall	.+0      	; 0x267c <wait50us>

0000267c <wait50us>:
    267c:	03 d0       	rcall	.+6      	; 0x2684 <wait10us>

0000267e <wait40us>:
    267e:	02 d0       	rcall	.+4      	; 0x2684 <wait10us>

00002680 <wait30us>:
    2680:	01 d0       	rcall	.+2      	; 0x2684 <wait10us>

00002682 <wait20us>:
    2682:	00 d0       	rcall	.+0      	; 0x2684 <wait10us>

00002684 <wait10us>:
    2684:	00 d0       	rcall	.+0      	; 0x2686 <wait5us>

00002686 <wait5us>:
    2686:	03 d0       	rcall	.+6      	; 0x268e <wait1us>

00002688 <wait4us>:
    2688:	02 d0       	rcall	.+4      	; 0x268e <wait1us>

0000268a <wait3us>:
    268a:	01 d0       	rcall	.+2      	; 0x268e <wait1us>

0000268c <wait2us>:
    268c:	00 d0       	rcall	.+0      	; 0x268e <wait1us>

0000268e <wait1us>:
    268e:	00 00       	nop
    2690:	08 95       	ret

00002692 <CombineBI2Long>:
    2692:	99 27       	eor	r25, r25

00002694 <CombineII2Long>:
    2694:	08 95       	ret

00002696 <W20msReadADC>:
    2696:	0e 94 33 13 	call	0x2666	; 0x2666 <wait10ms>
    269a:	0e 94 34 13 	call	0x2668	; 0x2668 <wait5ms>

0000269e <W5msReadADC>:
    269e:	0e 94 34 13 	call	0x2668	; 0x2668 <wait5ms>

000026a2 <ReadADC>:
    26a2:	68 2f       	mov	r22, r24
    26a4:	80 64       	ori	r24, 0x40	; 64
    26a6:	80 93 7c 00 	sts	0x007C, r24
    26aa:	87 fd       	sbrc	r24, 7
    26ac:	29 c0       	rjmp	.+82     	; 0x2700 <lowADC>
    26ae:	20 91 7a 00 	lds	r18, 0x007A
    26b2:	20 64       	ori	r18, 0x40	; 64
    26b4:	20 93 7a 00 	sts	0x007A, r18

000026b8 <w3f6>:
    26b8:	20 91 7a 00 	lds	r18, 0x007A
    26bc:	26 fd       	sbrc	r18, 6
    26be:	fc cf       	rjmp	.-8      	; 0x26b8 <w3f6>
    26c0:	0e 94 3e 13 	call	0x267c	; 0x267c <wait50us>
    26c4:	84 e0       	ldi	r24, 0x04	; 4
    26c6:	90 e0       	ldi	r25, 0x00	; 0
    26c8:	40 e0       	ldi	r20, 0x00	; 0

000026ca <forlop1>:
    26ca:	20 91 7a 00 	lds	r18, 0x007A
    26ce:	20 64       	ori	r18, 0x40	; 64
    26d0:	20 93 7a 00 	sts	0x007A, r18

000026d4 <w416>:
    26d4:	20 91 7a 00 	lds	r18, 0x007A
    26d8:	26 fd       	sbrc	r18, 6
    26da:	fc cf       	rjmp	.-8      	; 0x26d4 <w416>
    26dc:	20 91 78 00 	lds	r18, 0x0078
    26e0:	30 91 79 00 	lds	r19, 0x0079
    26e4:	82 0f       	add	r24, r18
    26e6:	93 1f       	adc	r25, r19
    26e8:	44 30       	cpi	r20, 0x04	; 4
    26ea:	21 f4       	brne	.+8      	; 0x26f4 <r436>
    26ec:	54 e0       	ldi	r21, 0x04	; 4
    26ee:	80 30       	cpi	r24, 0x00	; 0
    26f0:	95 07       	cpc	r25, r21
    26f2:	30 f0       	brcs	.+12     	; 0x2700 <lowADC>

000026f4 <r436>:
    26f4:	4f 5f       	subi	r20, 0xFF	; 255
    26f6:	4c 32       	cpi	r20, 0x2C	; 44
    26f8:	41 f7       	brne	.-48     	; 0x26ca <forlop1>
    26fa:	69 e0       	ldi	r22, 0x09	; 9
    26fc:	70 e0       	ldi	r23, 0x00	; 0
    26fe:	29 c0       	rjmp	.+82     	; 0x2752 <diviret>

00002700 <lowADC>:
    2700:	60 6c       	ori	r22, 0xC0	; 192
    2702:	60 93 7c 00 	sts	0x007C, r22
    2706:	80 91 7a 00 	lds	r24, 0x007A
    270a:	80 64       	ori	r24, 0x40	; 64
    270c:	80 93 7a 00 	sts	0x007A, r24

00002710 <w454>:
    2710:	80 91 7a 00 	lds	r24, 0x007A
    2714:	86 fd       	sbrc	r24, 6
    2716:	fc cf       	rjmp	.-8      	; 0x2710 <w454>
    2718:	0e 94 3b 13 	call	0x2676	; 0x2676 <wait300us>
    271c:	80 e0       	ldi	r24, 0x00	; 0
    271e:	90 e0       	ldi	r25, 0x00	; 0
    2720:	40 e0       	ldi	r20, 0x00	; 0
    2722:	10 c0       	rjmp	.+32     	; 0x2744 <r48c>

00002724 <forlop2>:
    2724:	20 91 7a 00 	lds	r18, 0x007A
    2728:	20 64       	ori	r18, 0x40	; 64
    272a:	20 93 7a 00 	sts	0x007A, r18

0000272e <w476>:
    272e:	20 91 7a 00 	lds	r18, 0x007A
    2732:	26 fd       	sbrc	r18, 6
    2734:	fc cf       	rjmp	.-8      	; 0x272e <w476>
    2736:	20 91 78 00 	lds	r18, 0x0078
    273a:	30 91 79 00 	lds	r19, 0x0079
    273e:	82 0f       	add	r24, r18
    2740:	93 1f       	adc	r25, r19
    2742:	4f 5f       	subi	r20, 0xFF	; 255

00002744 <r48c>:
    2744:	20 91 02 01 	lds	r18, 0x0102
    2748:	42 17       	cp	r20, r18
    274a:	60 f3       	brcs	.-40     	; 0x2724 <forlop2>
    274c:	60 91 03 01 	lds	r22, 0x0103
    2750:	70 e0       	ldi	r23, 0x00	; 0

00002752 <diviret>:
    2752:	0e 94 cd 13 	call	0x279a	; 0x279a <__udivmodhi4>
    2756:	cb 01       	movw	r24, r22
    2758:	00 24       	eor	r0, r0
    275a:	08 95       	ret

0000275c <__mulsi3>:
    275c:	62 9f       	mul	r22, r18
    275e:	d0 01       	movw	r26, r0
    2760:	73 9f       	mul	r23, r19
    2762:	f0 01       	movw	r30, r0
    2764:	82 9f       	mul	r24, r18
    2766:	e0 0d       	add	r30, r0
    2768:	f1 1d       	adc	r31, r1
    276a:	64 9f       	mul	r22, r20
    276c:	e0 0d       	add	r30, r0
    276e:	f1 1d       	adc	r31, r1
    2770:	92 9f       	mul	r25, r18
    2772:	f0 0d       	add	r31, r0
    2774:	83 9f       	mul	r24, r19
    2776:	f0 0d       	add	r31, r0
    2778:	74 9f       	mul	r23, r20
    277a:	f0 0d       	add	r31, r0
    277c:	65 9f       	mul	r22, r21
    277e:	f0 0d       	add	r31, r0
    2780:	99 27       	eor	r25, r25
    2782:	72 9f       	mul	r23, r18
    2784:	b0 0d       	add	r27, r0
    2786:	e1 1d       	adc	r30, r1
    2788:	f9 1f       	adc	r31, r25
    278a:	63 9f       	mul	r22, r19
    278c:	b0 0d       	add	r27, r0
    278e:	e1 1d       	adc	r30, r1
    2790:	f9 1f       	adc	r31, r25
    2792:	bd 01       	movw	r22, r26
    2794:	cf 01       	movw	r24, r30
    2796:	11 24       	eor	r1, r1
    2798:	08 95       	ret

0000279a <__udivmodhi4>:
    279a:	aa 1b       	sub	r26, r26
    279c:	bb 1b       	sub	r27, r27
    279e:	51 e1       	ldi	r21, 0x11	; 17
    27a0:	07 c0       	rjmp	.+14     	; 0x27b0 <__udivmodhi4_ep>

000027a2 <__udivmodhi4_loop>:
    27a2:	aa 1f       	adc	r26, r26
    27a4:	bb 1f       	adc	r27, r27
    27a6:	a6 17       	cp	r26, r22
    27a8:	b7 07       	cpc	r27, r23
    27aa:	10 f0       	brcs	.+4      	; 0x27b0 <__udivmodhi4_ep>
    27ac:	a6 1b       	sub	r26, r22
    27ae:	b7 0b       	sbc	r27, r23

000027b0 <__udivmodhi4_ep>:
    27b0:	88 1f       	adc	r24, r24
    27b2:	99 1f       	adc	r25, r25
    27b4:	5a 95       	dec	r21
    27b6:	a9 f7       	brne	.-22     	; 0x27a2 <__udivmodhi4_loop>
    27b8:	80 95       	com	r24
    27ba:	90 95       	com	r25
    27bc:	bc 01       	movw	r22, r24
    27be:	cd 01       	movw	r24, r26
    27c0:	08 95       	ret

000027c2 <__udivmodsi4>:
    27c2:	a1 e2       	ldi	r26, 0x21	; 33
    27c4:	1a 2e       	mov	r1, r26
    27c6:	aa 1b       	sub	r26, r26
    27c8:	bb 1b       	sub	r27, r27
    27ca:	fd 01       	movw	r30, r26
    27cc:	0d c0       	rjmp	.+26     	; 0x27e8 <__udivmodsi4_ep>

000027ce <__udivmodsi4_loop>:
    27ce:	aa 1f       	adc	r26, r26
    27d0:	bb 1f       	adc	r27, r27
    27d2:	ee 1f       	adc	r30, r30
    27d4:	ff 1f       	adc	r31, r31
    27d6:	a2 17       	cp	r26, r18
    27d8:	b3 07       	cpc	r27, r19
    27da:	e4 07       	cpc	r30, r20
    27dc:	f5 07       	cpc	r31, r21
    27de:	20 f0       	brcs	.+8      	; 0x27e8 <__udivmodsi4_ep>
    27e0:	a2 1b       	sub	r26, r18
    27e2:	b3 0b       	sbc	r27, r19
    27e4:	e4 0b       	sbc	r30, r20
    27e6:	f5 0b       	sbc	r31, r21

000027e8 <__udivmodsi4_ep>:
    27e8:	66 1f       	adc	r22, r22
    27ea:	77 1f       	adc	r23, r23
    27ec:	88 1f       	adc	r24, r24
    27ee:	99 1f       	adc	r25, r25
    27f0:	1a 94       	dec	r1
    27f2:	69 f7       	brne	.-38     	; 0x27ce <__udivmodsi4_loop>
    27f4:	60 95       	com	r22
    27f6:	70 95       	com	r23
    27f8:	80 95       	com	r24
    27fa:	90 95       	com	r25
    27fc:	9b 01       	movw	r18, r22
    27fe:	ac 01       	movw	r20, r24
    2800:	bd 01       	movw	r22, r26
    2802:	cf 01       	movw	r24, r30
    2804:	08 95       	ret

00002806 <utoa>:
    2806:	fb 01       	movw	r30, r22
    2808:	9f 01       	movw	r18, r30
    280a:	42 30       	cpi	r20, 0x02	; 2
    280c:	74 f0       	brlt	.+28     	; 0x282a <utoa+0x24>
    280e:	45 32       	cpi	r20, 0x25	; 37
    2810:	64 f4       	brge	.+24     	; 0x282a <utoa+0x24>
    2812:	64 2f       	mov	r22, r20
    2814:	77 27       	eor	r23, r23
    2816:	0e 94 cd 13 	call	0x279a	; 0x279a <__udivmodhi4>
    281a:	80 5d       	subi	r24, 0xD0	; 208
    281c:	8a 33       	cpi	r24, 0x3A	; 58
    281e:	0c f0       	brlt	.+2      	; 0x2822 <utoa+0x1c>
    2820:	89 5d       	subi	r24, 0xD9	; 217
    2822:	81 93       	st	Z+, r24
    2824:	cb 01       	movw	r24, r22
    2826:	00 97       	sbiw	r24, 0x00	; 0
    2828:	a1 f7       	brne	.-24     	; 0x2812 <utoa+0xc>
    282a:	10 82       	st	Z, r1
    282c:	c9 01       	movw	r24, r18
    282e:	0c 94 2c 14 	jmp	0x2858	; 0x2858 <strrev>

00002832 <__eerd_byte_m168>:
    2832:	f9 99       	sbic	0x1f, 1	; 31
    2834:	fe cf       	rjmp	.-4      	; 0x2832 <__eerd_byte_m168>
    2836:	92 bd       	out	0x22, r25	; 34
    2838:	81 bd       	out	0x21, r24	; 33
    283a:	f8 9a       	sbi	0x1f, 0	; 31
    283c:	99 27       	eor	r25, r25
    283e:	80 b5       	in	r24, 0x20	; 32
    2840:	08 95       	ret

00002842 <__eerd_word_m168>:
    2842:	a8 e1       	ldi	r26, 0x18	; 24
    2844:	b0 e0       	ldi	r27, 0x00	; 0
    2846:	42 e0       	ldi	r20, 0x02	; 2
    2848:	50 e0       	ldi	r21, 0x00	; 0
    284a:	0c 94 3e 14 	jmp	0x287c	; 0x287c <__eerd_blraw_m168>

0000284e <__eewr_word_m168>:
    284e:	0e 94 4c 14 	call	0x2898	; 0x2898 <__eewr_byte_m168>
    2852:	27 2f       	mov	r18, r23
    2854:	0c 94 4d 14 	jmp	0x289a	; 0x289a <__eewr_r18_m168>

00002858 <strrev>:
    2858:	dc 01       	movw	r26, r24
    285a:	fc 01       	movw	r30, r24
    285c:	67 2f       	mov	r22, r23
    285e:	71 91       	ld	r23, Z+
    2860:	77 23       	and	r23, r23
    2862:	e1 f7       	brne	.-8      	; 0x285c <strrev+0x4>
    2864:	32 97       	sbiw	r30, 0x02	; 2
    2866:	04 c0       	rjmp	.+8      	; 0x2870 <strrev+0x18>
    2868:	7c 91       	ld	r23, X
    286a:	6d 93       	st	X+, r22
    286c:	70 83       	st	Z, r23
    286e:	62 91       	ld	r22, -Z
    2870:	ae 17       	cp	r26, r30
    2872:	bf 07       	cpc	r27, r31
    2874:	c8 f3       	brcs	.-14     	; 0x2868 <strrev+0x10>
    2876:	08 95       	ret

00002878 <__eerd_block_m168>:
    2878:	dc 01       	movw	r26, r24
    287a:	cb 01       	movw	r24, r22

0000287c <__eerd_blraw_m168>:
    287c:	fc 01       	movw	r30, r24
    287e:	f9 99       	sbic	0x1f, 1	; 31
    2880:	fe cf       	rjmp	.-4      	; 0x287e <__eerd_blraw_m168+0x2>
    2882:	06 c0       	rjmp	.+12     	; 0x2890 <__eerd_blraw_m168+0x14>
    2884:	f2 bd       	out	0x22, r31	; 34
    2886:	e1 bd       	out	0x21, r30	; 33
    2888:	f8 9a       	sbi	0x1f, 0	; 31
    288a:	31 96       	adiw	r30, 0x01	; 1
    288c:	00 b4       	in	r0, 0x20	; 32
    288e:	0d 92       	st	X+, r0
    2890:	41 50       	subi	r20, 0x01	; 1
    2892:	50 40       	sbci	r21, 0x00	; 0
    2894:	b8 f7       	brcc	.-18     	; 0x2884 <__eerd_blraw_m168+0x8>
    2896:	08 95       	ret

00002898 <__eewr_byte_m168>:
    2898:	26 2f       	mov	r18, r22

0000289a <__eewr_r18_m168>:
    289a:	f9 99       	sbic	0x1f, 1	; 31
    289c:	fe cf       	rjmp	.-4      	; 0x289a <__eewr_r18_m168>
    289e:	1f ba       	out	0x1f, r1	; 31
    28a0:	92 bd       	out	0x22, r25	; 34
    28a2:	81 bd       	out	0x21, r24	; 33
    28a4:	20 bd       	out	0x20, r18	; 32
    28a6:	0f b6       	in	r0, 0x3f	; 63
    28a8:	f8 94       	cli
    28aa:	fa 9a       	sbi	0x1f, 2	; 31
    28ac:	f9 9a       	sbi	0x1f, 1	; 31
    28ae:	0f be       	out	0x3f, r0	; 63
    28b0:	01 96       	adiw	r24, 0x01	; 1
    28b2:	08 95       	ret

000028b4 <_exit>:
    28b4:	f8 94       	cli

000028b6 <__stop_program>:
    28b6:	ff cf       	rjmp	.-2      	; 0x28b6 <__stop_program>
