
TransistorTester.elf:     file format elf32-avr

Sections:
Idx Name          Size      VMA       LMA       File off  Algn
  0 .data         00000002  00800100  000039be  00003a72  2**0
                  CONTENTS, ALLOC, LOAD, DATA
  1 .text         000039be  00000000  00000000  000000b4  2**1
                  CONTENTS, ALLOC, LOAD, READONLY, CODE
  2 .bss          0000007f  00800102  00800102  00003a74  2**0
                  ALLOC
  3 .eeprom       000001c4  00810000  00810000  00003a74  2**0
                  CONTENTS, ALLOC, LOAD, READONLY, DATA
  4 .stab         00000dbc  00000000  00000000  00003c38  2**2
                  CONTENTS, READONLY, DEBUGGING
  5 .stabstr      000001d2  00000000  00000000  000049f4  2**0
                  CONTENTS, READONLY, DEBUGGING
  6 .debug_aranges 000000a0  00000000  00000000  00004bc6  2**0
                  CONTENTS, READONLY, DEBUGGING
  7 .debug_pubnames 00000665  00000000  00000000  00004c66  2**0
                  CONTENTS, READONLY, DEBUGGING
  8 .debug_info   000023f1  00000000  00000000  000052cb  2**0
                  CONTENTS, READONLY, DEBUGGING
  9 .debug_abbrev 000006a0  00000000  00000000  000076bc  2**0
                  CONTENTS, READONLY, DEBUGGING
 10 .debug_line   000031bb  00000000  00000000  00007d5c  2**0
                  CONTENTS, READONLY, DEBUGGING
 11 .debug_frame  00000220  00000000  00000000  0000af18  2**2
                  CONTENTS, READONLY, DEBUGGING
 12 .debug_str    000007ab  00000000  00000000  0000b138  2**0
                  CONTENTS, READONLY, DEBUGGING
 13 .debug_loc    000011e5  00000000  00000000  0000b8e3  2**0
                  CONTENTS, READONLY, DEBUGGING
 14 .debug_pubtypes 00000199  00000000  00000000  0000cac8  2**0
                  CONTENTS, READONLY, DEBUGGING

Disassembly of section .text:

00000000 <__vectors>:
       0:	0c 94 88 00 	jmp	0x110	; 0x110 <__ctors_end>
       4:	0c 94 a5 00 	jmp	0x14a	; 0x14a <__bad_interrupt>
       8:	0c 94 a5 00 	jmp	0x14a	; 0x14a <__bad_interrupt>
       c:	0c 94 a5 00 	jmp	0x14a	; 0x14a <__bad_interrupt>
      10:	0c 94 a5 00 	jmp	0x14a	; 0x14a <__bad_interrupt>
      14:	0c 94 a5 00 	jmp	0x14a	; 0x14a <__bad_interrupt>
      18:	0c 94 a5 00 	jmp	0x14a	; 0x14a <__bad_interrupt>
      1c:	0c 94 a5 00 	jmp	0x14a	; 0x14a <__bad_interrupt>
      20:	0c 94 a5 00 	jmp	0x14a	; 0x14a <__bad_interrupt>
      24:	0c 94 a5 00 	jmp	0x14a	; 0x14a <__bad_interrupt>
      28:	0c 94 a5 00 	jmp	0x14a	; 0x14a <__bad_interrupt>
      2c:	0c 94 a5 00 	jmp	0x14a	; 0x14a <__bad_interrupt>
      30:	0c 94 a5 00 	jmp	0x14a	; 0x14a <__bad_interrupt>
      34:	0c 94 a5 00 	jmp	0x14a	; 0x14a <__bad_interrupt>
      38:	0c 94 a5 00 	jmp	0x14a	; 0x14a <__bad_interrupt>
      3c:	0c 94 a5 00 	jmp	0x14a	; 0x14a <__bad_interrupt>
      40:	0c 94 a5 00 	jmp	0x14a	; 0x14a <__bad_interrupt>
      44:	0c 94 a5 00 	jmp	0x14a	; 0x14a <__bad_interrupt>
      48:	0c 94 a5 00 	jmp	0x14a	; 0x14a <__bad_interrupt>
      4c:	0c 94 a5 00 	jmp	0x14a	; 0x14a <__bad_interrupt>
      50:	0c 94 a5 00 	jmp	0x14a	; 0x14a <__bad_interrupt>
      54:	0c 94 a5 00 	jmp	0x14a	; 0x14a <__bad_interrupt>
      58:	0c 94 a5 00 	jmp	0x14a	; 0x14a <__bad_interrupt>
      5c:	0c 94 a5 00 	jmp	0x14a	; 0x14a <__bad_interrupt>
      60:	0c 94 a5 00 	jmp	0x14a	; 0x14a <__bad_interrupt>
      64:	0c 94 a5 00 	jmp	0x14a	; 0x14a <__bad_interrupt>

00000068 <LogTab>:
      68:	00 01 02 03 04 05 06 07 08 09 0b 0c 0d 0e 0f 10     ................
      78:	11 13 14 15 16 18 19 1a 1b 1d 1e 1f 21 22 24 25     ............!"$%
      88:	27 28 2a 2b 2d 2e 30 31 33 35 36 38 3a 3c 3e 3f     '(*+-.013568:<>?
      98:	41 43 45 47 49 4c 4e 50 52 54 57 59 5c 5e 61 63     ACEGILNPRTWY\^ac
      a8:	66 69 6c 6f 72 75 78 7c 7f 83 87 8b 8f 93 97 9c     filorux|........
      b8:	a1 a6 ab b1 b7 be c5 cc d4 dd e6 f1                 ............

000000c4 <SELFTEST>:
      c4:	53 65 6c 66 74 65 73 74 20 6d 6f 64 65 2e 2e 00     Selftest mode...

000000d4 <RELPROBE>:
      d4:	69 73 6f 6c 61 74 65 20 70 72 6f 62 65 00           isolate probe.

000000e2 <URefT>:
      e2:	52 65 66 3d 00                                      Ref=.

000000e7 <RHfakt>:
      e7:	52 48 66 3d 00                                      RHf=.

000000ec <RH1L>:
      ec:	52 48 2d 00                                         RH-.

000000f0 <RH1H>:
      f0:	52 48 2b 00                                         RH+.

000000f4 <RLRL>:
      f4:	2b 52 4c 2d 20 31 32 20 31 33 20 32 33 00           +RL- 12 13 23.

00000102 <RHRH>:
     102:	2b 52 48 2d 20 31 32 20 31 33 20 32 33 00           +RH- 12 13 23.

00000110 <__ctors_end>:
     110:	11 24       	eor	r1, r1
     112:	1f be       	out	0x3f, r1	; 63
     114:	cf ef       	ldi	r28, 0xFF	; 255
     116:	d4 e0       	ldi	r29, 0x04	; 4
     118:	de bf       	out	0x3e, r29	; 62
     11a:	cd bf       	out	0x3d, r28	; 61

0000011c <__do_copy_data>:
     11c:	11 e0       	ldi	r17, 0x01	; 1
     11e:	a0 e0       	ldi	r26, 0x00	; 0
     120:	b1 e0       	ldi	r27, 0x01	; 1
     122:	ee eb       	ldi	r30, 0xBE	; 190
     124:	f9 e3       	ldi	r31, 0x39	; 57
     126:	02 c0       	rjmp	.+4      	; 0x12c <__do_copy_data+0x10>
     128:	05 90       	lpm	r0, Z+
     12a:	0d 92       	st	X+, r0
     12c:	a2 30       	cpi	r26, 0x02	; 2
     12e:	b1 07       	cpc	r27, r17
     130:	d9 f7       	brne	.-10     	; 0x128 <__do_copy_data+0xc>

00000132 <__do_clear_bss>:
     132:	11 e0       	ldi	r17, 0x01	; 1
     134:	a2 e0       	ldi	r26, 0x02	; 2
     136:	b1 e0       	ldi	r27, 0x01	; 1
     138:	01 c0       	rjmp	.+2      	; 0x13c <.do_clear_bss_start>

0000013a <.do_clear_bss_loop>:
     13a:	1d 92       	st	X+, r1

0000013c <.do_clear_bss_start>:
     13c:	a1 38       	cpi	r26, 0x81	; 129
     13e:	b1 07       	cpc	r27, r17
     140:	e1 f7       	brne	.-8      	; 0x13a <.do_clear_bss_loop>
     142:	0e 94 19 0f 	call	0x1e32	; 0x1e32 <main>
     146:	0c 94 dd 1c 	jmp	0x39ba	; 0x39ba <_exit>

0000014a <__bad_interrupt>:
     14a:	0c 94 00 00 	jmp	0	; 0x0 <__vectors>

0000014e <lcd_enable>:
  LCD_PORT &= 0xF0;
}

// genertes the Enable-Puls
void lcd_enable(void) {
   LCD_PORT |= (1<<LCD_EN1);
     14e:	5d 9a       	sbi	0x0b, 5	; 11
   wait10us();			// short break 
     150:	0e 94 89 14 	call	0x2912	; 0x2912 <wait10us>
   // if problems occure, set the wait time to the value of datasheet of your display
   // http://www.mikrocontroller.net/topic/80900
   LCD_PORT &= ~(1<<LCD_EN1);
     154:	5d 98       	cbi	0x0b, 5	; 11
}
     156:	08 95       	ret

00000158 <lcd_send>:
	}
#endif
}

//output to  LCD; 4-Bit-Modus
void lcd_send(unsigned char data) {
     158:	df 93       	push	r29
     15a:	cf 93       	push	r28
     15c:	0f 92       	push	r0
     15e:	cd b7       	in	r28, 0x3d	; 61
     160:	de b7       	in	r29, 0x3e	; 62
   // set upper Nibble
  LCD_PORT = (LCD_PORT & 0xF0) | ((data >> 4) & 0x0F);
     162:	2b b1       	in	r18, 0x0b	; 11
     164:	98 2f       	mov	r25, r24
     166:	92 95       	swap	r25
     168:	9f 70       	andi	r25, 0x0F	; 15
     16a:	20 7f       	andi	r18, 0xF0	; 240
     16c:	92 2b       	or	r25, r18
     16e:	9b b9       	out	0x0b, r25	; 11
#if F_CPU < 2000000
  _delay_us(5);
#else
  wait5us();
     170:	89 83       	std	Y+1, r24	; 0x01
     172:	0e 94 8a 14 	call	0x2914	; 0x2914 <wait5us>
#endif
  lcd_enable();
     176:	0e 94 a7 00 	call	0x14e	; 0x14e <lcd_enable>
   // set lower Nibble 
  LCD_PORT = (LCD_PORT & 0xF0) | (data & 0x0F);
     17a:	9b b1       	in	r25, 0x0b	; 11
     17c:	89 81       	ldd	r24, Y+1	; 0x01
     17e:	8f 70       	andi	r24, 0x0F	; 15
     180:	90 7f       	andi	r25, 0xF0	; 240
     182:	89 2b       	or	r24, r25
     184:	8b b9       	out	0x0b, r24	; 11
#if F_CPU < 2000000
  _delay_us(5);
#else
  wait5us();
     186:	0e 94 8a 14 	call	0x2914	; 0x2914 <wait5us>
#endif
  lcd_enable();
     18a:	0e 94 a7 00 	call	0x14e	; 0x14e <lcd_enable>
  wait50us();
     18e:	0e 94 85 14 	call	0x290a	; 0x290a <wait50us>
  LCD_PORT &= 0xF0;
     192:	8b b1       	in	r24, 0x0b	; 11
     194:	80 7f       	andi	r24, 0xF0	; 240
     196:	8b b9       	out	0x0b, r24	; 11
}
     198:	0f 90       	pop	r0
     19a:	cf 91       	pop	r28
     19c:	df 91       	pop	r29
     19e:	08 95       	ret

000001a0 <lcd_data>:
void lcd_space(void) {
   lcd_data(' ');
}

// sends data byte to the LCD 
void lcd_data(unsigned char temp1) {
     1a0:	1f 93       	push	r17
     1a2:	18 2f       	mov	r17, r24
 LCD_PORT |= (1<<LCD_RS);        // set RS to 1 
     1a4:	5c 9a       	sbi	0x0b, 4	; 11
 lcd_send(temp1);
     1a6:	0e 94 ac 00 	call	0x158	; 0x158 <lcd_send>
#ifdef WITH_UART
 switch(temp1) {
     1aa:	18 30       	cpi	r17, 0x08	; 8
     1ac:	48 f4       	brcc	.+18     	; 0x1c0 <lcd_data+0x20>
     1ae:	16 30       	cpi	r17, 0x06	; 6
     1b0:	d0 f4       	brcc	.+52     	; 0x1e6 <lcd_data+0x46>
     1b2:	12 30       	cpi	r17, 0x02	; 2
     1b4:	71 f0       	breq	.+28     	; 0x1d2 <lcd_data+0x32>
     1b6:	13 30       	cpi	r17, 0x03	; 3
     1b8:	89 f0       	breq	.+34     	; 0x1dc <lcd_data+0x3c>
     1ba:	11 30       	cpi	r17, 0x01	; 1
     1bc:	d1 f4       	brne	.+52     	; 0x1f2 <lcd_data+0x52>
     1be:	07 c0       	rjmp	.+14     	; 0x1ce <lcd_data+0x2e>
     1c0:	14 3e       	cpi	r17, 0xE4	; 228
     1c2:	a9 f0       	breq	.+42     	; 0x1ee <lcd_data+0x4e>
     1c4:	14 3f       	cpi	r17, 0xF4	; 244
     1c6:	c1 f0       	breq	.+48     	; 0x1f8 <lcd_data+0x58>
     1c8:	11 3e       	cpi	r17, 0xE1	; 225
     1ca:	99 f4       	brne	.+38     	; 0x1f2 <lcd_data+0x52>
     1cc:	0e c0       	rjmp	.+28     	; 0x1ea <lcd_data+0x4a>
    case LCD_CHAR_DIODE1:
    	uart_putc('>');
     1ce:	8e e3       	ldi	r24, 0x3E	; 62
     1d0:	06 c0       	rjmp	.+12     	; 0x1de <lcd_data+0x3e>
    	uart_putc('|');
    	break;
    case LCD_CHAR_DIODE2:
    	uart_putc('|');
     1d2:	8c e7       	ldi	r24, 0x7C	; 124
     1d4:	0e 94 4b 14 	call	0x2896	; 0x2896 <uart_putc>
    	uart_putc('<');
     1d8:	8c e3       	ldi	r24, 0x3C	; 60
     1da:	0c c0       	rjmp	.+24     	; 0x1f4 <lcd_data+0x54>
    	break;
    case LCD_CHAR_CAP:
    	uart_putc('|');
     1dc:	8c e7       	ldi	r24, 0x7C	; 124
     1de:	0e 94 4b 14 	call	0x2896	; 0x2896 <uart_putc>
    	uart_putc('|');
     1e2:	8c e7       	ldi	r24, 0x7C	; 124
     1e4:	07 c0       	rjmp	.+14     	; 0x1f4 <lcd_data+0x54>
    	break;
    case LCD_CHAR_RESIS1:
    case LCD_CHAR_RESIS2:
    	uart_putc('R');
     1e6:	82 e5       	ldi	r24, 0x52	; 82
     1e8:	05 c0       	rjmp	.+10     	; 0x1f4 <lcd_data+0x54>
    	break;
    case 225:	//ä
    	uart_putc('ä');
     1ea:	84 ee       	ldi	r24, 0xE4	; 228
     1ec:	03 c0       	rjmp	.+6      	; 0x1f4 <lcd_data+0x54>
    	break;
    case 228:	//µ
    	uart_putc('µ');
     1ee:	85 eb       	ldi	r24, 0xB5	; 181
     1f0:	01 c0       	rjmp	.+2      	; 0x1f4 <lcd_data+0x54>
    	break;
    case 244:	//Omega
    	break;
    default:
    	uart_putc(temp1);
     1f2:	81 2f       	mov	r24, r17
     1f4:	0e 94 4b 14 	call	0x2896	; 0x2896 <uart_putc>
 }
#endif
}
     1f8:	1f 91       	pop	r17
     1fa:	08 95       	ret

000001fc <lcd_space>:
   lcd_data(temp + '1');
}

// send space character to LCD
void lcd_space(void) {
   lcd_data(' ');
     1fc:	80 e2       	ldi	r24, 0x20	; 32
     1fe:	0e 94 d0 00 	call	0x1a0	; 0x1a0 <lcd_data>
}
     202:	08 95       	ret

00000204 <lcd_testpin>:
 

// sends numeric character (Pin Number) to the LCD 
// from binary 0 we send ASCII 1 ....
void lcd_testpin(unsigned char temp) {
   lcd_data(temp + '1');
     204:	8f 5c       	subi	r24, 0xCF	; 207
     206:	0e 94 d0 00 	call	0x1a0	; 0x1a0 <lcd_data>
}
     20a:	08 95       	ret

0000020c <uart_newline>:
}


#ifdef WITH_UART
void uart_newline(void) {
   uart_putc('\r');
     20c:	8d e0       	ldi	r24, 0x0D	; 13
     20e:	0e 94 4b 14 	call	0x2896	; 0x2896 <uart_putc>
   uart_putc('\n');
     212:	8a e0       	ldi	r24, 0x0A	; 10
     214:	0e 94 4b 14 	call	0x2896	; 0x2896 <uart_putc>
}
     218:	08 95       	ret

0000021a <lcd_command>:
#endif
}
 
// sends a command to the LCD
 
void lcd_command(unsigned char temp1) {
     21a:	1f 93       	push	r17
     21c:	18 2f       	mov	r17, r24
	LCD_PORT &= ~(1<<LCD_RS);        // set RS to 0 
     21e:	5c 98       	cbi	0x0b, 4	; 11
	lcd_send(temp1);
     220:	0e 94 ac 00 	call	0x158	; 0x158 <lcd_send>
#ifdef WITH_UART
	if((temp1 == 0x80) || (temp1 == 0xC0)) {
     224:	10 38       	cpi	r17, 0x80	; 128
     226:	11 f0       	breq	.+4      	; 0x22c <lcd_command+0x12>
     228:	10 3c       	cpi	r17, 0xC0	; 192
     22a:	11 f4       	brne	.+4      	; 0x230 <lcd_command+0x16>
		uart_newline();
     22c:	0e 94 06 01 	call	0x20c	; 0x20c <uart_newline>
	}
#endif
}
     230:	1f 91       	pop	r17
     232:	08 95       	ret

00000234 <lcd_clear>:
}
 
// send the command to clear the display 
 
void lcd_clear(void) {
   lcd_command(CLEAR_DISPLAY);
     234:	81 e0       	ldi	r24, 0x01	; 1
     236:	0e 94 0d 01 	call	0x21a	; 0x21a <lcd_command>
   wait5ms();
     23a:	0e 94 7b 14 	call	0x28f6	; 0x28f6 <wait5ms>
#ifdef WITH_UART
   uart_newline();
     23e:	0e 94 06 01 	call	0x20c	; 0x20c <uart_newline>
#endif
}
     242:	08 95       	ret

00000244 <lcd_init>:
 
// Initialise: 
// Mustt be called first .
 
void lcd_init(void) {
   LCD_DDR = LCD_DDR | 0x0F | (1<<LCD_RS) | (1<<LCD_EN1);   // switch Port to output
     244:	8a b1       	in	r24, 0x0a	; 10
     246:	8f 63       	ori	r24, 0x3F	; 63
     248:	8a b9       	out	0x0a, r24	; 10
   // to initialise, send 3 times
          wait30ms();
     24a:	0e 94 78 14 	call	0x28f0	; 0x28f0 <wait30ms>
   LCD_PORT = (LCD_PORT & 0xF0 & ~(1<<LCD_RS)) | 0x03;
     24e:	8b b1       	in	r24, 0x0b	; 11
     250:	80 7e       	andi	r24, 0xE0	; 224
     252:	83 60       	ori	r24, 0x03	; 3
     254:	8b b9       	out	0x0b, r24	; 11
   lcd_enable();
     256:	0e 94 a7 00 	call	0x14e	; 0x14e <lcd_enable>

   wait5ms();
     25a:	0e 94 7b 14 	call	0x28f6	; 0x28f6 <wait5ms>
   lcd_enable();
     25e:	0e 94 a7 00 	call	0x14e	; 0x14e <lcd_enable>

   wait1ms();
     262:	0e 94 7f 14 	call	0x28fe	; 0x28fe <wait1ms>
   lcd_enable();
     266:	0e 94 a7 00 	call	0x14e	; 0x14e <lcd_enable>
   wait1ms();
     26a:	0e 94 7f 14 	call	0x28fe	; 0x28fe <wait1ms>
   LCD_PORT = (LCD_PORT & 0xF0 & ~(1<<LCD_RS)) | 0x02;
     26e:	8b b1       	in	r24, 0x0b	; 11
     270:	80 7e       	andi	r24, 0xE0	; 224
     272:	82 60       	ori	r24, 0x02	; 2
     274:	8b b9       	out	0x0b, r24	; 11
   wait1ms();
     276:	0e 94 7f 14 	call	0x28fe	; 0x28fe <wait1ms>
   lcd_enable();
     27a:	0e 94 a7 00 	call	0x14e	; 0x14e <lcd_enable>
   wait1ms();
     27e:	0e 94 7f 14 	call	0x28fe	; 0x28fe <wait1ms>

   // 4Bit / 2 rows / 5x7
   lcd_command(CMD_SetIFOptions | 0x08);
     282:	88 e2       	ldi	r24, 0x28	; 40
     284:	0e 94 0d 01 	call	0x21a	; 0x21a <lcd_command>

   // Display on / Cursor off / no Blinking
   lcd_command(CMD_SetDisplayAndCursor | 0x04);
     288:	8c e0       	ldi	r24, 0x0C	; 12
     28a:	0e 94 0d 01 	call	0x21a	; 0x21a <lcd_command>

   // increment / no Scroll    
   lcd_command(CMD_SetEntryMode | 0x02);	
     28e:	86 e0       	ldi	r24, 0x06	; 6
     290:	0e 94 0d 01 	call	0x21a	; 0x21a <lcd_command>
   lcd_clear();
     294:	0e 94 1a 01 	call	0x234	; 0x234 <lcd_clear>
}
     298:	08 95       	ret

0000029a <lcd_string>:
#endif
 
 
// writes a string to the LCD 
 
void lcd_string(char *data) {
     29a:	ef 92       	push	r14
     29c:	ff 92       	push	r15
     29e:	cf 93       	push	r28
     2a0:	df 93       	push	r29
     2a2:	e8 2e       	mov	r14, r24
     2a4:	e7 01       	movw	r28, r14
     2a6:	7e 01       	movw	r14, r28
     2a8:	f9 2e       	mov	r15, r25
     2aa:	e7 01       	movw	r28, r14
    while(*data) {
     2ac:	02 c0       	rjmp	.+4      	; 0x2b2 <lcd_string+0x18>
        lcd_data(*data);
     2ae:	0e 94 d0 00 	call	0x1a0	; 0x1a0 <lcd_data>
 
 
// writes a string to the LCD 
 
void lcd_string(char *data) {
    while(*data) {
     2b2:	89 91       	ld	r24, Y+
     2b4:	88 23       	and	r24, r24
     2b6:	d9 f7       	brne	.-10     	; 0x2ae <lcd_string+0x14>
        lcd_data(*data);
        data++;
    }
}
     2b8:	df 91       	pop	r29
     2ba:	cf 91       	pop	r28
     2bc:	ff 90       	pop	r15
     2be:	ef 90       	pop	r14
     2c0:	08 95       	ret

000002c2 <lcd_pgm_string>:

#ifdef AUTO_CAL
//Load string from PGM  and send to LCD 
void lcd_pgm_string(const unsigned char *data) {
     2c2:	cf 93       	push	r28
     2c4:	df 93       	push	r29
     2c6:	ec 01       	movw	r28, r24
   unsigned char cc;
   while(1) {
      cc = pgm_read_byte(data);
     2c8:	fe 01       	movw	r30, r28
     2ca:	84 91       	lpm	r24, Z+
      if((cc==0) || (cc==128)) {
     2cc:	88 23       	and	r24, r24
     2ce:	31 f0       	breq	.+12     	; 0x2dc <lcd_pgm_string+0x1a>
     2d0:	80 38       	cpi	r24, 0x80	; 128
     2d2:	21 f0       	breq	.+8      	; 0x2dc <lcd_pgm_string+0x1a>
         return;
      }
      lcd_data(cc);
     2d4:	0e 94 d0 00 	call	0x1a0	; 0x1a0 <lcd_data>
      data++;
     2d8:	21 96       	adiw	r28, 0x01	; 1
   }
     2da:	f6 cf       	rjmp	.-20     	; 0x2c8 <lcd_pgm_string+0x6>
}
     2dc:	df 91       	pop	r29
     2de:	cf 91       	pop	r28
     2e0:	08 95       	ret

000002e2 <lcd_fix_string>:
#endif

//Load string from PGM or EEprom and send to LCD 
void lcd_fix_string(const unsigned char *data) {
     2e2:	cf 93       	push	r28
     2e4:	df 93       	push	r29
     2e6:	ec 01       	movw	r28, r24
   unsigned char cc;
   while(1) {
      cc = MEM_read_byte(data);
     2e8:	ce 01       	movw	r24, r28
     2ea:	0e 94 9c 1c 	call	0x3938	; 0x3938 <__eerd_byte_m168>
      if((cc==0) || (cc==128)) {
     2ee:	88 23       	and	r24, r24
     2f0:	31 f0       	breq	.+12     	; 0x2fe <lcd_fix_string+0x1c>
     2f2:	80 38       	cpi	r24, 0x80	; 128
     2f4:	21 f0       	breq	.+8      	; 0x2fe <lcd_fix_string+0x1c>
         return;
      }
      lcd_data(cc);
     2f6:	0e 94 d0 00 	call	0x1a0	; 0x1a0 <lcd_data>
      data++;
     2fa:	21 96       	adiw	r28, 0x01	; 1
   }
     2fc:	f5 cf       	rjmp	.-22     	; 0x2e8 <lcd_fix_string+0x6>
}
     2fe:	df 91       	pop	r29
     300:	cf 91       	pop	r28
     302:	08 95       	ret

00000304 <lcd_fix_customchar>:

// load custom character from PGM or EEprom and send to LCD
void lcd_fix_customchar(const unsigned char *chardata) {	
     304:	0f 93       	push	r16
     306:	1f 93       	push	r17
     308:	cf 93       	push	r28
     30a:	df 93       	push	r29
     30c:	8c 01       	movw	r16, r24
     30e:	c0 e0       	ldi	r28, 0x00	; 0
     310:	d0 e0       	ldi	r29, 0x00	; 0
    for(uint8_t i=0;i<8;i++) {
        lcd_data(MEM_read_byte(chardata));
     312:	c8 01       	movw	r24, r16
     314:	8c 0f       	add	r24, r28
     316:	9d 1f       	adc	r25, r29
     318:	0e 94 9c 1c 	call	0x3938	; 0x3938 <__eerd_byte_m168>
     31c:	0e 94 d0 00 	call	0x1a0	; 0x1a0 <lcd_data>
     320:	21 96       	adiw	r28, 0x01	; 1
   }
}

// load custom character from PGM or EEprom and send to LCD
void lcd_fix_customchar(const unsigned char *chardata) {	
    for(uint8_t i=0;i<8;i++) {
     322:	c8 30       	cpi	r28, 0x08	; 8
     324:	d1 05       	cpc	r29, r1
     326:	a9 f7       	brne	.-22     	; 0x312 <lcd_fix_customchar+0xe>
        lcd_data(MEM_read_byte(chardata));
        chardata++;
    }
}
     328:	df 91       	pop	r29
     32a:	cf 91       	pop	r28
     32c:	1f 91       	pop	r17
     32e:	0f 91       	pop	r16
     330:	08 95       	ret

00000332 <ChargePin10ms>:
#endif

//******************************************************************
#include "CheckPins.c"

void ChargePin10ms(uint8_t PinToCharge, uint8_t ChargeDirection) {
     332:	df 93       	push	r29
     334:	cf 93       	push	r28
     336:	0f 92       	push	r0
     338:	cd b7       	in	r28, 0x3d	; 61
     33a:	de b7       	in	r29, 0x3e	; 62
   //Will be used by discharge of MOSFET Gates or to load big capacities.
   //Parameters:
   //PinToCharge: specifies the pin as mask for R-Port
   //ChargeDirection: 0 = switch to GND (N-Kanal-FET), 1= switch to VCC(P-Kanal-FET)

   if(ChargeDirection&1) {
     33c:	60 ff       	sbrs	r22, 0
     33e:	03 c0       	rjmp	.+6      	; 0x346 <ChargePin10ms+0x14>
      R_PORT |= PinToCharge;	//R_PORT to 1 (VCC) 
     340:	95 b1       	in	r25, 0x05	; 5
     342:	98 2b       	or	r25, r24
     344:	04 c0       	rjmp	.+8      	; 0x34e <ChargePin10ms+0x1c>
   } else {
      R_PORT &= ~PinToCharge; // or 0 (GND)
     346:	25 b1       	in	r18, 0x05	; 5
     348:	98 2f       	mov	r25, r24
     34a:	90 95       	com	r25
     34c:	92 23       	and	r25, r18
     34e:	95 b9       	out	0x05, r25	; 5
   }
   R_DDR |= PinToCharge;		//switch Pin to output, across R to GND or VCC
     350:	94 b1       	in	r25, 0x04	; 4
     352:	98 2b       	or	r25, r24
     354:	94 b9       	out	0x04, r25	; 4
   wait10ms();
     356:	89 83       	std	Y+1, r24	; 0x01
     358:	0e 94 7a 14 	call	0x28f4	; 0x28f4 <wait10ms>
   // switch back Input, no current
   R_DDR &= ~PinToCharge;	// switch back to input
     35c:	94 b1       	in	r25, 0x04	; 4
     35e:	89 81       	ldd	r24, Y+1	; 0x01
     360:	80 95       	com	r24
     362:	98 23       	and	r25, r24
     364:	94 b9       	out	0x04, r25	; 4
   R_PORT &= ~PinToCharge;	// no Pull up
     366:	95 b1       	in	r25, 0x05	; 5
     368:	98 23       	and	r25, r24
     36a:	95 b9       	out	0x05, r25	; 5
}
     36c:	0f 90       	pop	r0
     36e:	cf 91       	pop	r28
     370:	df 91       	pop	r29
     372:	08 95       	ret

00000374 <CheckPins>:
//******************************************************************
void CheckPins(uint8_t HighPin, uint8_t LowPin, uint8_t TristatePin)
  {
     374:	2f 92       	push	r2
     376:	3f 92       	push	r3
     378:	4f 92       	push	r4
     37a:	5f 92       	push	r5
     37c:	6f 92       	push	r6
     37e:	7f 92       	push	r7
     380:	8f 92       	push	r8
     382:	9f 92       	push	r9
     384:	af 92       	push	r10
     386:	bf 92       	push	r11
     388:	cf 92       	push	r12
     38a:	df 92       	push	r13
     38c:	ef 92       	push	r14
     38e:	ff 92       	push	r15
     390:	0f 93       	push	r16
     392:	1f 93       	push	r17
     394:	df 93       	push	r29
     396:	cf 93       	push	r28
     398:	cd b7       	in	r28, 0x3d	; 61
     39a:	de b7       	in	r29, 0x3e	; 62
     39c:	66 97       	sbiw	r28, 0x16	; 22
     39e:	0f b6       	in	r0, 0x3f	; 63
     3a0:	f8 94       	cli
     3a2:	de bf       	out	0x3e, r29	; 62
     3a4:	0f be       	out	0x3f, r0	; 63
     3a6:	cd bf       	out	0x3d, r28	; 61
     3a8:	18 2f       	mov	r17, r24
     3aa:	06 2f       	mov	r16, r22
     3ac:	49 83       	std	Y+1, r20	; 0x01
  /*
    switch HighPin directls to VCC 
    switch R_L port for LowPin to GND 
    TristatePin remains switched to input , no action required 
  */
  wdt_reset();
     3ae:	a8 95       	wdr
//  #define RR680MI resis680mi
//#else
//  #define RR680PL (R_L_VAL + PIN_RP)
//  #define RR680MI (R_L_VAL + PIN_RM)
//#endif
  LoPinRL = MEM_read_byte(&PinRLtab[LowPin]);		// intruction for LowPin R_L
     3b0:	a6 2e       	mov	r10, r22
     3b2:	bb 24       	eor	r11, r11
     3b4:	c5 01       	movw	r24, r10
     3b6:	87 55       	subi	r24, 0x57	; 87
     3b8:	9e 4f       	sbci	r25, 0xFE	; 254
     3ba:	0e 94 9c 1c 	call	0x3938	; 0x3938 <__eerd_byte_m168>
     3be:	8c 83       	std	Y+4, r24	; 0x04
  LoPinRH = LoPinRL + LoPinRL;				// intruction for LowPin R_H
  TriPinRL = MEM_read_byte(&PinRLtab[TristatePin]);	// intruction for TristatePin R_L
     3c0:	29 81       	ldd	r18, Y+1	; 0x01
     3c2:	82 2f       	mov	r24, r18
     3c4:	90 e0       	ldi	r25, 0x00	; 0
     3c6:	87 55       	subi	r24, 0x57	; 87
     3c8:	9e 4f       	sbci	r25, 0xFE	; 254
     3ca:	0e 94 9c 1c 	call	0x3938	; 0x3938 <__eerd_byte_m168>
     3ce:	8a 83       	std	Y+2, r24	; 0x02
  TriPinRH = TriPinRL + TriPinRL;			// intruction for TristatePin R_H
     3d0:	d8 2e       	mov	r13, r24
     3d2:	dd 0c       	add	r13, r13
  HiPinRL = MEM_read_byte(&PinRLtab[HighPin]);		// intruction for HighPin R_L
     3d4:	e1 2e       	mov	r14, r17
     3d6:	ff 24       	eor	r15, r15
     3d8:	c7 01       	movw	r24, r14
     3da:	87 55       	subi	r24, 0x57	; 87
     3dc:	9e 4f       	sbci	r25, 0xFE	; 254
     3de:	0e 94 9c 1c 	call	0x3938	; 0x3938 <__eerd_byte_m168>
     3e2:	c8 2e       	mov	r12, r24
  HiPinRH = HiPinRL + HiPinRL;				// intruction for HighPin R_H
     3e4:	38 2f       	mov	r19, r24
     3e6:	33 0f       	add	r19, r19
     3e8:	3a 87       	std	Y+10, r19	; 0x0a

  HiADCp = MEM_read_byte(&PinADCtab[HighPin]);		// intruction for ADC High-Pin 
     3ea:	c7 01       	movw	r24, r14
     3ec:	84 55       	subi	r24, 0x54	; 84
     3ee:	9e 4f       	sbci	r25, 0xFE	; 254
     3f0:	0e 94 9c 1c 	call	0x3938	; 0x3938 <__eerd_byte_m168>
     3f4:	8b 83       	std	Y+3, r24	; 0x03
  LoADCp = MEM_read_byte(&PinADCtab[LowPin]);		// intruction for ADC Low-Pin
     3f6:	c5 01       	movw	r24, r10
     3f8:	84 55       	subi	r24, 0x54	; 84
     3fa:	9e 4f       	sbci	r25, 0xFE	; 254
     3fc:	0e 94 9c 1c 	call	0x3938	; 0x3938 <__eerd_byte_m168>
  HiADCm = HiADCp | TXD_MSK;
     400:	9b 81       	ldd	r25, Y+3	; 0x03
     402:	98 60       	ori	r25, 0x08	; 8
     404:	9b 83       	std	Y+3, r25	; 0x03
  HiADCp |= TXD_VAL;
  LoADCm = LoADCp | TXD_MSK;
     406:	88 60       	ori	r24, 0x08	; 8
     408:	8d 83       	std	Y+5, r24	; 0x05
  LoADCp |= TXD_VAL;

  //setting of Pins 
  R_PORT = 0;				//resistor-Port outputs to 0
     40a:	15 b8       	out	0x05, r1	; 5
  R_DDR = LoPinRL;			//Low-Pin to output and across R_L to GND
     40c:	ac 81       	ldd	r26, Y+4	; 0x04
     40e:	a4 b9       	out	0x04, r26	; 4
  ADC_DDR = HiADCm;		//High-Pin to output
     410:	97 b9       	out	0x07, r25	; 7
  ADC_PORT = HiADCp;		//High-Pin fix to Vcc
     412:	98 b9       	out	0x08, r25	; 8
  //for some MOSFET the gate (TristatePin) must be discharged
  ChargePin10ms(TriPinRL,0);		//discharge for N-Kanal
     414:	8a 81       	ldd	r24, Y+2	; 0x02
     416:	60 e0       	ldi	r22, 0x00	; 0
     418:	0e 94 99 01 	call	0x332	; 0x332 <ChargePin10ms>
  adc.lp_otr = W5msReadADC(LowPin);	//read voltage of Low-Pin 
     41c:	80 2f       	mov	r24, r16
     41e:	0e 94 b6 19 	call	0x336c	; 0x336c <W5msReadADC>
     422:	9c 87       	std	Y+12, r25	; 0x0c
     424:	8b 87       	std	Y+11, r24	; 0x0b
  if(adc.lp_otr >= 977) {		//no current now? 
     426:	b3 e0       	ldi	r27, 0x03	; 3
     428:	81 3d       	cpi	r24, 0xD1	; 209
     42a:	9b 07       	cpc	r25, r27
     42c:	48 f0       	brcs	.+18     	; 0x440 <CheckPins+0xcc>
     ChargePin10ms(TriPinRL,1);	 	//else: discharge for P-channel (Gate to VCC)
     42e:	8a 81       	ldd	r24, Y+2	; 0x02
     430:	61 e0       	ldi	r22, 0x01	; 1
     432:	0e 94 99 01 	call	0x332	; 0x332 <ChargePin10ms>
     adc.lp_otr = ReadADC(LowPin);	//read voltage of Low-Pin again
     436:	80 2f       	mov	r24, r16
     438:	0e 94 b8 19 	call	0x3370	; 0x3370 <ReadADC>
     43c:	9c 87       	std	Y+12, r25	; 0x0c
     43e:	8b 87       	std	Y+11, r24	; 0x0b
  lcd_line2();
  lcd_clear_line();
  lcd_line2();
#endif

  if(adc.lp_otr > 92) {  //there is some current without TristatePin current 
     440:	eb 85       	ldd	r30, Y+11	; 0x0b
     442:	fc 85       	ldd	r31, Y+12	; 0x0c
     444:	ed 35       	cpi	r30, 0x5D	; 93
     446:	f1 05       	cpc	r31, r1
     448:	08 f4       	brcc	.+2      	; 0x44c <CheckPins+0xd8>
     44a:	ac c0       	rjmp	.+344    	; 0x5a4 <__stack+0xa5>
     lcd_testpin(HighPin);
     lcd_space();
     wait1s();
#endif
     //Test if N-JFET or if self-conducting N-MOSFET
     R_DDR = LoPinRL | TriPinRH;	//switch R_H for Tristate-Pin (probably Gate) to GND
     44c:	8c 81       	ldd	r24, Y+4	; 0x04
     44e:	8d 29       	or	r24, r13
     450:	84 b9       	out	0x04, r24	; 4
     adc.lp1 = W20msReadADC(LowPin);	//measure voltage at the assumed Source 
     452:	80 2f       	mov	r24, r16
     454:	0e 94 b2 19 	call	0x3364	; 0x3364 <W20msReadADC>
     458:	5c 01       	movw	r10, r24
     adc.tp1 = ReadADC(TristatePin);	// measure Gate voltage
     45a:	89 81       	ldd	r24, Y+1	; 0x01
     45c:	0e 94 b8 19 	call	0x3370	; 0x3370 <ReadADC>
     460:	7c 01       	movw	r14, r24
     R_PORT = TriPinRH;			//switch R_H for Tristate-Pin (probably Gate) to VCC
     462:	d5 b8       	out	0x05, r13	; 5
     adc.lp2 = W20msReadADC(LowPin);	//measure voltage at the assumed Source again
     464:	80 2f       	mov	r24, r16
     466:	0e 94 b2 19 	call	0x3364	; 0x3364 <W20msReadADC>
     //If it is a self-conducting MOSFET or JFET, then must be: adc.lp2 > adc.lp1 
     if(adc.lp2>(adc.lp1+488)) {
     46a:	95 01       	movw	r18, r10
     46c:	28 51       	subi	r18, 0x18	; 24
     46e:	3e 4f       	sbci	r19, 0xFE	; 254
     470:	28 17       	cp	r18, r24
     472:	39 07       	cpc	r19, r25
     474:	08 f0       	brcs	.+2      	; 0x478 <CheckPins+0x104>
     476:	41 c0       	rjmp	.+130    	; 0x4fa <CheckPins+0x186>
        //measure voltage at the  Gate, differ between MOSFET and JFET
        ADC_PORT = TXD_VAL;
     478:	88 e0       	ldi	r24, 0x08	; 8
     47a:	88 b9       	out	0x08, r24	; 8
        ADC_DDR = LoADCm;	//Low-Pin fix to GND
     47c:	fd 81       	ldd	r31, Y+5	; 0x05
     47e:	f7 b9       	out	0x07, r31	; 7
        R_DDR = TriPinRH | HiPinRL;	//High-Pin to output
     480:	8d 2d       	mov	r24, r13
     482:	8c 29       	or	r24, r12
     484:	84 b9       	out	0x04, r24	; 4
        R_PORT = TriPinRH | HiPinRL;	//switch R_L for High-Pin to VCC
     486:	85 b9       	out	0x05, r24	; 5
        adc.lp2 = W20msReadADC(TristatePin); //read voltage of assumed Gate 
     488:	89 81       	ldd	r24, Y+1	; 0x01
     48a:	0e 94 b2 19 	call	0x3364	; 0x3364 <W20msReadADC>
        if(adc.lp2>3911) {  //MOSFET
     48e:	2f e0       	ldi	r18, 0x0F	; 15
     490:	88 34       	cpi	r24, 0x48	; 72
     492:	92 07       	cpc	r25, r18
     494:	28 f0       	brcs	.+10     	; 0x4a0 <CheckPins+0x12c>
           PartFound = PART_FET;	//N-Kanal-MOSFET
     496:	83 e0       	ldi	r24, 0x03	; 3
     498:	80 93 09 01 	sts	0x0109, r24
           PartMode = PART_MODE_N_D_MOS; //Depletion-MOSFET
     49c:	84 e0       	ldi	r24, 0x04	; 4
     49e:	04 c0       	rjmp	.+8      	; 0x4a8 <CheckPins+0x134>
        } else {  //JFET (pn-passage between Gate and Source is conducting )
           PartFound = PART_FET;	//N-Kanal-JFET
     4a0:	83 e0       	ldi	r24, 0x03	; 3
     4a2:	80 93 09 01 	sts	0x0109, r24
           PartMode = PART_MODE_N_JFET;
     4a6:	86 e0       	ldi	r24, 0x06	; 6
     4a8:	80 93 08 01 	sts	0x0108, r24
        }
//      if ((PartReady == 0) || (adc.lp1 > trans.uBE[0])) 
//      there is no way to find out the right Source / Drain
        trans.uBE[0] = adc.lp1;
     4ac:	b0 92 52 01 	sts	0x0152, r11
     4b0:	a0 92 51 01 	sts	0x0151, r10
        gthvoltage = adc.lp1 - adc.tp1;	//voltage GS (Source - Gate)
     4b4:	c5 01       	movw	r24, r10
     4b6:	8e 19       	sub	r24, r14
     4b8:	9f 09       	sbc	r25, r15
     4ba:	90 93 5a 01 	sts	0x015A, r25
     4be:	80 93 59 01 	sts	0x0159, r24
        trans.uBE[1] = (unsigned int)(((unsigned long)adc.lp1 * 1000) / RR680MI); // Id 0.01mA
     4c2:	b5 01       	movw	r22, r10
     4c4:	80 e0       	ldi	r24, 0x00	; 0
     4c6:	90 e0       	ldi	r25, 0x00	; 0
     4c8:	28 ee       	ldi	r18, 0xE8	; 232
     4ca:	33 e0       	ldi	r19, 0x03	; 3
     4cc:	40 e0       	ldi	r20, 0x00	; 0
     4ce:	50 e0       	ldi	r21, 0x00	; 0
     4d0:	0e 94 e9 1b 	call	0x37d2	; 0x37d2 <__mulsi3>
     4d4:	20 91 04 01 	lds	r18, 0x0104
     4d8:	30 91 05 01 	lds	r19, 0x0105
     4dc:	40 e0       	ldi	r20, 0x00	; 0
     4de:	50 e0       	ldi	r21, 0x00	; 0
     4e0:	0e 94 28 1c 	call	0x3850	; 0x3850 <__udivmodsi4>
     4e4:	30 93 54 01 	sts	0x0154, r19
     4e8:	20 93 53 01 	sts	0x0153, r18
        trans.b = TristatePin;		//save Pin numbers found for this FET
     4ec:	39 81       	ldd	r19, Y+1	; 0x01
     4ee:	30 93 55 01 	sts	0x0155, r19
        trans.c = HighPin;
     4f2:	10 93 56 01 	sts	0x0156, r17
        trans.e = LowPin;
     4f6:	00 93 57 01 	sts	0x0157, r16
     }

     ADC_PORT = TXD_VAL;		// direct outputs to GND
     4fa:	88 e0       	ldi	r24, 0x08	; 8
     4fc:	88 b9       	out	0x08, r24	; 8

     //Test, if P-JFET or if self-conducting P-MOSFET
     ADC_DDR = LoADCm;		//switch Low-Pin (assumed Drain) direct to GND,
     4fe:	8d 81       	ldd	r24, Y+5	; 0x05
     500:	87 b9       	out	0x07, r24	; 7
				//R_H for Tristate-Pin (assumed Gate) is already switched to VCC
     R_DDR = TriPinRH | HiPinRL;	//High-Pin to output
     502:	8d 2d       	mov	r24, r13
     504:	8c 29       	or	r24, r12
     506:	84 b9       	out	0x04, r24	; 4
     R_PORT = TriPinRH | HiPinRL;	//High-Pin across R_L to Vcc
     508:	85 b9       	out	0x05, r24	; 5
     adc.hp1 = W20msReadADC(HighPin);	//measure voltage at assumed Source 
     50a:	81 2f       	mov	r24, r17
     50c:	0e 94 b2 19 	call	0x3364	; 0x3364 <W20msReadADC>
     510:	5c 01       	movw	r10, r24
     adc.tp1 = ReadADC(TristatePin);	// measure Gate voltage
     512:	89 81       	ldd	r24, Y+1	; 0x01
     514:	0e 94 b8 19 	call	0x3370	; 0x3370 <ReadADC>
     518:	7c 01       	movw	r14, r24
     R_PORT = HiPinRL;			//switch R_H for Tristate-Pin (assumed Gate) to GND
     51a:	c5 b8       	out	0x05, r12	; 5
     adc.hp2 = W20msReadADC(HighPin);	//read voltage at assumed Source again
     51c:	81 2f       	mov	r24, r17
     51e:	0e 94 b2 19 	call	0x3364	; 0x3364 <W20msReadADC>
     //if it is a self-conducting P_MOSFET or P-JFET , then must be:  adc.hp1 > adc.hp2 
     if(adc.hp1>(adc.hp2+488)) {
     522:	88 51       	subi	r24, 0x18	; 24
     524:	9e 4f       	sbci	r25, 0xFE	; 254
     526:	8a 15       	cp	r24, r10
     528:	9b 05       	cpc	r25, r11
     52a:	e0 f5       	brcc	.+120    	; 0x5a4 <__stack+0xa5>
        //read voltage at the Gate , to differ between MOSFET and JFET
        ADC_PORT = HiADCp;	//switch High-Pin directly to VCC
     52c:	9b 81       	ldd	r25, Y+3	; 0x03
     52e:	98 b9       	out	0x08, r25	; 8
        ADC_DDR = HiADCm;	//switch High-Pin to output
     530:	97 b9       	out	0x07, r25	; 7
        adc.tp2 = W20msReadADC(TristatePin); //read voltage at the assumed Gate 
     532:	89 81       	ldd	r24, Y+1	; 0x01
     534:	0e 94 b2 19 	call	0x3364	; 0x3364 <W20msReadADC>
        if(adc.tp2<977) { 		//MOSFET
     538:	a3 e0       	ldi	r26, 0x03	; 3
     53a:	81 3d       	cpi	r24, 0xD1	; 209
     53c:	9a 07       	cpc	r25, r26
     53e:	28 f4       	brcc	.+10     	; 0x54a <__stack+0x4b>
           PartFound = PART_FET;	//P-Kanal-MOSFET
     540:	83 e0       	ldi	r24, 0x03	; 3
     542:	80 93 09 01 	sts	0x0109, r24
           PartMode = PART_MODE_P_D_MOS; //Depletion-MOSFET
     546:	85 e0       	ldi	r24, 0x05	; 5
     548:	04 c0       	rjmp	.+8      	; 0x552 <__stack+0x53>
        } else { 			//JFET (pn-passage between Gate and Source is conducting)
           PartFound = PART_FET;	//P-Kanal-JFET
     54a:	83 e0       	ldi	r24, 0x03	; 3
     54c:	80 93 09 01 	sts	0x0109, r24
           PartMode = PART_MODE_P_JFET;
     550:	87 e0       	ldi	r24, 0x07	; 7
     552:	80 93 08 01 	sts	0x0108, r24
        }
        gthvoltage = adc.tp1 - adc.hp1;		//voltage GS (Gate - Source)
     556:	ea 18       	sub	r14, r10
     558:	fb 08       	sbc	r15, r11
     55a:	f0 92 5a 01 	sts	0x015A, r15
     55e:	e0 92 59 01 	sts	0x0159, r14
        trans.uBE[1] = (unsigned int)(((unsigned long)(ADCconfig.U_AVCC - adc.hp1) * 1000) / RR680PL); // Id 0.01mA
     562:	60 91 3f 01 	lds	r22, 0x013F
     566:	70 91 40 01 	lds	r23, 0x0140
     56a:	6a 19       	sub	r22, r10
     56c:	7b 09       	sbc	r23, r11
     56e:	80 e0       	ldi	r24, 0x00	; 0
     570:	90 e0       	ldi	r25, 0x00	; 0
     572:	28 ee       	ldi	r18, 0xE8	; 232
     574:	33 e0       	ldi	r19, 0x03	; 3
     576:	40 e0       	ldi	r20, 0x00	; 0
     578:	50 e0       	ldi	r21, 0x00	; 0
     57a:	0e 94 e9 1b 	call	0x37d2	; 0x37d2 <__mulsi3>
     57e:	20 91 0a 01 	lds	r18, 0x010A
     582:	30 91 0b 01 	lds	r19, 0x010B
     586:	40 e0       	ldi	r20, 0x00	; 0
     588:	50 e0       	ldi	r21, 0x00	; 0
     58a:	0e 94 28 1c 	call	0x3850	; 0x3850 <__udivmodsi4>
     58e:	30 93 54 01 	sts	0x0154, r19
     592:	20 93 53 01 	sts	0x0153, r18
        trans.b = TristatePin;		//save Pin numbers found for this FET
     596:	b9 81       	ldd	r27, Y+1	; 0x01
     598:	b0 93 55 01 	sts	0x0155, r27
        trans.c = LowPin;
     59c:	00 93 56 01 	sts	0x0156, r16
        trans.e = HighPin;
     5a0:	10 93 57 01 	sts	0x0157, r17
  } // end component has current without TristatePin signal


#ifdef COMMON_COLLECTOR
  // Test circuit with common collector (Emitter follower) PNP
  ADC_PORT = TXD_VAL;
     5a4:	88 e0       	ldi	r24, 0x08	; 8
     5a6:	88 b9       	out	0x08, r24	; 8
  ADC_DDR = LoADCm;			// Collector direct to GND
     5a8:	ed 81       	ldd	r30, Y+5	; 0x05
     5aa:	e7 b9       	out	0x07, r30	; 7
  R_PORT = HiPinRL;			// switch R_L port for HighPin (Emitter) to VCC
     5ac:	c5 b8       	out	0x05, r12	; 5
  R_DDR = TriPinRL | HiPinRL;		// Base resistor  R_L to GND
     5ae:	fa 81       	ldd	r31, Y+2	; 0x02
     5b0:	fc 29       	or	r31, r12
     5b2:	f9 8b       	std	Y+17, r31	; 0x11
     5b4:	f4 b9       	out	0x04, r31	; 4
  adc.hp1 = ADCconfig.U_AVCC - W5msReadADC(HighPin);	// voltage at the Emitter resistor
     5b6:	a0 90 3f 01 	lds	r10, 0x013F
     5ba:	b0 90 40 01 	lds	r11, 0x0140
     5be:	81 2f       	mov	r24, r17
     5c0:	0e 94 b6 19 	call	0x336c	; 0x336c <W5msReadADC>
     5c4:	7c 01       	movw	r14, r24
  adc.tp1 = ReadADC(TristatePin);	// voltage at the base resistor
     5c6:	89 81       	ldd	r24, Y+1	; 0x01
     5c8:	0e 94 b8 19 	call	0x3370	; 0x3370 <ReadADC>
     5cc:	4c 01       	movw	r8, r24

  if (adc.tp1 < 10) {
     5ce:	8a 30       	cpi	r24, 0x0A	; 10
     5d0:	91 05       	cpc	r25, r1
     5d2:	68 f5       	brcc	.+90     	; 0x62e <__stack+0x12f>
     R_DDR =  TriPinRH | HiPinRL;	// Tripin=RH-
     5d4:	8d 2d       	mov	r24, r13
     5d6:	8c 29       	or	r24, r12
     5d8:	84 b9       	out	0x04, r24	; 4
     adc.hp1 = ADCconfig.U_AVCC - W5msReadADC(HighPin);
     5da:	a0 90 3f 01 	lds	r10, 0x013F
     5de:	b0 90 40 01 	lds	r11, 0x0140
     5e2:	81 2f       	mov	r24, r17
     5e4:	0e 94 b6 19 	call	0x336c	; 0x336c <W5msReadADC>
     5e8:	a8 1a       	sub	r10, r24
     5ea:	b9 0a       	sbc	r11, r25
     adc.tp1 = ReadADC(TristatePin);	// voltage at base resistor 
     5ec:	89 81       	ldd	r24, Y+1	; 0x01
     5ee:	0e 94 b8 19 	call	0x3370	; 0x3370 <ReadADC>
     5f2:	4c 01       	movw	r8, r24
       lcd_data('T');
       lcd_string(utoa(adc.tp1,outval,10));
       lcd_space();
#endif
 #ifdef LONG_HFE
     c_hfe = ((unsigned long)adc.hp1 * (unsigned long)(((unsigned long)R_H_VAL * 100) / 
     5f4:	25 01       	movw	r4, r10
     5f6:	66 24       	eor	r6, r6
     5f8:	77 24       	eor	r7, r7
     5fa:	20 91 0a 01 	lds	r18, 0x010A
     5fe:	30 91 0b 01 	lds	r19, 0x010B
     602:	40 e0       	ldi	r20, 0x00	; 0
     604:	50 e0       	ldi	r21, 0x00	; 0
     606:	60 e6       	ldi	r22, 0x60	; 96
     608:	77 eb       	ldi	r23, 0xB7	; 183
     60a:	87 e4       	ldi	r24, 0x47	; 71
     60c:	90 e0       	ldi	r25, 0x00	; 0
     60e:	0e 94 28 1c 	call	0x3850	; 0x3850 <__udivmodsi4>
     612:	c3 01       	movw	r24, r6
     614:	b2 01       	movw	r22, r4
     616:	0e 94 e9 1b 	call	0x37d2	; 0x37d2 <__mulsi3>
              (unsigned int)RR680PL)) / (unsigned int)adc.tp1;	
     61a:	94 01       	movw	r18, r8
     61c:	40 e0       	ldi	r20, 0x00	; 0
     61e:	50 e0       	ldi	r21, 0x00	; 0
       lcd_data('T');
       lcd_string(utoa(adc.tp1,outval,10));
       lcd_space();
#endif
 #ifdef LONG_HFE
     c_hfe = ((unsigned long)adc.hp1 * (unsigned long)(((unsigned long)R_H_VAL * 100) / 
     620:	0e 94 28 1c 	call	0x3850	; 0x3850 <__udivmodsi4>
     624:	2e 83       	std	Y+6, r18	; 0x06
     626:	3f 83       	std	Y+7, r19	; 0x07
     628:	48 87       	std	Y+8, r20	; 0x08
     62a:	59 87       	std	Y+9, r21	; 0x09
     62c:	0f c0       	rjmp	.+30     	; 0x64c <__stack+0x14d>
  // Test circuit with common collector (Emitter follower) PNP
  ADC_PORT = TXD_VAL;
  ADC_DDR = LoADCm;			// Collector direct to GND
  R_PORT = HiPinRL;			// switch R_L port for HighPin (Emitter) to VCC
  R_DDR = TriPinRL | HiPinRL;		// Base resistor  R_L to GND
  adc.hp1 = ADCconfig.U_AVCC - W5msReadADC(HighPin);	// voltage at the Emitter resistor
     62e:	ae 18       	sub	r10, r14
     630:	bf 08       	sbc	r11, r15
              (unsigned int)RR680PL)) / (unsigned int)adc.tp1;	
 #else
     c_hfe = ((adc.hp1 / ((RR680PL+500)/1000)) * (R_H_VAL/500)) / (adc.tp2/500);
 #endif
  } else {
     c_hfe = (unsigned long)((adc.hp1 - adc.tp1) / adc.tp1);
     632:	c5 01       	movw	r24, r10
     634:	88 19       	sub	r24, r8
     636:	99 09       	sbc	r25, r9
     638:	b4 01       	movw	r22, r8
     63a:	0e 94 14 1c 	call	0x3828	; 0x3828 <__udivmodhi4>
     63e:	cb 01       	movw	r24, r22
     640:	a0 e0       	ldi	r26, 0x00	; 0
     642:	b0 e0       	ldi	r27, 0x00	; 0
     644:	8e 83       	std	Y+6, r24	; 0x06
     646:	9f 83       	std	Y+7, r25	; 0x07
     648:	a8 87       	std	Y+8, r26	; 0x08
     64a:	b9 87       	std	Y+9, r27	; 0x09
  }
#endif

  //set Pins again for circuit with common Emitter PNP
  R_DDR = LoPinRL;		//switch R_L port for Low-Pin to output (GND)
     64c:	9c 81       	ldd	r25, Y+4	; 0x04
     64e:	94 b9       	out	0x04, r25	; 4
  R_PORT = 0;			//switch all resistor ports to GND
     650:	15 b8       	out	0x05, r1	; 5
  ADC_DDR = HiADCm;		//switch High-Pin to output
     652:	ab 81       	ldd	r26, Y+3	; 0x03
     654:	a7 b9       	out	0x07, r26	; 7
  ADC_PORT = HiADCp;		//switch High-Pin to VCC
     656:	a8 b9       	out	0x08, r26	; 8
  wait5ms();
     658:	0e 94 7b 14 	call	0x28f6	; 0x28f6 <wait5ms>
  
  if(adc.lp_otr < 977) {
     65c:	eb 85       	ldd	r30, Y+11	; 0x0b
     65e:	fc 85       	ldd	r31, Y+12	; 0x0c
     660:	23 e0       	ldi	r18, 0x03	; 3
     662:	e1 3d       	cpi	r30, 0xD1	; 209
     664:	f2 07       	cpc	r31, r18
     666:	08 f0       	brcs	.+2      	; 0x66a <__stack+0x16b>
     668:	a3 c2       	rjmp	.+1350   	; 0xbb0 <__stack+0x6b1>
     lcd_testpin(HighPin);
     lcd_space();
     wait1s();
#endif
     //Test to PNP
     R_DDR = LoPinRL | TriPinRL;	//switch R_L port for Tristate-Pin to output (GND), for Test of PNP
     66a:	3a 81       	ldd	r19, Y+2	; 0x02
     66c:	8c 81       	ldd	r24, Y+4	; 0x04
     66e:	38 2b       	or	r19, r24
     670:	3d 87       	std	Y+13, r19	; 0x0d
     672:	34 b9       	out	0x04, r19	; 4
     adc.lp1 = W5msReadADC(LowPin);	//measure voltage at LowPin
     674:	80 2f       	mov	r24, r16
     676:	0e 94 b6 19 	call	0x336c	; 0x336c <W5msReadADC>
     if(adc.lp1 > 3422) {
     67a:	ad e0       	ldi	r26, 0x0D	; 13
     67c:	8f 35       	cpi	r24, 0x5F	; 95
     67e:	9a 07       	cpc	r25, r26
     680:	08 f4       	brcc	.+2      	; 0x684 <__stack+0x185>
     682:	de c0       	rjmp	.+444    	; 0x840 <__stack+0x341>
        //component has current => PNP-Transistor or equivalent
        //compute current amplification factor in both directions
        R_DDR = LoPinRL | TriPinRH;	//switch R_H port for Tristate-Pin (Base) to output (GND)
     684:	bc 81       	ldd	r27, Y+4	; 0x04
     686:	bd 29       	or	r27, r13
     688:	ba 8b       	std	Y+18, r27	; 0x12
     68a:	b4 b9       	out	0x04, r27	; 4

        adc.lp1 = W5msReadADC(LowPin);	//measure voltage at LowPin (assumed Collector)
     68c:	80 2f       	mov	r24, r16
     68e:	0e 94 b6 19 	call	0x336c	; 0x336c <W5msReadADC>
     692:	1c 01       	movw	r2, r24
        adc.tp2 = ReadADC(TristatePin);	//measure voltage at TristatePin (Base) 
     694:	89 81       	ldd	r24, Y+1	; 0x01
     696:	0e 94 b8 19 	call	0x3370	; 0x3370 <ReadADC>
     69a:	9d 8b       	std	Y+21, r25	; 0x15
     69c:	8c 8b       	std	Y+20, r24	; 0x14
        //check, if Test is done before 
        if((PartFound == PART_TRANSISTOR) || (PartFound == PART_FET)) {
     69e:	80 91 09 01 	lds	r24, 0x0109
     6a2:	82 50       	subi	r24, 0x02	; 2
     6a4:	82 30       	cpi	r24, 0x02	; 2
     6a6:	18 f4       	brcc	.+6      	; 0x6ae <__stack+0x1af>
           PartReady = 1;
     6a8:	81 e0       	ldi	r24, 0x01	; 1
     6aa:	80 93 06 01 	sts	0x0106, r24
        }
        trans.uBE[PartReady] = ReadADC(HighPin) - adc.tp2;	// Base Emitter Voltage
     6ae:	e0 90 06 01 	lds	r14, 0x0106
     6b2:	ff 24       	eor	r15, r15
     6b4:	81 2f       	mov	r24, r17
     6b6:	0e 94 b8 19 	call	0x3370	; 0x3370 <ReadADC>
     6ba:	f7 01       	movw	r30, r14
     6bc:	ee 0f       	add	r30, r30
     6be:	ff 1f       	adc	r31, r31
     6c0:	ef 5a       	subi	r30, 0xAF	; 175
     6c2:	fe 4f       	sbci	r31, 0xFE	; 254
     6c4:	2c 89       	ldd	r18, Y+20	; 0x14
     6c6:	3d 89       	ldd	r19, Y+21	; 0x15
     6c8:	82 1b       	sub	r24, r18
     6ca:	93 0b       	sbc	r25, r19
     6cc:	91 83       	std	Z+1, r25	; 0x01
     6ce:	80 83       	st	Z, r24

        //compute current amplification factor for circuit with common Emitter
        //hFE = B = Collector current / Base current
        if(adc.tp2 < 53) {
     6d0:	25 33       	cpi	r18, 0x35	; 53
     6d2:	31 05       	cpc	r19, r1
     6d4:	20 f4       	brcc	.+8      	; 0x6de <__stack+0x1df>
#if DebugOut == 5
           lcd_data('<');
           lcd_data('5');
           lcd_data('3');
#endif
           adc.tp2 = 53;
     6d6:	85 e3       	ldi	r24, 0x35	; 53
     6d8:	90 e0       	ldi	r25, 0x00	; 0
     6da:	9d 8b       	std	Y+21, r25	; 0x15
     6dc:	8c 8b       	std	Y+20, r24	; 0x14
        }

 #ifdef LONG_HFE
        trans.hfe[PartReady] = ((unsigned int)adc.lp1 * (unsigned long)(((unsigned long)R_H_VAL * 100) / 
     6de:	e0 90 06 01 	lds	r14, 0x0106
     6e2:	ff 24       	eor	r15, r15
     6e4:	21 01       	movw	r4, r2
     6e6:	66 24       	eor	r6, r6
     6e8:	77 24       	eor	r7, r7
     6ea:	20 91 04 01 	lds	r18, 0x0104
     6ee:	30 91 05 01 	lds	r19, 0x0105
     6f2:	40 e0       	ldi	r20, 0x00	; 0
     6f4:	50 e0       	ldi	r21, 0x00	; 0
     6f6:	60 e6       	ldi	r22, 0x60	; 96
     6f8:	77 eb       	ldi	r23, 0xB7	; 183
     6fa:	87 e4       	ldi	r24, 0x47	; 71
     6fc:	90 e0       	ldi	r25, 0x00	; 0
     6fe:	0e 94 28 1c 	call	0x3850	; 0x3850 <__udivmodsi4>
     702:	c3 01       	movw	r24, r6
     704:	b2 01       	movw	r22, r4
     706:	0e 94 e9 1b 	call	0x37d2	; 0x37d2 <__mulsi3>
                 (unsigned int)RR680MI)) / (unsigned int)adc.tp2;	
     70a:	ac 89       	ldd	r26, Y+20	; 0x14
     70c:	bd 89       	ldd	r27, Y+21	; 0x15
     70e:	9d 01       	movw	r18, r26
     710:	40 e0       	ldi	r20, 0x00	; 0
     712:	50 e0       	ldi	r21, 0x00	; 0
     714:	0e 94 28 1c 	call	0x3850	; 0x3850 <__udivmodsi4>
#endif
           adc.tp2 = 53;
        }

 #ifdef LONG_HFE
        trans.hfe[PartReady] = ((unsigned int)adc.lp1 * (unsigned long)(((unsigned long)R_H_VAL * 100) / 
     718:	f7 01       	movw	r30, r14
     71a:	ee 0f       	add	r30, r30
     71c:	ff 1f       	adc	r31, r31
     71e:	ee 0f       	add	r30, r30
     720:	ff 1f       	adc	r31, r31
     722:	e7 5b       	subi	r30, 0xB7	; 183
     724:	fe 4f       	sbci	r31, 0xFE	; 254
     726:	20 83       	st	Z, r18
     728:	31 83       	std	Z+1, r19	; 0x01
     72a:	42 83       	std	Z+2, r20	; 0x02
     72c:	53 83       	std	Z+3, r21	; 0x03
        trans.hfe[PartReady] = ((adc.lp1 / ((RR680MI+500)/1000)) * (R_H_VAL/500)) / (adc.tp2/500);
 #endif
#ifdef COMMON_COLLECTOR
        //current amplification factor for common  Collector (Emitter follower)
        // c_hFE = (Emitter current - Base current) / Base current
        if (c_hfe > trans.hfe[PartReady]) {
     72e:	8e 81       	ldd	r24, Y+6	; 0x06
     730:	9f 81       	ldd	r25, Y+7	; 0x07
     732:	a8 85       	ldd	r26, Y+8	; 0x08
     734:	b9 85       	ldd	r27, Y+9	; 0x09
     736:	28 17       	cp	r18, r24
     738:	39 07       	cpc	r19, r25
     73a:	4a 07       	cpc	r20, r26
     73c:	5b 07       	cpc	r21, r27
     73e:	98 f4       	brcc	.+38     	; 0x766 <__stack+0x267>
           trans.hfe[PartReady] = c_hfe;
     740:	80 83       	st	Z, r24
     742:	91 83       	std	Z+1, r25	; 0x01
     744:	a2 83       	std	Z+2, r26	; 0x02
     746:	b3 83       	std	Z+3, r27	; 0x03
           trans.uBE[PartReady] = ADCconfig.U_AVCC - adc.hp1 - adc.tp1;	// Base Emitter Voltage common collector
     748:	f7 01       	movw	r30, r14
     74a:	ee 0f       	add	r30, r30
     74c:	ff 1f       	adc	r31, r31
     74e:	ef 5a       	subi	r30, 0xAF	; 175
     750:	fe 4f       	sbci	r31, 0xFE	; 254
     752:	80 91 3f 01 	lds	r24, 0x013F
     756:	90 91 40 01 	lds	r25, 0x0140
     75a:	8a 19       	sub	r24, r10
     75c:	9b 09       	sbc	r25, r11
     75e:	88 19       	sub	r24, r8
     760:	99 09       	sbc	r25, r9
     762:	91 83       	std	Z+1, r25	; 0x01
     764:	80 83       	st	Z, r24
        }
#endif

 
        if(PartFound != PART_THYRISTOR) {
     766:	80 91 09 01 	lds	r24, 0x0109
     76a:	85 30       	cpi	r24, 0x05	; 5
     76c:	09 f4       	brne	.+2      	; 0x770 <__stack+0x271>
     76e:	68 c0       	rjmp	.+208    	; 0x840 <__stack+0x341>
           if(adc.tp2 > 977) {
     770:	ac 89       	ldd	r26, Y+20	; 0x14
     772:	bd 89       	ldd	r27, Y+21	; 0x15
     774:	e3 e0       	ldi	r30, 0x03	; 3
     776:	a2 3d       	cpi	r26, 0xD2	; 210
     778:	be 07       	cpc	r27, r30
     77a:	30 f0       	brcs	.+12     	; 0x788 <__stack+0x289>
              //PNP-Transistor is found (Base voltage moves to VCC)
              PartFound = PART_TRANSISTOR;
     77c:	82 e0       	ldi	r24, 0x02	; 2
     77e:	80 93 09 01 	sts	0x0109, r24
              PartMode = PART_MODE_PNP;
     782:	80 93 08 01 	sts	0x0108, r24
     786:	55 c0       	rjmp	.+170    	; 0x832 <__stack+0x333>
           } else {
              if((adc.lp_otr < 97) && (adc.lp1 > 2000)) {
     788:	2b 85       	ldd	r18, Y+11	; 0x0b
     78a:	3c 85       	ldd	r19, Y+12	; 0x0c
     78c:	21 36       	cpi	r18, 0x61	; 97
     78e:	31 05       	cpc	r19, r1
     790:	08 f0       	brcs	.+2      	; 0x794 <__stack+0x295>
     792:	4f c0       	rjmp	.+158    	; 0x832 <__stack+0x333>
     794:	31 ed       	ldi	r19, 0xD1	; 209
     796:	23 16       	cp	r2, r19
     798:	37 e0       	ldi	r19, 0x07	; 7
     79a:	33 06       	cpc	r3, r19
     79c:	08 f4       	brcc	.+2      	; 0x7a0 <__stack+0x2a1>
     79e:	49 c0       	rjmp	.+146    	; 0x832 <__stack+0x333>
                 //is flow voltage low enough in the closed  state?
                 //(since D-Mode-FET would be by mistake detected as E-Mode )
        	 PartFound = PART_FET;		//P-Kanal-MOSFET if found (Basis/Gate moves not to VCC)
     7a0:	83 e0       	ldi	r24, 0x03	; 3
     7a2:	80 93 09 01 	sts	0x0109, r24
        	 PartMode = PART_MODE_P_E_MOS;
     7a6:	80 93 08 01 	sts	0x0108, r24
                 PinMSK = LoADCm & 7;
     7aa:	ed 80       	ldd	r14, Y+5	; 0x05
     7ac:	87 e0       	ldi	r24, 0x07	; 7
     7ae:	e8 22       	and	r14, r24
        	 //measure the Gate threshold voltage
        	 ADMUX = TristatePin | (1<<REFS0);	// switch to TristatePin, Ref. VCC
     7b0:	89 81       	ldd	r24, Y+1	; 0x01
     7b2:	80 64       	ori	r24, 0x40	; 64
     7b4:	80 93 7c 00 	sts	0x007C, r24
        	 gthvoltage = 1;		// round up ((1*4)/9)
     7b8:	81 e0       	ldi	r24, 0x01	; 1
     7ba:	90 e0       	ldi	r25, 0x00	; 0
     7bc:	90 93 5a 01 	sts	0x015A, r25
     7c0:	80 93 59 01 	sts	0x0159, r24
        	 for(ii=0;ii<11;ii++) {
     7c4:	40 e0       	ldi	r20, 0x00	; 0
        	    wdt_reset();
     7c6:	a8 95       	wdr
        	    ChargePin10ms(TriPinRL,1);
     7c8:	8a 81       	ldd	r24, Y+2	; 0x02
     7ca:	61 e0       	ldi	r22, 0x01	; 1
     7cc:	4e 8b       	std	Y+22, r20	; 0x16
     7ce:	0e 94 99 01 	call	0x332	; 0x332 <ChargePin10ms>
                    R_DDR = LoPinRL | TriPinRH;	//switch R_H for Tristate-Pin (Basis) to GND
     7d2:	9a 89       	ldd	r25, Y+18	; 0x12
     7d4:	94 b9       	out	0x04, r25	; 4
     7d6:	4e 89       	ldd	r20, Y+22	; 0x16
        	    while (!(ADC_PIN&PinMSK));  // Wait, until the MOSFET switches and Drain moves to VCC
     7d8:	86 b1       	in	r24, 0x06	; 6
     7da:	8e 21       	and	r24, r14
     7dc:	e9 f3       	breq	.-6      	; 0x7d8 <__stack+0x2d9>
        	    R_DDR = LoPinRL;
     7de:	ac 81       	ldd	r26, Y+4	; 0x04
     7e0:	a4 b9       	out	0x04, r26	; 4
        	    ADCSRA |= (1<<ADSC);	// Start Conversion
     7e2:	80 91 7a 00 	lds	r24, 0x007A
     7e6:	80 64       	ori	r24, 0x40	; 64
     7e8:	80 93 7a 00 	sts	0x007A, r24
        	    while (ADCSRA&(1<<ADSC));	// wait
     7ec:	80 91 7a 00 	lds	r24, 0x007A
     7f0:	86 fd       	sbrc	r24, 6
     7f2:	fc cf       	rjmp	.-8      	; 0x7ec <__stack+0x2ed>
      		    gthvoltage += (1023 - ADCW); // Add Tristatepin-Voltage
     7f4:	20 91 78 00 	lds	r18, 0x0078
     7f8:	30 91 79 00 	lds	r19, 0x0079
     7fc:	80 91 59 01 	lds	r24, 0x0159
     800:	90 91 5a 01 	lds	r25, 0x015A
     804:	81 50       	subi	r24, 0x01	; 1
     806:	9c 4f       	sbci	r25, 0xFC	; 252
     808:	82 1b       	sub	r24, r18
     80a:	93 0b       	sbc	r25, r19
     80c:	90 93 5a 01 	sts	0x015A, r25
     810:	80 93 59 01 	sts	0x0159, r24
        	 PartMode = PART_MODE_P_E_MOS;
                 PinMSK = LoADCm & 7;
        	 //measure the Gate threshold voltage
        	 ADMUX = TristatePin | (1<<REFS0);	// switch to TristatePin, Ref. VCC
        	 gthvoltage = 1;		// round up ((1*4)/9)
        	 for(ii=0;ii<11;ii++) {
     814:	4f 5f       	subi	r20, 0xFF	; 255
     816:	4b 30       	cpi	r20, 0x0B	; 11
     818:	b1 f6       	brne	.-84     	; 0x7c6 <__stack+0x2c7>
        	    R_DDR = LoPinRL;
        	    ADCSRA |= (1<<ADSC);	// Start Conversion
        	    while (ADCSRA&(1<<ADSC));	// wait
      		    gthvoltage += (1023 - ADCW); // Add Tristatepin-Voltage
                 }
                 gthvoltage *= 4;		// is equal to 44*ADCW
     81a:	88 0f       	add	r24, r24
     81c:	99 1f       	adc	r25, r25
     81e:	88 0f       	add	r24, r24
     820:	99 1f       	adc	r25, r25
                 gthvoltage /= 9;		// gives resolution in mV
     822:	69 e0       	ldi	r22, 0x09	; 9
     824:	70 e0       	ldi	r23, 0x00	; 0
     826:	0e 94 14 1c 	call	0x3828	; 0x3828 <__udivmodhi4>
     82a:	70 93 5a 01 	sts	0x015A, r23
     82e:	60 93 59 01 	sts	0x0159, r22
              }
           }
           trans.b = TristatePin;
     832:	b9 81       	ldd	r27, Y+1	; 0x01
     834:	b0 93 55 01 	sts	0x0155, r27
           trans.c = LowPin;
     838:	00 93 56 01 	sts	0x0156, r16
           trans.e = HighPin;
     83c:	10 93 57 01 	sts	0x0157, r17
        }  // end if PartFound != PART_THYRISTOR
    } // end component has current => PNP

#ifdef COMMON_COLLECTOR
    // Low-Pin=RL- HighPin=VCC
    R_DDR = LoPinRL | TriPinRL;
     840:	ed 85       	ldd	r30, Y+13	; 0x0d
     842:	e4 b9       	out	0x04, r30	; 4
    R_PORT = TriPinRL;			// TriPin=RL+  NPN with common Collector
     844:	fa 81       	ldd	r31, Y+2	; 0x02
     846:	f5 b9       	out	0x05, r31	; 5
    adc.lp1 = W5msReadADC(LowPin);	// voltage at Emitter resistor
     848:	80 2f       	mov	r24, r16
     84a:	0e 94 b6 19 	call	0x336c	; 0x336c <W5msReadADC>
     84e:	9f 83       	std	Y+7, r25	; 0x07
     850:	8e 83       	std	Y+6, r24	; 0x06
    adc.tp1 = ADCconfig.U_AVCC - ReadADC(TristatePin);	// voltage at Base resistor
     852:	20 91 3f 01 	lds	r18, 0x013F
     856:	30 91 40 01 	lds	r19, 0x0140
     85a:	3d 8b       	std	Y+21, r19	; 0x15
     85c:	2c 8b       	std	Y+20, r18	; 0x14
     85e:	89 81       	ldd	r24, Y+1	; 0x01
     860:	0e 94 b8 19 	call	0x3370	; 0x3370 <ReadADC>
     864:	ac 89       	ldd	r26, Y+20	; 0x14
     866:	bd 89       	ldd	r27, Y+21	; 0x15
     868:	a8 1b       	sub	r26, r24
     86a:	b9 0b       	sbc	r27, r25
     86c:	bd 8b       	std	Y+21, r27	; 0x15
     86e:	ac 8b       	std	Y+20, r26	; 0x14
    if (adc.tp1 < 10) {
     870:	aa 30       	cpi	r26, 0x0A	; 10
     872:	b1 05       	cpc	r27, r1
     874:	c8 f5       	brcc	.+114    	; 0x8e8 <__stack+0x3e9>
       R_DDR = LoPinRL | TriPinRH;
     876:	8c 81       	ldd	r24, Y+4	; 0x04
     878:	8d 29       	or	r24, r13
     87a:	84 b9       	out	0x04, r24	; 4
       R_PORT = TriPinRH;		// Tripin=RH+
     87c:	d5 b8       	out	0x05, r13	; 5
       adc.lp1 = W5msReadADC(LowPin);
     87e:	80 2f       	mov	r24, r16
     880:	0e 94 b6 19 	call	0x336c	; 0x336c <W5msReadADC>
     884:	9f 83       	std	Y+7, r25	; 0x07
     886:	8e 83       	std	Y+6, r24	; 0x06
       adc.tp1 = ADCconfig.U_AVCC - ReadADC(TristatePin);	// voltage at Base resistor
     888:	e0 91 3f 01 	lds	r30, 0x013F
     88c:	f0 91 40 01 	lds	r31, 0x0140
     890:	fd 8b       	std	Y+21, r31	; 0x15
     892:	ec 8b       	std	Y+20, r30	; 0x14
     894:	89 81       	ldd	r24, Y+1	; 0x01
     896:	0e 94 b8 19 	call	0x3370	; 0x3370 <ReadADC>
     89a:	2c 89       	ldd	r18, Y+20	; 0x14
     89c:	3d 89       	ldd	r19, Y+21	; 0x15
     89e:	28 1b       	sub	r18, r24
     8a0:	39 0b       	sbc	r19, r25
     8a2:	3d 8b       	std	Y+21, r19	; 0x15
     8a4:	2c 8b       	std	Y+20, r18	; 0x14
 #ifdef LONG_HFE
       c_hfe = ((unsigned long)adc.lp1 * (unsigned long)(((unsigned long)R_H_VAL * 100) / 
     8a6:	8e 81       	ldd	r24, Y+6	; 0x06
     8a8:	9f 81       	ldd	r25, Y+7	; 0x07
     8aa:	4c 01       	movw	r8, r24
     8ac:	aa 24       	eor	r10, r10
     8ae:	bb 24       	eor	r11, r11
     8b0:	20 91 04 01 	lds	r18, 0x0104
     8b4:	30 91 05 01 	lds	r19, 0x0105
     8b8:	40 e0       	ldi	r20, 0x00	; 0
     8ba:	50 e0       	ldi	r21, 0x00	; 0
     8bc:	60 e6       	ldi	r22, 0x60	; 96
     8be:	77 eb       	ldi	r23, 0xB7	; 183
     8c0:	87 e4       	ldi	r24, 0x47	; 71
     8c2:	90 e0       	ldi	r25, 0x00	; 0
     8c4:	0e 94 28 1c 	call	0x3850	; 0x3850 <__udivmodsi4>
     8c8:	c5 01       	movw	r24, r10
     8ca:	b4 01       	movw	r22, r8
     8cc:	0e 94 e9 1b 	call	0x37d2	; 0x37d2 <__mulsi3>
              (unsigned int)RR680MI)) / (unsigned int)adc.tp1;	
     8d0:	ac 89       	ldd	r26, Y+20	; 0x14
     8d2:	bd 89       	ldd	r27, Y+21	; 0x15
     8d4:	9d 01       	movw	r18, r26
     8d6:	40 e0       	ldi	r20, 0x00	; 0
     8d8:	50 e0       	ldi	r21, 0x00	; 0
       R_DDR = LoPinRL | TriPinRH;
       R_PORT = TriPinRH;		// Tripin=RH+
       adc.lp1 = W5msReadADC(LowPin);
       adc.tp1 = ADCconfig.U_AVCC - ReadADC(TristatePin);	// voltage at Base resistor
 #ifdef LONG_HFE
       c_hfe = ((unsigned long)adc.lp1 * (unsigned long)(((unsigned long)R_H_VAL * 100) / 
     8da:	0e 94 28 1c 	call	0x3850	; 0x3850 <__udivmodsi4>
     8de:	2d 87       	std	Y+13, r18	; 0x0d
     8e0:	3e 87       	std	Y+14, r19	; 0x0e
     8e2:	4f 87       	std	Y+15, r20	; 0x0f
     8e4:	58 8b       	std	Y+16, r21	; 0x10
     8e6:	10 c0       	rjmp	.+32     	; 0x908 <__stack+0x409>
              (unsigned int)RR680MI)) / (unsigned int)adc.tp1;	
 #else
       c_hfe = ((adc.lp1 / ((RR680MI+500)/1000)) * (R_H_VAL/500)) / (adc.tp2/500);
 #endif
    } else {
       c_hfe = (adc.lp1 - adc.tp1) / adc.tp1;
     8e8:	8e 81       	ldd	r24, Y+6	; 0x06
     8ea:	9f 81       	ldd	r25, Y+7	; 0x07
     8ec:	ec 89       	ldd	r30, Y+20	; 0x14
     8ee:	fd 89       	ldd	r31, Y+21	; 0x15
     8f0:	8e 1b       	sub	r24, r30
     8f2:	9f 0b       	sbc	r25, r31
     8f4:	bf 01       	movw	r22, r30
     8f6:	0e 94 14 1c 	call	0x3828	; 0x3828 <__udivmodhi4>
     8fa:	cb 01       	movw	r24, r22
     8fc:	a0 e0       	ldi	r26, 0x00	; 0
     8fe:	b0 e0       	ldi	r27, 0x00	; 0
     900:	8d 87       	std	Y+13, r24	; 0x0d
     902:	9e 87       	std	Y+14, r25	; 0x0e
     904:	af 87       	std	Y+15, r26	; 0x0f
     906:	b8 8b       	std	Y+16, r27	; 0x10
       lcd_string(utoa(adc.tp1,outval,10));
       wait1s();
#endif
#endif
    //Tristate (can be Base) to VCC, Test if NPN
    ADC_DDR = LoADCm;		//Low-Pin to output 0V
     908:	9d 81       	ldd	r25, Y+5	; 0x05
     90a:	97 b9       	out	0x07, r25	; 7
    ADC_PORT = TXD_VAL;			//switch Low-Pin to GND
     90c:	88 e0       	ldi	r24, 0x08	; 8
     90e:	88 b9       	out	0x08, r24	; 8
    R_DDR = TriPinRL | HiPinRL;		//RL port for High-Pin and Tristate-Pin to output
     910:	a9 89       	ldd	r26, Y+17	; 0x11
     912:	a4 b9       	out	0x04, r26	; 4
    R_PORT = TriPinRL | HiPinRL;	//RL port for High-Pin and Tristate-Pin to Vcc
     914:	a5 b9       	out	0x05, r26	; 5
    adc.hp1 = W5msReadADC(HighPin);	//measure voltage at High-Pin  (Collector)
     916:	81 2f       	mov	r24, r17
     918:	0e 94 b6 19 	call	0x336c	; 0x336c <W5msReadADC>
    if(adc.hp1 < 1600) {
     91c:	b6 e0       	ldi	r27, 0x06	; 6
     91e:	80 34       	cpi	r24, 0x40	; 64
     920:	9b 07       	cpc	r25, r27
     922:	08 f0       	brcs	.+2      	; 0x926 <__stack+0x427>
     924:	41 c1       	rjmp	.+642    	; 0xba8 <__stack+0x6a9>
       lcd_data('N');
       lcd_testpin(HighPin);
       lcd_space();
       wait1s();
#endif
       if(PartReady==1) {
     926:	80 91 06 01 	lds	r24, 0x0106
     92a:	81 30       	cpi	r24, 0x01	; 1
     92c:	09 f4       	brne	.+2      	; 0x930 <__stack+0x431>
     92e:	a9 c1       	rjmp	.+850    	; 0xc82 <__stack+0x783>
          goto widmes;
       }

       //Test auf Thyristor:
       //Gate discharge
       ChargePin10ms(TriPinRL,0);	//Tristate-Pin (Gate) across R_L 10ms to GND
     930:	8a 81       	ldd	r24, Y+2	; 0x02
     932:	60 e0       	ldi	r22, 0x00	; 0
     934:	0e 94 99 01 	call	0x332	; 0x332 <ChargePin10ms>
       adc.hp3 = W5msReadADC(HighPin);	//read voltage at High-Pin (probably Anode) again
     938:	81 2f       	mov	r24, r17
     93a:	0e 94 b6 19 	call	0x336c	; 0x336c <W5msReadADC>
     93e:	7c 01       	movw	r14, r24
					//current should still flow, if not,
					// no Thyristor or holding current to low 
		 	
       R_PORT = 0;			//switch R_L for High-Pin (probably Anode) to GND (turn off)
     940:	15 b8       	out	0x05, r1	; 5
       wait5ms();
     942:	0e 94 7b 14 	call	0x28f6	; 0x28f6 <wait5ms>
       R_PORT = HiPinRL;		//switch R_L for High-Pin (probably Anode) again to VCC
     946:	c5 b8       	out	0x05, r12	; 5
       adc.hp2 = W5msReadADC(HighPin);	//measure voltage at the High-Pin (probably Anode) again
     948:	81 2f       	mov	r24, r17
     94a:	0e 94 b6 19 	call	0x336c	; 0x336c <W5msReadADC>
       if((adc.hp3 < 1600) && (adc.hp2 > 4400)) {
     94e:	e0 e4       	ldi	r30, 0x40	; 64
     950:	ee 16       	cp	r14, r30
     952:	e6 e0       	ldi	r30, 0x06	; 6
     954:	fe 06       	cpc	r15, r30
     956:	08 f0       	brcs	.+2      	; 0x95a <__stack+0x45b>
     958:	42 c0       	rjmp	.+132    	; 0x9de <__stack+0x4df>
     95a:	f1 e1       	ldi	r31, 0x11	; 17
     95c:	81 33       	cpi	r24, 0x31	; 49
     95e:	9f 07       	cpc	r25, r31
     960:	f0 f1       	brcs	.+124    	; 0x9de <__stack+0x4df>
          //if the holding current was switched off the thyristor must be switched off too. 
          //if Thyristor was still swiched on, if gate was switched off => Thyristor
          PartFound = PART_THYRISTOR;
     962:	85 e0       	ldi	r24, 0x05	; 5
     964:	80 93 09 01 	sts	0x0109, r24
          //Test if Triac
          R_DDR = 0;
     968:	14 b8       	out	0x04, r1	; 4
          R_PORT = 0;
     96a:	15 b8       	out	0x05, r1	; 5
          ADC_PORT = LoADCp;	//Low-Pin fix to VCC
     96c:	2d 81       	ldd	r18, Y+5	; 0x05
     96e:	28 b9       	out	0x08, r18	; 8
          wait5ms();
     970:	0e 94 7b 14 	call	0x28f6	; 0x28f6 <wait5ms>
          R_DDR = HiPinRL;		//switch R_L port HighPin to output (GND)
     974:	c4 b8       	out	0x04, r12	; 4
          if(W5msReadADC(HighPin) > 244) {
     976:	81 2f       	mov	r24, r17
     978:	0e 94 b6 19 	call	0x336c	; 0x336c <W5msReadADC>
     97c:	85 3f       	cpi	r24, 0xF5	; 245
     97e:	91 05       	cpc	r25, r1
     980:	08 f0       	brcs	.+2      	; 0x984 <__stack+0x485>
     982:	0b c1       	rjmp	.+534    	; 0xb9a <__stack+0x69b>
             goto savenresult;		//measure voltage at the  High-Pin (probably A2); if too high:
                                	//component has current => kein Triac
          }
          R_DDR = HiPinRL | TriPinRL;	//switch R_L port for TristatePin (Gate) to output (GND) => Triac should be triggered 
     984:	39 89       	ldd	r19, Y+17	; 0x11
     986:	34 b9       	out	0x04, r19	; 4
          if(W5msReadADC(TristatePin) < 977) {
     988:	89 81       	ldd	r24, Y+1	; 0x01
     98a:	0e 94 b6 19 	call	0x336c	; 0x336c <W5msReadADC>
     98e:	a3 e0       	ldi	r26, 0x03	; 3
     990:	81 3d       	cpi	r24, 0xD1	; 209
     992:	9a 07       	cpc	r25, r26
     994:	08 f4       	brcc	.+2      	; 0x998 <__stack+0x499>
     996:	01 c1       	rjmp	.+514    	; 0xb9a <__stack+0x69b>
             goto savenresult; 		//measure voltage at the Tristate-Pin (probably Gate) ;
                              		// if to low, abort 
          }
          if(ReadADC(HighPin) < 733) {
     998:	81 2f       	mov	r24, r17
     99a:	0e 94 b8 19 	call	0x3370	; 0x3370 <ReadADC>
     99e:	b2 e0       	ldi	r27, 0x02	; 2
     9a0:	8d 3d       	cpi	r24, 0xDD	; 221
     9a2:	9b 07       	cpc	r25, r27
     9a4:	08 f4       	brcc	.+2      	; 0x9a8 <__stack+0x4a9>
     9a6:	f9 c0       	rjmp	.+498    	; 0xb9a <__stack+0x69b>
             goto savenresult; 		//component has no current => no Triac => abort
          }
          R_DDR = HiPinRL;		//TristatePin (Gate) to input 
     9a8:	c4 b8       	out	0x04, r12	; 4
          if(W5msReadADC(HighPin) < 733) {
     9aa:	81 2f       	mov	r24, r17
     9ac:	0e 94 b6 19 	call	0x336c	; 0x336c <W5msReadADC>
     9b0:	e2 e0       	ldi	r30, 0x02	; 2
     9b2:	8d 3d       	cpi	r24, 0xDD	; 221
     9b4:	9e 07       	cpc	r25, r30
     9b6:	08 f4       	brcc	.+2      	; 0x9ba <__stack+0x4bb>
     9b8:	f0 c0       	rjmp	.+480    	; 0xb9a <__stack+0x69b>
             goto savenresult; 		//component has no current without base current => no Triac => abort
          }
          R_PORT = HiPinRL;		//switch R_L port for HighPin to VCC => switch off holding current 
     9ba:	c5 b8       	out	0x05, r12	; 5
          wait5ms();
     9bc:	0e 94 7b 14 	call	0x28f6	; 0x28f6 <wait5ms>
          R_PORT = 0;			//switch R_L port for HighPin again to GND; Triac should now switched off
     9c0:	15 b8       	out	0x05, r1	; 5
          if(W5msReadADC(HighPin) > 244) {
     9c2:	81 2f       	mov	r24, r17
     9c4:	0e 94 b6 19 	call	0x336c	; 0x336c <W5msReadADC>
     9c8:	85 3f       	cpi	r24, 0xF5	; 245
     9ca:	91 05       	cpc	r25, r1
     9cc:	08 f0       	brcs	.+2      	; 0x9d0 <__stack+0x4d1>
     9ce:	e5 c0       	rjmp	.+458    	; 0xb9a <__stack+0x69b>
             goto savenresult;		//measure voltage at the High-Pin (probably A2) ;
                                	//if to high, component is not switched off => no Triac, abort
         }
         PartFound = PART_TRIAC;
     9d0:	84 e0       	ldi	r24, 0x04	; 4
     9d2:	80 93 09 01 	sts	0x0109, r24
         PartReady = 1;
     9d6:	81 e0       	ldi	r24, 0x01	; 1
     9d8:	80 93 06 01 	sts	0x0106, r24
         goto savenresult;
     9dc:	de c0       	rjmp	.+444    	; 0xb9a <__stack+0x69b>
        }
      //Test if NPN Transistor or MOSFET
      // ADC_DDR = LoADCm;	//Low-Pin to output 0V
      R_DDR = HiPinRL | TriPinRH;	//R_H port of Tristate-Pin (Basis) to output
     9de:	dc 28       	or	r13, r12
     9e0:	d4 b8       	out	0x04, r13	; 4
      R_PORT = HiPinRL | TriPinRH;	//R_H port of Tristate-Pin (Basis) to VCC
     9e2:	d5 b8       	out	0x05, r13	; 5
      wait50ms();
     9e4:	0e 94 76 14 	call	0x28ec	; 0x28ec <wait50ms>
      adc.hp2 = ADCconfig.U_AVCC - ReadADC(HighPin);	//measure the voltage at the collector resistor 
     9e8:	60 90 3f 01 	lds	r6, 0x013F
     9ec:	70 90 40 01 	lds	r7, 0x0140
     9f0:	81 2f       	mov	r24, r17
     9f2:	0e 94 b8 19 	call	0x3370	; 0x3370 <ReadADC>
     9f6:	68 1a       	sub	r6, r24
     9f8:	79 0a       	sbc	r7, r25
      adc.tp2 = ADCconfig.U_AVCC - ReadADC(TristatePin);	//measure the voltage at the base resistor 
     9fa:	a0 90 3f 01 	lds	r10, 0x013F
     9fe:	b0 90 40 01 	lds	r11, 0x0140
     a02:	89 81       	ldd	r24, Y+1	; 0x01
     a04:	0e 94 b8 19 	call	0x3370	; 0x3370 <ReadADC>
     a08:	a8 1a       	sub	r10, r24
     a0a:	b9 0a       	sbc	r11, r25
       lcd_space();
       lcd_data('T');
       lcd_data('P');
       lcd_string(utoa(adc.tp2,outval,10));
#endif
      if((PartFound == PART_TRANSISTOR) || (PartFound == PART_FET)) {
     a0c:	80 91 09 01 	lds	r24, 0x0109
     a10:	82 50       	subi	r24, 0x02	; 2
     a12:	82 30       	cpi	r24, 0x02	; 2
     a14:	18 f4       	brcc	.+6      	; 0xa1c <__stack+0x51d>
         PartReady = 1;	//check, if test is already done once
     a16:	81 e0       	ldi	r24, 0x01	; 1
     a18:	80 93 06 01 	sts	0x0106, r24
      }
      trans.uBE[PartReady] = ADCconfig.U_AVCC - adc.tp2 - ReadADC(LowPin);
     a1c:	80 90 06 01 	lds	r8, 0x0106
     a20:	99 24       	eor	r9, r9
     a22:	e0 90 3f 01 	lds	r14, 0x013F
     a26:	f0 90 40 01 	lds	r15, 0x0140
     a2a:	ea 18       	sub	r14, r10
     a2c:	fb 08       	sbc	r15, r11
     a2e:	80 2f       	mov	r24, r16
     a30:	0e 94 b8 19 	call	0x3370	; 0x3370 <ReadADC>
     a34:	f4 01       	movw	r30, r8
     a36:	ee 0f       	add	r30, r30
     a38:	ff 1f       	adc	r31, r31
     a3a:	ef 5a       	subi	r30, 0xAF	; 175
     a3c:	fe 4f       	sbci	r31, 0xFE	; 254
     a3e:	e8 1a       	sub	r14, r24
     a40:	f9 0a       	sbc	r15, r25
     a42:	f1 82       	std	Z+1, r15	; 0x01
     a44:	e0 82       	st	Z, r14

      //compute current amplification factor for common Emitter
      //hFE = B = Collector current / Base current
      if(adc.tp2 < 53) {
     a46:	f5 e3       	ldi	r31, 0x35	; 53
     a48:	af 16       	cp	r10, r31
     a4a:	b1 04       	cpc	r11, r1
     a4c:	18 f4       	brcc	.+6      	; 0xa54 <__stack+0x555>
#if DebugOut == 5
         lcd_data('<');
         lcd_data('5');
         lcd_data('3');
#endif
         adc.tp2 = 53;
     a4e:	85 e3       	ldi	r24, 0x35	; 53
     a50:	a8 2e       	mov	r10, r24
     a52:	b1 2c       	mov	r11, r1
      }

#ifdef LONG_HFE
      trans.hfe[PartReady] = ((unsigned int)adc.hp2 * (unsigned long)(((unsigned long)R_H_VAL * 100) / 
     a54:	e0 90 06 01 	lds	r14, 0x0106
     a58:	ff 24       	eor	r15, r15
     a5a:	13 01       	movw	r2, r6
     a5c:	44 24       	eor	r4, r4
     a5e:	55 24       	eor	r5, r5
     a60:	20 91 0a 01 	lds	r18, 0x010A
     a64:	30 91 0b 01 	lds	r19, 0x010B
     a68:	40 e0       	ldi	r20, 0x00	; 0
     a6a:	50 e0       	ldi	r21, 0x00	; 0
     a6c:	60 e6       	ldi	r22, 0x60	; 96
     a6e:	77 eb       	ldi	r23, 0xB7	; 183
     a70:	87 e4       	ldi	r24, 0x47	; 71
     a72:	90 e0       	ldi	r25, 0x00	; 0
     a74:	0e 94 28 1c 	call	0x3850	; 0x3850 <__udivmodsi4>
     a78:	c2 01       	movw	r24, r4
     a7a:	b1 01       	movw	r22, r2
     a7c:	0e 94 e9 1b 	call	0x37d2	; 0x37d2 <__mulsi3>
              (unsigned int)RR680PL)) / (unsigned int)adc.tp2;	
     a80:	95 01       	movw	r18, r10
     a82:	40 e0       	ldi	r20, 0x00	; 0
     a84:	50 e0       	ldi	r21, 0x00	; 0
     a86:	0e 94 28 1c 	call	0x3850	; 0x3850 <__udivmodsi4>
#endif
         adc.tp2 = 53;
      }

#ifdef LONG_HFE
      trans.hfe[PartReady] = ((unsigned int)adc.hp2 * (unsigned long)(((unsigned long)R_H_VAL * 100) / 
     a8a:	f7 01       	movw	r30, r14
     a8c:	ee 0f       	add	r30, r30
     a8e:	ff 1f       	adc	r31, r31
     a90:	ee 0f       	add	r30, r30
     a92:	ff 1f       	adc	r31, r31
     a94:	e7 5b       	subi	r30, 0xB7	; 183
     a96:	fe 4f       	sbci	r31, 0xFE	; 254
     a98:	20 83       	st	Z, r18
     a9a:	31 83       	std	Z+1, r19	; 0x01
     a9c:	42 83       	std	Z+2, r20	; 0x02
     a9e:	53 83       	std	Z+3, r21	; 0x03
      trans.hfe[PartReady] = ((adc.hp2 / ((RR680PL+500)/1000)) * (R_H_VAL/500)) / (adc.tp2/500);
#endif
#ifdef COMMON_COLLECTOR
       //compare current amplification factor for common Collector (Emitter follower)
       // hFE = (Emitterstrom - Basisstrom) / Basisstrom
       if (c_hfe >  trans.hfe[PartReady]) {
     aa0:	8d 85       	ldd	r24, Y+13	; 0x0d
     aa2:	9e 85       	ldd	r25, Y+14	; 0x0e
     aa4:	af 85       	ldd	r26, Y+15	; 0x0f
     aa6:	b8 89       	ldd	r27, Y+16	; 0x10
     aa8:	28 17       	cp	r18, r24
     aaa:	39 07       	cpc	r19, r25
     aac:	4a 07       	cpc	r20, r26
     aae:	5b 07       	cpc	r21, r27
     ab0:	b8 f4       	brcc	.+46     	; 0xae0 <__stack+0x5e1>
          trans.hfe[PartReady] = c_hfe;
     ab2:	80 83       	st	Z, r24
     ab4:	91 83       	std	Z+1, r25	; 0x01
     ab6:	a2 83       	std	Z+2, r26	; 0x02
     ab8:	b3 83       	std	Z+3, r27	; 0x03
          trans.uBE[PartReady] = ADCconfig.U_AVCC - adc.lp1 - adc.tp1;
     aba:	f7 01       	movw	r30, r14
     abc:	ee 0f       	add	r30, r30
     abe:	ff 1f       	adc	r31, r31
     ac0:	ef 5a       	subi	r30, 0xAF	; 175
     ac2:	fe 4f       	sbci	r31, 0xFE	; 254
     ac4:	80 91 3f 01 	lds	r24, 0x013F
     ac8:	90 91 40 01 	lds	r25, 0x0140
     acc:	ae 81       	ldd	r26, Y+6	; 0x06
     ace:	bf 81       	ldd	r27, Y+7	; 0x07
     ad0:	8a 1b       	sub	r24, r26
     ad2:	9b 0b       	sbc	r25, r27
     ad4:	2c 89       	ldd	r18, Y+20	; 0x14
     ad6:	3d 89       	ldd	r19, Y+21	; 0x15
     ad8:	82 1b       	sub	r24, r18
     ada:	93 0b       	sbc	r25, r19
     adc:	91 83       	std	Z+1, r25	; 0x01
     ade:	80 83       	st	Z, r24
       }
#endif

      if(adc.tp2 > 2557) {		// Basis-voltage R_H is low enough
     ae0:	3e ef       	ldi	r19, 0xFE	; 254
     ae2:	a3 16       	cp	r10, r19
     ae4:	39 e0       	ldi	r19, 0x09	; 9
     ae6:	b3 06       	cpc	r11, r19
     ae8:	38 f0       	brcs	.+14     	; 0xaf8 <__stack+0x5f9>
         PartFound = PART_TRANSISTOR;	//NPN-Transistor is found (Base is near GND)
     aea:	82 e0       	ldi	r24, 0x02	; 2
     aec:	80 93 09 01 	sts	0x0109, r24
         PartMode = PART_MODE_NPN;
     af0:	81 e0       	ldi	r24, 0x01	; 1
     af2:	80 93 08 01 	sts	0x0108, r24
     af6:	51 c0       	rjmp	.+162    	; 0xb9a <__stack+0x69b>
      } else { // Basis has low current
         if((adc.lp_otr < 97) && (adc.hp2 > 3400)) {
     af8:	8b 85       	ldd	r24, Y+11	; 0x0b
     afa:	9c 85       	ldd	r25, Y+12	; 0x0c
     afc:	81 36       	cpi	r24, 0x61	; 97
     afe:	91 05       	cpc	r25, r1
     b00:	08 f0       	brcs	.+2      	; 0xb04 <__stack+0x605>
     b02:	4b c0       	rjmp	.+150    	; 0xb9a <__stack+0x69b>
     b04:	99 e4       	ldi	r25, 0x49	; 73
     b06:	69 16       	cp	r6, r25
     b08:	9d e0       	ldi	r25, 0x0D	; 13
     b0a:	79 06       	cpc	r7, r25
     b0c:	08 f4       	brcc	.+2      	; 0xb10 <__stack+0x611>
     b0e:	45 c0       	rjmp	.+138    	; 0xb9a <__stack+0x69b>
            //if flow voltage in switched off mode low enough?
            //(since D-Mode-FET will be detected in error as E-Mode )
            PartFound = PART_FET;	//N-Kanal-MOSFET is found (Basis/Gate will Not be pulled down)
     b10:	83 e0       	ldi	r24, 0x03	; 3
     b12:	80 93 09 01 	sts	0x0109, r24
            PartMode = PART_MODE_N_E_MOS;
     b16:	82 e0       	ldi	r24, 0x02	; 2
     b18:	80 93 08 01 	sts	0x0108, r24
            lcd_line3();
            lcd_data('N');
            lcd_data('F');
            wait1s();
#endif
            PinMSK = HiADCm & 7;
     b1c:	eb 80       	ldd	r14, Y+3	; 0x03
     b1e:	a7 e0       	ldi	r26, 0x07	; 7
     b20:	ea 22       	and	r14, r26
            // measure Threshold voltage of Gate
            ADMUX = TristatePin | (1<<REFS0);	// measure TristatePin, Ref. VCC
     b22:	89 81       	ldd	r24, Y+1	; 0x01
     b24:	80 64       	ori	r24, 0x40	; 64
     b26:	80 93 7c 00 	sts	0x007C, r24
            gthvoltage = 1;			// round up ((1*4)/9)
     b2a:	81 e0       	ldi	r24, 0x01	; 1
     b2c:	90 e0       	ldi	r25, 0x00	; 0
     b2e:	90 93 5a 01 	sts	0x015A, r25
     b32:	80 93 59 01 	sts	0x0159, r24
     b36:	eb e0       	ldi	r30, 0x0B	; 11
     b38:	ae 2e       	mov	r10, r30
            for(ii=0;ii<11;ii++) {
            	wdt_reset();
     b3a:	a8 95       	wdr
            	ChargePin10ms(TriPinRL,0);	// discharge Gate 10ms with RL 
     b3c:	8a 81       	ldd	r24, Y+2	; 0x02
     b3e:	60 e0       	ldi	r22, 0x00	; 0
     b40:	0e 94 99 01 	call	0x332	; 0x332 <ChargePin10ms>
                R_DDR = HiPinRL | TriPinRH;	// slowly charge Gate 
     b44:	d4 b8       	out	0x04, r13	; 4
                R_PORT = HiPinRL | TriPinRH;
     b46:	d5 b8       	out	0x05, r13	; 5
            	while ((ADC_PIN&PinMSK));  // Wait, until the MOSFET switch and Drain moved to low 
     b48:	86 b1       	in	r24, 0x06	; 6
     b4a:	8e 21       	and	r24, r14
     b4c:	e9 f7       	brne	.-6      	; 0xb48 <__stack+0x649>
                R_DDR = HiPinRL;
     b4e:	c4 b8       	out	0x04, r12	; 4
            	ADCSRA |= (1<<ADSC);		// start ADC conversion
     b50:	80 91 7a 00 	lds	r24, 0x007A
     b54:	80 64       	ori	r24, 0x40	; 64
     b56:	80 93 7a 00 	sts	0x007A, r24
            	while (ADCSRA&(1<<ADSC));	// wait until ADC finished
     b5a:	80 91 7a 00 	lds	r24, 0x007A
     b5e:	86 fd       	sbrc	r24, 6
     b60:	fc cf       	rjmp	.-8      	; 0xb5a <__stack+0x65b>
            	gthvoltage += ADCW;		// add result of ADC
     b62:	80 91 78 00 	lds	r24, 0x0078
     b66:	90 91 79 00 	lds	r25, 0x0079
     b6a:	20 91 59 01 	lds	r18, 0x0159
     b6e:	30 91 5a 01 	lds	r19, 0x015A
     b72:	82 0f       	add	r24, r18
     b74:	93 1f       	adc	r25, r19
     b76:	90 93 5a 01 	sts	0x015A, r25
     b7a:	80 93 59 01 	sts	0x0159, r24
     b7e:	aa 94       	dec	r10
#endif
            PinMSK = HiADCm & 7;
            // measure Threshold voltage of Gate
            ADMUX = TristatePin | (1<<REFS0);	// measure TristatePin, Ref. VCC
            gthvoltage = 1;			// round up ((1*4)/9)
            for(ii=0;ii<11;ii++) {
     b80:	e1 f6       	brne	.-72     	; 0xb3a <__stack+0x63b>
            	gthvoltage += ADCW;		// add result of ADC
#if DebugOut == 5
                lcd_data('.');
#endif
            }
            gthvoltage *= 4;	//is equal to 44 * ADCW
     b82:	88 0f       	add	r24, r24
     b84:	99 1f       	adc	r25, r25
     b86:	88 0f       	add	r24, r24
     b88:	99 1f       	adc	r25, r25
            gthvoltage /= 9;	//scale to mV
     b8a:	69 e0       	ldi	r22, 0x09	; 9
     b8c:	70 e0       	ldi	r23, 0x00	; 0
     b8e:	0e 94 14 1c 	call	0x3828	; 0x3828 <__udivmodhi4>
     b92:	70 93 5a 01 	sts	0x015A, r23
     b96:	60 93 59 01 	sts	0x0159, r22
         }
      }
savenresult:
      trans.b = TristatePin;	// save Pin-constellation
     b9a:	b9 81       	ldd	r27, Y+1	; 0x01
     b9c:	b0 93 55 01 	sts	0x0155, r27
      trans.c = HighPin;
     ba0:	10 93 56 01 	sts	0x0156, r17
      trans.e = LowPin;
     ba4:	00 93 57 01 	sts	0x0157, r16
   } // end component conduct => npn
   ADC_DDR = TXD_MSK;		// switch all ADC-Ports to input
     ba8:	88 e0       	ldi	r24, 0x08	; 8
     baa:	87 b9       	out	0x07, r24	; 7
   ADC_PORT = TXD_VAL;		// switch all ADC-Ports to 0 (no Pull up)
     bac:	88 b9       	out	0x08, r24	; 8
   //Fertig
   //end das component has no connection between HighPin and LowPin
   goto widmes;
     bae:	69 c0       	rjmp	.+210    	; 0xc82 <__stack+0x783>
  }
  // component has current
  //Test if Diode
  ADC_PORT = TXD_VAL;
     bb0:	88 e0       	ldi	r24, 0x08	; 8
     bb2:	88 b9       	out	0x08, r24	; 8
  ADC_DDR = LoADCm;	//Low-Pin fix to GND
     bb4:	ed 81       	ldd	r30, Y+5	; 0x05
     bb6:	e7 b9       	out	0x07, r30	; 7
  R_DDR = HiPinRL;		//switch R_L port for High-Pin to output (VCC)
     bb8:	c4 b8       	out	0x04, r12	; 4
  R_PORT = HiPinRL;
     bba:	c5 b8       	out	0x05, r12	; 5
  ChargePin10ms(TriPinRL,1);	//discharge of P-Kanal-MOSFET gate
     bbc:	8a 81       	ldd	r24, Y+2	; 0x02
     bbe:	61 e0       	ldi	r22, 0x01	; 1
     bc0:	0e 94 99 01 	call	0x332	; 0x332 <ChargePin10ms>
  adc.lp_otr = W5msReadADC(HighPin) - ReadADC(LowPin);
     bc4:	81 2f       	mov	r24, r17
     bc6:	0e 94 b6 19 	call	0x336c	; 0x336c <W5msReadADC>
     bca:	4c 01       	movw	r8, r24
     bcc:	80 2f       	mov	r24, r16
     bce:	0e 94 b8 19 	call	0x3370	; 0x3370 <ReadADC>
     bd2:	88 1a       	sub	r8, r24
     bd4:	99 0a       	sbc	r9, r25
  R_DDR = HiPinRH;		//switch R_H port for High-Pin output (VCC)
     bd6:	fa 85       	ldd	r31, Y+10	; 0x0a
     bd8:	f4 b9       	out	0x04, r31	; 4
  R_PORT = HiPinRH;
     bda:	f5 b9       	out	0x05, r31	; 5
  adc.hp2 = W5msReadADC(HighPin); 		// M--|<--HP--R_H--VCC
     bdc:	81 2f       	mov	r24, r17
     bde:	0e 94 b6 19 	call	0x336c	; 0x336c <W5msReadADC>
     be2:	5c 01       	movw	r10, r24

  R_DDR = HiPinRL;		//switch R_L port for High-Pin to output (VCC)
     be4:	c4 b8       	out	0x04, r12	; 4
  R_PORT = HiPinRL;
     be6:	c5 b8       	out	0x05, r12	; 5
  ChargePin10ms(TriPinRL,0);	//discharge for N-Kanal-MOSFET gate
     be8:	8a 81       	ldd	r24, Y+2	; 0x02
     bea:	60 e0       	ldi	r22, 0x00	; 0
     bec:	0e 94 99 01 	call	0x332	; 0x332 <ChargePin10ms>
  adc.hp1 = W5msReadADC(HighPin) - W5msReadADC(LowPin);
     bf0:	81 2f       	mov	r24, r17
     bf2:	0e 94 b6 19 	call	0x336c	; 0x336c <W5msReadADC>
     bf6:	7c 01       	movw	r14, r24
     bf8:	80 2f       	mov	r24, r16
     bfa:	0e 94 b6 19 	call	0x336c	; 0x336c <W5msReadADC>
     bfe:	e8 1a       	sub	r14, r24
     c00:	f9 0a       	sbc	r15, r25
  R_DDR = HiPinRH;		//switch R_H port for High-Pin to output (VCC)
     c02:	2a 85       	ldd	r18, Y+10	; 0x0a
     c04:	24 b9       	out	0x04, r18	; 4
  R_PORT = HiPinRH;
     c06:	25 b9       	out	0x05, r18	; 5
  adc.hp3 = W5msReadADC(HighPin);		// M--|<--HP--R_H--VCC
     c08:	81 2f       	mov	r24, r17
     c0a:	0e 94 b6 19 	call	0x336c	; 0x336c <W5msReadADC>
      The additional measurement with the big resistor R_H is made, to differ antiparallel diodes
      from resistors.
      A diode has a voltage, that is nearly independent from the current.
      The voltage of a resistor is proportional to the current.
    */
  if(adc.lp_otr > adc.hp1) {
     c0e:	e8 14       	cp	r14, r8
     c10:	f9 04       	cpc	r15, r9
     c12:	18 f0       	brcs	.+6      	; 0xc1a <__stack+0x71b>
  R_PORT = HiPinRL;
  ChargePin10ms(TriPinRL,0);	//discharge for N-Kanal-MOSFET gate
  adc.hp1 = W5msReadADC(HighPin) - W5msReadADC(LowPin);
  R_DDR = HiPinRH;		//switch R_H port for High-Pin to output (VCC)
  R_PORT = HiPinRH;
  adc.hp3 = W5msReadADC(HighPin);		// M--|<--HP--R_H--VCC
     c14:	a8 2e       	mov	r10, r24
     c16:	b9 2e       	mov	r11, r25
      The additional measurement with the big resistor R_H is made, to differ antiparallel diodes
      from resistors.
      A diode has a voltage, that is nearly independent from the current.
      The voltage of a resistor is proportional to the current.
    */
  if(adc.lp_otr > adc.hp1) {
     c18:	47 01       	movw	r8, r14
  lcd_string(utoa(adc.hp3,outval,10));
  lcd_space();
  wait1s();
#endif

  if((adc.hp1 > 150) && (adc.hp1 < 4640) && (adc.hp1 > (adc.hp3+(adc.hp3/8))) && (adc.hp3*8 > adc.hp1)) {
     c1a:	c4 01       	movw	r24, r8
     c1c:	87 59       	subi	r24, 0x97	; 151
     c1e:	90 40       	sbci	r25, 0x00	; 0
     c20:	31 e1       	ldi	r19, 0x11	; 17
     c22:	89 38       	cpi	r24, 0x89	; 137
     c24:	93 07       	cpc	r25, r19
     c26:	68 f5       	brcc	.+90     	; 0xc82 <__stack+0x783>
     c28:	c5 01       	movw	r24, r10
     c2a:	63 e0       	ldi	r22, 0x03	; 3
     c2c:	96 95       	lsr	r25
     c2e:	87 95       	ror	r24
     c30:	6a 95       	dec	r22
     c32:	e1 f7       	brne	.-8      	; 0xc2c <__stack+0x72d>
     c34:	8a 0d       	add	r24, r10
     c36:	9b 1d       	adc	r25, r11
     c38:	88 15       	cp	r24, r8
     c3a:	99 05       	cpc	r25, r9
     c3c:	10 f5       	brcc	.+68     	; 0xc82 <__stack+0x783>
     c3e:	53 e0       	ldi	r21, 0x03	; 3
     c40:	aa 0c       	add	r10, r10
     c42:	bb 1c       	adc	r11, r11
     c44:	5a 95       	dec	r21
     c46:	e1 f7       	brne	.-8      	; 0xc40 <__stack+0x741>
     c48:	8a 14       	cp	r8, r10
     c4a:	9b 04       	cpc	r9, r11
     c4c:	d0 f4       	brcc	.+52     	; 0xc82 <__stack+0x783>
     //voltage is above 0,15V and below 4,64V => Ok
     if((PartFound == PART_NONE) || (PartFound == PART_RESISTOR)) {
     c4e:	80 91 09 01 	lds	r24, 0x0109
     c52:	88 23       	and	r24, r24
     c54:	11 f0       	breq	.+4      	; 0xc5a <__stack+0x75b>
     c56:	86 30       	cpi	r24, 0x06	; 6
     c58:	19 f4       	brne	.+6      	; 0xc60 <__stack+0x761>
        PartFound = PART_DIODE;	//mark for diode only, if no other component is found
     c5a:	81 e0       	ldi	r24, 0x01	; 1
     c5c:	80 93 09 01 	sts	0x0109, r24
				//since there is a problem with Transistors with a protection diode
#if DebugOut == 4
        lcd_data('D');
#endif
     }
     diodes[NumOfDiodes].Anode = HighPin;
     c60:	80 91 07 01 	lds	r24, 0x0107
     c64:	e8 2f       	mov	r30, r24
     c66:	f0 e0       	ldi	r31, 0x00	; 0
     c68:	ee 0f       	add	r30, r30
     c6a:	ff 1f       	adc	r31, r31
     c6c:	ee 0f       	add	r30, r30
     c6e:	ff 1f       	adc	r31, r31
     c70:	e7 59       	subi	r30, 0x97	; 151
     c72:	fe 4f       	sbci	r31, 0xFE	; 254
     c74:	10 83       	st	Z, r17
     diodes[NumOfDiodes].Cathode = LowPin;
     c76:	01 83       	std	Z+1, r16	; 0x01
     diodes[NumOfDiodes].Voltage = adc.hp1;	// voltage in Millivolt 
     c78:	93 82       	std	Z+3, r9	; 0x03
     c7a:	82 82       	std	Z+2, r8	; 0x02
     NumOfDiodes++;
     c7c:	8f 5f       	subi	r24, 0xFF	; 255
     c7e:	80 93 07 01 	sts	0x0107, r24
#endif

widmes:
#ifdef R_MESS
  // resistor measurement
  wdt_reset();
     c82:	a8 95       	wdr
// U_SCALE can be set to 4 for better resolution of ReadADC result
 #if U_SCALE != 1
  ADCconfig.U_AVCC *= U_SCALE;	// scale to higher resolution, mV scale is not required
     c84:	80 91 3f 01 	lds	r24, 0x013F
     c88:	90 91 40 01 	lds	r25, 0x0140
     c8c:	88 0f       	add	r24, r24
     c8e:	99 1f       	adc	r25, r25
     c90:	88 0f       	add	r24, r24
     c92:	99 1f       	adc	r25, r25
     c94:	90 93 40 01 	sts	0x0140, r25
     c98:	80 93 3f 01 	sts	0x013F, r24
  ADCconfig.U_Bandgap *= U_SCALE;
     c9c:	80 91 3d 01 	lds	r24, 0x013D
     ca0:	90 91 3e 01 	lds	r25, 0x013E
     ca4:	88 0f       	add	r24, r24
     ca6:	99 1f       	adc	r25, r25
     ca8:	88 0f       	add	r24, r24
     caa:	99 1f       	adc	r25, r25
     cac:	90 93 3e 01 	sts	0x013E, r25
     cb0:	80 93 3d 01 	sts	0x013D, r24
 #endif
#if R_ANZ_MESS != ANZ_MESS
  ADCconfig.Samples = R_ANZ_MESS;	// switch to special number of repetitions
     cb4:	8e eb       	ldi	r24, 0xBE	; 190
     cb6:	80 93 3b 01 	sts	0x013B, r24
#endif
  #define MAX_REPEAT (700 / (5 + R_ANZ_MESS/8))
  ADC_PORT = TXD_VAL;
     cba:	88 e0       	ldi	r24, 0x08	; 8
     cbc:	88 b9       	out	0x08, r24	; 8
  ADC_DDR = LoADCm;		//switch Low-Pin to output (GND)
     cbe:	8d 81       	ldd	r24, Y+5	; 0x05
     cc0:	87 b9       	out	0x07, r24	; 7
  R_DDR = HiPinRL;		//switch R_L port for High-Pin to output (VCC)
     cc2:	c4 b8       	out	0x04, r12	; 4
  R_PORT = HiPinRL;	
     cc4:	c5 b8       	out	0x05, r12	; 5
#if FLASHEND > 0x1fff
  adc.hp2 = 0;
     cc6:	ee 24       	eor	r14, r14
     cc8:	ff 24       	eor	r15, r15
  for (ii=1;ii<MAX_REPEAT;ii++) {
     cca:	21 e0       	ldi	r18, 0x01	; 1
     ccc:	01 c0       	rjmp	.+2      	; 0xcd0 <__stack+0x7d1>
     // wait until voltage is stable
     adc.tp1 = W5msReadADC(LowPin);	// low-voltage at Rx with load
     adc.hp1 = ReadADC(HighPin);		// voltage at resistor Rx with R_L
     cce:	7c 01       	movw	r14, r24
  R_PORT = HiPinRL;	
#if FLASHEND > 0x1fff
  adc.hp2 = 0;
  for (ii=1;ii<MAX_REPEAT;ii++) {
     // wait until voltage is stable
     adc.tp1 = W5msReadADC(LowPin);	// low-voltage at Rx with load
     cd0:	80 2f       	mov	r24, r16
     cd2:	2b 8b       	std	Y+19, r18	; 0x13
     cd4:	0e 94 b6 19 	call	0x336c	; 0x336c <W5msReadADC>
     cd8:	48 2e       	mov	r4, r24
     cda:	69 2e       	mov	r6, r25
     adc.hp1 = ReadADC(HighPin);		// voltage at resistor Rx with R_L
     cdc:	81 2f       	mov	r24, r17
     cde:	0e 94 b8 19 	call	0x3370	; 0x3370 <ReadADC>
     udiff = adc.hp1 - adc.hp2;
     ce2:	ac 01       	movw	r20, r24
     ce4:	4e 19       	sub	r20, r14
     ce6:	5f 09       	sbc	r21, r15
     if (udiff < 0) udiff = -udiff;
     if (udiff < 3) break;
     ce8:	2b 89       	ldd	r18, Y+19	; 0x13
     cea:	57 ff       	sbrs	r21, 7
     cec:	03 c0       	rjmp	.+6      	; 0xcf4 <__stack+0x7f5>
     cee:	50 95       	com	r21
     cf0:	41 95       	neg	r20
     cf2:	5f 4f       	sbci	r21, 0xFF	; 255
     cf4:	43 30       	cpi	r20, 0x03	; 3
     cf6:	51 05       	cpc	r21, r1
     cf8:	84 f4       	brge	.+32     	; 0xd1a <__stack+0x81b>
     cfa:	ac 01       	movw	r20, r24
  adc.hp1 = ReadADC(HighPin);		// voltage at resistor Rx with R_L
#endif
  if (adc.tp1 > adc.hp1) {
     adc.tp1 = adc.hp1;
  }
  R_PORT = 0;
     cfc:	15 b8       	out	0x05, r1	; 5
  R_DDR = HiPinRH;		//switch R_H port for High-Pin to output (GND)
     cfe:	9a 85       	ldd	r25, Y+10	; 0x0a
     d00:	94 b9       	out	0x04, r25	; 4
  adc.hp2 = W5msReadADC(HighPin);	// read voltage, should be down
     d02:	81 2f       	mov	r24, r17
     d04:	4e 8b       	std	Y+22, r20	; 0x16
     d06:	5b 8b       	std	Y+19, r21	; 0x13
     d08:	0e 94 b6 19 	call	0x336c	; 0x336c <W5msReadADC>
  if (adc.hp2 > (20*U_SCALE)) {
     d0c:	4e 89       	ldd	r20, Y+22	; 0x16
     d0e:	5b 89       	ldd	r21, Y+19	; 0x13
     d10:	81 35       	cpi	r24, 0x51	; 81
     d12:	91 05       	cpc	r25, r1
     d14:	08 f0       	brcs	.+2      	; 0xd18 <__stack+0x819>
     d16:	af c1       	rjmp	.+862    	; 0x1076 <__stack+0xb77>
     d18:	05 c0       	rjmp	.+10     	; 0xd24 <__stack+0x825>
     adc.hp1 = ReadADC(HighPin);		// voltage at resistor Rx with R_L
     udiff = adc.hp1 - adc.hp2;
     if (udiff < 0) udiff = -udiff;
     if (udiff < 3) break;
     adc.hp2 = adc.hp1;
     wdt_reset();
     d1a:	a8 95       	wdr
  ADC_DDR = LoADCm;		//switch Low-Pin to output (GND)
  R_DDR = HiPinRL;		//switch R_L port for High-Pin to output (VCC)
  R_PORT = HiPinRL;	
#if FLASHEND > 0x1fff
  adc.hp2 = 0;
  for (ii=1;ii<MAX_REPEAT;ii++) {
     d1c:	2f 5f       	subi	r18, 0xFF	; 255
     d1e:	29 31       	cpi	r18, 0x19	; 25
     d20:	b1 f6       	brne	.-84     	; 0xcce <__stack+0x7cf>
     d22:	a9 c1       	rjmp	.+850    	; 0x1076 <__stack+0xb77>
     lcd_string(utoa(adc.hp2, outval, 10));
     lcd_space();
 #endif
     goto testend;
  }
  R_PORT = HiPinRH;		//switch R_H for High-Pin to VCC
     d24:	aa 85       	ldd	r26, Y+10	; 0x0a
     d26:	a5 b9       	out	0x05, r26	; 5
  adc.hp2 = W5msReadADC(HighPin);	// voltage at resistor Rx with R_H
     d28:	81 2f       	mov	r24, r17
     d2a:	4e 8b       	std	Y+22, r20	; 0x16
     d2c:	5b 8b       	std	Y+19, r21	; 0x13
     d2e:	0e 94 b6 19 	call	0x336c	; 0x336c <W5msReadADC>
     d32:	7c 01       	movw	r14, r24

  ADC_DDR = HiADCm;		//switch High-Pin to output
     d34:	bb 81       	ldd	r27, Y+3	; 0x03
     d36:	b7 b9       	out	0x07, r27	; 7
  ADC_PORT = HiADCp;		//switch High-Pin to VCC
     d38:	b8 b9       	out	0x08, r27	; 8
  R_PORT = 0;
     d3a:	15 b8       	out	0x05, r1	; 5
  R_DDR = LoPinRL;			//switch R_L for Low-Pin to GND
     d3c:	ec 81       	ldd	r30, Y+4	; 0x04
     d3e:	e4 b9       	out	0x04, r30	; 4
#if FLASHEND > 0x1fff
  adc.lp2 = 0;
     d40:	aa 24       	eor	r10, r10
     d42:	bb 24       	eor	r11, r11
  for (ii=1;ii<MAX_REPEAT;ii++) {
     d44:	21 e0       	ldi	r18, 0x01	; 1
     d46:	4e 89       	ldd	r20, Y+22	; 0x16
     d48:	5b 89       	ldd	r21, Y+19	; 0x13
     d4a:	4a 01       	movw	r8, r20
     d4c:	01 c0       	rjmp	.+2      	; 0xd50 <__stack+0x851>
     // wait until voltage is stable
     adc.tp2 = W5msReadADC(HighPin);	//high voltage with load
     adc.lp1 = ReadADC(LowPin);		//voltage at the other end of Rx
     d4e:	56 01       	movw	r10, r12
  R_DDR = LoPinRL;			//switch R_L for Low-Pin to GND
#if FLASHEND > 0x1fff
  adc.lp2 = 0;
  for (ii=1;ii<MAX_REPEAT;ii++) {
     // wait until voltage is stable
     adc.tp2 = W5msReadADC(HighPin);	//high voltage with load
     d50:	81 2f       	mov	r24, r17
     d52:	2b 8b       	std	Y+19, r18	; 0x13
     d54:	0e 94 b6 19 	call	0x336c	; 0x336c <W5msReadADC>
     d58:	78 2e       	mov	r7, r24
     d5a:	29 2e       	mov	r2, r25
     adc.lp1 = ReadADC(LowPin);		//voltage at the other end of Rx
     d5c:	80 2f       	mov	r24, r16
     d5e:	0e 94 b8 19 	call	0x3370	; 0x3370 <ReadADC>
     d62:	6c 01       	movw	r12, r24
     udiff = adc.lp1 - adc.lp2;
     d64:	8a 19       	sub	r24, r10
     d66:	9b 09       	sbc	r25, r11
     if (udiff < 0) udiff = -udiff;
     if (udiff < 3) break;
     d68:	2b 89       	ldd	r18, Y+19	; 0x13
     d6a:	97 ff       	sbrs	r25, 7
     d6c:	03 c0       	rjmp	.+6      	; 0xd74 <__stack+0x875>
     d6e:	90 95       	com	r25
     d70:	81 95       	neg	r24
     d72:	9f 4f       	sbci	r25, 0xFF	; 255
     d74:	83 30       	cpi	r24, 0x03	; 3
     d76:	91 05       	cpc	r25, r1
     d78:	8c f4       	brge	.+34     	; 0xd9c <__stack+0x89d>
     d7a:	a4 01       	movw	r20, r8
//#else
//  #define RR680PL (R_L_VAL + PIN_RP)
//  #define RR680MI (R_L_VAL + PIN_RM)
//#endif
  LoPinRL = MEM_read_byte(&PinRLtab[LowPin]);		// intruction for LowPin R_L
  LoPinRH = LoPinRL + LoPinRL;				// intruction for LowPin R_H
     d7c:	8c 81       	ldd	r24, Y+4	; 0x04
     d7e:	88 0f       	add	r24, r24
  adc.lp1 = ReadADC(LowPin);		//voltage at the other end of Rx
#endif
  if (adc.tp2 < adc.lp1) {
     adc.tp2 = adc.lp1;
  }
  R_DDR = LoPinRH;			//switch R_H for Low-Pin to GND
     d80:	84 b9       	out	0x04, r24	; 4
  adc.lp2 = W5msReadADC(LowPin);
     d82:	80 2f       	mov	r24, r16
     d84:	8e 8a       	std	Y+22, r8	; 0x16
     d86:	5b 8b       	std	Y+19, r21	; 0x13
     d88:	0e 94 b6 19 	call	0x336c	; 0x336c <W5msReadADC>
     d8c:	4c 01       	movw	r8, r24
		
  if((adc.hp1 < (4400*U_SCALE)) && (adc.hp2 > (97*U_SCALE))) {
     d8e:	4e 89       	ldd	r20, Y+22	; 0x16
     d90:	5b 89       	ldd	r21, Y+19	; 0x13
     d92:	f4 e4       	ldi	r31, 0x44	; 68
     d94:	40 3c       	cpi	r20, 0xC0	; 192
     d96:	5f 07       	cpc	r21, r31
     d98:	30 f0       	brcs	.+12     	; 0xda6 <__stack+0x8a7>
     d9a:	0b c0       	rjmp	.+22     	; 0xdb2 <__stack+0x8b3>
     adc.lp1 = ReadADC(LowPin);		//voltage at the other end of Rx
     udiff = adc.lp1 - adc.lp2;
     if (udiff < 0) udiff = -udiff;
     if (udiff < 3) break;
     adc.lp2 = adc.lp1;
     wdt_reset();
     d9c:	a8 95       	wdr
  ADC_PORT = HiADCp;		//switch High-Pin to VCC
  R_PORT = 0;
  R_DDR = LoPinRL;			//switch R_L for Low-Pin to GND
#if FLASHEND > 0x1fff
  adc.lp2 = 0;
  for (ii=1;ii<MAX_REPEAT;ii++) {
     d9e:	2f 5f       	subi	r18, 0xFF	; 255
     da0:	29 31       	cpi	r18, 0x19	; 25
     da2:	a9 f6       	brne	.-86     	; 0xd4e <__stack+0x84f>
     da4:	68 c1       	rjmp	.+720    	; 0x1076 <__stack+0xb77>
     adc.tp2 = adc.lp1;
  }
  R_DDR = LoPinRH;			//switch R_H for Low-Pin to GND
  adc.lp2 = W5msReadADC(LowPin);
		
  if((adc.hp1 < (4400*U_SCALE)) && (adc.hp2 > (97*U_SCALE))) {
     da6:	25 e8       	ldi	r18, 0x85	; 133
     da8:	e2 16       	cp	r14, r18
     daa:	21 e0       	ldi	r18, 0x01	; 1
     dac:	f2 06       	cpc	r15, r18
     dae:	38 f0       	brcs	.+14     	; 0xdbe <__stack+0x8bf>
     db0:	62 c1       	rjmp	.+708    	; 0x1076 <__stack+0xb77>
     lcd_data('F');
 #endif
     goto testend; 
  }
//    if((adc.hp2 + (adc.hp2 / 61)) < adc.hp1)
  if (adc.hp2 < (4972*U_SCALE)) { 
     db2:	30 eb       	ldi	r19, 0xB0	; 176
     db4:	e3 16       	cp	r14, r19
     db6:	3d e4       	ldi	r19, 0x4D	; 77
     db8:	f3 06       	cpc	r15, r19
     dba:	08 f0       	brcs	.+2      	; 0xdbe <__stack+0x8bf>
     dbc:	5c c1       	rjmp	.+696    	; 0x1076 <__stack+0xb77>
     // voltage breaks down with low test current and it is not nearly shorted  => resistor
//     if (adc.lp1 < 120) { // take measurement with R_H 
     if (adc.lp1 < (169*U_SCALE)) { // take measurement with R_H 
     dbe:	84 ea       	ldi	r24, 0xA4	; 164
     dc0:	c8 16       	cp	r12, r24
     dc2:	82 e0       	ldi	r24, 0x02	; 2
     dc4:	d8 06       	cpc	r13, r24
     dc6:	08 f0       	brcs	.+2      	; 0xdca <__stack+0x8cb>
     dc8:	72 c0       	rjmp	.+228    	; 0xeae <__stack+0x9af>
        ii = 'H';
        if (adc.lp2 < (38*U_SCALE)) {
     dca:	98 e9       	ldi	r25, 0x98	; 152
     dcc:	89 16       	cp	r8, r25
     dce:	91 04       	cpc	r9, r1
     dd0:	08 f4       	brcc	.+2      	; 0xdd4 <__stack+0x8d5>
     dd2:	51 c1       	rjmp	.+674    	; 0x1076 <__stack+0xb77>
           // measurement > 60MOhm to big resistance
           goto testend;
        }
        // two measurements with R_H resistors (470k) are made:
        // lirx1 (measurement at HighPin)
        lirx1 = (unsigned long)((unsigned int)R_H_VAL) * (unsigned long)adc.hp2 / (ADCconfig.U_AVCC - adc.hp2);
     dd4:	60 90 3f 01 	lds	r6, 0x013F
     dd8:	70 90 40 01 	lds	r7, 0x0140
     ddc:	b7 01       	movw	r22, r14
     dde:	80 e0       	ldi	r24, 0x00	; 0
     de0:	90 e0       	ldi	r25, 0x00	; 0
     de2:	28 e9       	ldi	r18, 0x98	; 152
     de4:	37 eb       	ldi	r19, 0xB7	; 183
     de6:	40 e0       	ldi	r20, 0x00	; 0
     de8:	50 e0       	ldi	r21, 0x00	; 0
     dea:	0e 94 e9 1b 	call	0x37d2	; 0x37d2 <__mulsi3>
     dee:	93 01       	movw	r18, r6
     df0:	2e 19       	sub	r18, r14
     df2:	3f 09       	sbc	r19, r15
     df4:	40 e0       	ldi	r20, 0x00	; 0
     df6:	50 e0       	ldi	r21, 0x00	; 0
     df8:	0e 94 28 1c 	call	0x3850	; 0x3850 <__udivmodsi4>
     dfc:	59 01       	movw	r10, r18
     dfe:	6a 01       	movw	r12, r20
        // lirx2 (measurement at LowPin)
        lirx2 = (unsigned long)((unsigned int)R_H_VAL) * (unsigned long)(ADCconfig.U_AVCC - adc.lp2) / adc.lp2;
     e00:	68 18       	sub	r6, r8
     e02:	79 08       	sbc	r7, r9
     e04:	b3 01       	movw	r22, r6
     e06:	80 e0       	ldi	r24, 0x00	; 0
     e08:	90 e0       	ldi	r25, 0x00	; 0
     e0a:	28 e9       	ldi	r18, 0x98	; 152
     e0c:	37 eb       	ldi	r19, 0xB7	; 183
     e0e:	40 e0       	ldi	r20, 0x00	; 0
     e10:	50 e0       	ldi	r21, 0x00	; 0
     e12:	0e 94 e9 1b 	call	0x37d2	; 0x37d2 <__mulsi3>
     e16:	94 01       	movw	r18, r8
     e18:	40 e0       	ldi	r20, 0x00	; 0
     e1a:	50 e0       	ldi	r21, 0x00	; 0
     e1c:	0e 94 28 1c 	call	0x3850	; 0x3850 <__udivmodsi4>
#define FAKT_LOW 2		//resolution is about twice as good
#else
#define FAKT_LOW 4		//resolution is about four times better
#endif
#ifdef AUTOSCALE_ADC
        if (adc.hp2 < U_INT_LIMIT) {
     e20:	a8 e7       	ldi	r26, 0x78	; 120
     e22:	ea 16       	cp	r14, r26
     e24:	af e0       	ldi	r26, 0x0F	; 15
     e26:	fa 06       	cpc	r15, r26
     e28:	70 f4       	brcc	.+28     	; 0xe46 <__stack+0x947>
           lrx1 = (lirx1*FAKT_LOW + lirx2) / (FAKT_LOW+1);	//weighted average of both R_H measurements
     e2a:	c6 01       	movw	r24, r12
     e2c:	b5 01       	movw	r22, r10
     e2e:	b2 e0       	ldi	r27, 0x02	; 2
     e30:	66 0f       	add	r22, r22
     e32:	77 1f       	adc	r23, r23
     e34:	88 1f       	adc	r24, r24
     e36:	99 1f       	adc	r25, r25
     e38:	ba 95       	dec	r27
     e3a:	d1 f7       	brne	.-12     	; 0xe30 <__stack+0x931>
     e3c:	62 0f       	add	r22, r18
     e3e:	73 1f       	adc	r23, r19
     e40:	84 1f       	adc	r24, r20
     e42:	95 1f       	adc	r25, r21
     e44:	12 c0       	rjmp	.+36     	; 0xe6a <__stack+0x96b>
        } else if (adc.lp2 < U_INT_LIMIT){
     e46:	b8 e7       	ldi	r27, 0x78	; 120
     e48:	8b 16       	cp	r8, r27
     e4a:	bf e0       	ldi	r27, 0x0F	; 15
     e4c:	9b 06       	cpc	r9, r27
     e4e:	a0 f4       	brcc	.+40     	; 0xe78 <__stack+0x979>
           lrx1 = (lirx2*FAKT_LOW + lirx1) / (FAKT_LOW+1);	//weighted average of both R_H measurements
     e50:	ca 01       	movw	r24, r20
     e52:	b9 01       	movw	r22, r18
     e54:	a2 e0       	ldi	r26, 0x02	; 2
     e56:	66 0f       	add	r22, r22
     e58:	77 1f       	adc	r23, r23
     e5a:	88 1f       	adc	r24, r24
     e5c:	99 1f       	adc	r25, r25
     e5e:	aa 95       	dec	r26
     e60:	d1 f7       	brne	.-12     	; 0xe56 <__stack+0x957>
     e62:	6a 0d       	add	r22, r10
     e64:	7b 1d       	adc	r23, r11
     e66:	8c 1d       	adc	r24, r12
     e68:	9d 1d       	adc	r25, r13
     e6a:	25 e0       	ldi	r18, 0x05	; 5
     e6c:	30 e0       	ldi	r19, 0x00	; 0
     e6e:	40 e0       	ldi	r20, 0x00	; 0
     e70:	50 e0       	ldi	r21, 0x00	; 0
     e72:	0e 94 28 1c 	call	0x3850	; 0x3850 <__udivmodsi4>
     e76:	08 c0       	rjmp	.+16     	; 0xe88 <__stack+0x989>
        } else 
#endif
        {
           lrx1 = (lirx1 + lirx2) / 2;		//average of both R_H measurements
     e78:	2a 0d       	add	r18, r10
     e7a:	3b 1d       	adc	r19, r11
     e7c:	4c 1d       	adc	r20, r12
     e7e:	5d 1d       	adc	r21, r13
     e80:	56 95       	lsr	r21
     e82:	47 95       	ror	r20
     e84:	37 95       	ror	r19
     e86:	27 95       	ror	r18
        }
        lrx1 *= 100;
     e88:	ca 01       	movw	r24, r20
     e8a:	b9 01       	movw	r22, r18
     e8c:	24 e6       	ldi	r18, 0x64	; 100
     e8e:	30 e0       	ldi	r19, 0x00	; 0
     e90:	40 e0       	ldi	r20, 0x00	; 0
     e92:	50 e0       	ldi	r21, 0x00	; 0
     e94:	0e 94 e9 1b 	call	0x37d2	; 0x37d2 <__mulsi3>
     e98:	6b 01       	movw	r12, r22
     e9a:	7c 01       	movw	r14, r24
        lrx1 += RH_OFFSET;			// add constant for correction of systematic error
     e9c:	8c ea       	ldi	r24, 0xAC	; 172
     e9e:	9d e0       	ldi	r25, 0x0D	; 13
     ea0:	a0 e0       	ldi	r26, 0x00	; 0
     ea2:	b0 e0       	ldi	r27, 0x00	; 0
     ea4:	c8 0e       	add	r12, r24
     ea6:	d9 1e       	adc	r13, r25
     ea8:	ea 1e       	adc	r14, r26
     eaa:	fb 1e       	adc	r15, r27
     eac:	79 c0       	rjmp	.+242    	; 0xfa0 <__stack+0xaa1>
     eae:	84 2d       	mov	r24, r4
     eb0:	96 2d       	mov	r25, r6
     eb2:	48 17       	cp	r20, r24
     eb4:	59 07       	cpc	r21, r25
     eb6:	08 f4       	brcc	.+2      	; 0xeba <__stack+0x9bb>
     eb8:	ca 01       	movw	r24, r20
     eba:	e7 2c       	mov	r14, r7
     ebc:	f2 2c       	mov	r15, r2
     ebe:	ec 14       	cp	r14, r12
     ec0:	fd 04       	cpc	r15, r13
     ec2:	08 f4       	brcc	.+2      	; 0xec6 <__stack+0x9c7>
     ec4:	76 01       	movw	r14, r12
     ec6:	3c 01       	movw	r6, r24
     ec8:	84 17       	cp	r24, r20
     eca:	95 07       	cpc	r25, r21
     ecc:	08 f4       	brcc	.+2      	; 0xed0 <__stack+0x9d1>
     ece:	3a 01       	movw	r6, r20
        // two measurements with R_L resistors (680) are made:
        // lirx1 (measurement at HighPin)
        if (adc.tp1 > adc.hp1) {
           adc.hp1 = adc.tp1;		//diff negativ is illegal
        }
        lirx1 =(unsigned long)RR680PL * (unsigned long)(adc.hp1 - adc.tp1) / (ADCconfig.U_AVCC - adc.hp1);
     ed0:	b3 01       	movw	r22, r6
     ed2:	68 1b       	sub	r22, r24
     ed4:	79 0b       	sbc	r23, r25
     ed6:	80 e0       	ldi	r24, 0x00	; 0
     ed8:	90 e0       	ldi	r25, 0x00	; 0
     eda:	20 91 0a 01 	lds	r18, 0x010A
     ede:	30 91 0b 01 	lds	r19, 0x010B
     ee2:	40 e0       	ldi	r20, 0x00	; 0
     ee4:	50 e0       	ldi	r21, 0x00	; 0
     ee6:	0e 94 e9 1b 	call	0x37d2	; 0x37d2 <__mulsi3>
     eea:	20 91 3f 01 	lds	r18, 0x013F
     eee:	30 91 40 01 	lds	r19, 0x0140
     ef2:	26 19       	sub	r18, r6
     ef4:	37 09       	sbc	r19, r7
     ef6:	40 e0       	ldi	r20, 0x00	; 0
     ef8:	50 e0       	ldi	r21, 0x00	; 0
     efa:	0e 94 28 1c 	call	0x3850	; 0x3850 <__udivmodsi4>
     efe:	49 01       	movw	r8, r18
     f00:	5a 01       	movw	r10, r20
     f02:	27 01       	movw	r4, r14
     f04:	ce 14       	cp	r12, r14
     f06:	df 04       	cpc	r13, r15
     f08:	08 f4       	brcc	.+2      	; 0xf0c <__stack+0xa0d>
     f0a:	26 01       	movw	r4, r12
        if (adc.tp2 < adc.lp1) {
           adc.lp1 = adc.tp2;		//diff negativ is illegal
        }
        // lirx2 (Measurement at LowPin)
        lirx2 =(unsigned long)RR680MI * (unsigned long)(adc.tp2 -adc.lp1) / adc.lp1;
     f0c:	e4 18       	sub	r14, r4
     f0e:	f5 08       	sbc	r15, r5
     f10:	b7 01       	movw	r22, r14
     f12:	80 e0       	ldi	r24, 0x00	; 0
     f14:	90 e0       	ldi	r25, 0x00	; 0
     f16:	20 91 04 01 	lds	r18, 0x0104
     f1a:	30 91 05 01 	lds	r19, 0x0105
     f1e:	40 e0       	ldi	r20, 0x00	; 0
     f20:	50 e0       	ldi	r21, 0x00	; 0
     f22:	0e 94 e9 1b 	call	0x37d2	; 0x37d2 <__mulsi3>
     f26:	92 01       	movw	r18, r4
     f28:	40 e0       	ldi	r20, 0x00	; 0
     f2a:	50 e0       	ldi	r21, 0x00	; 0
     f2c:	0e 94 28 1c 	call	0x3850	; 0x3850 <__udivmodsi4>
//     lrx1 =(unsigned long)R_L_VAL * (unsigned long)adc.hp1 / (adc.hp3 - adc.hp1);

#ifdef AUTOSCALE_ADC
        if (adc.hp1 < U_INT_LIMIT) {
     f30:	98 e7       	ldi	r25, 0x78	; 120
     f32:	69 16       	cp	r6, r25
     f34:	9f e0       	ldi	r25, 0x0F	; 15
     f36:	79 06       	cpc	r7, r25
     f38:	70 f4       	brcc	.+28     	; 0xf56 <__stack+0xa57>
           lrx1 = (lirx1*FAKT_LOW + lirx2) / (FAKT_LOW+1);	//weighted average of both R_L measurements
     f3a:	c5 01       	movw	r24, r10
     f3c:	b4 01       	movw	r22, r8
     f3e:	e2 e0       	ldi	r30, 0x02	; 2
     f40:	66 0f       	add	r22, r22
     f42:	77 1f       	adc	r23, r23
     f44:	88 1f       	adc	r24, r24
     f46:	99 1f       	adc	r25, r25
     f48:	ea 95       	dec	r30
     f4a:	d1 f7       	brne	.-12     	; 0xf40 <__stack+0xa41>
     f4c:	62 0f       	add	r22, r18
     f4e:	73 1f       	adc	r23, r19
     f50:	84 1f       	adc	r24, r20
     f52:	95 1f       	adc	r25, r21
     f54:	12 c0       	rjmp	.+36     	; 0xf7a <__stack+0xa7b>
        } else if (adc.lp1 < U_INT_LIMIT) {
     f56:	a8 e7       	ldi	r26, 0x78	; 120
     f58:	4a 16       	cp	r4, r26
     f5a:	af e0       	ldi	r26, 0x0F	; 15
     f5c:	5a 06       	cpc	r5, r26
     f5e:	b0 f4       	brcc	.+44     	; 0xf8c <__stack+0xa8d>
           lrx1 = (lirx2*FAKT_LOW + lirx1) / (FAKT_LOW+1);	//weighted average of both R_L measurements
     f60:	ca 01       	movw	r24, r20
     f62:	b9 01       	movw	r22, r18
     f64:	52 e0       	ldi	r21, 0x02	; 2
     f66:	66 0f       	add	r22, r22
     f68:	77 1f       	adc	r23, r23
     f6a:	88 1f       	adc	r24, r24
     f6c:	99 1f       	adc	r25, r25
     f6e:	5a 95       	dec	r21
     f70:	d1 f7       	brne	.-12     	; 0xf66 <__stack+0xa67>
     f72:	68 0d       	add	r22, r8
     f74:	79 1d       	adc	r23, r9
     f76:	8a 1d       	adc	r24, r10
     f78:	9b 1d       	adc	r25, r11
     f7a:	25 e0       	ldi	r18, 0x05	; 5
     f7c:	30 e0       	ldi	r19, 0x00	; 0
     f7e:	40 e0       	ldi	r20, 0x00	; 0
     f80:	50 e0       	ldi	r21, 0x00	; 0
     f82:	0e 94 28 1c 	call	0x3850	; 0x3850 <__udivmodsi4>
     f86:	69 01       	movw	r12, r18
     f88:	7a 01       	movw	r14, r20
     f8a:	0a c0       	rjmp	.+20     	; 0xfa0 <__stack+0xaa1>
        } else
#endif
        {
           lrx1 = (lirx1 + lirx2) / 2;		//average of both R_L measurements
     f8c:	69 01       	movw	r12, r18
     f8e:	7a 01       	movw	r14, r20
     f90:	c8 0c       	add	r12, r8
     f92:	d9 1c       	adc	r13, r9
     f94:	ea 1c       	adc	r14, r10
     f96:	fb 1c       	adc	r15, r11
     f98:	f6 94       	lsr	r15
     f9a:	e7 94       	ror	r14
     f9c:	d7 94       	ror	r13
     f9e:	c7 94       	ror	r12
  lcd_line4();
  DisplayValue(lirx2,-1,LCD_CHAR_OMEGA,4)
  lcd_space();
  lcd_line2();
#endif
     if((PartFound == PART_DIODE) || (PartFound == PART_NONE) || (PartFound == PART_RESISTOR)) {
     fa0:	80 91 09 01 	lds	r24, 0x0109
     fa4:	82 30       	cpi	r24, 0x02	; 2
     fa6:	18 f0       	brcs	.+6      	; 0xfae <__stack+0xaaf>
     fa8:	86 30       	cpi	r24, 0x06	; 6
     faa:	09 f0       	breq	.+2      	; 0xfae <__stack+0xaaf>
     fac:	64 c0       	rjmp	.+200    	; 0x1076 <__stack+0xb77>
        for (ii=0; ii<ResistorsFound; ii++) {
     fae:	50 91 58 01 	lds	r21, 0x0158
     fb2:	40 e0       	ldi	r20, 0x00	; 0
           // search measurements with inverse polarity 
           thisR = &resis[ii];
           if (thisR->rt != TristatePin) {
     fb4:	8b e0       	ldi	r24, 0x0B	; 11
     fb6:	90 e0       	ldi	r25, 0x00	; 0
     fb8:	3f c0       	rjmp	.+126    	; 0x1038 <__stack+0xb39>
  lcd_line2();
#endif
     if((PartFound == PART_DIODE) || (PartFound == PART_NONE) || (PartFound == PART_RESISTOR)) {
        for (ii=0; ii<ResistorsFound; ii++) {
           // search measurements with inverse polarity 
           thisR = &resis[ii];
     fba:	24 2f       	mov	r18, r20
     fbc:	30 e0       	ldi	r19, 0x00	; 0
           if (thisR->rt != TristatePin) {
     fbe:	28 9f       	mul	r18, r24
     fc0:	f0 01       	movw	r30, r0
     fc2:	29 9f       	mul	r18, r25
     fc4:	f0 0d       	add	r31, r0
     fc6:	38 9f       	mul	r19, r24
     fc8:	f0 0d       	add	r31, r0
     fca:	11 24       	eor	r1, r1
     fcc:	e6 5e       	subi	r30, 0xE6	; 230
     fce:	fe 4f       	sbci	r31, 0xFE	; 254
     fd0:	22 85       	ldd	r18, Z+10	; 0x0a
     fd2:	b9 81       	ldd	r27, Y+1	; 0x01
     fd4:	2b 17       	cp	r18, r27
     fd6:	11 f0       	breq	.+4      	; 0xfdc <__stack+0xadd>
  DisplayValue(lirx2,-1,LCD_CHAR_OMEGA,4)
  lcd_space();
  lcd_line2();
#endif
     if((PartFound == PART_DIODE) || (PartFound == PART_NONE) || (PartFound == PART_RESISTOR)) {
        for (ii=0; ii<ResistorsFound; ii++) {
     fd8:	4f 5f       	subi	r20, 0xFF	; 255
     fda:	2e c0       	rjmp	.+92     	; 0x1038 <__stack+0xb39>
           if (thisR->rt != TristatePin) {
              continue;
           }
           // must be measurement with inverse polarity 
           // resolution is 0.1 Ohm, 1 Ohm = 10 !
           lirx1 = (labs((long)lrx1 - (long)thisR->rx) * 10) / (lrx1 + thisR->rx + 100);
     fdc:	80 80       	ld	r8, Z
     fde:	91 80       	ldd	r9, Z+1	; 0x01
     fe0:	a2 80       	ldd	r10, Z+2	; 0x02
     fe2:	b3 80       	ldd	r11, Z+3	; 0x03
     fe4:	c7 01       	movw	r24, r14
     fe6:	b6 01       	movw	r22, r12
     fe8:	68 19       	sub	r22, r8
     fea:	79 09       	sbc	r23, r9
     fec:	8a 09       	sbc	r24, r10
     fee:	9b 09       	sbc	r25, r11
     ff0:	97 ff       	sbrs	r25, 7
     ff2:	07 c0       	rjmp	.+14     	; 0x1002 <__stack+0xb03>
     ff4:	90 95       	com	r25
     ff6:	80 95       	com	r24
     ff8:	70 95       	com	r23
     ffa:	61 95       	neg	r22
     ffc:	7f 4f       	sbci	r23, 0xFF	; 255
     ffe:	8f 4f       	sbci	r24, 0xFF	; 255
    1000:	9f 4f       	sbci	r25, 0xFF	; 255
    1002:	2a e0       	ldi	r18, 0x0A	; 10
    1004:	30 e0       	ldi	r19, 0x00	; 0
    1006:	40 e0       	ldi	r20, 0x00	; 0
    1008:	50 e0       	ldi	r21, 0x00	; 0
    100a:	0e 94 e9 1b 	call	0x37d2	; 0x37d2 <__mulsi3>
    100e:	a5 01       	movw	r20, r10
    1010:	94 01       	movw	r18, r8
    1012:	2c 59       	subi	r18, 0x9C	; 156
    1014:	3f 4f       	sbci	r19, 0xFF	; 255
    1016:	4f 4f       	sbci	r20, 0xFF	; 255
    1018:	5f 4f       	sbci	r21, 0xFF	; 255
    101a:	2c 0d       	add	r18, r12
    101c:	3d 1d       	adc	r19, r13
    101e:	4e 1d       	adc	r20, r14
    1020:	5f 1d       	adc	r21, r15
    1022:	0e 94 28 1c 	call	0x3850	; 0x3850 <__udivmodsi4>
           if (lirx1  > 0) {
    1026:	21 15       	cp	r18, r1
    1028:	31 05       	cpc	r19, r1
    102a:	41 05       	cpc	r20, r1
    102c:	51 05       	cpc	r21, r1
    102e:	19 f5       	brne	.+70     	; 0x1076 <__stack+0xb77>
              DisplayValue(lirx1,-1,LCD_CHAR_OMEGA,3)
              lcd_space();
 #endif
              goto testend; // <10% mismatch
           }
           PartFound = PART_RESISTOR;
    1030:	86 e0       	ldi	r24, 0x06	; 6
    1032:	80 93 09 01 	sts	0x0109, r24
           goto testend;
    1036:	1f c0       	rjmp	.+62     	; 0x1076 <__stack+0xb77>
  DisplayValue(lirx2,-1,LCD_CHAR_OMEGA,4)
  lcd_space();
  lcd_line2();
#endif
     if((PartFound == PART_DIODE) || (PartFound == PART_NONE) || (PartFound == PART_RESISTOR)) {
        for (ii=0; ii<ResistorsFound; ii++) {
    1038:	45 17       	cp	r20, r21
    103a:	08 f4       	brcc	.+2      	; 0x103e <__stack+0xb3f>
    103c:	be cf       	rjmp	.-132    	; 0xfba <__stack+0xabb>
           }
           PartFound = PART_RESISTOR;
           goto testend;
        } // end for
        // no same resistor with the same Tristate-Pin found, new one
        thisR = &resis[ResistorsFound];		// pointer to a free resistor structure
    103e:	25 2f       	mov	r18, r21
    1040:	30 e0       	ldi	r19, 0x00	; 0
        thisR->rx = lrx1;		// save resistor value
    1042:	8b e0       	ldi	r24, 0x0B	; 11
    1044:	90 e0       	ldi	r25, 0x00	; 0
    1046:	28 9f       	mul	r18, r24
    1048:	f0 01       	movw	r30, r0
    104a:	29 9f       	mul	r18, r25
    104c:	f0 0d       	add	r31, r0
    104e:	38 9f       	mul	r19, r24
    1050:	f0 0d       	add	r31, r0
    1052:	11 24       	eor	r1, r1
    1054:	e6 5e       	subi	r30, 0xE6	; 230
    1056:	fe 4f       	sbci	r31, 0xFE	; 254
    1058:	c0 82       	st	Z, r12
    105a:	d1 82       	std	Z+1, r13	; 0x01
    105c:	e2 82       	std	Z+2, r14	; 0x02
    105e:	f3 82       	std	Z+3, r15	; 0x03
#if FLASHEND > 0x1fff
        thisR->lx = 0;			// no inductance
    1060:	14 82       	std	Z+4, r1	; 0x04
    1062:	15 82       	std	Z+5, r1	; 0x05
    1064:	16 82       	std	Z+6, r1	; 0x06
    1066:	17 82       	std	Z+7, r1	; 0x07
#endif
        thisR->ra = LowPin;		// save Pin numbers
    1068:	00 87       	std	Z+8, r16	; 0x08
        thisR->rb = HighPin;
    106a:	11 87       	std	Z+9, r17	; 0x09
        thisR->rt = TristatePin;	// Tristate is saved for easier search of inverse measurement
    106c:	29 81       	ldd	r18, Y+1	; 0x01
    106e:	22 87       	std	Z+10, r18	; 0x0a
        ResistorsFound++;			// 1 more resistor found
    1070:	5f 5f       	subi	r21, 0xFF	; 255
    1072:	50 93 58 01 	sts	0x0158, r21
     }
  }
#endif
  testend:
#if U_SCALE != 1
  ADCconfig.U_AVCC /= U_SCALE;		// scale back to mV resolution
    1076:	80 91 3f 01 	lds	r24, 0x013F
    107a:	90 91 40 01 	lds	r25, 0x0140
    107e:	96 95       	lsr	r25
    1080:	87 95       	ror	r24
    1082:	96 95       	lsr	r25
    1084:	87 95       	ror	r24
    1086:	90 93 40 01 	sts	0x0140, r25
    108a:	80 93 3f 01 	sts	0x013F, r24
  ADCconfig.U_Bandgap /= U_SCALE;
    108e:	80 91 3d 01 	lds	r24, 0x013D
    1092:	90 91 3e 01 	lds	r25, 0x013E
    1096:	96 95       	lsr	r25
    1098:	87 95       	ror	r24
    109a:	96 95       	lsr	r25
    109c:	87 95       	ror	r24
    109e:	90 93 3e 01 	sts	0x013E, r25
    10a2:	80 93 3d 01 	sts	0x013D, r24
#endif
#if R_ANZ_MESS != ANZ_MESS
  ADCconfig.Samples = ANZ_MESS;		// switch back to standard number of repetition
    10a6:	89 e1       	ldi	r24, 0x19	; 25
    10a8:	80 93 3b 01 	sts	0x013B, r24
#ifdef DebugOut
#if DebugOut < 10
  wait2s();
#endif
#endif
  ADC_DDR = TXD_MSK;		// all ADC-Pins Input
    10ac:	88 e0       	ldi	r24, 0x08	; 8
    10ae:	87 b9       	out	0x07, r24	; 7
  ADC_PORT = TXD_VAL;		// all ADC outputs to Ground, keine Pull up
    10b0:	88 b9       	out	0x08, r24	; 8
  R_DDR = 0;			// all resistor-outputs to Input
    10b2:	14 b8       	out	0x04, r1	; 4
  R_PORT = 0;			// all resistor-outputs to Ground, no Pull up
    10b4:	15 b8       	out	0x05, r1	; 5
} // end CheckPins()
    10b6:	66 96       	adiw	r28, 0x16	; 22
    10b8:	0f b6       	in	r0, 0x3f	; 63
    10ba:	f8 94       	cli
    10bc:	de bf       	out	0x3e, r29	; 62
    10be:	0f be       	out	0x3f, r0	; 63
    10c0:	cd bf       	out	0x3d, r28	; 61
    10c2:	cf 91       	pop	r28
    10c4:	df 91       	pop	r29
    10c6:	1f 91       	pop	r17
    10c8:	0f 91       	pop	r16
    10ca:	ff 90       	pop	r15
    10cc:	ef 90       	pop	r14
    10ce:	df 90       	pop	r13
    10d0:	cf 90       	pop	r12
    10d2:	bf 90       	pop	r11
    10d4:	af 90       	pop	r10
    10d6:	9f 90       	pop	r9
    10d8:	8f 90       	pop	r8
    10da:	7f 90       	pop	r7
    10dc:	6f 90       	pop	r6
    10de:	5f 90       	pop	r5
    10e0:	4f 90       	pop	r4
    10e2:	3f 90       	pop	r3
    10e4:	2f 90       	pop	r2
    10e6:	08 95       	ret

000010e8 <EntladePins>:

// first discharge any charge of capacitors
void EntladePins() {
    10e8:	af 92       	push	r10
    10ea:	bf 92       	push	r11
    10ec:	cf 92       	push	r12
    10ee:	df 92       	push	r13
    10f0:	ef 92       	push	r14
    10f2:	ff 92       	push	r15
    10f4:	0f 93       	push	r16
    10f6:	1f 93       	push	r17
    10f8:	cf 93       	push	r28
    10fa:	df 93       	push	r29
    10fc:	ba e0       	ldi	r27, 0x0A	; 10
    10fe:	cb 2e       	mov	r12, r27
// time of discharge in ms  (10000/20)
#define MAX_ENTLADE_ZEIT  (10000/20)

  for(lop_cnt=0;lop_cnt<10;lop_cnt++) {
     adc_gnd = TXD_MSK;		// put all ADC to Input
     ADC_DDR = adc_gnd;
    1100:	a8 e0       	ldi	r26, 0x08	; 8
    1102:	da 2e       	mov	r13, r26
     ADC_PORT = TXD_VAL;		// ADC-outputs auf 0
     R_PORT = 0;			// R-outputs auf 0
     R_DDR = (2<<(PC2*2)) | (2<<(PC1*2)) | (2<<(PC0*2)); // R_H for all Pins to GND
    1104:	fa e2       	ldi	r31, 0x2A	; 42
    1106:	af 2e       	mov	r10, r31
     ADC_DDR = adc_gnd;		// switch all selected ADC-Ports at the same time

     // additionally switch the leaving Ports with R_L to GND.
     // since there is no disadvantage for the already directly switched pins, we can
     // simply switch all  R_L resistors to GND
     R_DDR = (1<<(PC2*2)) | (1<<(PC1*2)) | (1<<(PC0*2));	// Pins across R_L resistors to GND
    1108:	e5 e1       	ldi	r30, 0x15	; 21
    110a:	be 2e       	mov	r11, r30
// time of discharge in ms  (10000/20)
#define MAX_ENTLADE_ZEIT  (10000/20)

  for(lop_cnt=0;lop_cnt<10;lop_cnt++) {
     adc_gnd = TXD_MSK;		// put all ADC to Input
     ADC_DDR = adc_gnd;
    110c:	d7 b8       	out	0x07, r13	; 7
     ADC_PORT = TXD_VAL;		// ADC-outputs auf 0
    110e:	d8 b8       	out	0x08, r13	; 8
     R_PORT = 0;			// R-outputs auf 0
    1110:	15 b8       	out	0x05, r1	; 5
     R_DDR = (2<<(PC2*2)) | (2<<(PC1*2)) | (2<<(PC0*2)); // R_H for all Pins to GND
    1112:	a4 b8       	out	0x04, r10	; 4
     adcmv[0] = W5msReadADC(PC0);	// which voltage has Pin 1?
    1114:	80 e0       	ldi	r24, 0x00	; 0
    1116:	0e 94 b6 19 	call	0x336c	; 0x336c <W5msReadADC>
    111a:	8c 01       	movw	r16, r24
     adcmv[1] = ReadADC(PC1);	// which voltage has Pin 2?
    111c:	81 e0       	ldi	r24, 0x01	; 1
    111e:	0e 94 b8 19 	call	0x3370	; 0x3370 <ReadADC>
    1122:	ec 01       	movw	r28, r24
     adcmv[2] = ReadADC(PC2);	// which voltage has Pin 3?
    1124:	82 e0       	ldi	r24, 0x02	; 2
    1126:	0e 94 b8 19 	call	0x3370	; 0x3370 <ReadADC>
     if ((PartFound == PART_CELL) || (adcmv[0] < CAP_EMPTY_LEVEL) & (adcmv[1] < CAP_EMPTY_LEVEL) & (adcmv[2] < CAP_EMPTY_LEVEL)) {
    112a:	20 91 09 01 	lds	r18, 0x0109
    112e:	28 30       	cpi	r18, 0x08	; 8
    1130:	c1 f0       	breq	.+48     	; 0x1162 <EntladePins+0x7a>
    1132:	41 e0       	ldi	r20, 0x01	; 1
    1134:	c4 30       	cpi	r28, 0x04	; 4
    1136:	d1 05       	cpc	r29, r1
    1138:	08 f0       	brcs	.+2      	; 0x113c <EntladePins+0x54>
    113a:	40 e0       	ldi	r20, 0x00	; 0
    113c:	21 e0       	ldi	r18, 0x01	; 1
    113e:	04 30       	cpi	r16, 0x04	; 4
    1140:	11 05       	cpc	r17, r1
    1142:	08 f0       	brcs	.+2      	; 0x1146 <EntladePins+0x5e>
    1144:	20 e0       	ldi	r18, 0x00	; 0
    1146:	42 23       	and	r20, r18
    1148:	50 e0       	ldi	r21, 0x00	; 0
    114a:	21 e0       	ldi	r18, 0x01	; 1
    114c:	30 e0       	ldi	r19, 0x00	; 0
    114e:	84 30       	cpi	r24, 0x04	; 4
    1150:	91 05       	cpc	r25, r1
    1152:	10 f0       	brcs	.+4      	; 0x1158 <EntladePins+0x70>
    1154:	20 e0       	ldi	r18, 0x00	; 0
    1156:	30 e0       	ldi	r19, 0x00	; 0
    1158:	24 23       	and	r18, r20
    115a:	35 23       	and	r19, r21
    115c:	21 15       	cp	r18, r1
    115e:	31 05       	cpc	r19, r1
    1160:	21 f0       	breq	.+8      	; 0x116a <EntladePins+0x82>
        ADC_DDR = TXD_MSK;		// switch all ADC-Pins to input
    1162:	88 e0       	ldi	r24, 0x08	; 8
    1164:	87 b9       	out	0x07, r24	; 7
        R_DDR = 0;			// switch all R_L Ports (and R_H) to input
    1166:	14 b8       	out	0x04, r1	; 4
        return;
    1168:	4f c0       	rjmp	.+158    	; 0x1208 <EntladePins+0x120>
     }
     // all Pins with voltage lower than 1V can be connected directly to GND (ADC-Port)
     if (adcmv[0] < 1000) {
    116a:	23 e0       	ldi	r18, 0x03	; 3
    116c:	08 3e       	cpi	r16, 0xE8	; 232
    116e:	12 07       	cpc	r17, r18
    1170:	10 f0       	brcs	.+4      	; 0x1176 <EntladePins+0x8e>
  uint8_t lop_cnt;		// loop counter
// time of discharge in ms  (10000/20)
#define MAX_ENTLADE_ZEIT  (10000/20)

  for(lop_cnt=0;lop_cnt<10;lop_cnt++) {
     adc_gnd = TXD_MSK;		// put all ADC to Input
    1172:	28 e0       	ldi	r18, 0x08	; 8
    1174:	01 c0       	rjmp	.+2      	; 0x1178 <EntladePins+0x90>
        R_DDR = 0;			// switch all R_L Ports (and R_H) to input
        return;
     }
     // all Pins with voltage lower than 1V can be connected directly to GND (ADC-Port)
     if (adcmv[0] < 1000) {
        adc_gnd |= (1<<PC0);	//Pin 1 directly to GND
    1176:	29 e0       	ldi	r18, 0x09	; 9
     }
     if (adcmv[1] < 1000) {
    1178:	33 e0       	ldi	r19, 0x03	; 3
    117a:	c8 3e       	cpi	r28, 0xE8	; 232
    117c:	d3 07       	cpc	r29, r19
    117e:	08 f4       	brcc	.+2      	; 0x1182 <EntladePins+0x9a>
        adc_gnd |= (1<<PC1);	//Pin 2 directly to GND
    1180:	22 60       	ori	r18, 0x02	; 2
     }
     if (adcmv[2] < 1000) {
    1182:	33 e0       	ldi	r19, 0x03	; 3
    1184:	88 3e       	cpi	r24, 0xE8	; 232
    1186:	93 07       	cpc	r25, r19
    1188:	08 f4       	brcc	.+2      	; 0x118c <EntladePins+0xa4>
        adc_gnd |= (1<<PC2);	//Pin 3 directly to  GND
    118a:	24 60       	ori	r18, 0x04	; 4
     }
     ADC_DDR = adc_gnd;		// switch all selected ADC-Ports at the same time
    118c:	27 b9       	out	0x07, r18	; 7

     // additionally switch the leaving Ports with R_L to GND.
     // since there is no disadvantage for the already directly switched pins, we can
     // simply switch all  R_L resistors to GND
     R_DDR = (1<<(PC2*2)) | (1<<(PC1*2)) | (1<<(PC0*2));	// Pins across R_L resistors to GND
    118e:	b4 b8       	out	0x04, r11	; 4
     for(clr_cnt=0;clr_cnt<MAX_ENTLADE_ZEIT;clr_cnt++) {
    1190:	c0 e0       	ldi	r28, 0x00	; 0
    1192:	d0 e0       	ldi	r29, 0x00	; 0
        wdt_reset();
    1194:	a8 95       	wdr
        adcmv[0] = W20msReadADC(PC0);	// which voltage has Pin 1?
    1196:	80 e0       	ldi	r24, 0x00	; 0
    1198:	0e 94 b2 19 	call	0x3364	; 0x3364 <W20msReadADC>
    119c:	7c 01       	movw	r14, r24
        adcmv[1] = ReadADC(PC1);	// which voltage has Pin 2?
    119e:	81 e0       	ldi	r24, 0x01	; 1
    11a0:	0e 94 b8 19 	call	0x3370	; 0x3370 <ReadADC>
    11a4:	8c 01       	movw	r16, r24
        adcmv[2] = ReadADC(PC2);	// which voltage has Pin 3?
    11a6:	82 e0       	ldi	r24, 0x02	; 2
    11a8:	0e 94 b8 19 	call	0x3370	; 0x3370 <ReadADC>
        if (adcmv[0] < 1300) {
    11ac:	24 e1       	ldi	r18, 0x14	; 20
    11ae:	e2 16       	cp	r14, r18
    11b0:	25 e0       	ldi	r18, 0x05	; 5
    11b2:	f2 06       	cpc	r15, r18
    11b4:	08 f4       	brcc	.+2      	; 0x11b8 <EntladePins+0xd0>
           ADC_DDR |= (1<<PC0);	// below 1.3V , switch directly with ADC-Port to GND
    11b6:	38 9a       	sbi	0x07, 0	; 7
        }
        if (adcmv[1] < 1300) {
    11b8:	35 e0       	ldi	r19, 0x05	; 5
    11ba:	04 31       	cpi	r16, 0x14	; 20
    11bc:	13 07       	cpc	r17, r19
    11be:	08 f4       	brcc	.+2      	; 0x11c2 <EntladePins+0xda>
           ADC_DDR |= (1<<PC1);	// below 1.3V, switch directly with ADC-Port to GND
    11c0:	39 9a       	sbi	0x07, 1	; 7
        }
        if (adcmv[2] < 1300) {
    11c2:	25 e0       	ldi	r18, 0x05	; 5
    11c4:	84 31       	cpi	r24, 0x14	; 20
    11c6:	92 07       	cpc	r25, r18
    11c8:	08 f4       	brcc	.+2      	; 0x11cc <EntladePins+0xe4>
           ADC_DDR |= (1<<PC2);	// below 1.3V, switch directly with ADC-Port to GND
    11ca:	3a 9a       	sbi	0x07, 2	; 7
        }
        if ((adcmv[0] < (CAP_EMPTY_LEVEL+2)) && (adcmv[1] < (CAP_EMPTY_LEVEL+2)) && (adcmv[2] < (CAP_EMPTY_LEVEL+2))) {
    11cc:	36 e0       	ldi	r19, 0x06	; 6
    11ce:	e3 16       	cp	r14, r19
    11d0:	f1 04       	cpc	r15, r1
    11d2:	30 f4       	brcc	.+12     	; 0x11e0 <EntladePins+0xf8>
    11d4:	06 30       	cpi	r16, 0x06	; 6
    11d6:	11 05       	cpc	r17, r1
    11d8:	18 f4       	brcc	.+6      	; 0x11e0 <EntladePins+0xf8>
    11da:	86 30       	cpi	r24, 0x06	; 6
    11dc:	91 05       	cpc	r25, r1
    11de:	38 f0       	brcs	.+14     	; 0x11ee <EntladePins+0x106>

     // additionally switch the leaving Ports with R_L to GND.
     // since there is no disadvantage for the already directly switched pins, we can
     // simply switch all  R_L resistors to GND
     R_DDR = (1<<(PC2*2)) | (1<<(PC1*2)) | (1<<(PC0*2));	// Pins across R_L resistors to GND
     for(clr_cnt=0;clr_cnt<MAX_ENTLADE_ZEIT;clr_cnt++) {
    11e0:	21 96       	adiw	r28, 0x01	; 1
    11e2:	81 e0       	ldi	r24, 0x01	; 1
    11e4:	c4 3f       	cpi	r28, 0xF4	; 244
    11e6:	d8 07       	cpc	r29, r24
    11e8:	a9 f6       	brne	.-86     	; 0x1194 <EntladePins+0xac>
        if ((adcmv[0] < (CAP_EMPTY_LEVEL+2)) && (adcmv[1] < (CAP_EMPTY_LEVEL+2)) && (adcmv[2] < (CAP_EMPTY_LEVEL+2))) {
           break;
        }
     }
     if (clr_cnt == MAX_ENTLADE_ZEIT) {
        PartFound = PART_CELL;	// mark as Battery
    11ea:	d0 92 09 01 	sts	0x0109, r13

     // additionally switch the leaving Ports with R_L to GND.
     // since there is no disadvantage for the already directly switched pins, we can
     // simply switch all  R_L resistors to GND
     R_DDR = (1<<(PC2*2)) | (1<<(PC1*2)) | (1<<(PC0*2));	// Pins across R_L resistors to GND
     for(clr_cnt=0;clr_cnt<MAX_ENTLADE_ZEIT;clr_cnt++) {
    11ee:	00 e0       	ldi	r16, 0x00	; 0
    11f0:	10 e0       	ldi	r17, 0x00	; 0
    11f2:	04 c0       	rjmp	.+8      	; 0x11fc <EntladePins+0x114>
        PartFound = PART_CELL;	// mark as Battery
        // there is charge on capacitor, warn later!
     }
     for(adcmv[0]=0;adcmv[0]<clr_cnt;adcmv[0]++) {
        // for safety, discharge 5% of discharge  time
        wait1ms();
    11f4:	0e 94 7f 14 	call	0x28fe	; 0x28fe <wait1ms>
    11f8:	0f 5f       	subi	r16, 0xFF	; 255
    11fa:	1f 4f       	sbci	r17, 0xFF	; 255
     }
     if (clr_cnt == MAX_ENTLADE_ZEIT) {
        PartFound = PART_CELL;	// mark as Battery
        // there is charge on capacitor, warn later!
     }
     for(adcmv[0]=0;adcmv[0]<clr_cnt;adcmv[0]++) {
    11fc:	0c 17       	cp	r16, r28
    11fe:	1d 07       	cpc	r17, r29
    1200:	c8 f3       	brcs	.-14     	; 0x11f4 <EntladePins+0x10c>
    1202:	ca 94       	dec	r12
  unsigned int clr_cnt;		// Clear Counter
  uint8_t lop_cnt;		// loop counter
// time of discharge in ms  (10000/20)
#define MAX_ENTLADE_ZEIT  (10000/20)

  for(lop_cnt=0;lop_cnt<10;lop_cnt++) {
    1204:	09 f0       	breq	.+2      	; 0x1208 <EntladePins+0x120>
    1206:	82 cf       	rjmp	.-252    	; 0x110c <EntladePins+0x24>
     for(adcmv[0]=0;adcmv[0]<clr_cnt;adcmv[0]++) {
        // for safety, discharge 5% of discharge  time
        wait1ms();
     }
  } // end while
 }
    1208:	df 91       	pop	r29
    120a:	cf 91       	pop	r28
    120c:	1f 91       	pop	r17
    120e:	0f 91       	pop	r16
    1210:	ff 90       	pop	r15
    1212:	ef 90       	pop	r14
    1214:	df 90       	pop	r13
    1216:	cf 90       	pop	r12
    1218:	bf 90       	pop	r11
    121a:	af 90       	pop	r10
    121c:	08 95       	ret

0000121e <RefVoltage>:



#ifdef AUTO_RH
void RefVoltage(void) {
    121e:	ff 92       	push	r15
    1220:	0f 93       	push	r16
    1222:	1f 93       	push	r17
    1224:	cf 93       	push	r28
    1226:	df 93       	push	r29
  unsigned int y1, y2;
  uint8_t tabind;
  uint8_t tabres;

  #ifdef AUTO_CAL
  referenz = ref_mv + (int16_t)eeprom_read_word((uint16_t *)(&ref_offset));
    1228:	8b eb       	ldi	r24, 0xBB	; 187
    122a:	91 e0       	ldi	r25, 0x01	; 1
    122c:	0e 94 a4 1c 	call	0x3948	; 0x3948 <__eerd_word_m168>
    1230:	20 91 41 01 	lds	r18, 0x0141
    1234:	30 91 42 01 	lds	r19, 0x0142
    1238:	28 0f       	add	r18, r24
    123a:	39 1f       	adc	r19, r25
  #else
  referenz = ref_mv + REF_C_KORR;
  #endif
  if (referenz >= Ref_Tab_Beginn) {
    123c:	83 e0       	ldi	r24, 0x03	; 3
    123e:	28 3e       	cpi	r18, 0xE8	; 232
    1240:	38 07       	cpc	r19, r24
    1242:	20 f0       	brcs	.+8      	; 0x124c <RefVoltage+0x2e>
     referenz -= Ref_Tab_Beginn;
    1244:	c9 01       	movw	r24, r18
    1246:	88 5e       	subi	r24, 0xE8	; 232
    1248:	93 40       	sbci	r25, 0x03	; 3
    124a:	02 c0       	rjmp	.+4      	; 0x1250 <RefVoltage+0x32>
  } else  {
     referenz = 0;		// limit to begin of table
    124c:	80 e0       	ldi	r24, 0x00	; 0
    124e:	90 e0       	ldi	r25, 0x00	; 0
  }
  tabind = referenz / Ref_Tab_Abstand;
    1250:	62 e3       	ldi	r22, 0x32	; 50
    1252:	70 e0       	ldi	r23, 0x00	; 0
    1254:	0e 94 14 1c 	call	0x3828	; 0x3828 <__udivmodhi4>
  tabres = referenz % Ref_Tab_Abstand;
    1258:	f8 2e       	mov	r15, r24
  tabres = Ref_Tab_Abstand-tabres;
  if (tabind > 7) {
     tabind = 7;		// limit to end of table
  }
  // interpolate the table of factors
  y1 = MEM_read_word(&RHtab[tabind]);
    125a:	68 30       	cpi	r22, 0x08	; 8
    125c:	08 f0       	brcs	.+2      	; 0x1260 <RefVoltage+0x42>
    125e:	67 e0       	ldi	r22, 0x07	; 7
    1260:	c6 2f       	mov	r28, r22
    1262:	d0 e0       	ldi	r29, 0x00	; 0
    1264:	ce 01       	movw	r24, r28
    1266:	88 0f       	add	r24, r24
    1268:	99 1f       	adc	r25, r25
    126a:	86 5a       	subi	r24, 0xA6	; 166
    126c:	9f 4f       	sbci	r25, 0xFF	; 255
    126e:	0e 94 a4 1c 	call	0x3948	; 0x3948 <__eerd_word_m168>
    1272:	8c 01       	movw	r16, r24
  y2 = MEM_read_word(&RHtab[tabind+1]);
    1274:	ce 01       	movw	r24, r28
    1276:	88 0f       	add	r24, r24
    1278:	99 1f       	adc	r25, r25
    127a:	84 5a       	subi	r24, 0xA4	; 164
    127c:	9f 4f       	sbci	r25, 0xFF	; 255
    127e:	0e 94 a4 1c 	call	0x3948	; 0x3948 <__eerd_word_m168>
    1282:	9c 01       	movw	r18, r24
  } else  {
     referenz = 0;		// limit to begin of table
  }
  tabind = referenz / Ref_Tab_Abstand;
  tabres = referenz % Ref_Tab_Abstand;
  tabres = Ref_Tab_Abstand-tabres;
    1284:	42 e3       	ldi	r20, 0x32	; 50
    1286:	4f 19       	sub	r20, r15
  }
  // interpolate the table of factors
  y1 = MEM_read_word(&RHtab[tabind]);
  y2 = MEM_read_word(&RHtab[tabind+1]);
  // RHmultip is the interpolated factor to compute capacity from load time with 470k
  RHmultip = ((y1 - y2) * tabres + (Ref_Tab_Abstand/2)) / Ref_Tab_Abstand + y2;
    1288:	50 e0       	ldi	r21, 0x00	; 0
    128a:	08 1b       	sub	r16, r24
    128c:	19 0b       	sbc	r17, r25
    128e:	40 9f       	mul	r20, r16
    1290:	c0 01       	movw	r24, r0
    1292:	41 9f       	mul	r20, r17
    1294:	90 0d       	add	r25, r0
    1296:	50 9f       	mul	r21, r16
    1298:	90 0d       	add	r25, r0
    129a:	11 24       	eor	r1, r1
    129c:	49 96       	adiw	r24, 0x19	; 25
    129e:	62 e3       	ldi	r22, 0x32	; 50
    12a0:	70 e0       	ldi	r23, 0x00	; 0
    12a2:	0e 94 14 1c 	call	0x3828	; 0x3828 <__udivmodhi4>
    12a6:	62 0f       	add	r22, r18
    12a8:	73 1f       	adc	r23, r19
    12aa:	70 93 01 01 	sts	0x0101, r23
    12ae:	60 93 00 01 	sts	0x0100, r22
 }
    12b2:	df 91       	pop	r29
    12b4:	cf 91       	pop	r28
    12b6:	1f 91       	pop	r17
    12b8:	0f 91       	pop	r16
    12ba:	ff 90       	pop	r15
    12bc:	08 95       	ret

000012be <lcd_clear_line>:
#endif

#ifdef LCD_CLEAR
void lcd_clear_line(void) {
    12be:	1f 93       	push	r17
    12c0:	14 e1       	ldi	r17, 0x14	; 20
 // writes 20 spaces to LCD-Display, Cursor must be positioned to first column
 unsigned char ll;
 for (ll=0;ll<20;ll++) {
    lcd_space();
    12c2:	0e 94 fe 00 	call	0x1fc	; 0x1fc <lcd_space>
    12c6:	11 50       	subi	r17, 0x01	; 1

#ifdef LCD_CLEAR
void lcd_clear_line(void) {
 // writes 20 spaces to LCD-Display, Cursor must be positioned to first column
 unsigned char ll;
 for (ll=0;ll<20;ll++) {
    12c8:	e1 f7       	brne	.-8      	; 0x12c2 <lcd_clear_line+0x4>
    lcd_space();
 }
}
    12ca:	1f 91       	pop	r17
    12cc:	08 95       	ret

000012ce <DisplayValue>:
 *    e.g: p = 10^-12 -> -12
 *  - unit character (0 = none)
 *  digits = 2, 3 or 4
 */
void DisplayValue(unsigned long Value, int8_t Exponent, unsigned char Unit, unsigned char digits)
{
    12ce:	2f 92       	push	r2
    12d0:	3f 92       	push	r3
    12d2:	4f 92       	push	r4
    12d4:	5f 92       	push	r5
    12d6:	7f 92       	push	r7
    12d8:	8f 92       	push	r8
    12da:	9f 92       	push	r9
    12dc:	af 92       	push	r10
    12de:	bf 92       	push	r11
    12e0:	cf 92       	push	r12
    12e2:	df 92       	push	r13
    12e4:	ef 92       	push	r14
    12e6:	ff 92       	push	r15
    12e8:	0f 93       	push	r16
    12ea:	1f 93       	push	r17
    12ec:	df 93       	push	r29
    12ee:	cf 93       	push	r28
    12f0:	cd b7       	in	r28, 0x3d	; 61
    12f2:	de b7       	in	r29, 0x3e	; 62
    12f4:	2f 97       	sbiw	r28, 0x0f	; 15
    12f6:	0f b6       	in	r0, 0x3f	; 63
    12f8:	f8 94       	cli
    12fa:	de bf       	out	0x3e, r29	; 62
    12fc:	0f be       	out	0x3f, r0	; 63
    12fe:	cd bf       	out	0x3d, r28	; 61
    1300:	6b 01       	movw	r12, r22
    1302:	7c 01       	movw	r14, r24
    1304:	14 2f       	mov	r17, r20
    1306:	72 2e       	mov	r7, r18
  uint8_t           Index;		/* index ID */
  uint8_t           Length;		/* string length */


  Limit = 100;				/* scale value down to 2 digits */
  if (digits == 3) Limit = 1000;
    1308:	03 30       	cpi	r16, 0x03	; 3
    130a:	29 f0       	breq	.+10     	; 0x1316 <DisplayValue+0x48>
  if (digits == 4) Limit = 10000;
    130c:	04 30       	cpi	r16, 0x04	; 4
    130e:	31 f0       	breq	.+12     	; 0x131c <DisplayValue+0x4e>
  uint8_t           Offset;		/* exponent of offset to next 10^3 step */
  uint8_t           Index;		/* index ID */
  uint8_t           Length;		/* string length */


  Limit = 100;				/* scale value down to 2 digits */
    1310:	84 e6       	ldi	r24, 0x64	; 100
    1312:	90 e0       	ldi	r25, 0x00	; 0
    1314:	14 c0       	rjmp	.+40     	; 0x133e <DisplayValue+0x70>
  if (digits == 3) Limit = 1000;
    1316:	88 ee       	ldi	r24, 0xE8	; 232
    1318:	93 e0       	ldi	r25, 0x03	; 3
    131a:	11 c0       	rjmp	.+34     	; 0x133e <DisplayValue+0x70>
  if (digits == 4) Limit = 10000;
    131c:	80 e1       	ldi	r24, 0x10	; 16
    131e:	97 e2       	ldi	r25, 0x27	; 39
    1320:	0e c0       	rjmp	.+28     	; 0x133e <DisplayValue+0x70>
  while (Value >= Limit)
  {
    Value += 5;				/* for automagic rounding */
    1322:	c7 01       	movw	r24, r14
    1324:	b6 01       	movw	r22, r12
    1326:	6b 5f       	subi	r22, 0xFB	; 251
    1328:	7f 4f       	sbci	r23, 0xFF	; 255
    132a:	8f 4f       	sbci	r24, 0xFF	; 255
    132c:	9f 4f       	sbci	r25, 0xFF	; 255
    Value = Value / 10;			/* scale down by 10^1 */
    132e:	a5 01       	movw	r20, r10
    1330:	94 01       	movw	r18, r8
    1332:	0e 94 28 1c 	call	0x3850	; 0x3850 <__udivmodsi4>
    1336:	69 01       	movw	r12, r18
    1338:	7a 01       	movw	r14, r20
    Exponent++;				/* increase exponent by 1 */
    133a:	1f 5f       	subi	r17, 0xFF	; 255
    133c:	08 c0       	rjmp	.+16     	; 0x134e <DisplayValue+0x80>


  Limit = 100;				/* scale value down to 2 digits */
  if (digits == 3) Limit = 1000;
  if (digits == 4) Limit = 10000;
  while (Value >= Limit)
    133e:	1c 01       	movw	r2, r24
    1340:	44 24       	eor	r4, r4
    1342:	55 24       	eor	r5, r5
  {
    Value += 5;				/* for automagic rounding */
    Value = Value / 10;			/* scale down by 10^1 */
    1344:	4a e0       	ldi	r20, 0x0A	; 10
    1346:	84 2e       	mov	r8, r20
    1348:	91 2c       	mov	r9, r1
    134a:	a1 2c       	mov	r10, r1
    134c:	b1 2c       	mov	r11, r1


  Limit = 100;				/* scale value down to 2 digits */
  if (digits == 3) Limit = 1000;
  if (digits == 4) Limit = 10000;
  while (Value >= Limit)
    134e:	c2 14       	cp	r12, r2
    1350:	d3 04       	cpc	r13, r3
    1352:	e4 04       	cpc	r14, r4
    1354:	f5 04       	cpc	r15, r5
    1356:	28 f7       	brcc	.-54     	; 0x1322 <DisplayValue+0x54>


  /*
   *  determine prefix
   */
  Length = Exponent + 12;
    1358:	81 2f       	mov	r24, r17
    135a:	84 5f       	subi	r24, 0xF4	; 244
    135c:	83 31       	cpi	r24, 0x13	; 19
    135e:	08 f0       	brcs	.+2      	; 0x1362 <DisplayValue+0x94>
    1360:	82 e1       	ldi	r24, 0x12	; 18
  if (Length <  0) Length = 0;		/* Limit to minimum prefix */
  if (Length > 18) Length = 18;		/* Limit to maximum prefix */
  Index = Length / 3;
    1362:	23 e0       	ldi	r18, 0x03	; 3
  Offset = Length % 3;
    1364:	62 2f       	mov	r22, r18
    1366:	0e 94 08 1c 	call	0x3810	; 0x3810 <__udivmodqi4>
    136a:	19 2f       	mov	r17, r25
    if (Offset > 0)
    136c:	99 23       	and	r25, r25
    136e:	19 f0       	breq	.+6      	; 0x1376 <DisplayValue+0xa8>
    {
      Index++;				/* adjust index for exponent offset, take next prefix */
    1370:	8f 5f       	subi	r24, 0xFF	; 255
      Offset = 3 - Offset;		/* reverse value (1 or 2) */
    1372:	29 1b       	sub	r18, r25
    1374:	12 2f       	mov	r17, r18
    }
  Prefix = MEM_read_byte((uint8_t *)(&PrefixTab[Index]));   /* look up prefix in table */
    1376:	90 e0       	ldi	r25, 0x00	; 0
    1378:	8c 54       	subi	r24, 0x4C	; 76
    137a:	9e 4f       	sbci	r25, 0xFE	; 254
    137c:	0e 94 9c 1c 	call	0x3938	; 0x3938 <__eerd_byte_m168>
    1380:	b8 2e       	mov	r11, r24
  /*
   *  display value
   */

  /* convert value into string */
  utoa((unsigned int)Value, OutBuffer, 10);
    1382:	c6 01       	movw	r24, r12
    1384:	6e 01       	movw	r12, r28
    1386:	08 94       	sec
    1388:	c1 1c       	adc	r12, r1
    138a:	d1 1c       	adc	r13, r1
    138c:	b6 01       	movw	r22, r12
    138e:	4a e0       	ldi	r20, 0x0A	; 10
    1390:	50 e0       	ldi	r21, 0x00	; 0
    1392:	0e 94 86 1c 	call	0x390c	; 0x390c <utoa>
  Length = strlen(OutBuffer);
    1396:	f6 01       	movw	r30, r12
    1398:	01 90       	ld	r0, Z+
    139a:	00 20       	and	r0, r0
    139c:	e9 f7       	brne	.-6      	; 0x1398 <DisplayValue+0xca>
    139e:	31 97       	sbiw	r30, 0x01	; 1
    13a0:	2e 2e       	mov	r2, r30
    13a2:	2c 18       	sub	r2, r12

  /* position of dot */
  Exponent = Length - Offset;		/* calculate position */
    13a4:	82 2c       	mov	r8, r2
    13a6:	81 1a       	sub	r8, r17

  if (Exponent <= 0)			/* we have to prepend "0." */
    13a8:	18 14       	cp	r1, r8
    13aa:	44 f0       	brlt	.+16     	; 0x13bc <DisplayValue+0xee>
  {
    /* 0: factor 10 / -1: factor 100 */
//    lcd_data('0');
    lcd_data('.');
    13ac:	8e e2       	ldi	r24, 0x2E	; 46
    13ae:	0e 94 d0 00 	call	0x1a0	; 0x1a0 <lcd_data>
    if (Exponent < 0) lcd_data('0');	/* extra 0 for factor 100 */
    13b2:	88 20       	and	r8, r8
    13b4:	19 f0       	breq	.+6      	; 0x13bc <DisplayValue+0xee>
    13b6:	80 e3       	ldi	r24, 0x30	; 48
    13b8:	0e 94 d0 00 	call	0x1a0	; 0x1a0 <lcd_data>
  }

  if (Offset == 0) Exponent = -1;	/* disable dot if not needed */
    13bc:	11 23       	and	r17, r17
    13be:	11 f4       	brne	.+4      	; 0x13c4 <DisplayValue+0xf6>
    13c0:	88 24       	eor	r8, r8
    13c2:	8a 94       	dec	r8
    13c4:	6e 01       	movw	r12, r28
    13c6:	08 94       	sec
    13c8:	c1 1c       	adc	r12, r1
    13ca:	d1 1c       	adc	r13, r1
  /* adjust position to array or disable dot if set to 0 */
//  Exponent--;

  /* display value and add dot if requested */
  Index = 0;
  while (Index < Length)		/* loop through string */
    13cc:	00 e0       	ldi	r16, 0x00	; 0
    13ce:	10 e0       	ldi	r17, 0x00	; 0
  {
    lcd_data(OutBuffer[Index]);		/* display char */
    Index++;				/* next one */
    if (Index == Exponent) {
    13d0:	99 24       	eor	r9, r9
    13d2:	87 fc       	sbrc	r8, 7
    13d4:	90 94       	com	r9
  /* adjust position to array or disable dot if set to 0 */
//  Exponent--;

  /* display value and add dot if requested */
  Index = 0;
  while (Index < Length)		/* loop through string */
    13d6:	0d c0       	rjmp	.+26     	; 0x13f2 <DisplayValue+0x124>
  {
    lcd_data(OutBuffer[Index]);		/* display char */
    13d8:	0f 5f       	subi	r16, 0xFF	; 255
    13da:	1f 4f       	sbci	r17, 0xFF	; 255
    13dc:	f6 01       	movw	r30, r12
    13de:	81 91       	ld	r24, Z+
    13e0:	6f 01       	movw	r12, r30
    13e2:	0e 94 d0 00 	call	0x1a0	; 0x1a0 <lcd_data>
    Index++;				/* next one */
    if (Index == Exponent) {
    13e6:	08 15       	cp	r16, r8
    13e8:	19 05       	cpc	r17, r9
    13ea:	19 f4       	brne	.+6      	; 0x13f2 <DisplayValue+0x124>
      lcd_data('.');			/* display dot */
    13ec:	8e e2       	ldi	r24, 0x2E	; 46
    13ee:	0e 94 d0 00 	call	0x1a0	; 0x1a0 <lcd_data>
  /* adjust position to array or disable dot if set to 0 */
//  Exponent--;

  /* display value and add dot if requested */
  Index = 0;
  while (Index < Length)		/* loop through string */
    13f2:	02 15       	cp	r16, r2
    13f4:	88 f3       	brcs	.-30     	; 0x13d8 <DisplayValue+0x10a>
      lcd_data('.');			/* display dot */
    }
  }

  /* display prefix and unit */
  if (Prefix != 0) lcd_data(Prefix);
    13f6:	bb 20       	and	r11, r11
    13f8:	19 f0       	breq	.+6      	; 0x1400 <DisplayValue+0x132>
    13fa:	8b 2d       	mov	r24, r11
    13fc:	0e 94 d0 00 	call	0x1a0	; 0x1a0 <lcd_data>
  if (Unit) lcd_data(Unit);
    1400:	77 20       	and	r7, r7
    1402:	19 f0       	breq	.+6      	; 0x140a <DisplayValue+0x13c>
    1404:	87 2d       	mov	r24, r7
    1406:	0e 94 d0 00 	call	0x1a0	; 0x1a0 <lcd_data>
}
    140a:	2f 96       	adiw	r28, 0x0f	; 15
    140c:	0f b6       	in	r0, 0x3f	; 63
    140e:	f8 94       	cli
    1410:	de bf       	out	0x3e, r29	; 62
    1412:	0f be       	out	0x3f, r0	; 63
    1414:	cd bf       	out	0x3d, r28	; 61
    1416:	cf 91       	pop	r28
    1418:	df 91       	pop	r29
    141a:	1f 91       	pop	r17
    141c:	0f 91       	pop	r16
    141e:	ff 90       	pop	r15
    1420:	ef 90       	pop	r14
    1422:	df 90       	pop	r13
    1424:	cf 90       	pop	r12
    1426:	bf 90       	pop	r11
    1428:	af 90       	pop	r10
    142a:	9f 90       	pop	r9
    142c:	8f 90       	pop	r8
    142e:	7f 90       	pop	r7
    1430:	5f 90       	pop	r5
    1432:	4f 90       	pop	r4
    1434:	3f 90       	pop	r3
    1436:	2f 90       	pop	r2
    1438:	08 95       	ret

0000143a <RvalOut>:
      lcd_space();
   }
}

#ifdef R_MESS
void RvalOut(uint8_t ii) {	
    143a:	0f 93       	push	r16
   // output of resistor value

   DisplayValue(resis[ii].rx,-1,LCD_CHAR_OMEGA,4);
    143c:	90 e0       	ldi	r25, 0x00	; 0
    143e:	2b e0       	ldi	r18, 0x0B	; 11
    1440:	30 e0       	ldi	r19, 0x00	; 0
    1442:	82 9f       	mul	r24, r18
    1444:	f0 01       	movw	r30, r0
    1446:	83 9f       	mul	r24, r19
    1448:	f0 0d       	add	r31, r0
    144a:	92 9f       	mul	r25, r18
    144c:	f0 0d       	add	r31, r0
    144e:	11 24       	eor	r1, r1
    1450:	e6 5e       	subi	r30, 0xE6	; 230
    1452:	fe 4f       	sbci	r31, 0xFE	; 254
    1454:	60 81       	ld	r22, Z
    1456:	71 81       	ldd	r23, Z+1	; 0x01
    1458:	82 81       	ldd	r24, Z+2	; 0x02
    145a:	93 81       	ldd	r25, Z+3	; 0x03
    145c:	4f ef       	ldi	r20, 0xFF	; 255
    145e:	24 ef       	ldi	r18, 0xF4	; 244
    1460:	04 e0       	ldi	r16, 0x04	; 4
    1462:	0e 94 67 09 	call	0x12ce	; 0x12ce <DisplayValue>
   lcd_space();
    1466:	0e 94 fe 00 	call	0x1fc	; 0x1fc <lcd_space>
 }
    146a:	0f 91       	pop	r16
    146c:	08 95       	ret

0000146e <mVAusgabe>:
   lcd_line2(); 				//2. row
   lcd_fix_string(Uf);			//"Uf="
   mVAusgabe(bcdnum >> 4);
   mVAusgabe(bcdnum & 0x0f);
}
void mVAusgabe(uint8_t nn) {
    146e:	0f 93       	push	r16
   if (nn < 3) {
    1470:	83 30       	cpi	r24, 0x03	; 3
    1472:	98 f4       	brcc	.+38     	; 0x149a <mVAusgabe+0x2c>
      // Output in mV units
      DisplayValue(diodes[nn].Voltage,-3,'V',3);
    1474:	e8 2f       	mov	r30, r24
    1476:	f0 e0       	ldi	r31, 0x00	; 0
    1478:	ee 0f       	add	r30, r30
    147a:	ff 1f       	adc	r31, r31
    147c:	ee 0f       	add	r30, r30
    147e:	ff 1f       	adc	r31, r31
    1480:	e7 59       	subi	r30, 0x97	; 151
    1482:	fe 4f       	sbci	r31, 0xFE	; 254
    1484:	62 81       	ldd	r22, Z+2	; 0x02
    1486:	73 81       	ldd	r23, Z+3	; 0x03
    1488:	80 e0       	ldi	r24, 0x00	; 0
    148a:	90 e0       	ldi	r25, 0x00	; 0
    148c:	4d ef       	ldi	r20, 0xFD	; 253
    148e:	26 e5       	ldi	r18, 0x56	; 86
    1490:	03 e0       	ldi	r16, 0x03	; 3
    1492:	0e 94 67 09 	call	0x12ce	; 0x12ce <DisplayValue>
      lcd_space();
    1496:	0e 94 fe 00 	call	0x1fc	; 0x1fc <lcd_space>
   }
}
    149a:	0f 91       	pop	r16
    149c:	08 95       	ret

0000149e <UfAusgabe>:
// output of flux voltage for 1-2 diodes in row 2
// bcdnum = Numbers of both Diodes:
// higher 4 Bit  number of first Diode
// lower 4 Bit  number of second Diode (Structure diodes[nn])
// if number >= 3  no output is done
void UfAusgabe(uint8_t bcdnum) {
    149e:	1f 93       	push	r17
    14a0:	18 2f       	mov	r17, r24

   lcd_line2(); 				//2. row
    14a2:	80 ec       	ldi	r24, 0xC0	; 192
    14a4:	0e 94 0d 01 	call	0x21a	; 0x21a <lcd_command>
   lcd_fix_string(Uf);			//"Uf="
    14a8:	88 e1       	ldi	r24, 0x18	; 24
    14aa:	91 e0       	ldi	r25, 0x01	; 1
    14ac:	0e 94 71 01 	call	0x2e2	; 0x2e2 <lcd_fix_string>
   mVAusgabe(bcdnum >> 4);
    14b0:	81 2f       	mov	r24, r17
    14b2:	82 95       	swap	r24
    14b4:	8f 70       	andi	r24, 0x0F	; 15
    14b6:	0e 94 37 0a 	call	0x146e	; 0x146e <mVAusgabe>
   mVAusgabe(bcdnum & 0x0f);
    14ba:	81 2f       	mov	r24, r17
    14bc:	8f 70       	andi	r24, 0x0F	; 15
    14be:	0e 94 37 0a 	call	0x146e	; 0x146e <mVAusgabe>
}
    14c2:	1f 91       	pop	r17
    14c4:	08 95       	ret

000014c6 <AutoCheck>:
void AutoCheck(void) {
    14c6:	2f 92       	push	r2
    14c8:	3f 92       	push	r3
    14ca:	4f 92       	push	r4
    14cc:	5f 92       	push	r5
    14ce:	6f 92       	push	r6
    14d0:	7f 92       	push	r7
    14d2:	8f 92       	push	r8
    14d4:	9f 92       	push	r9
    14d6:	af 92       	push	r10
    14d8:	bf 92       	push	r11
    14da:	cf 92       	push	r12
    14dc:	df 92       	push	r13
    14de:	ef 92       	push	r14
    14e0:	ff 92       	push	r15
    14e2:	0f 93       	push	r16
    14e4:	1f 93       	push	r17
    14e6:	df 93       	push	r29
    14e8:	cf 93       	push	r28
    14ea:	cd b7       	in	r28, 0x3d	; 61
    14ec:	de b7       	in	r29, 0x3e	; 62
    14ee:	2e 97       	sbiw	r28, 0x0e	; 14
    14f0:	0f b6       	in	r0, 0x3f	; 63
    14f2:	f8 94       	cli
    14f4:	de bf       	out	0x3e, r29	; 62
    14f6:	0f be       	out	0x3f, r0	; 63
    14f8:	cd bf       	out	0x3d, r28	; 61

#ifdef AUTO_CAL
  uint8_t cap_found;	// counter for found capacitor
  int8_t udiff2;
#endif
  ADC_PORT = TXD_VAL;
    14fa:	88 e0       	ldi	r24, 0x08	; 8
    14fc:	88 b9       	out	0x08, r24	; 8
  ADC_DDR = TXD_MSK;
    14fe:	87 b9       	out	0x07, r24	; 7
  R_PORT = (1<<(TP1*2));		//Pin 1 over RL to +
    1500:	81 e0       	ldi	r24, 0x01	; 1
    1502:	85 b9       	out	0x05, r24	; 5
  R_DDR = (1<<(TP1*2)) | (1<<(TP2*2));	//Pin 2 over RL to -
    1504:	85 e0       	ldi	r24, 0x05	; 5
    1506:	84 b9       	out	0x04, r24	; 4
  adcmv[0] = W5msReadADC(PC0);		// voltage at Pin 1
    1508:	80 e0       	ldi	r24, 0x00	; 0
    150a:	0e 94 b6 19 	call	0x336c	; 0x336c <W5msReadADC>
    150e:	8c 01       	movw	r16, r24
    1510:	9a 83       	std	Y+2, r25	; 0x02
    1512:	89 83       	std	Y+1, r24	; 0x01
  adcmv[1] = ReadADC(PC1);		// voltage at Pin 2
    1514:	81 e0       	ldi	r24, 0x01	; 1
    1516:	0e 94 b8 19 	call	0x3370	; 0x3370 <ReadADC>
    151a:	7c 01       	movw	r14, r24
    151c:	9c 83       	std	Y+4, r25	; 0x04
    151e:	8b 83       	std	Y+3, r24	; 0x03
  adcmv[2] = ReadADC(PC2);		// voltage at Pin 3
    1520:	82 e0       	ldi	r24, 0x02	; 2
    1522:	0e 94 b8 19 	call	0x3370	; 0x3370 <ReadADC>
    1526:	9c 01       	movw	r18, r24
    1528:	9e 83       	std	Y+6, r25	; 0x06
    152a:	8d 83       	std	Y+5, r24	; 0x05
  if (abs((int)(adcmv[1] - adcmv[0])) > 20) {
    152c:	e0 1a       	sub	r14, r16
    152e:	f1 0a       	sbc	r15, r17
    1530:	f7 fe       	sbrs	r15, 7
    1532:	04 c0       	rjmp	.+8      	; 0x153c <AutoCheck+0x76>
    1534:	f0 94       	com	r15
    1536:	e1 94       	neg	r14
    1538:	f1 08       	sbc	r15, r1
    153a:	f3 94       	inc	r15
    153c:	85 e1       	ldi	r24, 0x15	; 21
    153e:	e8 16       	cp	r14, r24
    1540:	f1 04       	cpc	r15, r1
    1542:	0c f0       	brlt	.+2      	; 0x1546 <AutoCheck+0x80>
    1544:	5d c4       	rjmp	.+2234   	; 0x1e00 <AutoCheck+0x93a>
     return;				//difference to big, no selftest
  }
  if (abs((int)(adcmv[2] - adcmv[0])) > 20) {
    1546:	20 1b       	sub	r18, r16
    1548:	31 0b       	sbc	r19, r17
    154a:	37 ff       	sbrs	r19, 7
    154c:	03 c0       	rjmp	.+6      	; 0x1554 <AutoCheck+0x8e>
    154e:	30 95       	com	r19
    1550:	21 95       	neg	r18
    1552:	3f 4f       	sbci	r19, 0xFF	; 255
    1554:	25 31       	cpi	r18, 0x15	; 21
    1556:	31 05       	cpc	r19, r1
    1558:	0c f0       	brlt	.+2      	; 0x155c <AutoCheck+0x96>
    155a:	52 c4       	rjmp	.+2212   	; 0x1e00 <AutoCheck+0x93a>
     return;				//difference to big, no selftest
  }
  if (abs((int)((adcmv[0]*2) - ADCconfig.U_AVCC)) > 60) {
    155c:	00 0f       	add	r16, r16
    155e:	11 1f       	adc	r17, r17
    1560:	80 91 3f 01 	lds	r24, 0x013F
    1564:	90 91 40 01 	lds	r25, 0x0140
    1568:	08 1b       	sub	r16, r24
    156a:	19 0b       	sbc	r17, r25
    156c:	17 ff       	sbrs	r17, 7
    156e:	03 c0       	rjmp	.+6      	; 0x1576 <AutoCheck+0xb0>
    1570:	10 95       	com	r17
    1572:	01 95       	neg	r16
    1574:	1f 4f       	sbci	r17, 0xFF	; 255
    1576:	0d 33       	cpi	r16, 0x3D	; 61
    1578:	11 05       	cpc	r17, r1
    157a:	0c f0       	brlt	.+2      	; 0x157e <AutoCheck+0xb8>
    157c:	41 c4       	rjmp	.+2178   	; 0x1e00 <AutoCheck+0x93a>
     return;				//difference to big, no selftest
  }
  R_DDR = (1<<(TP1*2)) | (1<<(TP3*2));	//Pin 3 over RL to - (Pin 1 over RL to +)
    157e:	81 e1       	ldi	r24, 0x11	; 17
    1580:	84 b9       	out	0x04, r24	; 4
  adcmv[0] = W5msReadADC(PC0);		// voltage at Pin 1
    1582:	80 e0       	ldi	r24, 0x00	; 0
    1584:	0e 94 b6 19 	call	0x336c	; 0x336c <W5msReadADC>
    1588:	8c 01       	movw	r16, r24
    158a:	9a 83       	std	Y+2, r25	; 0x02
    158c:	89 83       	std	Y+1, r24	; 0x01
  adcmv[1] = ReadADC(PC1);		// voltage at Pin 2
    158e:	81 e0       	ldi	r24, 0x01	; 1
    1590:	0e 94 b8 19 	call	0x3370	; 0x3370 <ReadADC>
    1594:	7c 01       	movw	r14, r24
    1596:	9c 83       	std	Y+4, r25	; 0x04
    1598:	8b 83       	std	Y+3, r24	; 0x03
  adcmv[2] = ReadADC(PC2);		// voltage at Pin 3
    159a:	82 e0       	ldi	r24, 0x02	; 2
    159c:	0e 94 b8 19 	call	0x3370	; 0x3370 <ReadADC>
    15a0:	9c 01       	movw	r18, r24
    15a2:	9e 83       	std	Y+6, r25	; 0x06
    15a4:	8d 83       	std	Y+5, r24	; 0x05
  if (abs((int)(adcmv[1] - adcmv[0])) > 20) {
    15a6:	e0 1a       	sub	r14, r16
    15a8:	f1 0a       	sbc	r15, r17
    15aa:	f7 fe       	sbrs	r15, 7
    15ac:	04 c0       	rjmp	.+8      	; 0x15b6 <AutoCheck+0xf0>
    15ae:	f0 94       	com	r15
    15b0:	e1 94       	neg	r14
    15b2:	f1 08       	sbc	r15, r1
    15b4:	f3 94       	inc	r15
    15b6:	e5 e1       	ldi	r30, 0x15	; 21
    15b8:	ee 16       	cp	r14, r30
    15ba:	f1 04       	cpc	r15, r1
    15bc:	0c f0       	brlt	.+2      	; 0x15c0 <AutoCheck+0xfa>
    15be:	20 c4       	rjmp	.+2112   	; 0x1e00 <AutoCheck+0x93a>
     return;				//difference to big, no selftest
  }
  if (abs((int)(adcmv[2] - adcmv[0])) > 20) {
    15c0:	20 1b       	sub	r18, r16
    15c2:	31 0b       	sbc	r19, r17
    15c4:	37 ff       	sbrs	r19, 7
    15c6:	03 c0       	rjmp	.+6      	; 0x15ce <AutoCheck+0x108>
    15c8:	30 95       	com	r19
    15ca:	21 95       	neg	r18
    15cc:	3f 4f       	sbci	r19, 0xFF	; 255
    15ce:	25 31       	cpi	r18, 0x15	; 21
    15d0:	31 05       	cpc	r19, r1
    15d2:	0c f0       	brlt	.+2      	; 0x15d6 <AutoCheck+0x110>
    15d4:	15 c4       	rjmp	.+2090   	; 0x1e00 <AutoCheck+0x93a>
     return;				//difference to big, no selftest
  }
  if (abs((int)((adcmv[0]*2) - ADCconfig.U_AVCC)) > 60) {
    15d6:	00 0f       	add	r16, r16
    15d8:	11 1f       	adc	r17, r17
    15da:	80 91 3f 01 	lds	r24, 0x013F
    15de:	90 91 40 01 	lds	r25, 0x0140
    15e2:	08 1b       	sub	r16, r24
    15e4:	19 0b       	sbc	r17, r25
    15e6:	17 ff       	sbrs	r17, 7
    15e8:	03 c0       	rjmp	.+6      	; 0x15f0 <AutoCheck+0x12a>
    15ea:	10 95       	com	r17
    15ec:	01 95       	neg	r16
    15ee:	1f 4f       	sbci	r17, 0xFF	; 255
    15f0:	0d 33       	cpi	r16, 0x3D	; 61
    15f2:	11 05       	cpc	r17, r1
    15f4:	0c f0       	brlt	.+2      	; 0x15f8 <AutoCheck+0x132>
    15f6:	04 c4       	rjmp	.+2056   	; 0x1e00 <AutoCheck+0x93a>
     return;				//difference to big, no selftest
  }
#ifdef WITH_SELFTEST
  lcd_clear();
    15f8:	0e 94 1a 01 	call	0x234	; 0x234 <lcd_clear>
  lcd_line1();
    15fc:	80 e8       	ldi	r24, 0x80	; 128
    15fe:	0e 94 0d 01 	call	0x21a	; 0x21a <lcd_command>
  lcd_fix2_string(SELFTEST);		// "Selftest mode.."
    1602:	84 ec       	ldi	r24, 0xC4	; 196
    1604:	90 e0       	ldi	r25, 0x00	; 0
    1606:	0e 94 61 01 	call	0x2c2	; 0x2c2 <lcd_pgm_string>
  wait1s();
    160a:	0e 94 6f 14 	call	0x28de	; 0x28de <wait1000ms>
    160e:	44 24       	eor	r4, r4
    1610:	55 24       	eor	r5, r5
 #define TEST_COUNT 7
 
  for(tt=1;tt<TEST_COUNT;tt++) {		// loop for all Tests
    1612:	11 e0       	ldi	r17, 0x01	; 1
           adcmv[2] = W20msReadADC(TP3);
           lcd_fix2_string(RH1L);	// "RH_Lo="
        }
                                        //############################################
        if (tt == 6) { // can we switch the ADC pins to VCC across the R_H resistor?
           R_DDR = 2<<(TP1*2);		//Pin 1 over R_H to VCC
    1614:	32 e0       	ldi	r19, 0x02	; 2
    1616:	a3 2e       	mov	r10, r19
           R_PORT = 2<<(TP1*2);
           adcmv[0] = W20msReadADC(TP1) - ADCconfig.U_AVCC;
           R_DDR = 2<<(TP2*2);		//Pin 2 over R_H to VCC
    1618:	28 e0       	ldi	r18, 0x08	; 8
    161a:	c2 2e       	mov	r12, r18
           R_PORT = 2<<(TP2*2);
           adcmv[1] = W20msReadADC(TP2) - ADCconfig.U_AVCC;
           R_DDR = 2<<(TP3*2);		//Pin 3 over R_H to VCC
    161c:	90 e2       	ldi	r25, 0x20	; 32
    161e:	b9 2e       	mov	r11, r25
           lcd_string(utoa(RHmultip, outval, 10));
        }
                                        //############################################
        if (tt == 2) { // how equal are the RL resistors? 
           R_PORT = 1<<(TP1*2);		//RL1 to VCC
           R_DDR = (1<<(TP1*2)) | (1<<(TP2*2));	//RL2 to -
    1620:	85 e0       	ldi	r24, 0x05	; 5
    1622:	f8 2e       	mov	r15, r24
           adcmv[0] = W20msReadADC(TP1);
           adcmv[0] -= ((long)ADCconfig.U_AVCC * (PIN_RM + R_L_VAL) / (PIN_RM + R_L_VAL + R_L_VAL + PIN_RP));
    1624:	06 e4       	ldi	r16, 0x46	; 70
    1626:	60 2e       	mov	r6, r16
    1628:	09 ec       	ldi	r16, 0xC9	; 201
    162a:	70 2e       	mov	r7, r16
    162c:	0f ef       	ldi	r16, 0xFF	; 255
    162e:	80 2e       	mov	r8, r16
    1630:	0f ef       	ldi	r16, 0xFF	; 255
    1632:	90 2e       	mov	r9, r16
    1634:	4e c1       	rjmp	.+668    	; 0x18d2 <AutoCheck+0x40c>
  wait1s();
 #define TEST_COUNT 7
 
  for(tt=1;tt<TEST_COUNT;tt++) {		// loop for all Tests
     for(ww=0;ww<MAX_REP;ww++) {	// repeat the test MAX_REP times
        lcd_line2();			//Cursor to column 1, row 2
    1636:	80 ec       	ldi	r24, 0xC0	; 192
    1638:	0e 94 0d 01 	call	0x21a	; 0x21a <lcd_command>
        lcd_clear_line();		// clear total line
    163c:	0e 94 5f 09 	call	0x12be	; 0x12be <lcd_clear_line>
        lcd_line1();			//Cursor to column 1, row 1
    1640:	80 e8       	ldi	r24, 0x80	; 128
    1642:	0e 94 0d 01 	call	0x21a	; 0x21a <lcd_command>
        lcd_clear_line();		// clear total line
    1646:	0e 94 5f 09 	call	0x12be	; 0x12be <lcd_clear_line>
        lcd_line1();			//Cursor to column 1, row 1
    164a:	80 e8       	ldi	r24, 0x80	; 128
    164c:	0e 94 0d 01 	call	0x21a	; 0x21a <lcd_command>
        lcd_data('T');			//output the Testmode "T"
    1650:	84 e5       	ldi	r24, 0x54	; 84
    1652:	0e 94 d0 00 	call	0x1a0	; 0x1a0 <lcd_data>
        lcd_string(utoa(tt, outval, 10));	//output Test number
    1656:	c2 01       	movw	r24, r4
    1658:	6e e0       	ldi	r22, 0x0E	; 14
    165a:	71 e0       	ldi	r23, 0x01	; 1
    165c:	4a e0       	ldi	r20, 0x0A	; 10
    165e:	50 e0       	ldi	r21, 0x00	; 0
    1660:	0e 94 86 1c 	call	0x390c	; 0x390c <utoa>
    1664:	0e 94 4d 01 	call	0x29a	; 0x29a <lcd_string>
        lcd_space();
    1668:	0e 94 fe 00 	call	0x1fc	; 0x1fc <lcd_space>
                                        //############################################
        if (tt == 1) {   // output of reference voltage and factors for capacity measurement
    166c:	fe 2d       	mov	r31, r14
    166e:	f1 30       	cpi	r31, 0x01	; 1
    1670:	21 f5       	brne	.+72     	; 0x16ba <AutoCheck+0x1f4>
           ADCconfig.Samples = 190;	// set number of ADC reads near to maximum
    1672:	2e eb       	ldi	r18, 0xBE	; 190
    1674:	20 93 3b 01 	sts	0x013B, r18
 #ifdef WITH_AUTO_REF
           (void) ReadADC(0x0e);	// read reference voltage 
           ref_mv = W5msReadADC(0x0e);	// read reference voltage 
           RefVoltage();		//compute RHmultip = f(reference voltage)
 #endif
           lcd_fix2_string(URefT);	//"URef="
    1678:	82 ee       	ldi	r24, 0xE2	; 226
    167a:	90 e0       	ldi	r25, 0x00	; 0
    167c:	0e 94 61 01 	call	0x2c2	; 0x2c2 <lcd_pgm_string>
           DisplayValue(ref_mv,-3,'V',4);
    1680:	60 91 41 01 	lds	r22, 0x0141
    1684:	70 91 42 01 	lds	r23, 0x0142
    1688:	80 e0       	ldi	r24, 0x00	; 0
    168a:	90 e0       	ldi	r25, 0x00	; 0
    168c:	4d ef       	ldi	r20, 0xFD	; 253
    168e:	26 e5       	ldi	r18, 0x56	; 86
    1690:	04 e0       	ldi	r16, 0x04	; 4
    1692:	0e 94 67 09 	call	0x12ce	; 0x12ce <DisplayValue>
           lcd_line2();			//Cursor to column 1, row 2
    1696:	80 ec       	ldi	r24, 0xC0	; 192
    1698:	0e 94 0d 01 	call	0x21a	; 0x21a <lcd_command>
           lcd_fix2_string(RHfakt);	//"RHf="
    169c:	87 ee       	ldi	r24, 0xE7	; 231
    169e:	90 e0       	ldi	r25, 0x00	; 0
    16a0:	0e 94 61 01 	call	0x2c2	; 0x2c2 <lcd_pgm_string>
           lcd_string(utoa(RHmultip, outval, 10));
    16a4:	80 91 00 01 	lds	r24, 0x0100
    16a8:	90 91 01 01 	lds	r25, 0x0101
    16ac:	6e e0       	ldi	r22, 0x0E	; 14
    16ae:	71 e0       	ldi	r23, 0x01	; 1
    16b0:	4a e0       	ldi	r20, 0x0A	; 10
    16b2:	50 e0       	ldi	r21, 0x00	; 0
    16b4:	0e 94 86 1c 	call	0x390c	; 0x390c <utoa>
    16b8:	f5 c0       	rjmp	.+490    	; 0x18a4 <AutoCheck+0x3de>
        }
                                        //############################################
        if (tt == 2) { // how equal are the RL resistors? 
    16ba:	8e 2d       	mov	r24, r14
    16bc:	82 30       	cpi	r24, 0x02	; 2
    16be:	09 f0       	breq	.+2      	; 0x16c2 <AutoCheck+0x1fc>
    16c0:	52 c0       	rjmp	.+164    	; 0x1766 <AutoCheck+0x2a0>
           R_PORT = 1<<(TP1*2);		//RL1 to VCC
    16c2:	81 e0       	ldi	r24, 0x01	; 1
    16c4:	85 b9       	out	0x05, r24	; 5
           R_DDR = (1<<(TP1*2)) | (1<<(TP2*2));	//RL2 to -
    16c6:	f4 b8       	out	0x04, r15	; 4
           adcmv[0] = W20msReadADC(TP1);
    16c8:	80 e0       	ldi	r24, 0x00	; 0
    16ca:	0e 94 b2 19 	call	0x3364	; 0x3364 <W20msReadADC>
    16ce:	8c 01       	movw	r16, r24
           adcmv[0] -= ((long)ADCconfig.U_AVCC * (PIN_RM + R_L_VAL) / (PIN_RM + R_L_VAL + R_L_VAL + PIN_RP));
    16d0:	60 91 3f 01 	lds	r22, 0x013F
    16d4:	70 91 40 01 	lds	r23, 0x0140
    16d8:	80 e0       	ldi	r24, 0x00	; 0
    16da:	90 e0       	ldi	r25, 0x00	; 0
    16dc:	2e e4       	ldi	r18, 0x4E	; 78
    16de:	3b e1       	ldi	r19, 0x1B	; 27
    16e0:	40 e0       	ldi	r20, 0x00	; 0
    16e2:	50 e0       	ldi	r21, 0x00	; 0
    16e4:	0e 94 e9 1b 	call	0x37d2	; 0x37d2 <__mulsi3>
    16e8:	a4 01       	movw	r20, r8
    16ea:	93 01       	movw	r18, r6
    16ec:	0e 94 4a 1c 	call	0x3894	; 0x3894 <__divmodsi4>
    16f0:	02 0f       	add	r16, r18
    16f2:	13 1f       	adc	r17, r19
    16f4:	1a 83       	std	Y+2, r17	; 0x02
    16f6:	09 83       	std	Y+1, r16	; 0x01
           R_DDR = (1<<(TP1*2)) | (1<<(TP3*2));	//RL3 to -
    16f8:	34 b8       	out	0x04, r3	; 4
           adcmv[1] = W20msReadADC(TP1);
    16fa:	80 e0       	ldi	r24, 0x00	; 0
    16fc:	0e 94 b2 19 	call	0x3364	; 0x3364 <W20msReadADC>
    1700:	8c 01       	movw	r16, r24
           adcmv[1] -= ((long)ADCconfig.U_AVCC * (PIN_RM + R_L_VAL) / (PIN_RM + R_L_VAL + R_L_VAL + PIN_RP));
    1702:	60 91 3f 01 	lds	r22, 0x013F
    1706:	70 91 40 01 	lds	r23, 0x0140
    170a:	80 e0       	ldi	r24, 0x00	; 0
    170c:	90 e0       	ldi	r25, 0x00	; 0
    170e:	2e e4       	ldi	r18, 0x4E	; 78
    1710:	3b e1       	ldi	r19, 0x1B	; 27
    1712:	40 e0       	ldi	r20, 0x00	; 0
    1714:	50 e0       	ldi	r21, 0x00	; 0
    1716:	0e 94 e9 1b 	call	0x37d2	; 0x37d2 <__mulsi3>
    171a:	a4 01       	movw	r20, r8
    171c:	93 01       	movw	r18, r6
    171e:	0e 94 4a 1c 	call	0x3894	; 0x3894 <__divmodsi4>
    1722:	02 0f       	add	r16, r18
    1724:	13 1f       	adc	r17, r19
    1726:	1c 83       	std	Y+4, r17	; 0x04
    1728:	0b 83       	std	Y+3, r16	; 0x03
           R_PORT = 1<<(TP2*2);		//RL2 to VCC
    172a:	25 b8       	out	0x05, r2	; 5
           R_DDR = (1<<(TP2*2)) | (1<<(TP3*2));	//RL3 to -
    172c:	e4 e1       	ldi	r30, 0x14	; 20
    172e:	e4 b9       	out	0x04, r30	; 4
           adcmv[2] = W20msReadADC(TP2);
    1730:	81 e0       	ldi	r24, 0x01	; 1
    1732:	0e 94 b2 19 	call	0x3364	; 0x3364 <W20msReadADC>
    1736:	8c 01       	movw	r16, r24
           adcmv[2] -= ((long)ADCconfig.U_AVCC * (PIN_RM + R_L_VAL) / (PIN_RM + R_L_VAL + R_L_VAL + PIN_RP));
    1738:	60 91 3f 01 	lds	r22, 0x013F
    173c:	70 91 40 01 	lds	r23, 0x0140
    1740:	80 e0       	ldi	r24, 0x00	; 0
    1742:	90 e0       	ldi	r25, 0x00	; 0
    1744:	2e e4       	ldi	r18, 0x4E	; 78
    1746:	3b e1       	ldi	r19, 0x1B	; 27
    1748:	40 e0       	ldi	r20, 0x00	; 0
    174a:	50 e0       	ldi	r21, 0x00	; 0
    174c:	0e 94 e9 1b 	call	0x37d2	; 0x37d2 <__mulsi3>
    1750:	a4 01       	movw	r20, r8
    1752:	93 01       	movw	r18, r6
    1754:	0e 94 4a 1c 	call	0x3894	; 0x3894 <__divmodsi4>
    1758:	02 0f       	add	r16, r18
    175a:	13 1f       	adc	r17, r19
    175c:	1e 83       	std	Y+6, r17	; 0x06
    175e:	0d 83       	std	Y+5, r16	; 0x05
           lcd_fix2_string(RLRL);	// "RLRL"
    1760:	84 ef       	ldi	r24, 0xF4	; 244
    1762:	90 e0       	ldi	r25, 0x00	; 0
    1764:	49 c0       	rjmp	.+146    	; 0x17f8 <AutoCheck+0x332>
        }
                                        //############################################
        if (tt == 3) { // how equal are the RH resistors
    1766:	fe 2d       	mov	r31, r14
    1768:	f3 30       	cpi	r31, 0x03	; 3
    176a:	41 f5       	brne	.+80     	; 0x17bc <AutoCheck+0x2f6>
           R_PORT = 2<<(TP1*2);		//RH1 to VCC
    176c:	a5 b8       	out	0x05, r10	; 5
           R_DDR = (2<<(TP1*2)) | (2<<(TP2*2));	//RH2 to -
    176e:	2a e0       	ldi	r18, 0x0A	; 10
    1770:	24 b9       	out	0x04, r18	; 4
           adcmv[0] = W20msReadADC(TP1);
    1772:	80 e0       	ldi	r24, 0x00	; 0
    1774:	0e 94 b2 19 	call	0x3364	; 0x3364 <W20msReadADC>
           adcmv[3] = ADCconfig.U_AVCC / 2;
    1778:	00 91 3f 01 	lds	r16, 0x013F
    177c:	10 91 40 01 	lds	r17, 0x0140
    1780:	16 95       	lsr	r17
    1782:	07 95       	ror	r16
    1784:	18 87       	std	Y+8, r17	; 0x08
    1786:	0f 83       	std	Y+7, r16	; 0x07
           adcmv[0] -= adcmv[3];
    1788:	80 1b       	sub	r24, r16
    178a:	91 0b       	sbc	r25, r17
    178c:	9a 83       	std	Y+2, r25	; 0x02
    178e:	89 83       	std	Y+1, r24	; 0x01
           R_DDR = (2<<(TP1*2)) | (2<<(TP3*2));	//RH3 to -
    1790:	82 e2       	ldi	r24, 0x22	; 34
    1792:	84 b9       	out	0x04, r24	; 4
           adcmv[1] = W20msReadADC(TP1);
    1794:	80 e0       	ldi	r24, 0x00	; 0
    1796:	0e 94 b2 19 	call	0x3364	; 0x3364 <W20msReadADC>
           adcmv[1] -= adcmv[3];
    179a:	80 1b       	sub	r24, r16
    179c:	91 0b       	sbc	r25, r17
    179e:	9c 83       	std	Y+4, r25	; 0x04
    17a0:	8b 83       	std	Y+3, r24	; 0x03
           R_PORT = 2<<(TP2*2);		//RL2 to VCC
    17a2:	c5 b8       	out	0x05, r12	; 5
           R_DDR = (2<<(TP2*2)) | (2<<(TP3*2));	//RH3 to -
    17a4:	e8 e2       	ldi	r30, 0x28	; 40
    17a6:	e4 b9       	out	0x04, r30	; 4
           adcmv[2] = W20msReadADC(TP2);
    17a8:	81 e0       	ldi	r24, 0x01	; 1
    17aa:	0e 94 b2 19 	call	0x3364	; 0x3364 <W20msReadADC>
           adcmv[2] -= adcmv[3];
    17ae:	80 1b       	sub	r24, r16
    17b0:	91 0b       	sbc	r25, r17
    17b2:	9e 83       	std	Y+6, r25	; 0x06
    17b4:	8d 83       	std	Y+5, r24	; 0x05
           lcd_fix2_string(RHRH);	// "RHRH"
    17b6:	82 e0       	ldi	r24, 0x02	; 2
    17b8:	91 e0       	ldi	r25, 0x01	; 1
    17ba:	1e c0       	rjmp	.+60     	; 0x17f8 <AutoCheck+0x332>
        }
                                        //############################################
        if (tt == 4) { // Text release probes
    17bc:	fe 2d       	mov	r31, r14
    17be:	f4 30       	cpi	r31, 0x04	; 4
    17c0:	19 f4       	brne	.+6      	; 0x17c8 <AutoCheck+0x302>
           lcd_fix2_string(RELPROBE);	// "Release Probes"
    17c2:	84 ed       	ldi	r24, 0xD4	; 212
    17c4:	90 e0       	ldi	r25, 0x00	; 0
    17c6:	18 c0       	rjmp	.+48     	; 0x17f8 <AutoCheck+0x332>
        }
                                        //############################################
        if (tt == 5) { // can we switch the ADC pins to GND across R_H resistor?
    17c8:	2e 2d       	mov	r18, r14
    17ca:	25 30       	cpi	r18, 0x05	; 5
    17cc:	c1 f4       	brne	.+48     	; 0x17fe <AutoCheck+0x338>
           R_PORT = 0;
    17ce:	15 b8       	out	0x05, r1	; 5
           R_DDR = 2<<(TP1*2);		//Pin 1 over R_H to GND
    17d0:	a4 b8       	out	0x04, r10	; 4
           adcmv[0] = W20msReadADC(TP1);
    17d2:	80 e0       	ldi	r24, 0x00	; 0
    17d4:	0e 94 b2 19 	call	0x3364	; 0x3364 <W20msReadADC>
    17d8:	9a 83       	std	Y+2, r25	; 0x02
    17da:	89 83       	std	Y+1, r24	; 0x01

           R_DDR = 2<<(TP2*2);		//Pin 2 over R_H to GND
    17dc:	c4 b8       	out	0x04, r12	; 4
           adcmv[1] = W20msReadADC(TP2);
    17de:	81 e0       	ldi	r24, 0x01	; 1
    17e0:	0e 94 b2 19 	call	0x3364	; 0x3364 <W20msReadADC>
    17e4:	9c 83       	std	Y+4, r25	; 0x04
    17e6:	8b 83       	std	Y+3, r24	; 0x03

           R_DDR = 2<<(TP3*2);		//Pin 3 over R_H to GND
    17e8:	b4 b8       	out	0x04, r11	; 4
           adcmv[2] = W20msReadADC(TP3);
    17ea:	82 e0       	ldi	r24, 0x02	; 2
    17ec:	0e 94 b2 19 	call	0x3364	; 0x3364 <W20msReadADC>
    17f0:	9e 83       	std	Y+6, r25	; 0x06
    17f2:	8d 83       	std	Y+5, r24	; 0x05
           lcd_fix2_string(RH1L);	// "RH_Lo="
    17f4:	8c ee       	ldi	r24, 0xEC	; 236
    17f6:	90 e0       	ldi	r25, 0x00	; 0
    17f8:	0e 94 61 01 	call	0x2c2	; 0x2c2 <lcd_pgm_string>
    17fc:	30 c0       	rjmp	.+96     	; 0x185e <AutoCheck+0x398>
        }
                                        //############################################
        if (tt == 6) { // can we switch the ADC pins to VCC across the R_H resistor?
    17fe:	8e 2d       	mov	r24, r14
    1800:	86 30       	cpi	r24, 0x06	; 6
    1802:	51 f5       	brne	.+84     	; 0x1858 <AutoCheck+0x392>
           R_DDR = 2<<(TP1*2);		//Pin 1 over R_H to VCC
    1804:	a4 b8       	out	0x04, r10	; 4
           R_PORT = 2<<(TP1*2);
    1806:	a5 b8       	out	0x05, r10	; 5
           adcmv[0] = W20msReadADC(TP1) - ADCconfig.U_AVCC;
    1808:	80 e0       	ldi	r24, 0x00	; 0
    180a:	0e 94 b2 19 	call	0x3364	; 0x3364 <W20msReadADC>
    180e:	20 91 3f 01 	lds	r18, 0x013F
    1812:	30 91 40 01 	lds	r19, 0x0140
    1816:	82 1b       	sub	r24, r18
    1818:	93 0b       	sbc	r25, r19
    181a:	9a 83       	std	Y+2, r25	; 0x02
    181c:	89 83       	std	Y+1, r24	; 0x01
           R_DDR = 2<<(TP2*2);		//Pin 2 over R_H to VCC
    181e:	c4 b8       	out	0x04, r12	; 4
           R_PORT = 2<<(TP2*2);
    1820:	c5 b8       	out	0x05, r12	; 5
           adcmv[1] = W20msReadADC(TP2) - ADCconfig.U_AVCC;
    1822:	81 e0       	ldi	r24, 0x01	; 1
    1824:	0e 94 b2 19 	call	0x3364	; 0x3364 <W20msReadADC>
    1828:	20 91 3f 01 	lds	r18, 0x013F
    182c:	30 91 40 01 	lds	r19, 0x0140
    1830:	82 1b       	sub	r24, r18
    1832:	93 0b       	sbc	r25, r19
    1834:	9c 83       	std	Y+4, r25	; 0x04
    1836:	8b 83       	std	Y+3, r24	; 0x03
           R_DDR = 2<<(TP3*2);		//Pin 3 over R_H to VCC
    1838:	b4 b8       	out	0x04, r11	; 4
           R_PORT = 2<<(TP3*2);
    183a:	b5 b8       	out	0x05, r11	; 5
           adcmv[2] = W20msReadADC(TP3) - ADCconfig.U_AVCC;
    183c:	82 e0       	ldi	r24, 0x02	; 2
    183e:	0e 94 b2 19 	call	0x3364	; 0x3364 <W20msReadADC>
    1842:	20 91 3f 01 	lds	r18, 0x013F
    1846:	30 91 40 01 	lds	r19, 0x0140
    184a:	82 1b       	sub	r24, r18
    184c:	93 0b       	sbc	r25, r19
    184e:	9e 83       	std	Y+6, r25	; 0x06
    1850:	8d 83       	std	Y+5, r24	; 0x05
           lcd_fix2_string(RH1H);	// "RH_Hi="
    1852:	80 ef       	ldi	r24, 0xF0	; 240
    1854:	90 e0       	ldi	r25, 0x00	; 0
    1856:	d0 cf       	rjmp	.-96     	; 0x17f8 <AutoCheck+0x332>
        }
                                        //############################################
        if (tt > 1) {	// output 3 voltages 
    1858:	ee 2d       	mov	r30, r14
    185a:	e1 30       	cpi	r30, 0x01	; 1
    185c:	29 f1       	breq	.+74     	; 0x18a8 <AutoCheck+0x3e2>
           lcd_line2();			//Cursor to column 1, row 2
    185e:	80 ec       	ldi	r24, 0xC0	; 192
    1860:	0e 94 0d 01 	call	0x21a	; 0x21a <lcd_command>
           lcd_string(itoa(adcmv[0], outval, 10));	//output voltage 1
    1864:	89 81       	ldd	r24, Y+1	; 0x01
    1866:	9a 81       	ldd	r25, Y+2	; 0x02
    1868:	6e e0       	ldi	r22, 0x0E	; 14
    186a:	71 e0       	ldi	r23, 0x01	; 1
    186c:	4a e0       	ldi	r20, 0x0A	; 10
    186e:	50 e0       	ldi	r21, 0x00	; 0
    1870:	0e 94 65 1c 	call	0x38ca	; 0x38ca <itoa>
    1874:	0e 94 4d 01 	call	0x29a	; 0x29a <lcd_string>
           lcd_space();
    1878:	0e 94 fe 00 	call	0x1fc	; 0x1fc <lcd_space>
           lcd_string(itoa(adcmv[1], outval, 10));	//output voltage 2
    187c:	8b 81       	ldd	r24, Y+3	; 0x03
    187e:	9c 81       	ldd	r25, Y+4	; 0x04
    1880:	6e e0       	ldi	r22, 0x0E	; 14
    1882:	71 e0       	ldi	r23, 0x01	; 1
    1884:	4a e0       	ldi	r20, 0x0A	; 10
    1886:	50 e0       	ldi	r21, 0x00	; 0
    1888:	0e 94 65 1c 	call	0x38ca	; 0x38ca <itoa>
    188c:	0e 94 4d 01 	call	0x29a	; 0x29a <lcd_string>
           lcd_space();
    1890:	0e 94 fe 00 	call	0x1fc	; 0x1fc <lcd_space>
           lcd_string(itoa(adcmv[2], outval, 10));	//output voltage 3
    1894:	8d 81       	ldd	r24, Y+5	; 0x05
    1896:	9e 81       	ldd	r25, Y+6	; 0x06
    1898:	6e e0       	ldi	r22, 0x0E	; 14
    189a:	71 e0       	ldi	r23, 0x01	; 1
    189c:	4a e0       	ldi	r20, 0x0A	; 10
    189e:	50 e0       	ldi	r21, 0x00	; 0
    18a0:	0e 94 65 1c 	call	0x38ca	; 0x38ca <itoa>
    18a4:	0e 94 4d 01 	call	0x29a	; 0x29a <lcd_string>
        }
        ADC_DDR =  TXD_MSK;		// all-Pins to Input
    18a8:	c7 b8       	out	0x07, r12	; 7
        ADC_PORT = TXD_VAL;		// all ADC-Ports to GND
    18aa:	c8 b8       	out	0x08, r12	; 8
        R_DDR = 0;			// all R-Ports to Input
    18ac:	14 b8       	out	0x04, r1	; 4
        R_PORT = 0;
    18ae:	15 b8       	out	0x05, r1	; 5
        if(!(ON_PIN_REG & (1<<RST_PIN))) {
    18b0:	4f 9b       	sbis	0x09, 7	; 9
    18b2:	09 c0       	rjmp	.+18     	; 0x18c6 <AutoCheck+0x400>
	   // if key is pressed, don't repeat
           break;
        }
        wait500ms();
    18b4:	0e 94 70 14 	call	0x28e0	; 0x28e0 <wait500ms>
        if(!(ON_PIN_REG & (1<<RST_PIN))) {
    18b8:	4f 9b       	sbis	0x09, 7	; 9
    18ba:	05 c0       	rjmp	.+10     	; 0x18c6 <AutoCheck+0x400>
	   // if key is pressed, don't repeat
           break;
        }
        wait500ms();
    18bc:	0e 94 70 14 	call	0x28e0	; 0x28e0 <wait500ms>
    18c0:	da 94       	dec	r13
  lcd_fix2_string(SELFTEST);		// "Selftest mode.."
  wait1s();
 #define TEST_COUNT 7
 
  for(tt=1;tt<TEST_COUNT;tt++) {		// loop for all Tests
     for(ww=0;ww<MAX_REP;ww++) {	// repeat the test MAX_REP times
    18c2:	09 f0       	breq	.+2      	; 0x18c6 <AutoCheck+0x400>
    18c4:	b8 ce       	rjmp	.-656    	; 0x1636 <AutoCheck+0x170>
    18c6:	1e 2d       	mov	r17, r14
	   // if key is pressed, don't repeat
           break;
        }
        wait500ms();
     } //end for ww
     wait1s();
    18c8:	0e 94 6f 14 	call	0x28de	; 0x28de <wait1000ms>
  lcd_line1();
  lcd_fix2_string(SELFTEST);		// "Selftest mode.."
  wait1s();
 #define TEST_COUNT 7
 
  for(tt=1;tt<TEST_COUNT;tt++) {		// loop for all Tests
    18cc:	1f 5f       	subi	r17, 0xFF	; 255
    18ce:	17 30       	cpi	r17, 0x07	; 7
    18d0:	59 f0       	breq	.+22     	; 0x18e8 <AutoCheck+0x422>
void AutoCheck(void) {
    18d2:	a4 e0       	ldi	r26, 0x04	; 4
    18d4:	da 2e       	mov	r13, r26
        lcd_line2();			//Cursor to column 1, row 2
        lcd_clear_line();		// clear total line
        lcd_line1();			//Cursor to column 1, row 1
        lcd_clear_line();		// clear total line
        lcd_line1();			//Cursor to column 1, row 1
        lcd_data('T');			//output the Testmode "T"
    18d6:	08 94       	sec
    18d8:	41 1c       	adc	r4, r1
    18da:	51 1c       	adc	r5, r1
        if (tt == 2) { // how equal are the RL resistors? 
           R_PORT = 1<<(TP1*2);		//RL1 to VCC
           R_DDR = (1<<(TP1*2)) | (1<<(TP2*2));	//RL2 to -
           adcmv[0] = W20msReadADC(TP1);
           adcmv[0] -= ((long)ADCconfig.U_AVCC * (PIN_RM + R_L_VAL) / (PIN_RM + R_L_VAL + R_L_VAL + PIN_RP));
           R_DDR = (1<<(TP1*2)) | (1<<(TP3*2));	//RL3 to -
    18dc:	f1 e1       	ldi	r31, 0x11	; 17
    18de:	3f 2e       	mov	r3, r31
           adcmv[1] = W20msReadADC(TP1);
           adcmv[1] -= ((long)ADCconfig.U_AVCC * (PIN_RM + R_L_VAL) / (PIN_RM + R_L_VAL + R_L_VAL + PIN_RP));
           R_PORT = 1<<(TP2*2);		//RL2 to VCC
    18e0:	e4 e0       	ldi	r30, 0x04	; 4
    18e2:	2e 2e       	mov	r2, r30
    18e4:	e1 2e       	mov	r14, r17
    18e6:	a7 ce       	rjmp	.-690    	; 0x1636 <AutoCheck+0x170>
     wait1s();
  } //end for tt
#endif

  // measurement of internal resistance of the ADC port outputs switched to GND
  ADC_DDR = 1<<TP1 | TXD_MSK;	//ADC-Pin  1 to output 0V
    18e8:	79 e0       	ldi	r23, 0x09	; 9
    18ea:	c7 2e       	mov	r12, r23
    18ec:	c7 b8       	out	0x07, r12	; 7
  R_PORT = 1<<(TP1*2);		//R_L-PORT 1 to VCC
    18ee:	dd 24       	eor	r13, r13
    18f0:	d3 94       	inc	r13
    18f2:	d5 b8       	out	0x05, r13	; 5
  R_DDR = 1<<(TP1*2);		//Pin 1 to output and over R_L to VCC
    18f4:	d4 b8       	out	0x04, r13	; 4
  adcmv[0] = W5msReadADC(TP1);
    18f6:	80 e0       	ldi	r24, 0x00	; 0
    18f8:	0e 94 b6 19 	call	0x336c	; 0x336c <W5msReadADC>
    18fc:	7c 01       	movw	r14, r24

  ADC_DDR = 1<<TP2 | TXD_MSK;	//ADC-Pin 2 to output 0V
    18fe:	6a e0       	ldi	r22, 0x0A	; 10
    1900:	66 2e       	mov	r6, r22
    1902:	67 b8       	out	0x07, r6	; 7
  R_PORT =  1<<(TP2*2);	//R_L-PORT 2 to VCC
    1904:	54 e0       	ldi	r21, 0x04	; 4
    1906:	85 2e       	mov	r8, r21
    1908:	85 b8       	out	0x05, r8	; 5
  R_DDR = 1<<(TP2*2);		//Pin 2 to output and over R_L to VCC
    190a:	84 b8       	out	0x04, r8	; 4
  adcmv[1] = W5msReadADC(TP2);
    190c:	81 e0       	ldi	r24, 0x01	; 1
    190e:	0e 94 b6 19 	call	0x336c	; 0x336c <W5msReadADC>
    1912:	8c 01       	movw	r16, r24

  ADC_DDR = 1<<TP3 | TXD_MSK;	//ADC-Pin 3 to output 0V
    1914:	4c e0       	ldi	r20, 0x0C	; 12
    1916:	a4 2e       	mov	r10, r20
    1918:	a7 b8       	out	0x07, r10	; 7
  R_PORT =  1<<(TP3*2);	//R_L-PORT 3 to VCC
    191a:	30 e1       	ldi	r19, 0x10	; 16
    191c:	b3 2e       	mov	r11, r19
    191e:	b5 b8       	out	0x05, r11	; 5
  R_DDR = 1<<(TP3*2);		//Pin 3 to output and over R_L to VCC
    1920:	b4 b8       	out	0x04, r11	; 4
  adcmv[2] = W5msReadADC(TP3);
    1922:	82 e0       	ldi	r24, 0x02	; 2
    1924:	0e 94 b6 19 	call	0x336c	; 0x336c <W5msReadADC>
  sum_rm = (adcmv[0] + adcmv[1] + adcmv[2]); //add all three values
    1928:	0e 0d       	add	r16, r14
    192a:	1f 1d       	adc	r17, r15
    192c:	08 0f       	add	r16, r24
    192e:	19 1f       	adc	r17, r25

  // measurement of internal resistance of the ADC port output switched to VCC
  R_PORT = 0;			// R-Ports to GND
    1930:	15 b8       	out	0x05, r1	; 5
  ADC_PORT = 1<<TP1 | TXD_VAL;	//ADC-Port 1 to VCC
    1932:	c8 b8       	out	0x08, r12	; 8
  ADC_DDR = 1<<TP1 | TXD_MSK;	//ADC-Pin  1 to output 0V
    1934:	c7 b8       	out	0x07, r12	; 7
  R_DDR = 1<<(TP1*2);		//Pin 1 to output and over R_L to GND
    1936:	d4 b8       	out	0x04, r13	; 4
  adcmv[0] = ADCconfig.U_AVCC - W5msReadADC(TP1);
    1938:	c0 90 3f 01 	lds	r12, 0x013F
    193c:	d0 90 40 01 	lds	r13, 0x0140
    1940:	80 e0       	ldi	r24, 0x00	; 0
    1942:	0e 94 b6 19 	call	0x336c	; 0x336c <W5msReadADC>
    1946:	c8 1a       	sub	r12, r24
    1948:	d9 0a       	sbc	r13, r25
    194a:	da 82       	std	Y+2, r13	; 0x02
    194c:	c9 82       	std	Y+1, r12	; 0x01
      
  ADC_PORT = 1<<TP2 | TXD_VAL;	//ADC-Port 2 to VCC
    194e:	68 b8       	out	0x08, r6	; 8
  ADC_DDR = 1<<TP2 | TXD_MSK;	//ADC-Pin  2 to output 0V
    1950:	67 b8       	out	0x07, r6	; 7
  R_DDR = 1<<(TP2*2);		//Pin 2 to output and over R_L to GND
    1952:	84 b8       	out	0x04, r8	; 4
  adcmv[1] = ADCconfig.U_AVCC - W5msReadADC(TP2);
    1954:	e0 90 3f 01 	lds	r14, 0x013F
    1958:	f0 90 40 01 	lds	r15, 0x0140
    195c:	81 e0       	ldi	r24, 0x01	; 1
    195e:	0e 94 b6 19 	call	0x336c	; 0x336c <W5msReadADC>
    1962:	e8 1a       	sub	r14, r24
    1964:	f9 0a       	sbc	r15, r25
    1966:	fc 82       	std	Y+4, r15	; 0x04
    1968:	eb 82       	std	Y+3, r14	; 0x03

  ADC_PORT = 1<<TP3 | TXD_VAL;	//ADC-Port 3 to VCC
    196a:	a8 b8       	out	0x08, r10	; 8
  ADC_DDR = 1<<TP3 | TXD_MSK;	//ADC-Pin  3 to output 0V
    196c:	a7 b8       	out	0x07, r10	; 7
  R_DDR = 1<<(TP3*2);		//Pin 3 to output and over R_L to GND
    196e:	b4 b8       	out	0x04, r11	; 4
  adcmv[2] = ADCconfig.U_AVCC - W5msReadADC(TP3);
    1970:	a0 90 3f 01 	lds	r10, 0x013F
    1974:	b0 90 40 01 	lds	r11, 0x0140
    1978:	82 e0       	ldi	r24, 0x02	; 2
    197a:	0e 94 b6 19 	call	0x336c	; 0x336c <W5msReadADC>

  sum_c0 = (adcmv[0] + adcmv[1] + adcmv[2]);
    197e:	ec 0c       	add	r14, r12
    1980:	fd 1c       	adc	r15, r13
  adcmv[1] = ADCconfig.U_AVCC - W5msReadADC(TP2);

  ADC_PORT = 1<<TP3 | TXD_VAL;	//ADC-Port 3 to VCC
  ADC_DDR = 1<<TP3 | TXD_MSK;	//ADC-Pin  3 to output 0V
  R_DDR = 1<<(TP3*2);		//Pin 3 to output and over R_L to GND
  adcmv[2] = ADCconfig.U_AVCC - W5msReadADC(TP3);
    1982:	a8 1a       	sub	r10, r24
    1984:	b9 0a       	sbc	r11, r25

  sum_c0 = (adcmv[0] + adcmv[1] + adcmv[2]);
    1986:	ea 0c       	add	r14, r10
    1988:	fb 1c       	adc	r15, r11
  u680 = ((ADCconfig.U_AVCC * 3) - sum_rm - sum_c0);	//three times the voltage at the 680 Ohm
    198a:	80 91 3f 01 	lds	r24, 0x013F
    198e:	90 91 40 01 	lds	r25, 0x0140
    1992:	5c 01       	movw	r10, r24
    1994:	aa 0c       	add	r10, r10
    1996:	bb 1c       	adc	r11, r11
    1998:	a8 0e       	add	r10, r24
    199a:	b9 1e       	adc	r11, r25
    199c:	a0 1a       	sub	r10, r16
    199e:	b1 0a       	sbc	r11, r17
    19a0:	ae 18       	sub	r10, r14
    19a2:	bf 08       	sbc	r11, r15
  pin_rm = (unsigned long)((unsigned long)sum_rm * (unsigned long)R_L_VAL) / (unsigned long)u680;
    19a4:	cc 24       	eor	r12, r12
    19a6:	dd 24       	eor	r13, r13
    19a8:	b8 01       	movw	r22, r16
    19aa:	80 e0       	ldi	r24, 0x00	; 0
    19ac:	90 e0       	ldi	r25, 0x00	; 0
    19ae:	20 e9       	ldi	r18, 0x90	; 144
    19b0:	3a e1       	ldi	r19, 0x1A	; 26
    19b2:	40 e0       	ldi	r20, 0x00	; 0
    19b4:	50 e0       	ldi	r21, 0x00	; 0
    19b6:	0e 94 e9 1b 	call	0x37d2	; 0x37d2 <__mulsi3>
    19ba:	a6 01       	movw	r20, r12
    19bc:	95 01       	movw	r18, r10
    19be:	0e 94 28 1c 	call	0x3850	; 0x3850 <__udivmodsi4>
    19c2:	49 01       	movw	r8, r18
  adcmv[2] = pin_rm;	// for last output in row 2
    19c4:	3e 83       	std	Y+6, r19	; 0x06
    19c6:	2d 83       	std	Y+5, r18	; 0x05
  pin_rp = (unsigned long)((unsigned long)sum_c0 * (unsigned long)R_L_VAL) / (unsigned long)u680;
    19c8:	b7 01       	movw	r22, r14
    19ca:	80 e0       	ldi	r24, 0x00	; 0
    19cc:	90 e0       	ldi	r25, 0x00	; 0
    19ce:	20 e9       	ldi	r18, 0x90	; 144
    19d0:	3a e1       	ldi	r19, 0x1A	; 26
    19d2:	40 e0       	ldi	r20, 0x00	; 0
    19d4:	50 e0       	ldi	r21, 0x00	; 0
    19d6:	0e 94 e9 1b 	call	0x37d2	; 0x37d2 <__mulsi3>
    19da:	a6 01       	movw	r20, r12
    19dc:	95 01       	movw	r18, r10
    19de:	0e 94 28 1c 	call	0x3850	; 0x3850 <__udivmodsi4>
    19e2:	79 01       	movw	r14, r18
  lcd_clear();
    19e4:	0e 94 1a 01 	call	0x234	; 0x234 <lcd_clear>
  lcd_fix_string(RIHI);	// "RiHi="
    19e8:	87 e5       	ldi	r24, 0x57	; 87
    19ea:	91 e0       	ldi	r25, 0x01	; 1
    19ec:	0e 94 71 01 	call	0x2e2	; 0x2e2 <lcd_fix_string>
  DisplayValue(pin_rp,-1,LCD_CHAR_OMEGA,3);
    19f0:	b7 01       	movw	r22, r14
    19f2:	80 e0       	ldi	r24, 0x00	; 0
    19f4:	90 e0       	ldi	r25, 0x00	; 0
    19f6:	4f ef       	ldi	r20, 0xFF	; 255
    19f8:	24 ef       	ldi	r18, 0xF4	; 244
    19fa:	03 e0       	ldi	r16, 0x03	; 3
    19fc:	0e 94 67 09 	call	0x12ce	; 0x12ce <DisplayValue>
  lcd_line2();
    1a00:	80 ec       	ldi	r24, 0xC0	; 192
    1a02:	0e 94 0d 01 	call	0x21a	; 0x21a <lcd_command>
  lcd_fix_string(RILO);	// "RiLo="
    1a06:	8e e5       	ldi	r24, 0x5E	; 94
    1a08:	91 e0       	ldi	r25, 0x01	; 1
    1a0a:	0e 94 71 01 	call	0x2e2	; 0x2e2 <lcd_fix_string>
  DisplayValue(pin_rm,-1,LCD_CHAR_OMEGA,3);
    1a0e:	b4 01       	movw	r22, r8
    1a10:	80 e0       	ldi	r24, 0x00	; 0
    1a12:	90 e0       	ldi	r25, 0x00	; 0
    1a14:	4f ef       	ldi	r20, 0xFF	; 255
    1a16:	24 ef       	ldi	r18, 0xF4	; 244
    1a18:	0e 94 67 09 	call	0x12ce	; 0x12ce <DisplayValue>
  wait2s();			//wait 2 seconds
    1a1c:	0e 94 6e 14 	call	0x28dc	; 0x28dc <wait2s>
#ifdef AUTO_CAL
  if ((pin_rp < 280) && (pin_rm < 250)) {
    1a20:	f8 e1       	ldi	r31, 0x18	; 24
    1a22:	ef 16       	cp	r14, r31
    1a24:	f1 e0       	ldi	r31, 0x01	; 1
    1a26:	ff 06       	cpc	r15, r31
    1a28:	90 f4       	brcc	.+36     	; 0x1a4e <AutoCheck+0x588>
    1a2a:	2a ef       	ldi	r18, 0xFA	; 250
    1a2c:	82 16       	cp	r8, r18
    1a2e:	91 04       	cpc	r9, r1
    1a30:	70 f4       	brcc	.+28     	; 0x1a4e <AutoCheck+0x588>
     // rp is below 28 Ohm and rm is below 25 Ohm
     (void) eeprom_write_word((uint16_t *)(&R680pl), pin_rp+R_L_VAL);  //hold VCC resistance value in EEprom
    1a32:	b7 01       	movw	r22, r14
    1a34:	60 57       	subi	r22, 0x70	; 112
    1a36:	75 4e       	sbci	r23, 0xE5	; 229
    1a38:	8f ea       	ldi	r24, 0xAF	; 175
    1a3a:	91 e0       	ldi	r25, 0x01	; 1
    1a3c:	0e 94 b8 1c 	call	0x3970	; 0x3970 <__eewr_word_m168>
     (void) eeprom_write_word((uint16_t *)(&R680mi), pin_rm+R_L_VAL);  //hold GND resistance value in EEprom
    1a40:	b4 01       	movw	r22, r8
    1a42:	60 57       	subi	r22, 0x70	; 112
    1a44:	75 4e       	sbci	r23, 0xE5	; 229
    1a46:	81 eb       	ldi	r24, 0xB1	; 177
    1a48:	91 e0       	ldi	r25, 0x01	; 1
    1a4a:	0e 94 b8 1c 	call	0x3970	; 0x3970 <__eewr_word_m168>
  }
#endif

#ifdef C_MESS
  //measure Zero offset for Capacity measurement
  adcmv[3] = 0;
    1a4e:	18 86       	std	Y+8, r1	; 0x08
    1a50:	1f 82       	std	Y+7, r1	; 0x07
  PartFound = PART_NONE;
    1a52:	10 92 09 01 	sts	0x0109, r1
  ReadCapacity(TP3, TP1);
    1a56:	82 e0       	ldi	r24, 0x02	; 2
    1a58:	60 e0       	ldi	r22, 0x00	; 0
    1a5a:	0e 94 24 15 	call	0x2a48	; 0x2a48 <ReadCapacity>
  adcmv[5] = (unsigned int) cap.cval_uncorrected;	//save capacity value of empty Pin 1:3
    1a5e:	e0 90 5f 01 	lds	r14, 0x015F
    1a62:	f0 90 60 01 	lds	r15, 0x0160
    1a66:	fc 86       	std	Y+12, r15	; 0x0c
    1a68:	eb 86       	std	Y+11, r14	; 0x0b
  ReadCapacity(TP3, TP2);
    1a6a:	82 e0       	ldi	r24, 0x02	; 2
    1a6c:	61 e0       	ldi	r22, 0x01	; 1
    1a6e:	0e 94 24 15 	call	0x2a48	; 0x2a48 <ReadCapacity>
  adcmv[6] = (unsigned int) cap.cval_uncorrected;	//save capacity value of empty Pin 2:3
    1a72:	00 91 5f 01 	lds	r16, 0x015F
    1a76:	10 91 60 01 	lds	r17, 0x0160
    1a7a:	1e 87       	std	Y+14, r17	; 0x0e
    1a7c:	0d 87       	std	Y+13, r16	; 0x0d
  ReadCapacity(TP2, TP1);
    1a7e:	81 e0       	ldi	r24, 0x01	; 1
    1a80:	60 e0       	ldi	r22, 0x00	; 0
    1a82:	0e 94 24 15 	call	0x2a48	; 0x2a48 <ReadCapacity>
  adcmv[2] = (unsigned int) cap.cval_uncorrected;	//save capacity value of empty Pin 1:2
    1a86:	c0 90 5f 01 	lds	r12, 0x015F
    1a8a:	d0 90 60 01 	lds	r13, 0x0160
    1a8e:	de 82       	std	Y+6, r13	; 0x06
    1a90:	cd 82       	std	Y+5, r12	; 0x05
  ReadCapacity(TP1, TP3);
    1a92:	80 e0       	ldi	r24, 0x00	; 0
    1a94:	62 e0       	ldi	r22, 0x02	; 2
    1a96:	0e 94 24 15 	call	0x2a48	; 0x2a48 <ReadCapacity>
  adcmv[1] = (unsigned int) cap.cval_uncorrected;	//save capacity value of empty Pin 3:1
    1a9a:	80 91 5f 01 	lds	r24, 0x015F
    1a9e:	90 91 60 01 	lds	r25, 0x0160
    1aa2:	9c 83       	std	Y+4, r25	; 0x04
    1aa4:	8b 83       	std	Y+3, r24	; 0x03
  ReadCapacity(TP2, TP3);
    1aa6:	81 e0       	ldi	r24, 0x01	; 1
    1aa8:	62 e0       	ldi	r22, 0x02	; 2
    1aaa:	0e 94 24 15 	call	0x2a48	; 0x2a48 <ReadCapacity>
  adcmv[4] = (unsigned int) cap.cval_uncorrected;	//save capacity value of empty Pin 3:2
    1aae:	80 91 5f 01 	lds	r24, 0x015F
    1ab2:	90 91 60 01 	lds	r25, 0x0160
    1ab6:	9a 87       	std	Y+10, r25	; 0x0a
    1ab8:	89 87       	std	Y+9, r24	; 0x09
  ReadCapacity(TP1, TP2);
    1aba:	80 e0       	ldi	r24, 0x00	; 0
    1abc:	61 e0       	ldi	r22, 0x01	; 1
    1abe:	0e 94 24 15 	call	0x2a48	; 0x2a48 <ReadCapacity>
  adcmv[0] = (unsigned int) cap.cval_uncorrected;	//save capacity value of empty Pin 2:1
    1ac2:	80 91 5f 01 	lds	r24, 0x015F
    1ac6:	90 91 60 01 	lds	r25, 0x0160
    1aca:	9a 83       	std	Y+2, r25	; 0x02
    1acc:	89 83       	std	Y+1, r24	; 0x01
  lcd_clear();
    1ace:	0e 94 1a 01 	call	0x234	; 0x234 <lcd_clear>
  lcd_data('C');
    1ad2:	83 e4       	ldi	r24, 0x43	; 67
    1ad4:	0e 94 d0 00 	call	0x1a0	; 0x1a0 <lcd_data>
  lcd_data('0');
    1ad8:	80 e3       	ldi	r24, 0x30	; 48
    1ada:	0e 94 d0 00 	call	0x1a0	; 0x1a0 <lcd_data>
  lcd_space();
    1ade:	0e 94 fe 00 	call	0x1fc	; 0x1fc <lcd_space>
  lcd_string(itoa(adcmv[5], outval, 10));	//output cap0 1:3
    1ae2:	c7 01       	movw	r24, r14
    1ae4:	6e e0       	ldi	r22, 0x0E	; 14
    1ae6:	71 e0       	ldi	r23, 0x01	; 1
    1ae8:	4a e0       	ldi	r20, 0x0A	; 10
    1aea:	50 e0       	ldi	r21, 0x00	; 0
    1aec:	0e 94 65 1c 	call	0x38ca	; 0x38ca <itoa>
    1af0:	0e 94 4d 01 	call	0x29a	; 0x29a <lcd_string>
  lcd_space();
    1af4:	0e 94 fe 00 	call	0x1fc	; 0x1fc <lcd_space>
  lcd_string(itoa(adcmv[6], outval, 10));	//output cap0 2:3
    1af8:	c8 01       	movw	r24, r16
    1afa:	6e e0       	ldi	r22, 0x0E	; 14
    1afc:	71 e0       	ldi	r23, 0x01	; 1
    1afe:	4a e0       	ldi	r20, 0x0A	; 10
    1b00:	50 e0       	ldi	r21, 0x00	; 0
    1b02:	0e 94 65 1c 	call	0x38ca	; 0x38ca <itoa>
    1b06:	0e 94 4d 01 	call	0x29a	; 0x29a <lcd_string>
  lcd_space();
    1b0a:	0e 94 fe 00 	call	0x1fc	; 0x1fc <lcd_space>
  DisplayValue(adcmv[2],-12,'F',3);		//output cap0 1:2
    1b0e:	b6 01       	movw	r22, r12
    1b10:	88 27       	eor	r24, r24
    1b12:	77 fd       	sbrc	r23, 7
    1b14:	80 95       	com	r24
    1b16:	98 2f       	mov	r25, r24
    1b18:	44 ef       	ldi	r20, 0xF4	; 244
    1b1a:	26 e4       	ldi	r18, 0x46	; 70
    1b1c:	03 e0       	ldi	r16, 0x03	; 3
    1b1e:	0e 94 67 09 	call	0x12ce	; 0x12ce <DisplayValue>
    1b22:	8e 01       	movw	r16, r28
    1b24:	0f 5f       	subi	r16, 0xFF	; 255
    1b26:	1f 4f       	sbci	r17, 0xFF	; 255
void AutoCheck(void) {
    1b28:	ce 01       	movw	r24, r28
    1b2a:	0f 96       	adiw	r24, 0x0f	; 15
    1b2c:	f8 01       	movw	r30, r16
  lcd_string(itoa(adcmv[6], outval, 10));	//output cap0 2:3
  lcd_space();
  DisplayValue(adcmv[2],-12,'F',3);		//output cap0 1:2
 #ifdef AUTO_CAL
  for (ww=0;ww<7;ww++) {
      if (adcmv[ww] > 70) goto no_c0save;
    1b2e:	21 91       	ld	r18, Z+
    1b30:	31 91       	ld	r19, Z+
    1b32:	27 34       	cpi	r18, 0x47	; 71
    1b34:	31 05       	cpc	r19, r1
    1b36:	b4 f4       	brge	.+44     	; 0x1b64 <AutoCheck+0x69e>
  lcd_space();
  lcd_string(itoa(adcmv[6], outval, 10));	//output cap0 2:3
  lcd_space();
  DisplayValue(adcmv[2],-12,'F',3);		//output cap0 1:2
 #ifdef AUTO_CAL
  for (ww=0;ww<7;ww++) {
    1b38:	e8 17       	cp	r30, r24
    1b3a:	f9 07       	cpc	r31, r25
    1b3c:	c1 f7       	brne	.-16     	; 0x1b2e <AutoCheck+0x668>
    1b3e:	ee 24       	eor	r14, r14
    1b40:	ff 24       	eor	r15, r15
      if (adcmv[ww] > 70) goto no_c0save;
  }
  for (ww=0;ww<7;ww++) {
      // write all zero offsets to the EEprom 
      (void) eeprom_write_byte((uint8_t *)(&c_zero_tab[ww]),adcmv[ww]+(COMP_SLEW1 / (CC0 + CABLE_CAP + COMP_SLEW2)));
    1b42:	f8 01       	movw	r30, r16
    1b44:	60 81       	ld	r22, Z
    1b46:	0e 5f       	subi	r16, 0xFE	; 254
    1b48:	1f 4f       	sbci	r17, 0xFF	; 255
    1b4a:	61 5f       	subi	r22, 0xF1	; 241
    1b4c:	c7 01       	movw	r24, r14
    1b4e:	83 54       	subi	r24, 0x43	; 67
    1b50:	9e 4f       	sbci	r25, 0xFE	; 254
    1b52:	0e 94 aa 1c 	call	0x3954	; 0x3954 <__eewr_byte_m168>
    1b56:	08 94       	sec
    1b58:	e1 1c       	adc	r14, r1
    1b5a:	f1 1c       	adc	r15, r1
  DisplayValue(adcmv[2],-12,'F',3);		//output cap0 1:2
 #ifdef AUTO_CAL
  for (ww=0;ww<7;ww++) {
      if (adcmv[ww] > 70) goto no_c0save;
  }
  for (ww=0;ww<7;ww++) {
    1b5c:	f7 e0       	ldi	r31, 0x07	; 7
    1b5e:	ef 16       	cp	r14, r31
    1b60:	f1 04       	cpc	r15, r1
    1b62:	79 f7       	brne	.-34     	; 0x1b42 <AutoCheck+0x67c>
      // write all zero offsets to the EEprom 
      (void) eeprom_write_byte((uint8_t *)(&c_zero_tab[ww]),adcmv[ww]+(COMP_SLEW1 / (CC0 + CABLE_CAP + COMP_SLEW2)));
  }
no_c0save:
 #endif
 wait2s();		//wait 2 seconds
    1b64:	0e 94 6e 14 	call	0x28dc	; 0x28dc <wait2s>
    1b68:	10 e4       	ldi	r17, 0x40	; 64
    1b6a:	c1 2e       	mov	r12, r17
 
 #ifdef AUTO_CAL
 // Message C > 100nF
 cap_found = 0;
    1b6c:	10 e0       	ldi	r17, 0x00	; 0
     PartFound = PART_NONE;
     //measure  offset Voltage of analog Comparator for Capacity measurement
     ReadCapacity(TP3, TP1);	// look for capacitor > 100nF
     while (cpre < -9) {
        cpre++;
        cap.cval /= 10;
    1b6e:	ba e0       	ldi	r27, 0x0A	; 10
    1b70:	8b 2e       	mov	r8, r27
    1b72:	91 2c       	mov	r9, r1
    1b74:	a1 2c       	mov	r10, r1
    1b76:	b1 2c       	mov	r11, r1
     lcd_data('3');
     lcd_fix_string(MinCap);	// " >100nF!"
     PartFound = PART_NONE;
     //measure  offset Voltage of analog Comparator for Capacity measurement
     ReadCapacity(TP3, TP1);	// look for capacitor > 100nF
     while (cpre < -9) {
    1b78:	ab e5       	ldi	r26, 0x5B	; 91
    1b7a:	ea 2e       	mov	r14, r26
    1b7c:	a1 e0       	ldi	r26, 0x01	; 1
    1b7e:	fa 2e       	mov	r15, r26
 
 #ifdef AUTO_CAL
 // Message C > 100nF
 cap_found = 0;
 for (ww=0;ww<64;ww++) {
     lcd_clear();
    1b80:	0e 94 1a 01 	call	0x234	; 0x234 <lcd_clear>
     lcd_data('1');
    1b84:	81 e3       	ldi	r24, 0x31	; 49
    1b86:	0e 94 d0 00 	call	0x1a0	; 0x1a0 <lcd_data>
     lcd_fix_string(CapZeich);	// "-||-"
    1b8a:	87 e2       	ldi	r24, 0x27	; 39
    1b8c:	91 e0       	ldi	r25, 0x01	; 1
    1b8e:	0e 94 71 01 	call	0x2e2	; 0x2e2 <lcd_fix_string>
     lcd_data('3');
    1b92:	83 e3       	ldi	r24, 0x33	; 51
    1b94:	0e 94 d0 00 	call	0x1a0	; 0x1a0 <lcd_data>
     lcd_fix_string(MinCap);	// " >100nF!"
    1b98:	8b e6       	ldi	r24, 0x6B	; 107
    1b9a:	91 e0       	ldi	r25, 0x01	; 1
    1b9c:	0e 94 71 01 	call	0x2e2	; 0x2e2 <lcd_fix_string>
     PartFound = PART_NONE;
    1ba0:	10 92 09 01 	sts	0x0109, r1
     //measure  offset Voltage of analog Comparator for Capacity measurement
     ReadCapacity(TP3, TP1);	// look for capacitor > 100nF
    1ba4:	82 e0       	ldi	r24, 0x02	; 2
    1ba6:	60 e0       	ldi	r22, 0x00	; 0
    1ba8:	0e 94 24 15 	call	0x2a48	; 0x2a48 <ReadCapacity>
    1bac:	20 91 5b 01 	lds	r18, 0x015B
    1bb0:	30 91 5c 01 	lds	r19, 0x015C
    1bb4:	40 91 5d 01 	lds	r20, 0x015D
    1bb8:	50 91 5e 01 	lds	r21, 0x015E
    1bbc:	00 91 48 01 	lds	r16, 0x0148
     while (cpre < -9) {
    1bc0:	07 c0       	rjmp	.+14     	; 0x1bd0 <AutoCheck+0x70a>
        cpre++;
        cap.cval /= 10;
    1bc2:	ca 01       	movw	r24, r20
    1bc4:	b9 01       	movw	r22, r18
    1bc6:	a5 01       	movw	r20, r10
    1bc8:	94 01       	movw	r18, r8
    1bca:	0e 94 28 1c 	call	0x3850	; 0x3850 <__udivmodsi4>
    1bce:	0f 5f       	subi	r16, 0xFF	; 255
     lcd_data('3');
     lcd_fix_string(MinCap);	// " >100nF!"
     PartFound = PART_NONE;
     //measure  offset Voltage of analog Comparator for Capacity measurement
     ReadCapacity(TP3, TP1);	// look for capacitor > 100nF
     while (cpre < -9) {
    1bd0:	07 3f       	cpi	r16, 0xF7	; 247
    1bd2:	bc f3       	brlt	.-18     	; 0x1bc2 <AutoCheck+0x6fc>
    1bd4:	00 93 48 01 	sts	0x0148, r16
    1bd8:	20 93 5b 01 	sts	0x015B, r18
    1bdc:	f7 01       	movw	r30, r14
    1bde:	31 83       	std	Z+1, r19	; 0x01
    1be0:	42 83       	std	Z+2, r20	; 0x02
    1be2:	53 83       	std	Z+3, r21	; 0x03
        cpre++;
        cap.cval /= 10;
     }
     if ((cpre == -9) && (cap.cval > 95) && (cap.cval < 3000)) {
    1be4:	07 3f       	cpi	r16, 0xF7	; 247
    1be6:	09 f0       	breq	.+2      	; 0x1bea <AutoCheck+0x724>
    1be8:	b7 c0       	rjmp	.+366    	; 0x1d58 <AutoCheck+0x892>
    1bea:	20 36       	cpi	r18, 0x60	; 96
    1bec:	31 05       	cpc	r19, r1
    1bee:	41 05       	cpc	r20, r1
    1bf0:	51 05       	cpc	r21, r1
    1bf2:	08 f4       	brcc	.+2      	; 0x1bf6 <AutoCheck+0x730>
    1bf4:	b1 c0       	rjmp	.+354    	; 0x1d58 <AutoCheck+0x892>
    1bf6:	28 3b       	cpi	r18, 0xB8	; 184
    1bf8:	fb e0       	ldi	r31, 0x0B	; 11
    1bfa:	3f 07       	cpc	r19, r31
    1bfc:	f0 e0       	ldi	r31, 0x00	; 0
    1bfe:	4f 07       	cpc	r20, r31
    1c00:	f0 e0       	ldi	r31, 0x00	; 0
    1c02:	5f 07       	cpc	r21, r31
    1c04:	08 f0       	brcs	.+2      	; 0x1c08 <AutoCheck+0x742>
    1c06:	a8 c0       	rjmp	.+336    	; 0x1d58 <AutoCheck+0x892>
        cap_found++;
    1c08:	1f 5f       	subi	r17, 0xFF	; 255
     } else {
        cap_found = 0;		// wait for stable connection
     }
     if (cap_found > 1) {
    1c0a:	12 30       	cpi	r17, 0x02	; 2
    1c0c:	09 f0       	breq	.+2      	; 0x1c10 <AutoCheck+0x74a>
    1c0e:	a5 c0       	rjmp	.+330    	; 0x1d5a <AutoCheck+0x894>
        // value of capacitor is correct
        (void) eeprom_write_word((uint16_t *)(&ref_offset), load_diff);	// hold zero offset + slew rate dependend offset
    1c10:	60 91 67 01 	lds	r22, 0x0167
    1c14:	70 91 68 01 	lds	r23, 0x0168
    1c18:	8b eb       	ldi	r24, 0xBB	; 187
    1c1a:	91 e0       	ldi	r25, 0x01	; 1
    1c1c:	0e 94 b8 1c 	call	0x3970	; 0x3970 <__eewr_word_m168>
        lcd_clear();
    1c20:	0e 94 1a 01 	call	0x234	; 0x234 <lcd_clear>
        lcd_fix_string(REF_Cstr);	// "REF_C="
    1c24:	83 e7       	ldi	r24, 0x73	; 115
    1c26:	91 e0       	ldi	r25, 0x01	; 1
    1c28:	0e 94 71 01 	call	0x2e2	; 0x2e2 <lcd_fix_string>
        lcd_string(itoa(load_diff, outval, 10));	//output REF_C_KORR
    1c2c:	80 91 67 01 	lds	r24, 0x0167
    1c30:	90 91 68 01 	lds	r25, 0x0168
    1c34:	6e e0       	ldi	r22, 0x0E	; 14
    1c36:	71 e0       	ldi	r23, 0x01	; 1
    1c38:	4a e0       	ldi	r20, 0x0A	; 10
    1c3a:	50 e0       	ldi	r21, 0x00	; 0
    1c3c:	0e 94 65 1c 	call	0x38ca	; 0x38ca <itoa>
    1c40:	0e 94 4d 01 	call	0x29a	; 0x29a <lcd_string>
  #ifdef AUTOSCALE_ADC
        ADC_PORT =  TXD_VAL;	//ADC-Port 1 to GND
    1c44:	88 e0       	ldi	r24, 0x08	; 8
    1c46:	88 b9       	out	0x08, r24	; 8
        ADC_DDR = 1<<TP1 | TXD_MSK;	//ADC-Pin  1 to output 0V
    1c48:	89 e0       	ldi	r24, 0x09	; 9
    1c4a:	87 b9       	out	0x07, r24	; 7
        R_DDR = 2<<(TP3*2);		//Pin 3 over R_H to GND
    1c4c:	80 e2       	ldi	r24, 0x20	; 32
    1c4e:	84 b9       	out	0x04, r24	; 4
        do {
           adcmv[0] = ReadADC(TP3);
    1c50:	82 e0       	ldi	r24, 0x02	; 2
    1c52:	0e 94 b8 19 	call	0x3370	; 0x3370 <ReadADC>
        } while (adcmv[0] > 980);
    1c56:	23 e0       	ldi	r18, 0x03	; 3
    1c58:	85 3d       	cpi	r24, 0xD5	; 213
    1c5a:	92 07       	cpc	r25, r18
    1c5c:	cc f7       	brge	.-14     	; 0x1c50 <AutoCheck+0x78a>
        R_DDR = 0;		//all Pins to input 
    1c5e:	14 b8       	out	0x04, r1	; 4
        ADCconfig.U_Bandgap = 0;	// do not use internal Ref
    1c60:	10 92 3e 01 	sts	0x013E, r1
    1c64:	10 92 3d 01 	sts	0x013D, r1
        adcmv[0] = ReadADC(TP3);  // get cap voltage with VCC reference
    1c68:	82 e0       	ldi	r24, 0x02	; 2
    1c6a:	0e 94 b8 19 	call	0x3370	; 0x3370 <ReadADC>
    1c6e:	4c 01       	movw	r8, r24
        ADCconfig.U_Bandgap = ADC_internal_reference;
    1c70:	83 eb       	ldi	r24, 0xB3	; 179
    1c72:	91 e0       	ldi	r25, 0x01	; 1
    1c74:	0e 94 9c 1c 	call	0x3938	; 0x3938 <__eerd_byte_m168>
    1c78:	99 27       	eor	r25, r25
    1c7a:	87 fd       	sbrc	r24, 7
    1c7c:	90 95       	com	r25
    1c7e:	20 91 41 01 	lds	r18, 0x0141
    1c82:	30 91 42 01 	lds	r19, 0x0142
    1c86:	82 0f       	add	r24, r18
    1c88:	93 1f       	adc	r25, r19
    1c8a:	90 93 3e 01 	sts	0x013E, r25
    1c8e:	80 93 3d 01 	sts	0x013D, r24
        adcmv[1] = ReadADC(TP3);	// get cap voltage with internal reference
    1c92:	82 e0       	ldi	r24, 0x02	; 2
    1c94:	0e 94 b8 19 	call	0x3370	; 0x3370 <ReadADC>
    1c98:	8c 01       	movw	r16, r24
        ADCconfig.U_Bandgap = 0;	// do not use internal Ref
    1c9a:	10 92 3e 01 	sts	0x013E, r1
    1c9e:	10 92 3d 01 	sts	0x013D, r1
        adcmv[2] = ReadADC(TP3);  // get cap voltage with VCC reference
    1ca2:	82 e0       	ldi	r24, 0x02	; 2
    1ca4:	0e 94 b8 19 	call	0x3370	; 0x3370 <ReadADC>
    1ca8:	5c 01       	movw	r10, r24
        ADCconfig.U_Bandgap = ADC_internal_reference;
    1caa:	c0 90 41 01 	lds	r12, 0x0141
    1cae:	d0 90 42 01 	lds	r13, 0x0142
    1cb2:	83 eb       	ldi	r24, 0xB3	; 179
    1cb4:	91 e0       	ldi	r25, 0x01	; 1
    1cb6:	0e 94 9c 1c 	call	0x3938	; 0x3938 <__eerd_byte_m168>
    1cba:	99 27       	eor	r25, r25
    1cbc:	87 fd       	sbrc	r24, 7
    1cbe:	90 95       	com	r25
    1cc0:	8c 0d       	add	r24, r12
    1cc2:	9d 1d       	adc	r25, r13
    1cc4:	90 93 3e 01 	sts	0x013E, r25
    1cc8:	80 93 3d 01 	sts	0x013D, r24
        udiff = (int8_t)(((signed long)(adcmv[0] + adcmv[2] - adcmv[1] - adcmv[1])) * ADC_internal_reference / (2*adcmv[1]))+REF_R_KORR;
    1ccc:	83 eb       	ldi	r24, 0xB3	; 179
    1cce:	91 e0       	ldi	r25, 0x01	; 1
    1cd0:	0e 94 9c 1c 	call	0x3938	; 0x3938 <__eerd_byte_m168>
    1cd4:	68 2e       	mov	r6, r24
        lcd_line2();
    1cd6:	80 ec       	ldi	r24, 0xC0	; 192
    1cd8:	0e 94 0d 01 	call	0x21a	; 0x21a <lcd_command>
        lcd_fix_string(REF_Rstr);	// "REF_R="
    1cdc:	8a e7       	ldi	r24, 0x7A	; 122
    1cde:	91 e0       	ldi	r25, 0x01	; 1
    1ce0:	0e 94 71 01 	call	0x2e2	; 0x2e2 <lcd_fix_string>
        udiff2 = udiff + (int8_t)eeprom_read_byte((uint8_t *)(&RefDiff));
    1ce4:	83 eb       	ldi	r24, 0xB3	; 179
    1ce6:	91 e0       	ldi	r25, 0x01	; 1
    1ce8:	0e 94 9c 1c 	call	0x3938	; 0x3938 <__eerd_byte_m168>
        ADCconfig.U_Bandgap = ADC_internal_reference;
        adcmv[1] = ReadADC(TP3);	// get cap voltage with internal reference
        ADCconfig.U_Bandgap = 0;	// do not use internal Ref
        adcmv[2] = ReadADC(TP3);  // get cap voltage with VCC reference
        ADCconfig.U_Bandgap = ADC_internal_reference;
        udiff = (int8_t)(((signed long)(adcmv[0] + adcmv[2] - adcmv[1] - adcmv[1])) * ADC_internal_reference / (2*adcmv[1]))+REF_R_KORR;
    1cec:	f3 e0       	ldi	r31, 0x03	; 3
    1cee:	ef 2e       	mov	r14, r31
    1cf0:	e8 0e       	add	r14, r24
    1cf2:	a8 0c       	add	r10, r8
    1cf4:	b9 1c       	adc	r11, r9
    1cf6:	a0 1a       	sub	r10, r16
    1cf8:	b1 0a       	sbc	r11, r17
    1cfa:	a0 1a       	sub	r10, r16
    1cfc:	b1 0a       	sbc	r11, r17
    1cfe:	b5 01       	movw	r22, r10
    1d00:	88 27       	eor	r24, r24
    1d02:	77 fd       	sbrc	r23, 7
    1d04:	80 95       	com	r24
    1d06:	98 2f       	mov	r25, r24
    1d08:	26 2d       	mov	r18, r6
    1d0a:	33 27       	eor	r19, r19
    1d0c:	27 fd       	sbrc	r18, 7
    1d0e:	30 95       	com	r19
    1d10:	2c 0d       	add	r18, r12
    1d12:	3d 1d       	adc	r19, r13
    1d14:	40 e0       	ldi	r20, 0x00	; 0
    1d16:	50 e0       	ldi	r21, 0x00	; 0
    1d18:	0e 94 e9 1b 	call	0x37d2	; 0x37d2 <__mulsi3>
    1d1c:	00 0f       	add	r16, r16
    1d1e:	11 1f       	adc	r17, r17
    1d20:	98 01       	movw	r18, r16
    1d22:	44 27       	eor	r20, r20
    1d24:	37 fd       	sbrc	r19, 7
    1d26:	40 95       	com	r20
    1d28:	54 2f       	mov	r21, r20
    1d2a:	0e 94 4a 1c 	call	0x3894	; 0x3894 <__divmodsi4>
        lcd_line2();
        lcd_fix_string(REF_Rstr);	// "REF_R="
        udiff2 = udiff + (int8_t)eeprom_read_byte((uint8_t *)(&RefDiff));
    1d2e:	e2 0e       	add	r14, r18
        (void) eeprom_write_byte((uint8_t *)(&RefDiff), (uint8_t)udiff2);	// hold offset for true reference Voltage
    1d30:	83 eb       	ldi	r24, 0xB3	; 179
    1d32:	91 e0       	ldi	r25, 0x01	; 1
    1d34:	6e 2d       	mov	r22, r14
    1d36:	0e 94 aa 1c 	call	0x3954	; 0x3954 <__eewr_byte_m168>
        lcd_string(itoa(udiff2, outval, 10));	//output correction voltage
    1d3a:	8e 2d       	mov	r24, r14
    1d3c:	99 27       	eor	r25, r25
    1d3e:	87 fd       	sbrc	r24, 7
    1d40:	90 95       	com	r25
    1d42:	6e e0       	ldi	r22, 0x0E	; 14
    1d44:	71 e0       	ldi	r23, 0x01	; 1
    1d46:	4a e0       	ldi	r20, 0x0A	; 10
    1d48:	50 e0       	ldi	r21, 0x00	; 0
    1d4a:	0e 94 65 1c 	call	0x38ca	; 0x38ca <itoa>
    1d4e:	0e 94 4d 01 	call	0x29a	; 0x29a <lcd_string>
  #endif
        wait4s();
    1d52:	0e 94 6c 14 	call	0x28d8	; 0x28d8 <wait4s>
        break;
    1d56:	17 c0       	rjmp	.+46     	; 0x1d86 <AutoCheck+0x8c0>
     ReadCapacity(TP3, TP1);	// look for capacitor > 100nF
     while (cpre < -9) {
        cpre++;
        cap.cval /= 10;
     }
     if ((cpre == -9) && (cap.cval > 95) && (cap.cval < 3000)) {
    1d58:	10 e0       	ldi	r17, 0x00	; 0
        lcd_string(itoa(udiff2, outval, 10));	//output correction voltage
  #endif
        wait4s();
        break;
     }
     lcd_line2();
    1d5a:	80 ec       	ldi	r24, 0xC0	; 192
    1d5c:	0e 94 0d 01 	call	0x21a	; 0x21a <lcd_command>
     DisplayValue(cap.cval,cpre,'F',4);
    1d60:	60 91 5b 01 	lds	r22, 0x015B
    1d64:	70 91 5c 01 	lds	r23, 0x015C
    1d68:	80 91 5d 01 	lds	r24, 0x015D
    1d6c:	90 91 5e 01 	lds	r25, 0x015E
    1d70:	40 91 48 01 	lds	r20, 0x0148
    1d74:	26 e4       	ldi	r18, 0x46	; 70
    1d76:	04 e0       	ldi	r16, 0x04	; 4
    1d78:	0e 94 67 09 	call	0x12ce	; 0x12ce <DisplayValue>
     wait200ms();			// wait additional time
    1d7c:	0e 94 73 14 	call	0x28e6	; 0x28e6 <wait200ms>
    1d80:	ca 94       	dec	r12
 wait2s();		//wait 2 seconds
 
 #ifdef AUTO_CAL
 // Message C > 100nF
 cap_found = 0;
 for (ww=0;ww<64;ww++) {
    1d82:	09 f0       	breq	.+2      	; 0x1d86 <AutoCheck+0x8c0>
    1d84:	fd ce       	rjmp	.-518    	; 0x1b80 <AutoCheck+0x6ba>
  }

 #endif
#endif

  ADCconfig.Samples = ANZ_MESS;	// set to configured number of ADC samples
    1d86:	89 e1       	ldi	r24, 0x19	; 25
    1d88:	80 93 3b 01 	sts	0x013B, r24
  lcd_clear();
    1d8c:	0e 94 1a 01 	call	0x234	; 0x234 <lcd_clear>
//  lcd_line1();
  lcd_line2();
    1d90:	80 ec       	ldi	r24, 0xC0	; 192
    1d92:	0e 94 0d 01 	call	0x21a	; 0x21a <lcd_command>
  lcd_fix_string(VERSION);	//"Version ..."
    1d96:	89 e4       	ldi	r24, 0x49	; 73
    1d98:	91 e0       	ldi	r25, 0x01	; 1
    1d9a:	0e 94 71 01 	call	0x2e2	; 0x2e2 <lcd_fix_string>
  lcd_line1();
    1d9e:	80 e8       	ldi	r24, 0x80	; 128
    1da0:	0e 94 0d 01 	call	0x21a	; 0x21a <lcd_command>
  lcd_fix_string(ATE);		//"Selftest End"
    1da4:	8c ed       	ldi	r24, 0xDC	; 220
    1da6:	90 e0       	ldi	r25, 0x00	; 0
    1da8:	0e 94 71 01 	call	0x2e2	; 0x2e2 <lcd_fix_string>
#ifdef FREQUENCY_50HZ
  lcd_fix_string(T50HZ);	//" 50Hz"
    1dac:	85 e6       	ldi	r24, 0x65	; 101
    1dae:	91 e0       	ldi	r25, 0x01	; 1
    1db0:	0e 94 71 01 	call	0x2e2	; 0x2e2 <lcd_fix_string>
  ADC_PORT = TXD_VAL;
    1db4:	88 e0       	ldi	r24, 0x08	; 8
    1db6:	88 b9       	out	0x08, r24	; 8
  ADC_DDR = 1<<TP1 | TXD_MSK;	// Pin 1 to GND
    1db8:	89 e0       	ldi	r24, 0x09	; 9
    1dba:	87 b9       	out	0x07, r24	; 7
  R_DDR = (1<<(TP3*2)) | (1<<(TP2*2));
    1dbc:	84 e1       	ldi	r24, 0x14	; 20
    1dbe:	84 b9       	out	0x04, r24	; 4
  for(ww=0;ww<30;ww++) {	// repeat the signal up to 30 times (1 minute)
    1dc0:	10 e0       	ldi	r17, 0x00	; 0
     for (ii=0;ii<100;ii++) {	// for 2 s generate 50 Hz
         R_PORT = (1<<(TP2*2));	// Pin 2 over R_L to VCC, Pin 3 over R_L to GND
    1dc2:	64 e0       	ldi	r22, 0x04	; 4
    1dc4:	e6 2e       	mov	r14, r22
         wait10ms();
         R_PORT = (1<<(TP3*2));	// Pin 3 over R_L to VCC, Pin 2 over R_L to GND
    1dc6:	00 e1       	ldi	r16, 0x10	; 16
  lcd_fix_string(T50HZ);	//" 50Hz"
  ADC_PORT = TXD_VAL;
  ADC_DDR = 1<<TP1 | TXD_MSK;	// Pin 1 to GND
  R_DDR = (1<<(TP3*2)) | (1<<(TP2*2));
  for(ww=0;ww<30;ww++) {	// repeat the signal up to 30 times (1 minute)
     for (ii=0;ii<100;ii++) {	// for 2 s generate 50 Hz
    1dc8:	10 92 46 01 	sts	0x0146, r1
    1dcc:	0c c0       	rjmp	.+24     	; 0x1de6 <AutoCheck+0x920>
         R_PORT = (1<<(TP2*2));	// Pin 2 over R_L to VCC, Pin 3 over R_L to GND
    1dce:	e5 b8       	out	0x05, r14	; 5
         wait10ms();
    1dd0:	0e 94 7a 14 	call	0x28f4	; 0x28f4 <wait10ms>
         R_PORT = (1<<(TP3*2));	// Pin 3 over R_L to VCC, Pin 2 over R_L to GND
    1dd4:	05 b9       	out	0x05, r16	; 5
         wait10ms();
    1dd6:	0e 94 7a 14 	call	0x28f4	; 0x28f4 <wait10ms>
         wdt_reset();
    1dda:	a8 95       	wdr
  lcd_fix_string(T50HZ);	//" 50Hz"
  ADC_PORT = TXD_VAL;
  ADC_DDR = 1<<TP1 | TXD_MSK;	// Pin 1 to GND
  R_DDR = (1<<(TP3*2)) | (1<<(TP2*2));
  for(ww=0;ww<30;ww++) {	// repeat the signal up to 30 times (1 minute)
     for (ii=0;ii<100;ii++) {	// for 2 s generate 50 Hz
    1ddc:	80 91 46 01 	lds	r24, 0x0146
    1de0:	8f 5f       	subi	r24, 0xFF	; 255
    1de2:	80 93 46 01 	sts	0x0146, r24
    1de6:	80 91 46 01 	lds	r24, 0x0146
    1dea:	84 36       	cpi	r24, 0x64	; 100
    1dec:	80 f3       	brcs	.-32     	; 0x1dce <AutoCheck+0x908>
         wait10ms();
         R_PORT = (1<<(TP3*2));	// Pin 3 over R_L to VCC, Pin 2 over R_L to GND
         wait10ms();
         wdt_reset();
     }
     if (!(ON_PIN_REG & (1<<RST_PIN))) {
    1dee:	4f 9b       	sbis	0x09, 7	; 9
    1df0:	03 c0       	rjmp	.+6      	; 0x1df8 <AutoCheck+0x932>
#ifdef FREQUENCY_50HZ
  lcd_fix_string(T50HZ);	//" 50Hz"
  ADC_PORT = TXD_VAL;
  ADC_DDR = 1<<TP1 | TXD_MSK;	// Pin 1 to GND
  R_DDR = (1<<(TP3*2)) | (1<<(TP2*2));
  for(ww=0;ww<30;ww++) {	// repeat the signal up to 30 times (1 minute)
    1df2:	1f 5f       	subi	r17, 0xFF	; 255
    1df4:	1e 31       	cpi	r17, 0x1E	; 30
    1df6:	41 f7       	brne	.-48     	; 0x1dc8 <AutoCheck+0x902>
        // if key is pressed, don't repeat
        break;
     }
  }
#endif
 PartFound = PART_NONE;
    1df8:	10 92 09 01 	sts	0x0109, r1
 wait1s();			//wait 1 seconds
    1dfc:	0e 94 6f 14 	call	0x28de	; 0x28de <wait1000ms>
 } 
    1e00:	2e 96       	adiw	r28, 0x0e	; 14
    1e02:	0f b6       	in	r0, 0x3f	; 63
    1e04:	f8 94       	cli
    1e06:	de bf       	out	0x3e, r29	; 62
    1e08:	0f be       	out	0x3f, r0	; 63
    1e0a:	cd bf       	out	0x3d, r28	; 61
    1e0c:	cf 91       	pop	r28
    1e0e:	df 91       	pop	r29
    1e10:	1f 91       	pop	r17
    1e12:	0f 91       	pop	r16
    1e14:	ff 90       	pop	r15
    1e16:	ef 90       	pop	r14
    1e18:	df 90       	pop	r13
    1e1a:	cf 90       	pop	r12
    1e1c:	bf 90       	pop	r11
    1e1e:	af 90       	pop	r10
    1e20:	9f 90       	pop	r9
    1e22:	8f 90       	pop	r8
    1e24:	7f 90       	pop	r7
    1e26:	6f 90       	pop	r6
    1e28:	5f 90       	pop	r5
    1e2a:	4f 90       	pop	r4
    1e2c:	3f 90       	pop	r3
    1e2e:	2f 90       	pop	r2
    1e30:	08 95       	ret

00001e32 <main>:

#define MAIN_C
#include "Transistortester.h"

//begin of transistortester program
int main(void) {
    1e32:	0f 93       	push	r16
    1e34:	1f 93       	push	r17
    1e36:	cf 93       	push	r28
    1e38:	df 93       	push	r29
  //switch on
  ON_DDR = (1<<ON_PIN);
    1e3a:	80 e4       	ldi	r24, 0x40	; 64
    1e3c:	8a b9       	out	0x0a, r24	; 10
  ON_PORT = (1<<ON_PIN) | (1<<RST_PIN);	//power on and Pullup for the Reset-Pin
    1e3e:	80 ec       	ldi	r24, 0xC0	; 192
    1e40:	8b b9       	out	0x0b, r24	; 11
  uint8_t tmp;
  //ADC-Init
  ADCSRA = (1<<ADEN) | AUTO_CLOCK_DIV;	//prescaler=8 or 64 (if 8Mhz clock)
    1e42:	86 e8       	ldi	r24, 0x86	; 134
    1e44:	80 93 7a 00 	sts	0x007A, r24
// #define WDRF_HOME MCU_STATUS_REG
 #define WDRF_HOME MCUCSR
#else
 #define WDRF_HOME MCUSR
#endif
  tmp = (WDRF_HOME & (1<<WDRF));	// save Watch Dog Flag
    1e48:	14 b7       	in	r17, 0x34	; 52
  WDRF_HOME &= ~(1<<WDRF);	 	//reset Watch Dog flag
    1e4a:	84 b7       	in	r24, 0x34	; 52
    1e4c:	87 7f       	andi	r24, 0xF7	; 247
    1e4e:	84 bf       	out	0x34, r24	; 52
  wdt_disable();			// disable Watch Dog
    1e50:	88 e1       	ldi	r24, 0x18	; 24
    1e52:	0f b6       	in	r0, 0x3f	; 63
    1e54:	f8 94       	cli
    1e56:	80 93 60 00 	sts	0x0060, r24
    1e5a:	10 92 60 00 	sts	0x0060, r1
    1e5e:	0f be       	out	0x3f, r0	; 63
  lcd_init();				//initialize LCD
    1e60:	0e 94 22 01 	call	0x244	; 0x244 <lcd_init>
	
//  ADC_PORT = TXD_VAL;
//  ADC_DDR = TXD_MSK;
  if(tmp) { 
    1e64:	13 ff       	sbrs	r17, 3
    1e66:	0a c0       	rjmp	.+20     	; 0x1e7c <main+0x4a>
     // check if  Watchdog-Event 
     // this happens, if the Watchdog is not reset for 2s
     // can happen, if any loop in the Program doen't finish.
     lcd_line1();
    1e68:	80 e8       	ldi	r24, 0x80	; 128
    1e6a:	0e 94 0d 01 	call	0x21a	; 0x21a <lcd_command>
     lcd_fix_string(TestTimedOut);	//Output Timeout
    1e6e:	83 ed       	ldi	r24, 0xD3	; 211
    1e70:	90 e0       	ldi	r25, 0x00	; 0
    1e72:	0e 94 71 01 	call	0x2e2	; 0x2e2 <lcd_fix_string>
     wait3s();				//wait for 3 s
    1e76:	0e 94 6d 14 	call	0x28da	; 0x28da <wait3s>
    1e7a:	f0 c0       	rjmp	.+480    	; 0x205c <main+0x22a>
     ON_PORT = 0;			//shut off!
     return 0;
  }
  LCDLoadCustomChar(LCD_CHAR_DIODE1);	//Custom-Character Diode symbol
    1e7c:	88 e4       	ldi	r24, 0x48	; 72
    1e7e:	0e 94 0d 01 	call	0x21a	; 0x21a <lcd_command>
  lcd_fix_customchar(DiodeIcon1);	//load Character  >|
    1e82:	81 e8       	ldi	r24, 0x81	; 129
    1e84:	91 e0       	ldi	r25, 0x01	; 1
    1e86:	0e 94 82 01 	call	0x304	; 0x304 <lcd_fix_customchar>
  LCDLoadCustomChar(LCD_CHAR_DIODE2);	//Custom-Character 
    1e8a:	80 e5       	ldi	r24, 0x50	; 80
    1e8c:	0e 94 0d 01 	call	0x21a	; 0x21a <lcd_command>
  lcd_fix_customchar(DiodeIcon2);	//load Character  |<
    1e90:	89 e8       	ldi	r24, 0x89	; 137
    1e92:	91 e0       	ldi	r25, 0x01	; 1
    1e94:	0e 94 82 01 	call	0x304	; 0x304 <lcd_fix_customchar>
#ifdef C_MESS
  LCDLoadCustomChar(LCD_CHAR_CAP);	//Custom-Character  Capacitor symbol
    1e98:	88 e5       	ldi	r24, 0x58	; 88
    1e9a:	0e 94 0d 01 	call	0x21a	; 0x21a <lcd_command>
  lcd_fix_customchar(CapIcon);		//load Character  ||
    1e9e:	81 e9       	ldi	r24, 0x91	; 145
    1ea0:	91 e0       	ldi	r25, 0x01	; 1
    1ea2:	0e 94 82 01 	call	0x304	; 0x304 <lcd_fix_customchar>
#endif
#ifdef R_MESS
  LCDLoadCustomChar(LCD_CHAR_RESIS1);	//Custom-Character Resistor symbol
    1ea6:	80 e7       	ldi	r24, 0x70	; 112
    1ea8:	0e 94 0d 01 	call	0x21a	; 0x21a <lcd_command>
  lcd_fix_customchar(ResIcon1);		//load Character  [
    1eac:	89 e9       	ldi	r24, 0x99	; 153
    1eae:	91 e0       	ldi	r25, 0x01	; 1
    1eb0:	0e 94 82 01 	call	0x304	; 0x304 <lcd_fix_customchar>
  LCDLoadCustomChar(LCD_CHAR_RESIS2);	//Custom-Character 
    1eb4:	88 e7       	ldi	r24, 0x78	; 120
    1eb6:	0e 94 0d 01 	call	0x21a	; 0x21a <lcd_command>
  lcd_fix_customchar(ResIcon2);		//load Character  ]
    1eba:	81 ea       	ldi	r24, 0xA1	; 161
    1ebc:	91 e0       	ldi	r25, 0x01	; 1
    1ebe:	0e 94 82 01 	call	0x304	; 0x304 <lcd_fix_customchar>
#endif
#ifdef PULLUP_DISABLE
 #ifdef __AVR_ATmega8__
  SFIOR = (1<<PUD);		// disable Pull-Up Resistors mega8
 #else
  MCUCR = (1<<PUD);		// disable Pull-Up Resistors mega168 family
    1ec2:	80 e1       	ldi	r24, 0x10	; 16
    1ec4:	85 bf       	out	0x35, r24	; 53

//  DIDR0 = 0x3f;			//disable all Input register of ADC

#if POWER_OFF+0 > 1
  // tester display time selection
  display_time = OFF_WAIT_TIME;		// LONG_WAIT_TIME for single mode, else SHORT_WAIT_TIME
    1ec6:	88 eb       	ldi	r24, 0xB8	; 184
    1ec8:	9b e0       	ldi	r25, 0x0B	; 11
    1eca:	90 93 03 01 	sts	0x0103, r25
    1ece:	80 93 02 01 	sts	0x0102, r24
  if (!(ON_PIN_REG & (1<<RST_PIN))) {
    1ed2:	4f 99       	sbic	0x09, 7	; 9
    1ed4:	0a c0       	rjmp	.+20     	; 0x1eea <main+0xb8>
     // if power button is pressed ...
     wait300ms();			// wait to catch a long key press
    1ed6:	0e 94 72 14 	call	0x28e4	; 0x28e4 <wait300ms>
     if (!(ON_PIN_REG & (1<<RST_PIN))) {
    1eda:	4f 99       	sbic	0x09, 7	; 9
    1edc:	06 c0       	rjmp	.+12     	; 0x1eea <main+0xb8>
        // check if power button is still pressed
        display_time = LONG_WAIT_TIME;	// ... set long time display anyway
    1ede:	80 e1       	ldi	r24, 0x10	; 16
    1ee0:	97 e2       	ldi	r25, 0x27	; 39
    1ee2:	90 93 03 01 	sts	0x0103, r25
    1ee6:	80 93 02 01 	sts	0x0102, r24
  }
#else
  #define display_time OFF_WAIT_TIME
#endif

  empty_count = 0;
    1eea:	10 92 45 01 	sts	0x0145, r1
  mess_count = 0;
    1eee:	10 92 0d 01 	sts	0x010D, r1


//*****************************************************************
//Entry: if start key is pressed before shut down
start:
  PartFound = PART_NONE;
    1ef2:	10 92 09 01 	sts	0x0109, r1
  NumOfDiodes = 0;
    1ef6:	10 92 07 01 	sts	0x0107, r1
  PartReady = 0;
    1efa:	10 92 06 01 	sts	0x0106, r1
  PartMode = 0;
    1efe:	10 92 08 01 	sts	0x0108, r1
  WithReference = 0;		// no precision reference voltage
    1f02:	10 92 44 01 	sts	0x0144, r1
  lcd_clear();
    1f06:	0e 94 1a 01 	call	0x234	; 0x234 <lcd_clear>
  ADC_DDR = TXD_MSK;		//activate Software-UART 
    1f0a:	18 e0       	ldi	r17, 0x08	; 8
    1f0c:	17 b9       	out	0x07, r17	; 7
#ifdef AUTO_CAL
  resis680pl = eeprom_read_word(&R680pl);
    1f0e:	8f ea       	ldi	r24, 0xAF	; 175
    1f10:	91 e0       	ldi	r25, 0x01	; 1
    1f12:	0e 94 a4 1c 	call	0x3948	; 0x3948 <__eerd_word_m168>
    1f16:	90 93 0b 01 	sts	0x010B, r25
    1f1a:	80 93 0a 01 	sts	0x010A, r24
  resis680mi = eeprom_read_word(&R680mi);
    1f1e:	81 eb       	ldi	r24, 0xB1	; 177
    1f20:	91 e0       	ldi	r25, 0x01	; 1
    1f22:	0e 94 a4 1c 	call	0x3948	; 0x3948 <__eerd_word_m168>
    1f26:	90 93 05 01 	sts	0x0105, r25
    1f2a:	80 93 04 01 	sts	0x0104, r24
#endif

#ifdef R_MESS
  ResistorsFound = 0;
    1f2e:	10 92 58 01 	sts	0x0158, r1
#endif
#ifdef C_MESS
  cap.ca = 0;
    1f32:	10 92 65 01 	sts	0x0165, r1
  cap.cb = 0;
    1f36:	10 92 66 01 	sts	0x0166, r1
#endif
#ifdef WITH_UART
  uart_newline();		// start of new measurement
    1f3a:	0e 94 06 01 	call	0x20c	; 0x20c <uart_newline>
#endif
  ADCconfig.RefFlag = 0;
    1f3e:	10 92 3c 01 	sts	0x013C, r1
  ADCconfig.U_AVCC = U_VCC;	// set initial VCC Voltage
    1f42:	88 e8       	ldi	r24, 0x88	; 136
    1f44:	93 e1       	ldi	r25, 0x13	; 19
    1f46:	90 93 40 01 	sts	0x0140, r25
    1f4a:	80 93 3f 01 	sts	0x013F, r24
  ADCconfig.Samples = 190;		// set number of ADC samples near to max
    1f4e:	8e eb       	ldi	r24, 0xBE	; 190
    1f50:	80 93 3b 01 	sts	0x013B, r24
  ADC_PORT = TXD_VAL;
    1f54:	18 b9       	out	0x08, r17	; 8
  ADC_DDR = (1<<TPREF) | TXD_MSK; 	// switch pin with reference to GND
    1f56:	88 e1       	ldi	r24, 0x18	; 24
    1f58:	87 b9       	out	0x07, r24	; 7
  wait1ms();
    1f5a:	0e 94 7f 14 	call	0x28fe	; 0x28fe <wait1ms>
  ADC_DDR =  TXD_MSK; 	// switch pin with reference back to input
    1f5e:	17 b9       	out	0x07, r17	; 7
  trans.uBE[1] = W5msReadADC(TPREF); // read voltage of precision reference
    1f60:	84 e0       	ldi	r24, 0x04	; 4
    1f62:	0e 94 b6 19 	call	0x336c	; 0x336c <W5msReadADC>
    1f66:	ec 01       	movw	r28, r24
    1f68:	90 93 54 01 	sts	0x0154, r25
    1f6c:	80 93 53 01 	sts	0x0153, r24
  if ((trans.uBE[1] > 2250) && (trans.uBE[1] < 2750)) {
    1f70:	8b 5c       	subi	r24, 0xCB	; 203
    1f72:	98 40       	sbci	r25, 0x08	; 8
    1f74:	21 e0       	ldi	r18, 0x01	; 1
    1f76:	83 3f       	cpi	r24, 0xF3	; 243
    1f78:	92 07       	cpc	r25, r18
    1f7a:	c0 f4       	brcc	.+48     	; 0x1fac <main+0x17a>
     // precision voltage reference connected, update U_AVCC
     WithReference = 1;
    1f7c:	81 e0       	ldi	r24, 0x01	; 1
    1f7e:	80 93 44 01 	sts	0x0144, r24
     ADCconfig.U_AVCC = (unsigned long)((unsigned long)ADCconfig.U_AVCC * 2495) / trans.uBE[1];
    1f82:	60 91 3f 01 	lds	r22, 0x013F
    1f86:	70 91 40 01 	lds	r23, 0x0140
    1f8a:	80 e0       	ldi	r24, 0x00	; 0
    1f8c:	90 e0       	ldi	r25, 0x00	; 0
    1f8e:	2f eb       	ldi	r18, 0xBF	; 191
    1f90:	39 e0       	ldi	r19, 0x09	; 9
    1f92:	40 e0       	ldi	r20, 0x00	; 0
    1f94:	50 e0       	ldi	r21, 0x00	; 0
    1f96:	0e 94 e9 1b 	call	0x37d2	; 0x37d2 <__mulsi3>
    1f9a:	9e 01       	movw	r18, r28
    1f9c:	40 e0       	ldi	r20, 0x00	; 0
    1f9e:	50 e0       	ldi	r21, 0x00	; 0
    1fa0:	0e 94 28 1c 	call	0x3850	; 0x3850 <__udivmodsi4>
    1fa4:	30 93 40 01 	sts	0x0140, r19
    1fa8:	20 93 3f 01 	sts	0x013F, r18
  }
  lcd_line1();	//1. row 
    1fac:	80 e8       	ldi	r24, 0x80	; 128
    1fae:	0e 94 0d 01 	call	0x21a	; 0x21a <lcd_command>
  
#ifdef WITH_AUTO_REF
  (void) ReadADC(0x0e);		// read Reference-voltage 
  ref_mv = W20msReadADC(0x0e);	// read Reference-voltage
#else
  ref_mv = DEFAULT_BAND_GAP;	// set to default Reference Voltage
    1fb2:	8e e2       	ldi	r24, 0x2E	; 46
    1fb4:	94 e0       	ldi	r25, 0x04	; 4
    1fb6:	90 93 42 01 	sts	0x0142, r25
    1fba:	80 93 41 01 	sts	0x0141, r24
#endif
  ADCconfig.U_Bandgap = ADC_internal_reference;	// set internal reference voltage for ADC
    1fbe:	83 eb       	ldi	r24, 0xB3	; 179
    1fc0:	91 e0       	ldi	r25, 0x01	; 1
    1fc2:	0e 94 9c 1c 	call	0x3938	; 0x3938 <__eerd_byte_m168>
    1fc6:	99 27       	eor	r25, r25
    1fc8:	87 fd       	sbrc	r24, 7
    1fca:	90 95       	com	r25
    1fcc:	82 5d       	subi	r24, 0xD2	; 210
    1fce:	9b 4f       	sbci	r25, 0xFB	; 251
    1fd0:	90 93 3e 01 	sts	0x013E, r25
    1fd4:	80 93 3d 01 	sts	0x013D, r24
  ADCconfig.Samples = ANZ_MESS;	// set to configured number of ADC samples
    1fd8:	89 e1       	ldi	r24, 0x19	; 25
    1fda:	80 93 3b 01 	sts	0x013B, r24

#ifdef BAT_CHECK
  // Battery check is selected
  ReadADC(TPBAT);	//Dummy-Readout
    1fde:	85 e0       	ldi	r24, 0x05	; 5
    1fe0:	0e 94 b8 19 	call	0x3370	; 0x3370 <ReadADC>
  trans.uBE[0] = W5msReadADC(TPBAT); 	//with 5V reference
    1fe4:	85 e0       	ldi	r24, 0x05	; 5
    1fe6:	0e 94 b6 19 	call	0x336c	; 0x336c <W5msReadADC>
    1fea:	90 93 52 01 	sts	0x0152, r25
    1fee:	80 93 51 01 	sts	0x0151, r24
  lcd_fix_string(Bat);		//output: "Bat. "
    1ff2:	89 ee       	ldi	r24, 0xE9	; 233
    1ff4:	90 e0       	ldi	r25, 0x00	; 0
    1ff6:	0e 94 71 01 	call	0x2e2	; 0x2e2 <lcd_fix_string>
 #ifdef BAT_OUT
  // display Battery voltage
  // The divisor to get the voltage in 0.01V units is ((10*33)/133) witch is about 2.4812
  // A good result can be get with multiply by 4 and divide by 10 (about 0.75%).
  cap.cval = (trans.uBE[0]*4)/10+((BAT_OUT+5)/10); // usually output only 2 digits
    1ffa:	80 91 51 01 	lds	r24, 0x0151
    1ffe:	90 91 52 01 	lds	r25, 0x0152
    2002:	88 0f       	add	r24, r24
    2004:	99 1f       	adc	r25, r25
    2006:	88 0f       	add	r24, r24
    2008:	99 1f       	adc	r25, r25
    200a:	6a e0       	ldi	r22, 0x0A	; 10
    200c:	70 e0       	ldi	r23, 0x00	; 0
    200e:	0e 94 14 1c 	call	0x3828	; 0x3828 <__udivmodhi4>
    2012:	61 5f       	subi	r22, 0xF1	; 241
    2014:	7f 4f       	sbci	r23, 0xFF	; 255
    2016:	80 e0       	ldi	r24, 0x00	; 0
    2018:	90 e0       	ldi	r25, 0x00	; 0
    201a:	60 93 5b 01 	sts	0x015B, r22
    201e:	70 93 5c 01 	sts	0x015C, r23
    2022:	80 93 5d 01 	sts	0x015D, r24
    2026:	90 93 5e 01 	sts	0x015E, r25
  DisplayValue(cap.cval,-2,'V',2);		// Display 2 Digits of this 10mV units
    202a:	4e ef       	ldi	r20, 0xFE	; 254
    202c:	26 e5       	ldi	r18, 0x56	; 86
    202e:	02 e0       	ldi	r16, 0x02	; 2
    2030:	0e 94 67 09 	call	0x12ce	; 0x12ce <DisplayValue>
  lcd_space();
    2034:	0e 94 fe 00 	call	0x1fc	; 0x1fc <lcd_space>
 #warning "Battery POOR level is set for 7805 regulator"
 #define WARN_LEVEL (((unsigned long)7300*(unsigned long)33)/133)
 #define POOR_LEVEL (((unsigned long)6300*(unsigned long)33)/133)
 #endif
  // check the battery voltage
  if (trans.uBE[0] <  WARN_LEVEL) {
    2038:	80 91 51 01 	lds	r24, 0x0151
    203c:	90 91 52 01 	lds	r25, 0x0152
    2040:	27 e0       	ldi	r18, 0x07	; 7
    2042:	8c 32       	cpi	r24, 0x2C	; 44
    2044:	92 07       	cpc	r25, r18
    2046:	a8 f4       	brcc	.+42     	; 0x2072 <main+0x240>
     //Vcc < 7,3V; show Warning 
     if(trans.uBE[0] < POOR_LEVEL) {	
    2048:	26 e0       	ldi	r18, 0x06	; 6
    204a:	83 33       	cpi	r24, 0x33	; 51
    204c:	92 07       	cpc	r25, r18
    204e:	70 f4       	brcc	.+28     	; 0x206c <main+0x23a>
        //Vcc <6,3V; no proper operation is possible
        lcd_fix_string(BatEmpty);	//Battery empty!
    2050:	8c e7       	ldi	r24, 0x7C	; 124
    2052:	90 e0       	ldi	r25, 0x00	; 0
    2054:	0e 94 71 01 	call	0x2e2	; 0x2e2 <lcd_fix_string>
        wait2s();
    2058:	0e 94 6e 14 	call	0x28dc	; 0x28dc <wait2s>
        PORTD = 0;			//switch power off
    205c:	1b b8       	out	0x0b, r1	; 11
  }
#else
  goto start;	// POWER_OFF not selected, repeat measurement
#endif
  return 0;
}   // end main
    205e:	80 e0       	ldi	r24, 0x00	; 0
    2060:	90 e0       	ldi	r25, 0x00	; 0
    2062:	df 91       	pop	r29
    2064:	cf 91       	pop	r28
    2066:	1f 91       	pop	r17
    2068:	0f 91       	pop	r16
    206a:	08 95       	ret
        lcd_fix_string(BatEmpty);	//Battery empty!
        wait2s();
        PORTD = 0;			//switch power off
        return 0;
     }
     lcd_fix_string(BatWeak);		//Battery weak
    206c:	87 e7       	ldi	r24, 0x77	; 119
    206e:	90 e0       	ldi	r25, 0x00	; 0
    2070:	02 c0       	rjmp	.+4      	; 0x2076 <main+0x244>
  } else { // Battery-voltage OK
     lcd_fix_string(OK); 		// "OK"
    2072:	8f ee       	ldi	r24, 0xEF	; 239
    2074:	90 e0       	ldi	r25, 0x00	; 0
    2076:	0e 94 71 01 	call	0x2e2	; 0x2e2 <lcd_fix_string>
  }
#else
  lcd_fix_string(VERSION);		// if no Battery check, Version .. in row 1
#endif
#ifdef WDT_enabled
  wdt_enable(WDTO_2S);		//Watchdog on
    207a:	2f e0       	ldi	r18, 0x0F	; 15
    207c:	88 e1       	ldi	r24, 0x18	; 24
    207e:	90 e0       	ldi	r25, 0x00	; 0
    2080:	0f b6       	in	r0, 0x3f	; 63
    2082:	f8 94       	cli
    2084:	a8 95       	wdr
    2086:	80 93 60 00 	sts	0x0060, r24
    208a:	0f be       	out	0x3f, r0	; 63
    208c:	20 93 60 00 	sts	0x0060, r18
#endif

//  wait1s();			// add mor time for reading batterie voltage
  // begin tests
#ifdef AUTO_RH
  RefVoltage();			//compute RHmultip = f(reference voltage)
    2090:	0e 94 0f 09 	call	0x121e	; 0x121e <RefVoltage>
#endif

  lcd_line2();			//LCD position row2, column 1
    2094:	80 ec       	ldi	r24, 0xC0	; 192
    2096:	0e 94 0d 01 	call	0x21a	; 0x21a <lcd_command>
  if (WithReference) {
    209a:	80 91 44 01 	lds	r24, 0x0144
    209e:	88 23       	and	r24, r24
    20a0:	69 f0       	breq	.+26     	; 0x20bc <main+0x28a>
     DisplayValue(ADCconfig.U_AVCC,-3,'V',3);	// Display 3 Digits of this mV units
    20a2:	60 91 3f 01 	lds	r22, 0x013F
    20a6:	70 91 40 01 	lds	r23, 0x0140
    20aa:	80 e0       	ldi	r24, 0x00	; 0
    20ac:	90 e0       	ldi	r25, 0x00	; 0
    20ae:	4d ef       	ldi	r20, 0xFD	; 253
    20b0:	26 e5       	ldi	r18, 0x56	; 86
    20b2:	03 e0       	ldi	r16, 0x03	; 3
    20b4:	0e 94 67 09 	call	0x12ce	; 0x12ce <DisplayValue>
     lcd_space();
    20b8:	0e 94 fe 00 	call	0x1fc	; 0x1fc <lcd_space>
  }
  lcd_fix_string(TestRunning);		//String: testing...
    20bc:	8c e6       	ldi	r24, 0x6C	; 108
    20be:	90 e0       	ldi	r25, 0x00	; 0
    20c0:	0e 94 71 01 	call	0x2e2	; 0x2e2 <lcd_fix_string>
  lcd_string(itoa((int)(trans.uBE[0] - 289), outval, 10));	//output temperature
  lcd_data(LCD_CHAR_DEGREE);
  lcd_data('C');
#endif
#ifndef DebugOut
  lcd_line2();			//LCD position row 2, column 1
    20c4:	80 ec       	ldi	r24, 0xC0	; 192
    20c6:	0e 94 0d 01 	call	0x21a	; 0x21a <lcd_command>
#endif
#ifdef C_MESS
  EntladePins();		// discharge all capacitors!
    20ca:	0e 94 74 08 	call	0x10e8	; 0x10e8 <EntladePins>
  if(PartFound == PART_CELL) {
    20ce:	80 91 09 01 	lds	r24, 0x0109
    20d2:	88 30       	cpi	r24, 0x08	; 8
    20d4:	39 f4       	brne	.+14     	; 0x20e4 <main+0x2b2>
    lcd_clear();
    20d6:	0e 94 1a 01 	call	0x234	; 0x234 <lcd_clear>
    lcd_fix_string(Cell_str);	// display "Cell!"
    20da:	8b e2       	ldi	r24, 0x2B	; 43
    20dc:	91 e0       	ldi	r25, 0x01	; 1
    20de:	0e 94 71 01 	call	0x2e2	; 0x2e2 <lcd_fix_string>
    goto end2;
    20e2:	a2 c3       	rjmp	.+1860   	; 0x2828 <main+0x9f6>
  }
#endif

#ifdef CHECK_CALL
  AutoCheck();			//check, if selftest should be done
    20e4:	0e 94 63 0a 	call	0x14c6	; 0x14c6 <AutoCheck>
  CheckPins(TP2, TP1, TP3);
  CheckPins(TP2, TP3, TP1);
  CheckPins(TP3, TP2, TP1);
  CheckPins(TP3, TP1, TP2);
#else
  CheckPins(TP1, TP2, TP3);
    20e8:	80 e0       	ldi	r24, 0x00	; 0
    20ea:	61 e0       	ldi	r22, 0x01	; 1
    20ec:	42 e0       	ldi	r20, 0x02	; 2
    20ee:	0e 94 ba 01 	call	0x374	; 0x374 <CheckPins>
  CheckPins(TP2, TP1, TP3);
    20f2:	81 e0       	ldi	r24, 0x01	; 1
    20f4:	60 e0       	ldi	r22, 0x00	; 0
    20f6:	42 e0       	ldi	r20, 0x02	; 2
    20f8:	0e 94 ba 01 	call	0x374	; 0x374 <CheckPins>

  CheckPins(TP1, TP3, TP2);
    20fc:	80 e0       	ldi	r24, 0x00	; 0
    20fe:	62 e0       	ldi	r22, 0x02	; 2
    2100:	41 e0       	ldi	r20, 0x01	; 1
    2102:	0e 94 ba 01 	call	0x374	; 0x374 <CheckPins>
  CheckPins(TP3, TP1, TP2);
    2106:	82 e0       	ldi	r24, 0x02	; 2
    2108:	60 e0       	ldi	r22, 0x00	; 0
    210a:	41 e0       	ldi	r20, 0x01	; 1
    210c:	0e 94 ba 01 	call	0x374	; 0x374 <CheckPins>

  CheckPins(TP2, TP3, TP1);
    2110:	81 e0       	ldi	r24, 0x01	; 1
    2112:	62 e0       	ldi	r22, 0x02	; 2
    2114:	40 e0       	ldi	r20, 0x00	; 0
    2116:	0e 94 ba 01 	call	0x374	; 0x374 <CheckPins>
  CheckPins(TP3, TP2, TP1);
    211a:	82 e0       	ldi	r24, 0x02	; 2
    211c:	61 e0       	ldi	r22, 0x01	; 1
    211e:	40 e0       	ldi	r20, 0x00	; 0
    2120:	0e 94 ba 01 	call	0x374	; 0x374 <CheckPins>
#endif
  
#ifdef C_MESS
  //separate check if is is a capacitor
  if(((PartFound == PART_NONE) || (PartFound == PART_RESISTOR) || (PartFound == PART_DIODE)) ) {
    2124:	80 91 09 01 	lds	r24, 0x0109
    2128:	88 23       	and	r24, r24
    212a:	21 f0       	breq	.+8      	; 0x2134 <main+0x302>
    212c:	86 30       	cpi	r24, 0x06	; 6
    212e:	11 f0       	breq	.+4      	; 0x2134 <main+0x302>
    2130:	81 30       	cpi	r24, 0x01	; 1
    2132:	81 f4       	brne	.+32     	; 0x2154 <main+0x322>
     EntladePins();		// discharge capacities
    2134:	0e 94 74 08 	call	0x10e8	; 0x10e8 <EntladePins>
     //measurement of capacities in all 3 combinations
     ReadCapacity(TP3, TP1);
    2138:	82 e0       	ldi	r24, 0x02	; 2
    213a:	60 e0       	ldi	r22, 0x00	; 0
    213c:	0e 94 24 15 	call	0x2a48	; 0x2a48 <ReadCapacity>
     ReadCapacity(TP3, TP2);
    2140:	82 e0       	ldi	r24, 0x02	; 2
    2142:	61 e0       	ldi	r22, 0x01	; 1
    2144:	0e 94 24 15 	call	0x2a48	; 0x2a48 <ReadCapacity>
     ReadCapacity(TP2, TP1);
    2148:	81 e0       	ldi	r24, 0x01	; 1
    214a:	60 e0       	ldi	r22, 0x00	; 0
    214c:	0e 94 24 15 	call	0x2a48	; 0x2a48 <ReadCapacity>

#if FLASHEND > 0x1fff
     ReadInductance();			// measure inductance
    2150:	0e 94 58 17 	call	0x2eb0	; 0x2eb0 <ReadInductance>
#endif
  }
#endif
  //All checks are done, output result to display
  lcd_clear();
    2154:	0e 94 1a 01 	call	0x234	; 0x234 <lcd_clear>
//  lcd_line1();
  if(PartFound == PART_DIODE) {
    2158:	80 91 09 01 	lds	r24, 0x0109
    215c:	81 30       	cpi	r24, 0x01	; 1
    215e:	09 f0       	breq	.+2      	; 0x2162 <main+0x330>
    2160:	ff c0       	rjmp	.+510    	; 0x2360 <main+0x52e>
     if(NumOfDiodes == 1) {		//single Diode
    2162:	90 91 07 01 	lds	r25, 0x0107
    2166:	91 30       	cpi	r25, 0x01	; 1
    2168:	49 f5       	brne	.+82     	; 0x21bc <main+0x38a>
        lcd_fix_string(Diode);		//"Diode: "
    216a:	81 e9       	ldi	r24, 0x91	; 145
    216c:	90 e0       	ldi	r25, 0x00	; 0
    216e:	0e 94 71 01 	call	0x2e2	; 0x2e2 <lcd_fix_string>
        lcd_testpin(diodes[0].Anode);
    2172:	80 91 69 01 	lds	r24, 0x0169
    2176:	0e 94 02 01 	call	0x204	; 0x204 <lcd_testpin>
        lcd_fix_string(AnKat);		//"->|-"
    217a:	87 e3       	ldi	r24, 0x37	; 55
    217c:	91 e0       	ldi	r25, 0x01	; 1
    217e:	0e 94 71 01 	call	0x2e2	; 0x2e2 <lcd_fix_string>
        lcd_testpin(diodes[0].Cathode);
    2182:	80 91 6a 01 	lds	r24, 0x016A
    2186:	0e 94 02 01 	call	0x204	; 0x204 <lcd_testpin>
        UfAusgabe(0x70);
    218a:	80 e7       	ldi	r24, 0x70	; 112
    218c:	0e 94 4f 0a 	call	0x149e	; 0x149e <UfAusgabe>
#ifdef C_MESS
        lcd_fix_string(GateCap);		//"C="
    2190:	8c ef       	ldi	r24, 0xFC	; 252
    2192:	90 e0       	ldi	r25, 0x00	; 0
    2194:	0e 94 71 01 	call	0x2e2	; 0x2e2 <lcd_fix_string>
        ReadCapacity(diodes[0].Cathode,diodes[0].Anode);	// Capacity opposite flow direction
    2198:	80 91 6a 01 	lds	r24, 0x016A
    219c:	60 91 69 01 	lds	r22, 0x0169
    21a0:	0e 94 24 15 	call	0x2a48	; 0x2a48 <ReadCapacity>
        DisplayValue(cap.cval,cpre,'F',3);
    21a4:	60 91 5b 01 	lds	r22, 0x015B
    21a8:	70 91 5c 01 	lds	r23, 0x015C
    21ac:	80 91 5d 01 	lds	r24, 0x015D
    21b0:	90 91 5e 01 	lds	r25, 0x015E
    21b4:	40 91 48 01 	lds	r20, 0x0148
    21b8:	26 e4       	ldi	r18, 0x46	; 70
    21ba:	a7 c2       	rjmp	.+1358   	; 0x270a <main+0x8d8>
#endif
        goto end;
     } else if(NumOfDiodes == 2) { // double diode
    21bc:	92 30       	cpi	r25, 0x02	; 2
    21be:	09 f0       	breq	.+2      	; 0x21c2 <main+0x390>
    21c0:	4c c0       	rjmp	.+152    	; 0x225a <main+0x428>
        lcd_data('2');
    21c2:	82 e3       	ldi	r24, 0x32	; 50
    21c4:	0e 94 d0 00 	call	0x1a0	; 0x1a0 <lcd_data>
        lcd_fix_string(Dioden);		//"diodes "
    21c8:	8f e3       	ldi	r24, 0x3F	; 63
    21ca:	91 e0       	ldi	r25, 0x01	; 1
    21cc:	0e 94 71 01 	call	0x2e2	; 0x2e2 <lcd_fix_string>
        if(diodes[0].Anode == diodes[1].Anode) { //Common Anode
    21d0:	90 91 69 01 	lds	r25, 0x0169
    21d4:	20 91 6d 01 	lds	r18, 0x016D
    21d8:	92 17       	cp	r25, r18
    21da:	59 f4       	brne	.+22     	; 0x21f2 <main+0x3c0>
           lcd_testpin(diodes[0].Cathode);
    21dc:	80 91 6a 01 	lds	r24, 0x016A
    21e0:	0e 94 02 01 	call	0x204	; 0x204 <lcd_testpin>
           lcd_fix_string(KatAn);	//"-|<-"
    21e4:	8b e3       	ldi	r24, 0x3B	; 59
    21e6:	91 e0       	ldi	r25, 0x01	; 1
    21e8:	0e 94 71 01 	call	0x2e2	; 0x2e2 <lcd_fix_string>
           lcd_testpin(diodes[0].Anode);
    21ec:	80 91 69 01 	lds	r24, 0x0169
    21f0:	2b c0       	rjmp	.+86     	; 0x2248 <main+0x416>
           lcd_fix_string(AnKat);	//"->|-"
           lcd_testpin(diodes[1].Cathode);
           UfAusgabe(0x01);
           goto end;
        } else if(diodes[0].Cathode == diodes[1].Cathode) { //Common Cathode
    21f2:	30 91 6a 01 	lds	r19, 0x016A
    21f6:	80 91 6e 01 	lds	r24, 0x016E
    21fa:	38 17       	cp	r19, r24
    21fc:	b9 f4       	brne	.+46     	; 0x222c <main+0x3fa>
           lcd_testpin(diodes[0].Anode);
    21fe:	89 2f       	mov	r24, r25
    2200:	0e 94 02 01 	call	0x204	; 0x204 <lcd_testpin>
           lcd_fix_string(AnKat);	//"->|-"
    2204:	87 e3       	ldi	r24, 0x37	; 55
    2206:	91 e0       	ldi	r25, 0x01	; 1
    2208:	0e 94 71 01 	call	0x2e2	; 0x2e2 <lcd_fix_string>
	   lcd_testpin(diodes[0].Cathode);
    220c:	80 91 6a 01 	lds	r24, 0x016A
    2210:	0e 94 02 01 	call	0x204	; 0x204 <lcd_testpin>
           lcd_fix_string(KatAn);	//"-|<-"
    2214:	8b e3       	ldi	r24, 0x3B	; 59
    2216:	91 e0       	ldi	r25, 0x01	; 1
    2218:	0e 94 71 01 	call	0x2e2	; 0x2e2 <lcd_fix_string>
           lcd_testpin(diodes[1].Anode);
    221c:	80 91 6d 01 	lds	r24, 0x016D
    2220:	0e 94 02 01 	call	0x204	; 0x204 <lcd_testpin>
           UfAusgabe(0x01);
    2224:	81 e0       	ldi	r24, 0x01	; 1
    2226:	0e 94 4f 0a 	call	0x149e	; 0x149e <UfAusgabe>
           goto end;
    222a:	f7 c2       	rjmp	.+1518   	; 0x281a <main+0x9e8>
          }
        else if ((diodes[0].Cathode == diodes[1].Anode) && (diodes[1].Cathode == diodes[0].Anode)) {
    222c:	32 17       	cp	r19, r18
    222e:	09 f0       	breq	.+2      	; 0x2232 <main+0x400>
    2230:	c2 c2       	rjmp	.+1412   	; 0x27b6 <main+0x984>
    2232:	89 17       	cp	r24, r25
    2234:	09 f0       	breq	.+2      	; 0x2238 <main+0x406>
    2236:	bf c2       	rjmp	.+1406   	; 0x27b6 <main+0x984>
           //Antiparallel
           lcd_testpin(diodes[0].Anode);
    2238:	0e 94 02 01 	call	0x204	; 0x204 <lcd_testpin>
           lcd_fix_string(AnKat);	//"->|-"
    223c:	87 e3       	ldi	r24, 0x37	; 55
    223e:	91 e0       	ldi	r25, 0x01	; 1
    2240:	0e 94 71 01 	call	0x2e2	; 0x2e2 <lcd_fix_string>
           lcd_testpin(diodes[0].Cathode);
    2244:	80 91 6a 01 	lds	r24, 0x016A
    2248:	0e 94 02 01 	call	0x204	; 0x204 <lcd_testpin>
           lcd_fix_string(AnKat);	//"->|-"
    224c:	87 e3       	ldi	r24, 0x37	; 55
    224e:	91 e0       	ldi	r25, 0x01	; 1
    2250:	0e 94 71 01 	call	0x2e2	; 0x2e2 <lcd_fix_string>
           lcd_testpin(diodes[1].Cathode);
    2254:	80 91 6e 01 	lds	r24, 0x016E
    2258:	e3 cf       	rjmp	.-58     	; 0x2220 <main+0x3ee>
           UfAusgabe(0x01);
           goto end;
        }
     } else if(NumOfDiodes == 3) {
    225a:	93 30       	cpi	r25, 0x03	; 3
    225c:	09 f0       	breq	.+2      	; 0x2260 <main+0x42e>
    225e:	ab c2       	rjmp	.+1366   	; 0x27b6 <main+0x984>
        //Serial of 2 Diodes; was detected as 3 Diodes 
        trans.b = 3;
    2260:	90 93 55 01 	sts	0x0155, r25
        trans.c = 3;
    2264:	90 93 56 01 	sts	0x0156, r25
        /* Check for any constallation of 2 serial diodes:
          Only once the pin No of anyone Cathode is identical of another anode.
          two diodes in series is additionally detected as third big diode.
        */
        if(diodes[0].Cathode == diodes[1].Anode)
    2268:	50 91 6a 01 	lds	r21, 0x016A
    226c:	90 91 6d 01 	lds	r25, 0x016D
    2270:	59 17       	cp	r21, r25
    2272:	21 f4       	brne	.+8      	; 0x227c <main+0x44a>
          {
           trans.b = 0;
    2274:	10 92 55 01 	sts	0x0155, r1
           trans.c = 1;
    2278:	80 93 56 01 	sts	0x0156, r24
          }
        if(diodes[0].Anode == diodes[1].Cathode)
    227c:	40 91 69 01 	lds	r20, 0x0169
    2280:	30 91 6e 01 	lds	r19, 0x016E
    2284:	43 17       	cp	r20, r19
    2286:	29 f4       	brne	.+10     	; 0x2292 <main+0x460>
          {
           trans.b = 1;
    2288:	81 e0       	ldi	r24, 0x01	; 1
    228a:	80 93 55 01 	sts	0x0155, r24
           trans.c = 0;
    228e:	10 92 56 01 	sts	0x0156, r1
          }
        if(diodes[0].Cathode == diodes[2].Anode)
    2292:	20 91 71 01 	lds	r18, 0x0171
    2296:	52 17       	cp	r21, r18
    2298:	29 f4       	brne	.+10     	; 0x22a4 <main+0x472>
          {
           trans.b = 0;
    229a:	10 92 55 01 	sts	0x0155, r1
           trans.c = 2;
    229e:	82 e0       	ldi	r24, 0x02	; 2
    22a0:	80 93 56 01 	sts	0x0156, r24
          }
        if(diodes[0].Anode == diodes[2].Cathode)
    22a4:	80 91 72 01 	lds	r24, 0x0172
    22a8:	48 17       	cp	r20, r24
    22aa:	29 f4       	brne	.+10     	; 0x22b6 <main+0x484>
          {
           trans.b = 2;
    22ac:	42 e0       	ldi	r20, 0x02	; 2
    22ae:	40 93 55 01 	sts	0x0155, r20
           trans.c = 0;
    22b2:	10 92 56 01 	sts	0x0156, r1
          }
        if(diodes[1].Cathode == diodes[2].Anode)
    22b6:	32 17       	cp	r19, r18
    22b8:	31 f4       	brne	.+12     	; 0x22c6 <main+0x494>
          {
           trans.b = 1;
    22ba:	21 e0       	ldi	r18, 0x01	; 1
    22bc:	20 93 55 01 	sts	0x0155, r18
           trans.c = 2;
    22c0:	22 e0       	ldi	r18, 0x02	; 2
    22c2:	20 93 56 01 	sts	0x0156, r18
          }
        if(diodes[1].Anode == diodes[2].Cathode)
    22c6:	98 17       	cp	r25, r24
    22c8:	31 f4       	brne	.+12     	; 0x22d6 <main+0x4a4>
          {
           trans.b = 2;
    22ca:	82 e0       	ldi	r24, 0x02	; 2
    22cc:	80 93 55 01 	sts	0x0155, r24
           trans.c = 1;
    22d0:	81 e0       	ldi	r24, 0x01	; 1
    22d2:	80 93 56 01 	sts	0x0156, r24
        lcd_testpin(diodes[2].Cathode);
        lcd_space();
        lcd_string(utoa(diodes[2].Voltage, outval, 10));
        lcd_line1();
#endif
        if((trans.b<3) && (trans.c<3)) {
    22d6:	80 91 55 01 	lds	r24, 0x0155
    22da:	83 30       	cpi	r24, 0x03	; 3
    22dc:	08 f0       	brcs	.+2      	; 0x22e0 <main+0x4ae>
    22de:	6b c2       	rjmp	.+1238   	; 0x27b6 <main+0x984>
    22e0:	80 91 56 01 	lds	r24, 0x0156
    22e4:	83 30       	cpi	r24, 0x03	; 3
    22e6:	08 f0       	brcs	.+2      	; 0x22ea <main+0x4b8>
    22e8:	66 c2       	rjmp	.+1228   	; 0x27b6 <main+0x984>
           lcd_data('3');
    22ea:	83 e3       	ldi	r24, 0x33	; 51
    22ec:	0e 94 d0 00 	call	0x1a0	; 0x1a0 <lcd_data>
           lcd_fix_string(Dioden);	//"Diodes "
    22f0:	8f e3       	ldi	r24, 0x3F	; 63
    22f2:	91 e0       	ldi	r25, 0x01	; 1
    22f4:	0e 94 71 01 	call	0x2e2	; 0x2e2 <lcd_fix_string>
           lcd_testpin(diodes[trans.b].Anode);
    22f8:	e0 91 55 01 	lds	r30, 0x0155
    22fc:	f0 e0       	ldi	r31, 0x00	; 0
    22fe:	ee 0f       	add	r30, r30
    2300:	ff 1f       	adc	r31, r31
    2302:	ee 0f       	add	r30, r30
    2304:	ff 1f       	adc	r31, r31
    2306:	e7 59       	subi	r30, 0x97	; 151
    2308:	fe 4f       	sbci	r31, 0xFE	; 254
    230a:	80 81       	ld	r24, Z
    230c:	0e 94 02 01 	call	0x204	; 0x204 <lcd_testpin>
           lcd_fix_string(AnKat);	//"->|-"
    2310:	87 e3       	ldi	r24, 0x37	; 55
    2312:	91 e0       	ldi	r25, 0x01	; 1
    2314:	0e 94 71 01 	call	0x2e2	; 0x2e2 <lcd_fix_string>
           lcd_testpin(diodes[trans.b].Cathode);
    2318:	e0 91 55 01 	lds	r30, 0x0155
    231c:	f0 e0       	ldi	r31, 0x00	; 0
    231e:	ee 0f       	add	r30, r30
    2320:	ff 1f       	adc	r31, r31
    2322:	ee 0f       	add	r30, r30
    2324:	ff 1f       	adc	r31, r31
    2326:	e7 59       	subi	r30, 0x97	; 151
    2328:	fe 4f       	sbci	r31, 0xFE	; 254
    232a:	81 81       	ldd	r24, Z+1	; 0x01
    232c:	0e 94 02 01 	call	0x204	; 0x204 <lcd_testpin>
           lcd_fix_string(AnKat);	//"->|-"
    2330:	87 e3       	ldi	r24, 0x37	; 55
    2332:	91 e0       	ldi	r25, 0x01	; 1
    2334:	0e 94 71 01 	call	0x2e2	; 0x2e2 <lcd_fix_string>
           lcd_testpin(diodes[trans.c].Cathode);
    2338:	e0 91 56 01 	lds	r30, 0x0156
    233c:	f0 e0       	ldi	r31, 0x00	; 0
    233e:	ee 0f       	add	r30, r30
    2340:	ff 1f       	adc	r31, r31
    2342:	ee 0f       	add	r30, r30
    2344:	ff 1f       	adc	r31, r31
    2346:	e7 59       	subi	r30, 0x97	; 151
    2348:	fe 4f       	sbci	r31, 0xFE	; 254
    234a:	81 81       	ldd	r24, Z+1	; 0x01
    234c:	0e 94 02 01 	call	0x204	; 0x204 <lcd_testpin>
           UfAusgabe( (trans.b<<4)|trans.c);
    2350:	80 91 55 01 	lds	r24, 0x0155
    2354:	82 95       	swap	r24
    2356:	80 7f       	andi	r24, 0xF0	; 240
    2358:	90 91 56 01 	lds	r25, 0x0156
    235c:	89 2b       	or	r24, r25
    235e:	63 cf       	rjmp	.-314    	; 0x2226 <main+0x3f4>
           goto end;
        }
     }
     // end (PartFound == PART_DIODE)
  } else if (PartFound == PART_TRANSISTOR) {
    2360:	82 30       	cpi	r24, 0x02	; 2
    2362:	09 f0       	breq	.+2      	; 0x2366 <main+0x534>
    2364:	81 c0       	rjmp	.+258    	; 0x2468 <main+0x636>
    if(PartReady != 0) {
    2366:	80 91 06 01 	lds	r24, 0x0106
    236a:	88 23       	and	r24, r24
    236c:	71 f1       	breq	.+92     	; 0x23ca <main+0x598>
       if((trans.hfe[0]>trans.hfe[1])) {
    236e:	80 91 4d 01 	lds	r24, 0x014D
    2372:	90 91 4e 01 	lds	r25, 0x014E
    2376:	a0 91 4f 01 	lds	r26, 0x014F
    237a:	b0 91 50 01 	lds	r27, 0x0150
    237e:	20 91 49 01 	lds	r18, 0x0149
    2382:	30 91 4a 01 	lds	r19, 0x014A
    2386:	40 91 4b 01 	lds	r20, 0x014B
    238a:	50 91 4c 01 	lds	r21, 0x014C
    238e:	82 17       	cp	r24, r18
    2390:	93 07       	cpc	r25, r19
    2392:	a4 07       	cpc	r26, r20
    2394:	b5 07       	cpc	r27, r21
    2396:	48 f4       	brcc	.+18     	; 0x23aa <main+0x578>
          //if the amplification factor was higher at first testr: swap C and E !
          tmp = trans.c;
    2398:	80 91 56 01 	lds	r24, 0x0156
          trans.c = trans.e;
    239c:	90 91 57 01 	lds	r25, 0x0157
    23a0:	90 93 56 01 	sts	0x0156, r25
          trans.e = tmp;
    23a4:	80 93 57 01 	sts	0x0157, r24
    23a8:	10 c0       	rjmp	.+32     	; 0x23ca <main+0x598>
       } else {
          trans.hfe[0] = trans.hfe[1];
    23aa:	80 93 49 01 	sts	0x0149, r24
    23ae:	90 93 4a 01 	sts	0x014A, r25
    23b2:	a0 93 4b 01 	sts	0x014B, r26
    23b6:	b0 93 4c 01 	sts	0x014C, r27
          trans.uBE[0] = trans.uBE[1];
    23ba:	80 91 53 01 	lds	r24, 0x0153
    23be:	90 91 54 01 	lds	r25, 0x0154
    23c2:	90 93 52 01 	sts	0x0152, r25
    23c6:	80 93 51 01 	sts	0x0151, r24
       }
    }

    if(PartMode == PART_MODE_NPN) {
    23ca:	80 91 08 01 	lds	r24, 0x0108
    23ce:	81 30       	cpi	r24, 0x01	; 1
    23d0:	19 f4       	brne	.+6      	; 0x23d8 <main+0x5a6>
       lcd_fix_string(NPN);		//"NPN "
    23d2:	82 e0       	ldi	r24, 0x02	; 2
    23d4:	91 e0       	ldi	r25, 0x01	; 1
    23d6:	02 c0       	rjmp	.+4      	; 0x23dc <main+0x5aa>
    } else {
       lcd_fix_string(PNP);		//"PNP "
    23d8:	87 e0       	ldi	r24, 0x07	; 7
    23da:	91 e0       	ldi	r25, 0x01	; 1
    23dc:	0e 94 71 01 	call	0x2e2	; 0x2e2 <lcd_fix_string>
    }
    if(NumOfDiodes > 2) {	//Transistor with protection diode
    23e0:	80 91 07 01 	lds	r24, 0x0107
    23e4:	83 30       	cpi	r24, 0x03	; 3
    23e6:	58 f0       	brcs	.+22     	; 0x23fe <main+0x5cc>
       if(PartMode == PART_MODE_NPN) {
    23e8:	80 91 08 01 	lds	r24, 0x0108
    23ec:	81 30       	cpi	r24, 0x01	; 1
    23ee:	19 f4       	brne	.+6      	; 0x23f6 <main+0x5c4>
          lcd_fix_string(AnKat);	//"->|-"
    23f0:	87 e3       	ldi	r24, 0x37	; 55
    23f2:	91 e0       	ldi	r25, 0x01	; 1
    23f4:	02 c0       	rjmp	.+4      	; 0x23fa <main+0x5c8>
       } else {
          lcd_fix_string(KatAn);	//"-|<-"
    23f6:	8b e3       	ldi	r24, 0x3B	; 59
    23f8:	91 e0       	ldi	r25, 0x01	; 1
    23fa:	0e 94 71 01 	call	0x2e2	; 0x2e2 <lcd_fix_string>
       }
    }
    lcd_fix_string(ebcstr);		//" EBC="
    23fe:	8c e0       	ldi	r24, 0x0C	; 12
    2400:	91 e0       	ldi	r25, 0x01	; 1
    2402:	0e 94 71 01 	call	0x2e2	; 0x2e2 <lcd_fix_string>
    lcd_testpin(trans.e);
    2406:	80 91 57 01 	lds	r24, 0x0157
    240a:	0e 94 02 01 	call	0x204	; 0x204 <lcd_testpin>
    lcd_testpin(trans.b);
    240e:	80 91 55 01 	lds	r24, 0x0155
    2412:	0e 94 02 01 	call	0x204	; 0x204 <lcd_testpin>
    lcd_testpin(trans.c);
    2416:	80 91 56 01 	lds	r24, 0x0156
    241a:	0e 94 02 01 	call	0x204	; 0x204 <lcd_testpin>
    lcd_line2(); //2. row 
    241e:	80 ec       	ldi	r24, 0xC0	; 192
    2420:	0e 94 0d 01 	call	0x21a	; 0x21a <lcd_command>
    lcd_fix_string(hfestr);		//"B="  (hFE)
    2424:	8f ef       	ldi	r24, 0xFF	; 255
    2426:	90 e0       	ldi	r25, 0x00	; 0
    2428:	0e 94 71 01 	call	0x2e2	; 0x2e2 <lcd_fix_string>
    DisplayValue(trans.hfe[0],0,0,3);
    242c:	60 91 49 01 	lds	r22, 0x0149
    2430:	70 91 4a 01 	lds	r23, 0x014A
    2434:	80 91 4b 01 	lds	r24, 0x014B
    2438:	90 91 4c 01 	lds	r25, 0x014C
    243c:	40 e0       	ldi	r20, 0x00	; 0
    243e:	20 e0       	ldi	r18, 0x00	; 0
    2440:	03 e0       	ldi	r16, 0x03	; 3
    2442:	0e 94 67 09 	call	0x12ce	; 0x12ce <DisplayValue>
    lcd_space();
    2446:	0e 94 fe 00 	call	0x1fc	; 0x1fc <lcd_space>

    lcd_fix_string(Uf);		//"Uf="
    244a:	88 e1       	ldi	r24, 0x18	; 24
    244c:	91 e0       	ldi	r25, 0x01	; 1
    244e:	0e 94 71 01 	call	0x2e2	; 0x2e2 <lcd_fix_string>
    DisplayValue(trans.uBE[0],-3,'V',3);
    2452:	60 91 51 01 	lds	r22, 0x0151
    2456:	70 91 52 01 	lds	r23, 0x0152
    245a:	80 e0       	ldi	r24, 0x00	; 0
    245c:	90 e0       	ldi	r25, 0x00	; 0
    245e:	4d ef       	ldi	r20, 0xFD	; 253
    2460:	26 e5       	ldi	r18, 0x56	; 86
    2462:	0e 94 67 09 	call	0x12ce	; 0x12ce <DisplayValue>
    goto end;
    2466:	d9 c1       	rjmp	.+946    	; 0x281a <main+0x9e8>
    // end (PartFound == PART_TRANSISTOR)
  } else if (PartFound == PART_FET) {	//JFET or MOSFET
    2468:	83 30       	cpi	r24, 0x03	; 3
    246a:	09 f0       	breq	.+2      	; 0x246e <main+0x63c>
    246c:	81 c0       	rjmp	.+258    	; 0x2570 <main+0x73e>
    if(PartMode&1) {
    246e:	80 91 08 01 	lds	r24, 0x0108
    2472:	80 ff       	sbrs	r24, 0
    2474:	02 c0       	rjmp	.+4      	; 0x247a <main+0x648>
       //N-Kanal
       lcd_data('P');			//P-channel
    2476:	80 e5       	ldi	r24, 0x50	; 80
    2478:	01 c0       	rjmp	.+2      	; 0x247c <main+0x64a>
    } else {
       lcd_data('N');			//N-channel
    247a:	8e e4       	ldi	r24, 0x4E	; 78
    247c:	0e 94 d0 00 	call	0x1a0	; 0x1a0 <lcd_data>
    }
    lcd_data('-');
    2480:	8d e2       	ldi	r24, 0x2D	; 45
    2482:	0e 94 d0 00 	call	0x1a0	; 0x1a0 <lcd_data>

    tmp = PartMode/2;
    2486:	80 91 08 01 	lds	r24, 0x0108
    248a:	86 95       	lsr	r24
    if (tmp == (PART_MODE_N_D_MOS/2)) {
    248c:	82 30       	cpi	r24, 0x02	; 2
    248e:	11 f4       	brne	.+4      	; 0x2494 <main+0x662>
       lcd_data('D');			// N-D
    2490:	84 e4       	ldi	r24, 0x44	; 68
    2492:	03 c0       	rjmp	.+6      	; 0x249a <main+0x668>
    }
    if (tmp == (PART_MODE_N_E_MOS/2)) {
    2494:	81 30       	cpi	r24, 0x01	; 1
    2496:	21 f4       	brne	.+8      	; 0x24a0 <main+0x66e>
       lcd_data('E');			// N-E
    2498:	85 e4       	ldi	r24, 0x45	; 69
    249a:	0e 94 d0 00 	call	0x1a0	; 0x1a0 <lcd_data>
    249e:	05 c0       	rjmp	.+10     	; 0x24aa <main+0x678>
    }
    if (tmp == (PART_MODE_N_JFET/2)) {
    24a0:	83 30       	cpi	r24, 0x03	; 3
    24a2:	19 f4       	brne	.+6      	; 0x24aa <main+0x678>
       lcd_fix_string(jfet);		//"JFET"
    24a4:	87 ef       	ldi	r24, 0xF7	; 247
    24a6:	90 e0       	ldi	r25, 0x00	; 0
    24a8:	02 c0       	rjmp	.+4      	; 0x24ae <main+0x67c>
    } else {
       lcd_fix_string(mosfet);		//"-MOS "
    24aa:	82 ef       	ldi	r24, 0xF2	; 242
    24ac:	90 e0       	ldi	r25, 0x00	; 0
    24ae:	0e 94 71 01 	call	0x2e2	; 0x2e2 <lcd_fix_string>
    }
    lcd_fix_string(gds);		//"GDS="
    24b2:	82 e1       	ldi	r24, 0x12	; 18
    24b4:	91 e0       	ldi	r25, 0x01	; 1
    24b6:	0e 94 71 01 	call	0x2e2	; 0x2e2 <lcd_fix_string>
    lcd_testpin(trans.b);
    24ba:	80 91 55 01 	lds	r24, 0x0155
    24be:	0e 94 02 01 	call	0x204	; 0x204 <lcd_testpin>
    lcd_testpin(trans.c);
    24c2:	80 91 56 01 	lds	r24, 0x0156
    24c6:	0e 94 02 01 	call	0x204	; 0x204 <lcd_testpin>
    lcd_testpin(trans.e);
    24ca:	80 91 57 01 	lds	r24, 0x0157
    24ce:	0e 94 02 01 	call	0x204	; 0x204 <lcd_testpin>
    if((NumOfDiodes > 0) && (PartMode < PART_MODE_N_D_MOS)) {
    24d2:	80 91 07 01 	lds	r24, 0x0107
    24d6:	88 23       	and	r24, r24
    24d8:	59 f0       	breq	.+22     	; 0x24f0 <main+0x6be>
    24da:	80 91 08 01 	lds	r24, 0x0108
    24de:	84 30       	cpi	r24, 0x04	; 4
    24e0:	38 f4       	brcc	.+14     	; 0x24f0 <main+0x6be>
       //MOSFET with protection diode; only with enhancement-FETs
       if (PartMode&1) {
    24e2:	80 ff       	sbrs	r24, 0
    24e4:	02 c0       	rjmp	.+4      	; 0x24ea <main+0x6b8>
          lcd_data(LCD_CHAR_DIODE1);	//show Diode symbol >|
    24e6:	81 e0       	ldi	r24, 0x01	; 1
    24e8:	01 c0       	rjmp	.+2      	; 0x24ec <main+0x6ba>
       } else {
          lcd_data(LCD_CHAR_DIODE2);	//show Diode symbol |<
    24ea:	82 e0       	ldi	r24, 0x02	; 2
    24ec:	0e 94 d0 00 	call	0x1a0	; 0x1a0 <lcd_data>
       }
    }
    lcd_line2();			//2. Row
    24f0:	80 ec       	ldi	r24, 0xC0	; 192
    24f2:	0e 94 0d 01 	call	0x21a	; 0x21a <lcd_command>
    if(PartMode < PART_MODE_N_D_MOS) {	//enhancement-MOSFET
    24f6:	80 91 08 01 	lds	r24, 0x0108
    24fa:	84 30       	cpi	r24, 0x04	; 4
    24fc:	d8 f4       	brcc	.+54     	; 0x2534 <main+0x702>
 #ifdef C_MESS	//Gate capacity
       lcd_fix_string(GateCap);		//"C="
    24fe:	8c ef       	ldi	r24, 0xFC	; 252
    2500:	90 e0       	ldi	r25, 0x00	; 0
    2502:	0e 94 71 01 	call	0x2e2	; 0x2e2 <lcd_fix_string>
       ReadCapacity(trans.b,trans.e);	//measure capacity
    2506:	80 91 55 01 	lds	r24, 0x0155
    250a:	60 91 57 01 	lds	r22, 0x0157
    250e:	0e 94 24 15 	call	0x2a48	; 0x2a48 <ReadCapacity>
       DisplayValue(cap.cval,cpre,'F',3);
    2512:	60 91 5b 01 	lds	r22, 0x015B
    2516:	70 91 5c 01 	lds	r23, 0x015C
    251a:	80 91 5d 01 	lds	r24, 0x015D
    251e:	90 91 5e 01 	lds	r25, 0x015E
    2522:	40 91 48 01 	lds	r20, 0x0148
    2526:	26 e4       	ldi	r18, 0x46	; 70
    2528:	03 e0       	ldi	r16, 0x03	; 3
    252a:	0e 94 67 09 	call	0x12ce	; 0x12ce <DisplayValue>
 #endif
       lcd_fix_string(vt);		// "Vt="
    252e:	8c e1       	ldi	r24, 0x1C	; 28
    2530:	91 e0       	ldi	r25, 0x01	; 1
    2532:	13 c0       	rjmp	.+38     	; 0x255a <main+0x728>
    } else {
       lcd_data('I');
    2534:	89 e4       	ldi	r24, 0x49	; 73
    2536:	0e 94 d0 00 	call	0x1a0	; 0x1a0 <lcd_data>
       lcd_data('=');
    253a:	8d e3       	ldi	r24, 0x3D	; 61
    253c:	0e 94 d0 00 	call	0x1a0	; 0x1a0 <lcd_data>
       DisplayValue(trans.uBE[1],-5,'A',2);
    2540:	60 91 53 01 	lds	r22, 0x0153
    2544:	70 91 54 01 	lds	r23, 0x0154
    2548:	80 e0       	ldi	r24, 0x00	; 0
    254a:	90 e0       	ldi	r25, 0x00	; 0
    254c:	4b ef       	ldi	r20, 0xFB	; 251
    254e:	21 e4       	ldi	r18, 0x41	; 65
    2550:	02 e0       	ldi	r16, 0x02	; 2
    2552:	0e 94 67 09 	call	0x12ce	; 0x12ce <DisplayValue>
       lcd_fix_string(Vgs_str);		// " Vgs="
    2556:	81 e2       	ldi	r24, 0x21	; 33
    2558:	91 e0       	ldi	r25, 0x01	; 1
    255a:	0e 94 71 01 	call	0x2e2	; 0x2e2 <lcd_fix_string>
    }
    //Gate-threshold voltage
    DisplayValue(gthvoltage,-3,'V',2);
    255e:	60 91 59 01 	lds	r22, 0x0159
    2562:	70 91 5a 01 	lds	r23, 0x015A
    2566:	80 e0       	ldi	r24, 0x00	; 0
    2568:	90 e0       	ldi	r25, 0x00	; 0
    256a:	4d ef       	ldi	r20, 0xFD	; 253
    256c:	26 e5       	ldi	r18, 0x56	; 86
    256e:	21 c1       	rjmp	.+578    	; 0x27b2 <main+0x980>
    goto end;
    // end (PartFound == PART_FET)
  } else if (PartFound == PART_THYRISTOR) {
    2570:	85 30       	cpi	r24, 0x05	; 5
    2572:	19 f4       	brne	.+6      	; 0x257a <main+0x748>
    lcd_fix_string(Thyristor);		//"Thyristor"
    2574:	84 ea       	ldi	r24, 0xA4	; 164
    2576:	90 e0       	ldi	r25, 0x00	; 0
    2578:	04 c0       	rjmp	.+8      	; 0x2582 <main+0x750>
    goto gakAusgabe;
  } else if (PartFound == PART_TRIAC) {
    257a:	84 30       	cpi	r24, 0x04	; 4
    257c:	c1 f4       	brne	.+48     	; 0x25ae <main+0x77c>
    lcd_fix_string(Triac);		//"Triac"
    257e:	8e e9       	ldi	r24, 0x9E	; 158
    2580:	90 e0       	ldi	r25, 0x00	; 0
    2582:	0e 94 71 01 	call	0x2e2	; 0x2e2 <lcd_fix_string>
  mess_count = 0;
  goto end2;


gakAusgabe:
  lcd_line2(); //2. row 
    2586:	80 ec       	ldi	r24, 0xC0	; 192
    2588:	0e 94 0d 01 	call	0x21a	; 0x21a <lcd_command>
  lcd_fix_string(GAK);		//"GAK="
    258c:	89 e9       	ldi	r24, 0x99	; 153
    258e:	90 e0       	ldi	r25, 0x00	; 0
    2590:	0e 94 71 01 	call	0x2e2	; 0x2e2 <lcd_fix_string>
  lcd_testpin(trans.b);
    2594:	80 91 55 01 	lds	r24, 0x0155
    2598:	0e 94 02 01 	call	0x204	; 0x204 <lcd_testpin>
  lcd_testpin(trans.c);
    259c:	80 91 56 01 	lds	r24, 0x0156
    25a0:	0e 94 02 01 	call	0x204	; 0x204 <lcd_testpin>
  lcd_testpin(trans.e);
    25a4:	80 91 57 01 	lds	r24, 0x0157
    25a8:	0e 94 02 01 	call	0x204	; 0x204 <lcd_testpin>
    25ac:	36 c1       	rjmp	.+620    	; 0x281a <main+0x9e8>
  } else if (PartFound == PART_TRIAC) {
    lcd_fix_string(Triac);		//"Triac"
    goto gakAusgabe;
  }
 #ifdef R_MESS	//resistor measurement is wanted
  else if(PartFound == PART_RESISTOR) {
    25ae:	86 30       	cpi	r24, 0x06	; 6
    25b0:	09 f0       	breq	.+2      	; 0x25b4 <main+0x782>
    25b2:	cd c0       	rjmp	.+410    	; 0x274e <main+0x91c>
    if (ResistorsFound == 1) { // single resistor
    25b4:	60 91 58 01 	lds	r22, 0x0158
    25b8:	61 30       	cpi	r22, 0x01	; 1
    25ba:	69 f4       	brne	.+26     	; 0x25d6 <main+0x7a4>
       lcd_testpin(resis[0].rb);  	//Pin-number 1
    25bc:	80 91 23 01 	lds	r24, 0x0123
    25c0:	0e 94 02 01 	call	0x204	; 0x204 <lcd_testpin>
       lcd_fix_string(Resistor_str);
    25c4:	84 e4       	ldi	r24, 0x44	; 68
    25c6:	91 e0       	ldi	r25, 0x01	; 1
    25c8:	0e 94 71 01 	call	0x2e2	; 0x2e2 <lcd_fix_string>
       lcd_testpin(resis[0].ra);		//Pin-number 2
    25cc:	80 91 22 01 	lds	r24, 0x0122
    25d0:	0e 94 02 01 	call	0x204	; 0x204 <lcd_testpin>
    25d4:	80 c0       	rjmp	.+256    	; 0x26d6 <main+0x8a4>
    } else { // R-Max suchen
       ii = 0;
    25d6:	10 92 46 01 	sts	0x0146, r1
       if (resis[1].rx > resis[0].rx)
    25da:	20 91 25 01 	lds	r18, 0x0125
    25de:	30 91 26 01 	lds	r19, 0x0126
    25e2:	40 91 27 01 	lds	r20, 0x0127
    25e6:	50 91 28 01 	lds	r21, 0x0128
    25ea:	80 91 1a 01 	lds	r24, 0x011A
    25ee:	90 91 1b 01 	lds	r25, 0x011B
    25f2:	a0 91 1c 01 	lds	r26, 0x011C
    25f6:	b0 91 1d 01 	lds	r27, 0x011D
    25fa:	82 17       	cp	r24, r18
    25fc:	93 07       	cpc	r25, r19
    25fe:	a4 07       	cpc	r26, r20
    2600:	b5 07       	cpc	r27, r21
    2602:	18 f4       	brcc	.+6      	; 0x260a <main+0x7d8>
          ii = 1;
    2604:	81 e0       	ldi	r24, 0x01	; 1
    2606:	80 93 46 01 	sts	0x0146, r24
       if (ResistorsFound == 2) {
    260a:	62 30       	cpi	r22, 0x02	; 2
    260c:	19 f4       	brne	.+6      	; 0x2614 <main+0x7e2>
          ii = 2;
    260e:	60 93 46 01 	sts	0x0146, r22
    2612:	22 c0       	rjmp	.+68     	; 0x2658 <main+0x826>
       } else {
          if (resis[2].rx > resis[ii].rx) {
    2614:	20 91 46 01 	lds	r18, 0x0146
    2618:	30 e0       	ldi	r19, 0x00	; 0
    261a:	8b e0       	ldi	r24, 0x0B	; 11
    261c:	90 e0       	ldi	r25, 0x00	; 0
    261e:	28 9f       	mul	r18, r24
    2620:	f0 01       	movw	r30, r0
    2622:	29 9f       	mul	r18, r25
    2624:	f0 0d       	add	r31, r0
    2626:	38 9f       	mul	r19, r24
    2628:	f0 0d       	add	r31, r0
    262a:	11 24       	eor	r1, r1
    262c:	e6 5e       	subi	r30, 0xE6	; 230
    262e:	fe 4f       	sbci	r31, 0xFE	; 254
    2630:	20 91 30 01 	lds	r18, 0x0130
    2634:	30 91 31 01 	lds	r19, 0x0131
    2638:	40 91 32 01 	lds	r20, 0x0132
    263c:	50 91 33 01 	lds	r21, 0x0133
    2640:	80 81       	ld	r24, Z
    2642:	91 81       	ldd	r25, Z+1	; 0x01
    2644:	a2 81       	ldd	r26, Z+2	; 0x02
    2646:	b3 81       	ldd	r27, Z+3	; 0x03
    2648:	82 17       	cp	r24, r18
    264a:	93 07       	cpc	r25, r19
    264c:	a4 07       	cpc	r26, r20
    264e:	b5 07       	cpc	r27, r21
    2650:	18 f4       	brcc	.+6      	; 0x2658 <main+0x826>
             ii = 2;
    2652:	82 e0       	ldi	r24, 0x02	; 2
    2654:	80 93 46 01 	sts	0x0146, r24
          }
       }

       if (ii == 0) {
    2658:	80 91 46 01 	lds	r24, 0x0146
    265c:	88 23       	and	r24, r24
    265e:	89 f4       	brne	.+34     	; 0x2682 <main+0x850>
          lcd_data('1');
    2660:	81 e3       	ldi	r24, 0x31	; 49
    2662:	0e 94 d0 00 	call	0x1a0	; 0x1a0 <lcd_data>
          lcd_fix_string(Resistor_str);	// -[=]-
    2666:	84 e4       	ldi	r24, 0x44	; 68
    2668:	91 e0       	ldi	r25, 0x01	; 1
    266a:	0e 94 71 01 	call	0x2e2	; 0x2e2 <lcd_fix_string>
          lcd_data('3');
    266e:	83 e3       	ldi	r24, 0x33	; 51
    2670:	0e 94 d0 00 	call	0x1a0	; 0x1a0 <lcd_data>
          lcd_fix_string(Resistor_str);	// -[=]-
    2674:	84 e4       	ldi	r24, 0x44	; 68
    2676:	91 e0       	ldi	r25, 0x01	; 1
    2678:	0e 94 71 01 	call	0x2e2	; 0x2e2 <lcd_fix_string>
          lcd_data('2');
    267c:	82 e3       	ldi	r24, 0x32	; 50
    267e:	0e 94 d0 00 	call	0x1a0	; 0x1a0 <lcd_data>
       }
       if (ii == 1) {
    2682:	80 91 46 01 	lds	r24, 0x0146
    2686:	81 30       	cpi	r24, 0x01	; 1
    2688:	89 f4       	brne	.+34     	; 0x26ac <main+0x87a>
          lcd_data('1');
    268a:	81 e3       	ldi	r24, 0x31	; 49
    268c:	0e 94 d0 00 	call	0x1a0	; 0x1a0 <lcd_data>
          lcd_fix_string(Resistor_str);	// -[=]-
    2690:	84 e4       	ldi	r24, 0x44	; 68
    2692:	91 e0       	ldi	r25, 0x01	; 1
    2694:	0e 94 71 01 	call	0x2e2	; 0x2e2 <lcd_fix_string>
          lcd_data('2');
    2698:	82 e3       	ldi	r24, 0x32	; 50
    269a:	0e 94 d0 00 	call	0x1a0	; 0x1a0 <lcd_data>
          lcd_fix_string(Resistor_str);	// -[=]-
    269e:	84 e4       	ldi	r24, 0x44	; 68
    26a0:	91 e0       	ldi	r25, 0x01	; 1
    26a2:	0e 94 71 01 	call	0x2e2	; 0x2e2 <lcd_fix_string>
          lcd_data('3');
    26a6:	83 e3       	ldi	r24, 0x33	; 51
    26a8:	0e 94 d0 00 	call	0x1a0	; 0x1a0 <lcd_data>
       }
       if (ii == 2) {
    26ac:	80 91 46 01 	lds	r24, 0x0146
    26b0:	82 30       	cpi	r24, 0x02	; 2
    26b2:	89 f4       	brne	.+34     	; 0x26d6 <main+0x8a4>
          lcd_data('2');
    26b4:	82 e3       	ldi	r24, 0x32	; 50
    26b6:	0e 94 d0 00 	call	0x1a0	; 0x1a0 <lcd_data>
          lcd_fix_string(Resistor_str);	// -[=]-
    26ba:	84 e4       	ldi	r24, 0x44	; 68
    26bc:	91 e0       	ldi	r25, 0x01	; 1
    26be:	0e 94 71 01 	call	0x2e2	; 0x2e2 <lcd_fix_string>
          lcd_data('1');
    26c2:	81 e3       	ldi	r24, 0x31	; 49
    26c4:	0e 94 d0 00 	call	0x1a0	; 0x1a0 <lcd_data>
          lcd_fix_string(Resistor_str);	// -[=]-
    26c8:	84 e4       	ldi	r24, 0x44	; 68
    26ca:	91 e0       	ldi	r25, 0x01	; 1
    26cc:	0e 94 71 01 	call	0x2e2	; 0x2e2 <lcd_fix_string>
          lcd_data('3');
    26d0:	83 e3       	ldi	r24, 0x33	; 51
    26d2:	0e 94 d0 00 	call	0x1a0	; 0x1a0 <lcd_data>
       }
    }
    lcd_line2(); //2. row 
    26d6:	80 ec       	ldi	r24, 0xC0	; 192
    26d8:	0e 94 0d 01 	call	0x21a	; 0x21a <lcd_command>
    if (ResistorsFound == 1) {
    26dc:	80 91 58 01 	lds	r24, 0x0158
    26e0:	81 30       	cpi	r24, 0x01	; 1
    26e2:	a9 f4       	brne	.+42     	; 0x270e <main+0x8dc>
       RvalOut(0);
    26e4:	80 e0       	ldi	r24, 0x00	; 0
    26e6:	0e 94 1d 0a 	call	0x143a	; 0x143a <RvalOut>
#if FLASHEND > 0x1fff
       if (resis[0].lx != 0) {
    26ea:	60 91 1e 01 	lds	r22, 0x011E
    26ee:	70 91 1f 01 	lds	r23, 0x011F
    26f2:	80 91 20 01 	lds	r24, 0x0120
    26f6:	90 91 21 01 	lds	r25, 0x0121
    26fa:	61 15       	cp	r22, r1
    26fc:	71 05       	cpc	r23, r1
    26fe:	81 05       	cpc	r24, r1
    2700:	91 05       	cpc	r25, r1
    2702:	09 f4       	brne	.+2      	; 0x2706 <main+0x8d4>
    2704:	8a c0       	rjmp	.+276    	; 0x281a <main+0x9e8>
	  // resistor have also Inductance
          DisplayValue(resis[0].lx,-5,'H',3);	// output inductance
    2706:	4b ef       	ldi	r20, 0xFB	; 251
    2708:	28 e4       	ldi	r18, 0x48	; 72
    270a:	03 e0       	ldi	r16, 0x03	; 3
    270c:	aa ce       	rjmp	.-684    	; 0x2462 <main+0x630>
       }
#endif
    } else {
       // output resistor values in right order
       if (ii == 0) {
    270e:	80 91 46 01 	lds	r24, 0x0146
    2712:	88 23       	and	r24, r24
    2714:	31 f4       	brne	.+12     	; 0x2722 <main+0x8f0>
          RvalOut(1);
    2716:	81 e0       	ldi	r24, 0x01	; 1
    2718:	0e 94 1d 0a 	call	0x143a	; 0x143a <RvalOut>
          RvalOut(2);
    271c:	82 e0       	ldi	r24, 0x02	; 2
    271e:	0e 94 1d 0a 	call	0x143a	; 0x143a <RvalOut>
       }
       if (ii == 1) {
    2722:	80 91 46 01 	lds	r24, 0x0146
    2726:	81 30       	cpi	r24, 0x01	; 1
    2728:	31 f4       	brne	.+12     	; 0x2736 <main+0x904>
          RvalOut(0);
    272a:	80 e0       	ldi	r24, 0x00	; 0
    272c:	0e 94 1d 0a 	call	0x143a	; 0x143a <RvalOut>
          RvalOut(2);
    2730:	82 e0       	ldi	r24, 0x02	; 2
    2732:	0e 94 1d 0a 	call	0x143a	; 0x143a <RvalOut>
       }
       if (ii == 2) {
    2736:	80 91 46 01 	lds	r24, 0x0146
    273a:	82 30       	cpi	r24, 0x02	; 2
    273c:	09 f0       	breq	.+2      	; 0x2740 <main+0x90e>
    273e:	6d c0       	rjmp	.+218    	; 0x281a <main+0x9e8>
          RvalOut(0);
    2740:	80 e0       	ldi	r24, 0x00	; 0
    2742:	0e 94 1d 0a 	call	0x143a	; 0x143a <RvalOut>
          RvalOut(1);
    2746:	81 e0       	ldi	r24, 0x01	; 1
    2748:	0e 94 1d 0a 	call	0x143a	; 0x143a <RvalOut>
    274c:	66 c0       	rjmp	.+204    	; 0x281a <main+0x9e8>
  } // end (PartFound == PART_RESISTOR)
#endif

#ifdef C_MESS
//capacity measurement is wanted
  else if(PartFound == PART_CAPACITOR) {
    274e:	87 30       	cpi	r24, 0x07	; 7
    2750:	91 f5       	brne	.+100    	; 0x27b6 <main+0x984>
//     lcd_fix_string(Capacitor);
     lcd_testpin(cap.ca);		//Pin number 1
    2752:	80 91 65 01 	lds	r24, 0x0165
    2756:	0e 94 02 01 	call	0x204	; 0x204 <lcd_testpin>
     lcd_fix_string(CapZeich);		// capacitor sign
    275a:	87 e2       	ldi	r24, 0x27	; 39
    275c:	91 e0       	ldi	r25, 0x01	; 1
    275e:	0e 94 71 01 	call	0x2e2	; 0x2e2 <lcd_fix_string>
     lcd_testpin(cap.cb);		//Pin number 2
    2762:	80 91 66 01 	lds	r24, 0x0166
    2766:	0e 94 02 01 	call	0x204	; 0x204 <lcd_testpin>
     lcd_line2(); 			//2. row 
    276a:	80 ec       	ldi	r24, 0xC0	; 192
    276c:	0e 94 0d 01 	call	0x21a	; 0x21a <lcd_command>
     DisplayValue(cap.cval,cpre,'F',4);
    2770:	60 91 5b 01 	lds	r22, 0x015B
    2774:	70 91 5c 01 	lds	r23, 0x015C
    2778:	80 91 5d 01 	lds	r24, 0x015D
    277c:	90 91 5e 01 	lds	r25, 0x015E
    2780:	40 91 48 01 	lds	r20, 0x0148
    2784:	26 e4       	ldi	r18, 0x46	; 70
    2786:	04 e0       	ldi	r16, 0x04	; 4
    2788:	0e 94 67 09 	call	0x12ce	; 0x12ce <DisplayValue>
#if FLASHEND > 0x1fff
     if (cap.esr > 0) {
    278c:	80 91 63 01 	lds	r24, 0x0163
    2790:	90 91 64 01 	lds	r25, 0x0164
    2794:	00 97       	sbiw	r24, 0x00	; 0
    2796:	09 f4       	brne	.+2      	; 0x279a <main+0x968>
    2798:	40 c0       	rjmp	.+128    	; 0x281a <main+0x9e8>
        lcd_fix_string(esr_txt);	// " ESR="
    279a:	81 e3       	ldi	r24, 0x31	; 49
    279c:	91 e0       	ldi	r25, 0x01	; 1
    279e:	0e 94 71 01 	call	0x2e2	; 0x2e2 <lcd_fix_string>
        DisplayValue(cap.esr,-2,LCD_CHAR_OMEGA,2);
    27a2:	60 91 63 01 	lds	r22, 0x0163
    27a6:	70 91 64 01 	lds	r23, 0x0164
    27aa:	80 e0       	ldi	r24, 0x00	; 0
    27ac:	90 e0       	ldi	r25, 0x00	; 0
    27ae:	4e ef       	ldi	r20, 0xFE	; 254
    27b0:	24 ef       	ldi	r18, 0xF4	; 244
    27b2:	02 e0       	ldi	r16, 0x02	; 2
    27b4:	56 ce       	rjmp	.-852    	; 0x2462 <main+0x630>
     }
#endif
     goto end;
  }
#endif
  if(NumOfDiodes == 0) { //no diodes are found
    27b6:	80 91 07 01 	lds	r24, 0x0107
    27ba:	88 23       	and	r24, r24
    27bc:	71 f4       	brne	.+28     	; 0x27da <main+0x9a8>
     lcd_fix_string(TestFailed1); 	//"Kein,unbek. oder"
    27be:	87 eb       	ldi	r24, 0xB7	; 183
    27c0:	90 e0       	ldi	r25, 0x00	; 0
    27c2:	0e 94 71 01 	call	0x2e2	; 0x2e2 <lcd_fix_string>
     lcd_line2(); //2. row 
    27c6:	80 ec       	ldi	r24, 0xC0	; 192
    27c8:	0e 94 0d 01 	call	0x21a	; 0x21a <lcd_command>
     lcd_fix_string(TestFailed2); 	//"defektes "
    27cc:	83 e8       	ldi	r24, 0x83	; 131
    27ce:	90 e0       	ldi	r25, 0x00	; 0
    27d0:	0e 94 71 01 	call	0x2e2	; 0x2e2 <lcd_fix_string>
     lcd_fix_string(Bauteil);		//"Bauteil"
    27d4:	8c e8       	ldi	r24, 0x8C	; 140
    27d6:	90 e0       	ldi	r25, 0x00	; 0
    27d8:	16 c0       	rjmp	.+44     	; 0x2806 <main+0x9d4>
  } else {
     lcd_fix_string(Bauteil);		//"Bauteil"
    27da:	8c e8       	ldi	r24, 0x8C	; 140
    27dc:	90 e0       	ldi	r25, 0x00	; 0
    27de:	0e 94 71 01 	call	0x2e2	; 0x2e2 <lcd_fix_string>
     lcd_fix_string(Unknown); 		//" unbek."
    27e2:	8e ea       	ldi	r24, 0xAE	; 174
    27e4:	90 e0       	ldi	r25, 0x00	; 0
    27e6:	0e 94 71 01 	call	0x2e2	; 0x2e2 <lcd_fix_string>
     lcd_line2(); //2. row 
    27ea:	80 ec       	ldi	r24, 0xC0	; 192
    27ec:	0e 94 0d 01 	call	0x21a	; 0x21a <lcd_command>
     lcd_fix_string(OrBroken); 		//"oder defekt "
    27f0:	87 ec       	ldi	r24, 0xC7	; 199
    27f2:	90 e0       	ldi	r25, 0x00	; 0
    27f4:	0e 94 71 01 	call	0x2e2	; 0x2e2 <lcd_fix_string>
     lcd_data(NumOfDiodes + '0');
    27f8:	80 91 07 01 	lds	r24, 0x0107
    27fc:	80 5d       	subi	r24, 0xD0	; 208
    27fe:	0e 94 d0 00 	call	0x1a0	; 0x1a0 <lcd_data>
     lcd_fix_string(AnKat);		//"->|-"
    2802:	87 e3       	ldi	r24, 0x37	; 55
    2804:	91 e0       	ldi	r25, 0x01	; 1
    2806:	0e 94 71 01 	call	0x2e2	; 0x2e2 <lcd_fix_string>
  }
  empty_count++;
    280a:	80 91 45 01 	lds	r24, 0x0145
    280e:	8f 5f       	subi	r24, 0xFF	; 255
    2810:	80 93 45 01 	sts	0x0145, r24
  mess_count = 0;
    2814:	10 92 0d 01 	sts	0x010D, r1
  goto end2;
    2818:	07 c0       	rjmp	.+14     	; 0x2828 <main+0x9f6>
  lcd_testpin(trans.b);
  lcd_testpin(trans.c);
  lcd_testpin(trans.e);
//- - - - - - - - - - - - - - - - - - - - - - - - - - - - 
 end:
  empty_count = 0;		// reset counter, if part is found
    281a:	10 92 45 01 	sts	0x0145, r1
  mess_count++;			// count measurements
    281e:	80 91 0d 01 	lds	r24, 0x010D
    2822:	8f 5f       	subi	r24, 0xFF	; 255
    2824:	80 93 0d 01 	sts	0x010D, r24

 end2:
  while(!(ON_PIN_REG & (1<<RST_PIN)));	//wait ,until button is released
    2828:	4f 9b       	sbis	0x09, 7	; 9
    282a:	fe cf       	rjmp	.-4      	; 0x2828 <main+0x9f6>
  wait200ms();
    282c:	0e 94 73 14 	call	0x28e6	; 0x28e6 <wait200ms>
// wait 10 seconds or 3 seconds (if repeat function)
  for(gthvoltage = 0;gthvoltage<display_time;gthvoltage++) {
    2830:	10 92 5a 01 	sts	0x015A, r1
    2834:	10 92 59 01 	sts	0x0159, r1
    2838:	0e c0       	rjmp	.+28     	; 0x2856 <main+0xa24>
     if(!(ON_PIN_REG & (1<<RST_PIN))) {
    283a:	4f 9b       	sbis	0x09, 7	; 9
    283c:	5a cb       	rjmp	.-2380   	; 0x1ef2 <main+0xc0>
        // If the key is pressed again... 
        // goto start of measurement 
        goto start;
     }
     wdt_reset();
    283e:	a8 95       	wdr
     wait1ms();
    2840:	0e 94 7f 14 	call	0x28fe	; 0x28fe <wait1ms>

 end2:
  while(!(ON_PIN_REG & (1<<RST_PIN)));	//wait ,until button is released
  wait200ms();
// wait 10 seconds or 3 seconds (if repeat function)
  for(gthvoltage = 0;gthvoltage<display_time;gthvoltage++) {
    2844:	80 91 59 01 	lds	r24, 0x0159
    2848:	90 91 5a 01 	lds	r25, 0x015A
    284c:	01 96       	adiw	r24, 0x01	; 1
    284e:	90 93 5a 01 	sts	0x015A, r25
    2852:	80 93 59 01 	sts	0x0159, r24
    2856:	20 91 59 01 	lds	r18, 0x0159
    285a:	30 91 5a 01 	lds	r19, 0x015A
    285e:	80 91 02 01 	lds	r24, 0x0102
    2862:	90 91 03 01 	lds	r25, 0x0103
    2866:	28 17       	cp	r18, r24
    2868:	39 07       	cpc	r19, r25
    286a:	38 f3       	brcs	.-50     	; 0x283a <main+0xa08>
  #define POWER2_OFF 255
 #else
  #define POWER2_OFF POWER_OFF*2
 #endif
 #if POWER_OFF+0 > 1
  if ((empty_count < POWER_OFF) && (mess_count < POWER2_OFF)) {
    286c:	80 91 45 01 	lds	r24, 0x0145
    2870:	85 30       	cpi	r24, 0x05	; 5
    2872:	28 f4       	brcc	.+10     	; 0x287e <main+0xa4c>
    2874:	80 91 0d 01 	lds	r24, 0x010D
    2878:	8a 30       	cpi	r24, 0x0A	; 10
    287a:	08 f4       	brcc	.+2      	; 0x287e <main+0xa4c>
    287c:	3a cb       	rjmp	.-2444   	; 0x1ef2 <main+0xc0>
     goto start;			// repeat measurement POWER_OFF times
  }
 #endif
  // only one Measurement requested, shut off
  wdt_disable();			//Watchdog off
    287e:	88 e1       	ldi	r24, 0x18	; 24
    2880:	0f b6       	in	r0, 0x3f	; 63
    2882:	f8 94       	cli
    2884:	80 93 60 00 	sts	0x0060, r24
    2888:	10 92 60 00 	sts	0x0060, r1
    288c:	0f be       	out	0x3f, r0	; 63
  ON_PORT &= ~(1<<ON_PIN);		//switch off power
    288e:	5e 98       	cbi	0x0b, 6	; 11
  //never ending loop 
  while(1) {
     if(!(ON_PIN_REG & (1<<RST_PIN))) {
    2890:	4f 99       	sbic	0x09, 7	; 9
    2892:	fe cf       	rjmp	.-4      	; 0x2890 <main+0xa5e>
    2894:	2e cb       	rjmp	.-2468   	; 0x1ef2 <main+0xc0>

00002896 <uart_putc>:
    2896:	2f 93       	push	r18
    2898:	5f b7       	in	r21, 0x3f	; 63
    289a:	2f 93       	push	r18
    289c:	2a e0       	ldi	r18, 0x0A	; 10
    289e:	80 95       	com	r24
    28a0:	08 94       	sec

000028a2 <putchar0>:
    28a2:	10 f4       	brcc	.+4      	; 0x28a8 <putchar1>
    28a4:	43 98       	cbi	0x08, 3	; 8
    28a6:	02 c0       	rjmp	.+4      	; 0x28ac <putchar2>

000028a8 <putchar1>:
    28a8:	43 9a       	sbi	0x08, 3	; 8
	...

000028ac <putchar2>:
    28ac:	08 d0       	rcall	.+16     	; 0x28be <UART_delay>
    28ae:	07 d0       	rcall	.+14     	; 0x28be <UART_delay>
    28b0:	86 95       	lsr	r24
    28b2:	2a 95       	dec	r18
    28b4:	b1 f7       	brne	.-20     	; 0x28a2 <putchar0>
    28b6:	2f 91       	pop	r18
    28b8:	5f bf       	out	0x3f, r21	; 63
    28ba:	2f 91       	pop	r18
    28bc:	08 95       	ret

000028be <UART_delay>:
    28be:	5f 93       	push	r21
    28c0:	5f b7       	in	r21, 0x3f	; 63
    28c2:	5f 93       	push	r21
    28c4:	00 00       	nop
    28c6:	5e e3       	ldi	r21, 0x3E	; 62

000028c8 <UART_delay1>:
    28c8:	5a 95       	dec	r21
    28ca:	f1 f7       	brne	.-4      	; 0x28c8 <UART_delay1>
    28cc:	00 00       	nop
    28ce:	5f 91       	pop	r21
    28d0:	5f bf       	out	0x3f, r21	; 63
    28d2:	5f 91       	pop	r21
    28d4:	08 95       	ret

000028d6 <wait5s>:
    28d6:	03 d0       	rcall	.+6      	; 0x28de <wait1000ms>

000028d8 <wait4s>:
    28d8:	02 d0       	rcall	.+4      	; 0x28de <wait1000ms>

000028da <wait3s>:
    28da:	01 d0       	rcall	.+2      	; 0x28de <wait1000ms>

000028dc <wait2s>:
    28dc:	00 d0       	rcall	.+0      	; 0x28de <wait1000ms>

000028de <wait1000ms>:
    28de:	00 d0       	rcall	.+0      	; 0x28e0 <wait500ms>

000028e0 <wait500ms>:
    28e0:	03 d0       	rcall	.+6      	; 0x28e8 <wait100ms>

000028e2 <wait400ms>:
    28e2:	02 d0       	rcall	.+4      	; 0x28e8 <wait100ms>

000028e4 <wait300ms>:
    28e4:	01 d0       	rcall	.+2      	; 0x28e8 <wait100ms>

000028e6 <wait200ms>:
    28e6:	00 d0       	rcall	.+0      	; 0x28e8 <wait100ms>

000028e8 <wait100ms>:
    28e8:	a8 95       	wdr
    28ea:	00 d0       	rcall	.+0      	; 0x28ec <wait50ms>

000028ec <wait50ms>:
    28ec:	03 d0       	rcall	.+6      	; 0x28f4 <wait10ms>

000028ee <wait40ms>:
    28ee:	02 d0       	rcall	.+4      	; 0x28f4 <wait10ms>

000028f0 <wait30ms>:
    28f0:	01 d0       	rcall	.+2      	; 0x28f4 <wait10ms>

000028f2 <wait20ms>:
    28f2:	00 d0       	rcall	.+0      	; 0x28f4 <wait10ms>

000028f4 <wait10ms>:
    28f4:	00 d0       	rcall	.+0      	; 0x28f6 <wait5ms>

000028f6 <wait5ms>:
    28f6:	03 d0       	rcall	.+6      	; 0x28fe <wait1ms>

000028f8 <wait4ms>:
    28f8:	02 d0       	rcall	.+4      	; 0x28fe <wait1ms>

000028fa <wait3ms>:
    28fa:	01 d0       	rcall	.+2      	; 0x28fe <wait1ms>

000028fc <wait2ms>:
    28fc:	00 d0       	rcall	.+0      	; 0x28fe <wait1ms>

000028fe <wait1ms>:
    28fe:	00 d0       	rcall	.+0      	; 0x2900 <wait500us>

00002900 <wait500us>:
    2900:	03 d0       	rcall	.+6      	; 0x2908 <wait100us>

00002902 <wait400us>:
    2902:	02 d0       	rcall	.+4      	; 0x2908 <wait100us>

00002904 <wait300us>:
    2904:	01 d0       	rcall	.+2      	; 0x2908 <wait100us>

00002906 <wait200us>:
    2906:	00 d0       	rcall	.+0      	; 0x2908 <wait100us>

00002908 <wait100us>:
    2908:	00 d0       	rcall	.+0      	; 0x290a <wait50us>

0000290a <wait50us>:
    290a:	03 d0       	rcall	.+6      	; 0x2912 <wait10us>

0000290c <wait40us>:
    290c:	02 d0       	rcall	.+4      	; 0x2912 <wait10us>

0000290e <wait30us>:
    290e:	01 d0       	rcall	.+2      	; 0x2912 <wait10us>

00002910 <wait20us>:
    2910:	00 d0       	rcall	.+0      	; 0x2912 <wait10us>

00002912 <wait10us>:
    2912:	00 d0       	rcall	.+0      	; 0x2914 <wait5us>

00002914 <wait5us>:
    2914:	03 d0       	rcall	.+6      	; 0x291c <wait1us>

00002916 <wait4us>:
    2916:	02 d0       	rcall	.+4      	; 0x291c <wait1us>

00002918 <wait3us>:
    2918:	01 d0       	rcall	.+2      	; 0x291c <wait1us>

0000291a <wait2us>:
    291a:	00 d0       	rcall	.+0      	; 0x291c <wait1us>

0000291c <wait1us>:
    291c:	00 00       	nop
    291e:	08 95       	ret

00002920 <CombineBI2Long>:
    2920:	99 27       	eor	r25, r25

00002922 <CombineII2Long>:
    2922:	08 95       	ret

00002924 <getRLmultip>:
  R_DDR = 0;			// switch all resistor ports to input
  R_PORT = 0; 			// switch all resistor outputs to GND, no pull up
  return;
 } // end ReadCapacity()

unsigned int getRLmultip(unsigned int cvolt) {
    2924:	ff 92       	push	r15
    2926:	0f 93       	push	r16
    2928:	1f 93       	push	r17
    292a:	cf 93       	push	r28
    292c:	df 93       	push	r29

  unsigned int uvolt;
  unsigned int y1, y2;
  uint8_t tabind;
  uint8_t tabres;
  if (cvolt >= RL_Tab_Beginn) {
    292e:	21 e0       	ldi	r18, 0x01	; 1
    2930:	8c 32       	cpi	r24, 0x2C	; 44
    2932:	92 07       	cpc	r25, r18
    2934:	18 f0       	brcs	.+6      	; 0x293c <getRLmultip+0x18>
     uvolt = cvolt - RL_Tab_Beginn;
    2936:	8c 52       	subi	r24, 0x2C	; 44
    2938:	91 40       	sbci	r25, 0x01	; 1
    293a:	02 c0       	rjmp	.+4      	; 0x2940 <getRLmultip+0x1c>
  } else {
     uvolt = 0;			// limit to begin of table
    293c:	80 e0       	ldi	r24, 0x00	; 0
    293e:	90 e0       	ldi	r25, 0x00	; 0
  }
  tabind = uvolt / RL_Tab_Abstand;
    2940:	69 e1       	ldi	r22, 0x19	; 25
    2942:	70 e0       	ldi	r23, 0x00	; 0
    2944:	0e 94 14 1c 	call	0x3828	; 0x3828 <__udivmodhi4>
  tabres = uvolt % RL_Tab_Abstand;
    2948:	f8 2e       	mov	r15, r24
  tabres = RL_Tab_Abstand - tabres;
  if (tabind > (RL_Tab_Length/RL_Tab_Abstand)) {
     tabind = (RL_Tab_Length/RL_Tab_Abstand);	// limit to end of table
  }
  y1 = MEM_read_word(&RLtab[tabind]);
    294a:	6d 32       	cpi	r22, 0x2D	; 45
    294c:	08 f0       	brcs	.+2      	; 0x2950 <getRLmultip+0x2c>
    294e:	6c e2       	ldi	r22, 0x2C	; 44
    2950:	c6 2f       	mov	r28, r22
    2952:	d0 e0       	ldi	r29, 0x00	; 0
    2954:	ce 01       	movw	r24, r28
    2956:	88 0f       	add	r24, r24
    2958:	99 1f       	adc	r25, r25
    295a:	80 50       	subi	r24, 0x00	; 0
    295c:	90 40       	sbci	r25, 0x00	; 0
    295e:	0e 94 a4 1c 	call	0x3948	; 0x3948 <__eerd_word_m168>
    2962:	8c 01       	movw	r16, r24
  y2 = MEM_read_word(&RLtab[tabind+1]);
    2964:	ce 01       	movw	r24, r28
    2966:	88 0f       	add	r24, r24
    2968:	99 1f       	adc	r25, r25
    296a:	8e 5f       	subi	r24, 0xFE	; 254
    296c:	9f 4f       	sbci	r25, 0xFF	; 255
    296e:	0e 94 a4 1c 	call	0x3948	; 0x3948 <__eerd_word_m168>
    2972:	9c 01       	movw	r18, r24
  } else {
     uvolt = 0;			// limit to begin of table
  }
  tabind = uvolt / RL_Tab_Abstand;
  tabres = uvolt % RL_Tab_Abstand;
  tabres = RL_Tab_Abstand - tabres;
    2974:	49 e1       	ldi	r20, 0x19	; 25
    2976:	4f 19       	sub	r20, r15
  if (tabind > (RL_Tab_Length/RL_Tab_Abstand)) {
     tabind = (RL_Tab_Length/RL_Tab_Abstand);	// limit to end of table
  }
  y1 = MEM_read_word(&RLtab[tabind]);
  y2 = MEM_read_word(&RLtab[tabind+1]);
  return ( ((y1 - y2) * tabres + (RL_Tab_Abstand/2)) / RL_Tab_Abstand + y2); // interpolate table
    2978:	50 e0       	ldi	r21, 0x00	; 0
    297a:	08 1b       	sub	r16, r24
    297c:	19 0b       	sbc	r17, r25
    297e:	40 9f       	mul	r20, r16
    2980:	c0 01       	movw	r24, r0
    2982:	41 9f       	mul	r20, r17
    2984:	90 0d       	add	r25, r0
    2986:	50 9f       	mul	r21, r16
    2988:	90 0d       	add	r25, r0
    298a:	11 24       	eor	r1, r1
    298c:	0c 96       	adiw	r24, 0x0c	; 12
    298e:	69 e1       	ldi	r22, 0x19	; 25
    2990:	70 e0       	ldi	r23, 0x00	; 0
    2992:	0e 94 14 1c 	call	0x3828	; 0x3828 <__udivmodhi4>
    2996:	62 0f       	add	r22, r18
    2998:	73 1f       	adc	r23, r19
}
    299a:	cb 01       	movw	r24, r22
    299c:	df 91       	pop	r29
    299e:	cf 91       	pop	r28
    29a0:	1f 91       	pop	r17
    29a2:	0f 91       	pop	r16
    29a4:	ff 90       	pop	r15
    29a6:	08 95       	ret

000029a8 <Scale_C_with_vcc>:

void Scale_C_with_vcc(void) {
    29a8:	8f 92       	push	r8
    29aa:	9f 92       	push	r9
    29ac:	af 92       	push	r10
    29ae:	bf 92       	push	r11
    29b0:	df 92       	push	r13
    29b2:	ef 92       	push	r14
    29b4:	ff 92       	push	r15
    29b6:	0f 93       	push	r16
    29b8:	1f 93       	push	r17
    29ba:	e0 90 5b 01 	lds	r14, 0x015B
    29be:	f0 90 5c 01 	lds	r15, 0x015C
    29c2:	00 91 5d 01 	lds	r16, 0x015D
    29c6:	10 91 5e 01 	lds	r17, 0x015E
    29ca:	d0 90 48 01 	lds	r13, 0x0148
   while (cap.cval > 100000) {
      cap.cval /= 10;
    29ce:	4a e0       	ldi	r20, 0x0A	; 10
    29d0:	84 2e       	mov	r8, r20
    29d2:	91 2c       	mov	r9, r1
    29d4:	a1 2c       	mov	r10, r1
    29d6:	b1 2c       	mov	r11, r1
  y2 = MEM_read_word(&RLtab[tabind+1]);
  return ( ((y1 - y2) * tabres + (RL_Tab_Abstand/2)) / RL_Tab_Abstand + y2); // interpolate table
}

void Scale_C_with_vcc(void) {
   while (cap.cval > 100000) {
    29d8:	08 c0       	rjmp	.+16     	; 0x29ea <Scale_C_with_vcc+0x42>
      cap.cval /= 10;
    29da:	c8 01       	movw	r24, r16
    29dc:	b7 01       	movw	r22, r14
    29de:	a5 01       	movw	r20, r10
    29e0:	94 01       	movw	r18, r8
    29e2:	0e 94 28 1c 	call	0x3850	; 0x3850 <__udivmodsi4>
    29e6:	79 01       	movw	r14, r18
    29e8:	8a 01       	movw	r16, r20
    29ea:	8d 2d       	mov	r24, r13
    29ec:	d3 94       	inc	r13
  y2 = MEM_read_word(&RLtab[tabind+1]);
  return ( ((y1 - y2) * tabres + (RL_Tab_Abstand/2)) / RL_Tab_Abstand + y2); // interpolate table
}

void Scale_C_with_vcc(void) {
   while (cap.cval > 100000) {
    29ee:	91 ea       	ldi	r25, 0xA1	; 161
    29f0:	e9 16       	cp	r14, r25
    29f2:	96 e8       	ldi	r25, 0x86	; 134
    29f4:	f9 06       	cpc	r15, r25
    29f6:	91 e0       	ldi	r25, 0x01	; 1
    29f8:	09 07       	cpc	r16, r25
    29fa:	90 e0       	ldi	r25, 0x00	; 0
    29fc:	19 07       	cpc	r17, r25
    29fe:	68 f7       	brcc	.-38     	; 0x29da <Scale_C_with_vcc+0x32>
    2a00:	80 93 48 01 	sts	0x0148, r24
      cap.cval /= 10;
      cpre ++;			// prevent overflow
   }
   cap.cval *= ADCconfig.U_AVCC;	// scale with measured voltage
    2a04:	20 91 3f 01 	lds	r18, 0x013F
    2a08:	30 91 40 01 	lds	r19, 0x0140
    2a0c:	40 e0       	ldi	r20, 0x00	; 0
    2a0e:	50 e0       	ldi	r21, 0x00	; 0
    2a10:	c8 01       	movw	r24, r16
    2a12:	b7 01       	movw	r22, r14
    2a14:	0e 94 e9 1b 	call	0x37d2	; 0x37d2 <__mulsi3>
   cap.cval /= U_VCC;			// Factors are computed for U_VCC
    2a18:	28 e8       	ldi	r18, 0x88	; 136
    2a1a:	33 e1       	ldi	r19, 0x13	; 19
    2a1c:	40 e0       	ldi	r20, 0x00	; 0
    2a1e:	50 e0       	ldi	r21, 0x00	; 0
    2a20:	0e 94 28 1c 	call	0x3850	; 0x3850 <__udivmodsi4>
    2a24:	20 93 5b 01 	sts	0x015B, r18
    2a28:	30 93 5c 01 	sts	0x015C, r19
    2a2c:	40 93 5d 01 	sts	0x015D, r20
    2a30:	50 93 5e 01 	sts	0x015E, r21
}
    2a34:	1f 91       	pop	r17
    2a36:	0f 91       	pop	r16
    2a38:	ff 90       	pop	r15
    2a3a:	ef 90       	pop	r14
    2a3c:	df 90       	pop	r13
    2a3e:	bf 90       	pop	r11
    2a40:	af 90       	pop	r10
    2a42:	9f 90       	pop	r9
    2a44:	8f 90       	pop	r8
    2a46:	08 95       	ret

00002a48 <ReadCapacity>:

unsigned long CombineII2Long( unsigned int ovcnt16, unsigned int tmpcnt); //tricky function to build unsigned long from two unsigned int values


//=================================================================
void ReadCapacity(uint8_t HighPin, uint8_t LowPin) {
    2a48:	9f 92       	push	r9
    2a4a:	af 92       	push	r10
    2a4c:	bf 92       	push	r11
    2a4e:	cf 92       	push	r12
    2a50:	df 92       	push	r13
    2a52:	ef 92       	push	r14
    2a54:	ff 92       	push	r15
    2a56:	0f 93       	push	r16
    2a58:	1f 93       	push	r17
    2a5a:	cf 93       	push	r28
    2a5c:	df 93       	push	r29
    2a5e:	18 2f       	mov	r17, r24
    2a60:	06 2f       	mov	r16, r22
  uint8_t HiPinR_L, HiPinR_H;
  uint8_t LoADC;
  uint8_t ii;

#ifdef AUTO_CAL
  pin_combination = (HighPin * 3) + LowPin - 1;	// coded Pin combination for capacity zero offset
    2a62:	88 0f       	add	r24, r24
    2a64:	81 0f       	add	r24, r17
    2a66:	86 0f       	add	r24, r22
    2a68:	81 50       	subi	r24, 0x01	; 1
    2a6a:	80 93 47 01 	sts	0x0147, r24
#endif

  LoADC = MEM_read_byte(&PinADCtab[LowPin]) | TXD_MSK;
    2a6e:	86 2f       	mov	r24, r22
    2a70:	90 e0       	ldi	r25, 0x00	; 0
    2a72:	84 55       	subi	r24, 0x54	; 84
    2a74:	9e 4f       	sbci	r25, 0xFE	; 254
    2a76:	0e 94 9c 1c 	call	0x3938	; 0x3938 <__eerd_byte_m168>
    2a7a:	c8 2e       	mov	r12, r24
  HiPinR_L = MEM_read_byte(&PinRLtab[HighPin]);	//R_L mask for HighPin R_L load
    2a7c:	21 2f       	mov	r18, r17
    2a7e:	30 e0       	ldi	r19, 0x00	; 0
    2a80:	c9 01       	movw	r24, r18
    2a82:	87 55       	subi	r24, 0x57	; 87
    2a84:	9e 4f       	sbci	r25, 0xFE	; 254
    2a86:	0e 94 9c 1c 	call	0x3938	; 0x3938 <__eerd_byte_m168>
    2a8a:	98 2e       	mov	r9, r24
  HiPinR_H = HiPinR_L + HiPinR_L;	//double for HighPin R_H load

  if(PartFound == PART_CAPACITOR) {
    2a8c:	80 91 09 01 	lds	r24, 0x0109
    2a90:	87 30       	cpi	r24, 0x07	; 7
    2a92:	09 f4       	brne	.+2      	; 0x2a96 <ReadCapacity+0x4e>
    2a94:	01 c2       	rjmp	.+1026   	; 0x2e98 <ReadCapacity+0x450>
     lcd_string(ultoa(cap.cval,outval,10));
     wait2s();
#endif
     return;	//We have found a capacitor already
  }
  if(PartFound == PART_RESISTOR) {
    2a96:	86 30       	cpi	r24, 0x06	; 6
    2a98:	09 f4       	brne	.+2      	; 0x2a9c <ReadCapacity+0x54>
    2a9a:	fe c1       	rjmp	.+1020   	; 0x2e98 <ReadCapacity+0x450>
     return;	//We have found a resistor already 
  }
  for (ii=0;ii<NumOfDiodes;ii++) {
    2a9c:	90 91 07 01 	lds	r25, 0x0107
    2aa0:	e9 e6       	ldi	r30, 0x69	; 105
    2aa2:	f1 e0       	ldi	r31, 0x01	; 1
    2aa4:	80 e0       	ldi	r24, 0x00	; 0
    2aa6:	0f c0       	rjmp	.+30     	; 0x2ac6 <ReadCapacity+0x7e>
     if ((diodes[ii].Cathode == LowPin) && (diodes[ii].Anode == HighPin) && (diodes[ii].Voltage < 1500)) {
    2aa8:	21 81       	ldd	r18, Z+1	; 0x01
    2aaa:	20 17       	cp	r18, r16
    2aac:	51 f4       	brne	.+20     	; 0x2ac2 <ReadCapacity+0x7a>
    2aae:	20 81       	ld	r18, Z
    2ab0:	21 17       	cp	r18, r17
    2ab2:	39 f4       	brne	.+14     	; 0x2ac2 <ReadCapacity+0x7a>
    2ab4:	22 81       	ldd	r18, Z+2	; 0x02
    2ab6:	33 81       	ldd	r19, Z+3	; 0x03
    2ab8:	45 e0       	ldi	r20, 0x05	; 5
    2aba:	2c 3d       	cpi	r18, 0xDC	; 220
    2abc:	34 07       	cpc	r19, r20
    2abe:	08 f4       	brcc	.+2      	; 0x2ac2 <ReadCapacity+0x7a>
    2ac0:	eb c1       	rjmp	.+982    	; 0x2e98 <ReadCapacity+0x450>
     return;	//We have found a capacitor already
  }
  if(PartFound == PART_RESISTOR) {
     return;	//We have found a resistor already 
  }
  for (ii=0;ii<NumOfDiodes;ii++) {
    2ac2:	8f 5f       	subi	r24, 0xFF	; 255
    2ac4:	34 96       	adiw	r30, 0x04	; 4
    2ac6:	89 17       	cp	r24, r25
    2ac8:	78 f3       	brcs	.-34     	; 0x2aa8 <ReadCapacity+0x60>

#ifdef AUTO_CAL
  pin_combination = (HighPin * 3) + LowPin - 1;	// coded Pin combination for capacity zero offset
#endif

  LoADC = MEM_read_byte(&PinADCtab[LowPin]) | TXD_MSK;
    2aca:	88 e0       	ldi	r24, 0x08	; 8
    2acc:	c8 2a       	or	r12, r24
        return;
     }
  }
  
#if FLASHEND > 0x1fff
  cap.esr = 0;				// set ESR of capacitor to zero
    2ace:	10 92 64 01 	sts	0x0164, r1
    2ad2:	10 92 63 01 	sts	0x0163, r1
#endif
  EntladePins();			// discharge capacitor
    2ad6:	0e 94 74 08 	call	0x10e8	; 0x10e8 <EntladePins>
  ADC_PORT = TXD_VAL;			// switch ADC-Port to GND
    2ada:	88 e0       	ldi	r24, 0x08	; 8
    2adc:	88 b9       	out	0x08, r24	; 8
  R_PORT = 0;				// switch R-Port to GND
    2ade:	15 b8       	out	0x05, r1	; 5
  ADC_DDR = LoADC;			// switch Low-Pin to output (GND)
    2ae0:	c7 b8       	out	0x07, r12	; 7
  R_DDR = HiPinR_L;			// switch R_L port for HighPin to output (GND)
    2ae2:	94 b8       	out	0x04, r9	; 4
  adcv[0] = ReadADC(HighPin);		// voltage before any load 
    2ae4:	81 2f       	mov	r24, r17
    2ae6:	0e 94 b8 19 	call	0x3370	; 0x3370 <ReadADC>
    2aea:	5c 01       	movw	r10, r24
// ******** should adcv[0] be measured without current???
  for (ovcnt16=0;ovcnt16<500;ovcnt16++) {
    2aec:	c0 e0       	ldi	r28, 0x00	; 0
    2aee:	d0 e0       	ldi	r29, 0x00	; 0
     ChargePin10ms(HiPinR_L,1);		//HighPin with R_L 10ms to VCC ,then currentless
    2af0:	89 2d       	mov	r24, r9
    2af2:	61 e0       	ldi	r22, 0x01	; 1
    2af4:	0e 94 99 01 	call	0x332	; 0x332 <ChargePin10ms>
     wait500us();			//wait a little time
    2af8:	0e 94 80 14 	call	0x2900	; 0x2900 <wait500us>
     wdt_reset();
    2afc:	a8 95       	wdr
     // read voltage without current, is already charged enough?
     adcv[2] = ReadADC(HighPin) - adcv[0];
    2afe:	81 2f       	mov	r24, r17
    2b00:	0e 94 b8 19 	call	0x3370	; 0x3370 <ReadADC>
    2b04:	7c 01       	movw	r14, r24
    2b06:	ea 18       	sub	r14, r10
    2b08:	fb 08       	sbc	r15, r11
     if ((ovcnt16 == 126) && (adcv[2] < 75)) {
    2b0a:	ce 37       	cpi	r28, 0x7E	; 126
    2b0c:	d1 05       	cpc	r29, r1
    2b0e:	21 f4       	brne	.+8      	; 0x2b18 <ReadCapacity+0xd0>
    2b10:	9b e4       	ldi	r25, 0x4B	; 75
    2b12:	e9 16       	cp	r14, r25
    2b14:	f1 04       	cpc	r15, r1
    2b16:	50 f0       	brcs	.+20     	; 0x2b2c <ReadCapacity+0xe4>
        // 300mV can not be reached well-timed 
        break;		// don't try to load any more
     }
     if (adcv[2] > 300) {
    2b18:	2d e2       	ldi	r18, 0x2D	; 45
    2b1a:	e2 16       	cp	r14, r18
    2b1c:	21 e0       	ldi	r18, 0x01	; 1
    2b1e:	f2 06       	cpc	r15, r18
    2b20:	28 f4       	brcc	.+10     	; 0x2b2c <ReadCapacity+0xe4>
  R_PORT = 0;				// switch R-Port to GND
  ADC_DDR = LoADC;			// switch Low-Pin to output (GND)
  R_DDR = HiPinR_L;			// switch R_L port for HighPin to output (GND)
  adcv[0] = ReadADC(HighPin);		// voltage before any load 
// ******** should adcv[0] be measured without current???
  for (ovcnt16=0;ovcnt16<500;ovcnt16++) {
    2b22:	21 96       	adiw	r28, 0x01	; 1
    2b24:	31 e0       	ldi	r19, 0x01	; 1
    2b26:	c4 3f       	cpi	r28, 0xF4	; 244
    2b28:	d3 07       	cpc	r29, r19
    2b2a:	11 f7       	brne	.-60     	; 0x2af0 <ReadCapacity+0xa8>
     }
  }
  // wait 5ms and read voltage again, does the capacitor keep the voltage?
//  adcv[1] = W5msReadADC(HighPin) - adcv[0];
//  wdt_reset();
  cpre = -12;			//default unit is pF
    2b2c:	84 ef       	ldi	r24, 0xF4	; 244
    2b2e:	80 93 48 01 	sts	0x0148, r24
  if (adcv[2] < 301) {
    2b32:	4d e2       	ldi	r20, 0x2D	; 45
    2b34:	e4 16       	cp	r14, r20
    2b36:	41 e0       	ldi	r20, 0x01	; 1
    2b38:	f4 06       	cpc	r15, r20
    2b3a:	08 f4       	brcc	.+2      	; 0x2b3e <ReadCapacity+0xf6>
    2b3c:	a8 c1       	rjmp	.+848    	; 0x2e8e <ReadCapacity+0x446>
     wait1s();
#endif
     goto keinC;		// was never charged enough, >100mF or shorted
  }
  //voltage is rised properly and keeps the voltage enough
  if ((ovcnt16 == 0 ) && (adcv[2] > 1300)) {
    2b3e:	20 97       	sbiw	r28, 0x00	; 0
    2b40:	31 f4       	brne	.+12     	; 0x2b4e <ReadCapacity+0x106>
    2b42:	85 e1       	ldi	r24, 0x15	; 21
    2b44:	e8 16       	cp	r14, r24
    2b46:	85 e0       	ldi	r24, 0x05	; 5
    2b48:	f8 06       	cpc	r15, r24
    2b4a:	08 f0       	brcs	.+2      	; 0x2b4e <ReadCapacity+0x106>
    2b4c:	67 c0       	rjmp	.+206    	; 0x2c1c <ReadCapacity+0x1d4>
     goto messe_mit_rh;		// Voltage of more than 1300mV is reached in one pulse, to fast loaded
  }
  // Capacity is more than about 50µF
  cpre = -9;		// switch units to nF 
    2b4e:	87 ef       	ldi	r24, 0xF7	; 247
    2b50:	80 93 48 01 	sts	0x0148, r24
  }
  cap.cval_uncorrected = ovcnt16 + 1;
  cap.cval_uncorrected *= getRLmultip(adcv[2]);		// get factor to convert time to capacity from table
#else
  // wait the same time which is required for loading
  for (tmpint=0;tmpint<=ovcnt16;tmpint++) {
    2b54:	cc 24       	eor	r12, r12
    2b56:	dd 24       	eor	r13, r13
     wait10ms();
    2b58:	0e 94 7a 14 	call	0x28f4	; 0x28f4 <wait10ms>
     adcv[3] = ReadADC(HighPin) - adcv[0]; // read voltage again, is discharged only a little bit ?
    2b5c:	81 2f       	mov	r24, r17
    2b5e:	0e 94 b8 19 	call	0x3370	; 0x3370 <ReadADC>
    2b62:	8a 19       	sub	r24, r10
    2b64:	9b 09       	sbc	r25, r11
     wdt_reset();
    2b66:	a8 95       	wdr
  }
  cap.cval_uncorrected = ovcnt16 + 1;
  cap.cval_uncorrected *= getRLmultip(adcv[2]);		// get factor to convert time to capacity from table
#else
  // wait the same time which is required for loading
  for (tmpint=0;tmpint<=ovcnt16;tmpint++) {
    2b68:	08 94       	sec
    2b6a:	c1 1c       	adc	r12, r1
    2b6c:	d1 1c       	adc	r13, r1
    2b6e:	cc 15       	cp	r28, r12
    2b70:	dd 05       	cpc	r29, r13
    2b72:	90 f7       	brcc	.-28     	; 0x2b58 <ReadCapacity+0x110>
     wait10ms();
     adcv[3] = ReadADC(HighPin) - adcv[0]; // read voltage again, is discharged only a little bit ?
     wdt_reset();
  }
  if (adcv[2] > adcv[3]) {
    2b74:	8e 15       	cp	r24, r14
    2b76:	9f 05       	cpc	r25, r15
    2b78:	48 f4       	brcc	.+18     	; 0x2b8c <ReadCapacity+0x144>
     // build difference to load voltage
     adcv[3] = adcv[2] - adcv[3];
    2b7a:	97 01       	movw	r18, r14
    2b7c:	28 1b       	sub	r18, r24
    2b7e:	39 0b       	sbc	r19, r25
    2b80:	c9 01       	movw	r24, r18
  } else {
     adcv[3] = 0;
  }
  if (adcv[3] > 100) {
    2b82:	25 36       	cpi	r18, 0x65	; 101
    2b84:	31 05       	cpc	r19, r1
    2b86:	08 f0       	brcs	.+2      	; 0x2b8a <ReadCapacity+0x142>
    2b88:	82 c1       	rjmp	.+772    	; 0x2e8e <ReadCapacity+0x446>
    2b8a:	02 c0       	rjmp	.+4      	; 0x2b90 <ReadCapacity+0x148>
  }
  if (adcv[2] > adcv[3]) {
     // build difference to load voltage
     adcv[3] = adcv[2] - adcv[3];
  } else {
     adcv[3] = 0;
    2b8c:	80 e0       	ldi	r24, 0x00	; 0
    2b8e:	90 e0       	ldi	r25, 0x00	; 0
     lcd_space();
     wait1s();
 #endif
     goto keinC;		// capacitor does not keep the voltage about 5ms
  }
  cap.cval_uncorrected = ovcnt16 + 1;
    2b90:	21 96       	adiw	r28, 0x01	; 1
    2b92:	5e 01       	movw	r10, r28
    2b94:	cc 24       	eor	r12, r12
    2b96:	dd 24       	eor	r13, r13
    2b98:	a0 92 5f 01 	sts	0x015F, r10
    2b9c:	b0 92 60 01 	sts	0x0160, r11
    2ba0:	c0 92 61 01 	sts	0x0161, r12
    2ba4:	d0 92 62 01 	sts	0x0162, r13
  // compute factor with load voltage + lost voltage during the voltage load time
  cap.cval_uncorrected *= getRLmultip(adcv[2]+adcv[3]);	// get factor to convert time to capacity from table
    2ba8:	8e 0d       	add	r24, r14
    2baa:	9f 1d       	adc	r25, r15
    2bac:	0e 94 92 14 	call	0x2924	; 0x2924 <getRLmultip>
    2bb0:	bc 01       	movw	r22, r24
    2bb2:	80 e0       	ldi	r24, 0x00	; 0
    2bb4:	90 e0       	ldi	r25, 0x00	; 0
    2bb6:	a6 01       	movw	r20, r12
    2bb8:	95 01       	movw	r18, r10
    2bba:	0e 94 e9 1b 	call	0x37d2	; 0x37d2 <__mulsi3>
    2bbe:	60 93 5f 01 	sts	0x015F, r22
    2bc2:	70 93 60 01 	sts	0x0160, r23
    2bc6:	80 93 61 01 	sts	0x0161, r24
    2bca:	90 93 62 01 	sts	0x0162, r25
#endif
   cap.cval = cap.cval_uncorrected;		// set result to uncorrected
    2bce:	60 93 5b 01 	sts	0x015B, r22
    2bd2:	70 93 5c 01 	sts	0x015C, r23
    2bd6:	80 93 5d 01 	sts	0x015D, r24
    2bda:	90 93 5e 01 	sts	0x015E, r25
   Scale_C_with_vcc();
    2bde:	0e 94 d4 14 	call	0x29a8	; 0x29a8 <Scale_C_with_vcc>
   // cap.cval for this type is at least 40000nF, so the last digit will be never shown
   cap.cval *= (1000 - C_H_KORR);	// correct with C_H_KORR with 0.1% resolution, but prevent overflow
    2be2:	60 91 5b 01 	lds	r22, 0x015B
    2be6:	70 91 5c 01 	lds	r23, 0x015C
    2bea:	80 91 5d 01 	lds	r24, 0x015D
    2bee:	90 91 5e 01 	lds	r25, 0x015E
    2bf2:	28 ee       	ldi	r18, 0xE8	; 232
    2bf4:	33 e0       	ldi	r19, 0x03	; 3
    2bf6:	40 e0       	ldi	r20, 0x00	; 0
    2bf8:	50 e0       	ldi	r21, 0x00	; 0
    2bfa:	0e 94 e9 1b 	call	0x37d2	; 0x37d2 <__mulsi3>
   cap.cval /= 100;
    2bfe:	24 e6       	ldi	r18, 0x64	; 100
    2c00:	30 e0       	ldi	r19, 0x00	; 0
    2c02:	40 e0       	ldi	r20, 0x00	; 0
    2c04:	50 e0       	ldi	r21, 0x00	; 0
    2c06:	0e 94 28 1c 	call	0x3850	; 0x3850 <__udivmodsi4>
    2c0a:	20 93 5b 01 	sts	0x015B, r18
    2c0e:	30 93 5c 01 	sts	0x015C, r19
    2c12:	40 93 5d 01 	sts	0x015D, r20
    2c16:	50 93 5e 01 	sts	0x015E, r21
    2c1a:	26 c1       	rjmp	.+588    	; 0x2e68 <ReadCapacity+0x420>
  pin_combination = (HighPin * 3) + LowPin - 1;	// coded Pin combination for capacity zero offset
#endif

  LoADC = MEM_read_byte(&PinADCtab[LowPin]) | TXD_MSK;
  HiPinR_L = MEM_read_byte(&PinRLtab[HighPin]);	//R_L mask for HighPin R_L load
  HiPinR_H = HiPinR_L + HiPinR_L;	//double for HighPin R_H load
    2c1c:	e9 2c       	mov	r14, r9
    2c1e:	ee 0c       	add	r14, r14

//==================================================================================
// Measurement of little capacity values
messe_mit_rh:
  //little capacity value, about  < 50 µF
  EntladePins();			// discharge capacitor
    2c20:	0e 94 74 08 	call	0x10e8	; 0x10e8 <EntladePins>
  //measure with the R_H (470kOhm) resistor 
  R_PORT = 0;		// R_DDR ist HiPinR_L
    2c24:	15 b8       	out	0x05, r1	; 5
  ADC_DDR = (1<<TP1) | (1<<TP2) | (1<<TP3) | (1<<TxD);	//switch all Pins to output
    2c26:	8f e0       	ldi	r24, 0x0F	; 15
    2c28:	87 b9       	out	0x07, r24	; 7
  ADC_PORT = TXD_VAL;		//switch all ADC Pins to GND
    2c2a:	88 e0       	ldi	r24, 0x08	; 8
    2c2c:	88 b9       	out	0x08, r24	; 8
  R_DDR = HiPinR_H;   		// switch R_H resistor port for HighPin to output (GND)
    2c2e:	e4 b8       	out	0x04, r14	; 4
// setup Analog Comparator
  ADC_COMP_CONTROL = (1<<ACME);			//enable Analog Comparator Multiplexer
    2c30:	80 e4       	ldi	r24, 0x40	; 64
    2c32:	80 93 7b 00 	sts	0x007B, r24
  ACSR =  (1<<ACBG) | (1<<ACI)  | (1<<ACIC);	// enable, 1.3V, no Interrupt, Connect to Timer1 
    2c36:	84 e5       	ldi	r24, 0x54	; 84
    2c38:	80 bf       	out	0x30, r24	; 48
  ADMUX = (1<<REFS0) | HighPin;			// switch Mux to High-Pin
    2c3a:	81 2f       	mov	r24, r17
    2c3c:	80 64       	ori	r24, 0x40	; 64
    2c3e:	80 93 7c 00 	sts	0x007C, r24
  ADCSRA = (1<<ADIF) | AUTO_CLOCK_DIV; //disable ADC
    2c42:	86 e1       	ldi	r24, 0x16	; 22
    2c44:	80 93 7a 00 	sts	0x007A, r24
  wait200us();			//wait for bandgap to start up
    2c48:	0e 94 83 14 	call	0x2906	; 0x2906 <wait200us>

  ovcnt16 = 0;
// setup Counter1
  TCCR1A = 0;			// set Counter1 to normal Mode
    2c4c:	10 92 80 00 	sts	0x0080, r1
  TCNT1 = 0;			//set Counter to 0
    2c50:	10 92 85 00 	sts	0x0085, r1
    2c54:	10 92 84 00 	sts	0x0084, r1
  TI1_INT_FLAGS = (1<<ICF1) | (1<<OCF1B) | (1<<OCF1A) | (1<<TOV1);	// mega88
    2c58:	87 e2       	ldi	r24, 0x27	; 39
    2c5a:	86 bb       	out	0x16, r24	; 22
  R_PORT = HiPinR_H;           	// switch R_H resistor port for HighPin to VCC
    2c5c:	e5 b8       	out	0x05, r14	; 5
  if(PartFound == PART_FET) {
    2c5e:	80 91 09 01 	lds	r24, 0x0109
    2c62:	83 30       	cpi	r24, 0x03	; 3
    2c64:	79 f4       	brne	.+30     	; 0x2c84 <ReadCapacity+0x23c>
     // charge capacitor with R_H resistor
     TCCR1B = (1<<CS10);	//Start counter 1MHz or 8MHz
    2c66:	81 e0       	ldi	r24, 0x01	; 1
    2c68:	80 93 81 00 	sts	0x0081, r24
     ADC_DDR = (((1<<TP1) | (1<<TP2) | (1<<TP3) | TXD_MSK) & ~(1<<HighPin));	// release only HighPin ADC port
    2c6c:	81 e0       	ldi	r24, 0x01	; 1
    2c6e:	90 e0       	ldi	r25, 0x00	; 0
    2c70:	01 2e       	mov	r0, r17
    2c72:	02 c0       	rjmp	.+4      	; 0x2c78 <ReadCapacity+0x230>
    2c74:	88 0f       	add	r24, r24
    2c76:	99 1f       	adc	r25, r25
    2c78:	0a 94       	dec	r0
    2c7a:	e2 f7       	brpl	.-8      	; 0x2c74 <ReadCapacity+0x22c>
    2c7c:	80 95       	com	r24
    2c7e:	8f 70       	andi	r24, 0x0F	; 15
    2c80:	87 b9       	out	0x07, r24	; 7
    2c82:	04 c0       	rjmp	.+8      	; 0x2c8c <ReadCapacity+0x244>
  } else {
     TCCR1B =  (1<<CS10);	//start counter 1MHz or 8MHz
    2c84:	81 e0       	ldi	r24, 0x01	; 1
    2c86:	80 93 81 00 	sts	0x0081, r24
     ADC_DDR = LoADC;		// stay LoADC Pin switched to GND, charge capacitor with R_H slowly
    2c8a:	c7 b8       	out	0x07, r12	; 7
     ii = TI1_INT_FLAGS;		//read Timer flags
     if (ii & (1<<ICF1))  {
        break;
     }
     if((ii & (1<<TOV1))) {		// counter overflow, 65.536 ms @ 1MHz, 8.192ms @ 8MHz
        TI1_INT_FLAGS = (1<<TOV1);	// Reset OV Flag
    2c8c:	81 e0       	ldi	r24, 0x01	; 1
     ADC_DDR = LoADC;		// stay LoADC Pin switched to GND, charge capacitor with R_H slowly
  }
//******************************
  while(1) {
     // Wait, until  Input Capture is set
     ii = TI1_INT_FLAGS;		//read Timer flags
    2c8e:	26 b3       	in	r18, 0x16	; 22
     if (ii & (1<<ICF1))  {
    2c90:	25 fd       	sbrc	r18, 5
    2c92:	09 c0       	rjmp	.+18     	; 0x2ca6 <ReadCapacity+0x25e>
        break;
     }
     if((ii & (1<<TOV1))) {		// counter overflow, 65.536 ms @ 1MHz, 8.192ms @ 8MHz
    2c94:	20 ff       	sbrs	r18, 0
    2c96:	fb cf       	rjmp	.-10     	; 0x2c8e <ReadCapacity+0x246>
        TI1_INT_FLAGS = (1<<TOV1);	// Reset OV Flag
    2c98:	86 bb       	out	0x16, r24	; 22
        wdt_reset();
    2c9a:	a8 95       	wdr
        ovcnt16++;
    2c9c:	21 96       	adiw	r28, 0x01	; 1
        if(ovcnt16 == (F_CPU/5000)) {
    2c9e:	36 e0       	ldi	r19, 0x06	; 6
    2ca0:	c0 34       	cpi	r28, 0x40	; 64
    2ca2:	d3 07       	cpc	r29, r19
    2ca4:	a1 f7       	brne	.-24     	; 0x2c8e <ReadCapacity+0x246>
           break; 	//Timeout for Charging, above 12 s
        }
     }
  }
  TCCR1B = (0<<ICNC1) | (0<<ICES1) | (0<<CS10);  // stop counter
    2ca6:	10 92 81 00 	sts	0x0081, r1
  TI1_INT_FLAGS = (1<<ICF1);			// Reset Input Capture
    2caa:	80 e2       	ldi	r24, 0x20	; 32
    2cac:	86 bb       	out	0x16, r24	; 22
  tmpint = ICR1;		// get previous Input Capture Counter flag
    2cae:	e0 90 86 00 	lds	r14, 0x0086
    2cb2:	f0 90 87 00 	lds	r15, 0x0087
// check actual counter, if an additional overflow must be added
  if((TCNT1 > tmpint) && (ii & (1<<TOV1))) {
    2cb6:	80 91 84 00 	lds	r24, 0x0084
    2cba:	90 91 85 00 	lds	r25, 0x0085
    2cbe:	e8 16       	cp	r14, r24
    2cc0:	f9 06       	cpc	r15, r25
    2cc2:	28 f4       	brcc	.+10     	; 0x2cce <ReadCapacity+0x286>
    2cc4:	20 ff       	sbrs	r18, 0
    2cc6:	03 c0       	rjmp	.+6      	; 0x2cce <ReadCapacity+0x286>
     // this OV was not counted, but was before the Input Capture
     TI1_INT_FLAGS = (1<<TOV1);		// Reset OV Flag
    2cc8:	81 e0       	ldi	r24, 0x01	; 1
    2cca:	86 bb       	out	0x16, r24	; 22
     ovcnt16++;
    2ccc:	21 96       	adiw	r28, 0x01	; 1
  }
//############################################################
  ADCSRA = (1<<ADEN) | (1<<ADIF) | AUTO_CLOCK_DIV; //enable ADC
    2cce:	86 e9       	ldi	r24, 0x96	; 150
    2cd0:	80 93 7a 00 	sts	0x007A, r24
  R_DDR = 0;			// switch R_H resistor port for input
    2cd4:	14 b8       	out	0x04, r1	; 4
  R_PORT = 0;			// switch R_H resistor port pull up for HighPin off
    2cd6:	15 b8       	out	0x05, r1	; 5
  load_diff = ReadADC(HighPin) + REF_C_KORR - ref_mv;	// build difference of capacitor voltage to Reference Voltage
    2cd8:	81 2f       	mov	r24, r17
    2cda:	0e 94 b8 19 	call	0x3370	; 0x3370 <ReadADC>
    2cde:	20 91 41 01 	lds	r18, 0x0141
    2ce2:	30 91 42 01 	lds	r19, 0x0142
    2ce6:	82 1b       	sub	r24, r18
    2ce8:	93 0b       	sbc	r25, r19
    2cea:	0c 96       	adiw	r24, 0x0c	; 12
    2cec:	90 93 68 01 	sts	0x0168, r25
    2cf0:	80 93 67 01 	sts	0x0167, r24
//############################################################
  if (ovcnt16 >= (F_CPU/10000)) {
    2cf4:	43 e0       	ldi	r20, 0x03	; 3
    2cf6:	c0 32       	cpi	r28, 0x20	; 32
    2cf8:	d4 07       	cpc	r29, r20
    2cfa:	08 f0       	brcs	.+2      	; 0x2cfe <ReadCapacity+0x2b6>
    2cfc:	c8 c0       	rjmp	.+400    	; 0x2e8e <ReadCapacity+0x446>
     goto keinC;	// no normal end
  }
  cap.cval_uncorrected = CombineII2Long(ovcnt16, tmpint);
    2cfe:	ce 01       	movw	r24, r28
    2d00:	b7 01       	movw	r22, r14
    2d02:	0e 94 91 14 	call	0x2922	; 0x2922 <CombineII2Long>
    2d06:	60 93 5f 01 	sts	0x015F, r22
    2d0a:	70 93 60 01 	sts	0x0160, r23
    2d0e:	80 93 61 01 	sts	0x0161, r24
    2d12:	90 93 62 01 	sts	0x0162, r25

  cpre = -12;			// cap.cval unit is pF 
    2d16:	24 ef       	ldi	r18, 0xF4	; 244
    2d18:	20 93 48 01 	sts	0x0148, r18
  if (ovcnt16 > 65) {
    2d1c:	c2 34       	cpi	r28, 0x42	; 66
    2d1e:	d1 05       	cpc	r29, r1
    2d20:	88 f0       	brcs	.+34     	; 0x2d44 <ReadCapacity+0x2fc>
     cap.cval_uncorrected /= 100;	// switch to next unit
    2d22:	24 e6       	ldi	r18, 0x64	; 100
    2d24:	30 e0       	ldi	r19, 0x00	; 0
    2d26:	40 e0       	ldi	r20, 0x00	; 0
    2d28:	50 e0       	ldi	r21, 0x00	; 0
    2d2a:	0e 94 28 1c 	call	0x3850	; 0x3850 <__udivmodsi4>
    2d2e:	20 93 5f 01 	sts	0x015F, r18
    2d32:	30 93 60 01 	sts	0x0160, r19
    2d36:	40 93 61 01 	sts	0x0161, r20
    2d3a:	50 93 62 01 	sts	0x0162, r21
     cpre += 2;			// set unit, prevent overflow
    2d3e:	86 ef       	ldi	r24, 0xF6	; 246
    2d40:	80 93 48 01 	sts	0x0148, r24
  }
  cap.cval_uncorrected *= RHmultip;		// 708
    2d44:	60 91 00 01 	lds	r22, 0x0100
    2d48:	70 91 01 01 	lds	r23, 0x0101
    2d4c:	80 e0       	ldi	r24, 0x00	; 0
    2d4e:	90 e0       	ldi	r25, 0x00	; 0
    2d50:	20 91 5f 01 	lds	r18, 0x015F
    2d54:	30 91 60 01 	lds	r19, 0x0160
    2d58:	40 91 61 01 	lds	r20, 0x0161
    2d5c:	50 91 62 01 	lds	r21, 0x0162
    2d60:	0e 94 e9 1b 	call	0x37d2	; 0x37d2 <__mulsi3>
  cap.cval_uncorrected /= (F_CPU / 10000);	// divide by 100 (@ 1MHz clock), 800 (@ 8MHz clock)
    2d64:	20 e2       	ldi	r18, 0x20	; 32
    2d66:	33 e0       	ldi	r19, 0x03	; 3
    2d68:	40 e0       	ldi	r20, 0x00	; 0
    2d6a:	50 e0       	ldi	r21, 0x00	; 0
    2d6c:	0e 94 28 1c 	call	0x3850	; 0x3850 <__udivmodsi4>
    2d70:	20 93 5f 01 	sts	0x015F, r18
    2d74:	30 93 60 01 	sts	0x0160, r19
    2d78:	40 93 61 01 	sts	0x0161, r20
    2d7c:	50 93 62 01 	sts	0x0162, r21
  cap.cval = cap.cval_uncorrected;		// set the corrected cap.cval
    2d80:	eb e5       	ldi	r30, 0x5B	; 91
    2d82:	f1 e0       	ldi	r31, 0x01	; 1
    2d84:	20 93 5b 01 	sts	0x015B, r18
    2d88:	31 83       	std	Z+1, r19	; 0x01
    2d8a:	42 83       	std	Z+2, r20	; 0x02
    2d8c:	53 83       	std	Z+3, r21	; 0x03
  Scale_C_with_vcc();
    2d8e:	0e 94 d4 14 	call	0x29a8	; 0x29a8 <Scale_C_with_vcc>
  if (cpre == -12) {
    2d92:	80 91 48 01 	lds	r24, 0x0148
    2d96:	84 3f       	cpi	r24, 0xF4	; 244
    2d98:	09 f0       	breq	.+2      	; 0x2d9c <ReadCapacity+0x354>
    2d9a:	55 c0       	rjmp	.+170    	; 0x2e46 <ReadCapacity+0x3fe>
#if COMP_SLEW1 > COMP_SLEW2
     if (cap.cval < COMP_SLEW1) {
    2d9c:	c0 90 5b 01 	lds	r12, 0x015B
    2da0:	d0 90 5c 01 	lds	r13, 0x015C
    2da4:	e0 90 5d 01 	lds	r14, 0x015D
    2da8:	f0 90 5e 01 	lds	r15, 0x015E
    2dac:	80 ea       	ldi	r24, 0xA0	; 160
    2dae:	c8 16       	cp	r12, r24
    2db0:	8f e0       	ldi	r24, 0x0F	; 15
    2db2:	d8 06       	cpc	r13, r24
    2db4:	80 e0       	ldi	r24, 0x00	; 0
    2db6:	e8 06       	cpc	r14, r24
    2db8:	80 e0       	ldi	r24, 0x00	; 0
    2dba:	f8 06       	cpc	r15, r24
    2dbc:	c0 f4       	brcc	.+48     	; 0x2dee <ReadCapacity+0x3a6>
        // add slew rate dependent offset
        cap.cval += (COMP_SLEW1 / (cap.cval+COMP_SLEW2 ));
    2dbe:	a7 01       	movw	r20, r14
    2dc0:	96 01       	movw	r18, r12
    2dc2:	24 52       	subi	r18, 0x24	; 36
    2dc4:	3f 4f       	sbci	r19, 0xFF	; 255
    2dc6:	4f 4f       	sbci	r20, 0xFF	; 255
    2dc8:	5f 4f       	sbci	r21, 0xFF	; 255
    2dca:	60 ea       	ldi	r22, 0xA0	; 160
    2dcc:	7f e0       	ldi	r23, 0x0F	; 15
    2dce:	80 e0       	ldi	r24, 0x00	; 0
    2dd0:	90 e0       	ldi	r25, 0x00	; 0
    2dd2:	0e 94 28 1c 	call	0x3850	; 0x3850 <__udivmodsi4>
    2dd6:	2c 0d       	add	r18, r12
    2dd8:	3d 1d       	adc	r19, r13
    2dda:	4e 1d       	adc	r20, r14
    2ddc:	5f 1d       	adc	r21, r15
    2dde:	20 93 5b 01 	sts	0x015B, r18
    2de2:	30 93 5c 01 	sts	0x015C, r19
    2de6:	40 93 5d 01 	sts	0x015D, r20
    2dea:	50 93 5e 01 	sts	0x015E, r21
     }
#endif
#ifdef AUTO_CAL
     // auto calibration mode, cap_null can be updated in selftest section
     tmpint = eeprom_read_byte(&c_zero_tab[pin_combination]);	// read zero offset
    2dee:	80 91 47 01 	lds	r24, 0x0147
    2df2:	90 e0       	ldi	r25, 0x00	; 0
    2df4:	83 54       	subi	r24, 0x43	; 67
    2df6:	9e 4f       	sbci	r25, 0xFE	; 254
    2df8:	0e 94 9c 1c 	call	0x3938	; 0x3938 <__eerd_byte_m168>
     if (cap.cval > tmpint) {
    2dfc:	20 91 5b 01 	lds	r18, 0x015B
    2e00:	30 91 5c 01 	lds	r19, 0x015C
    2e04:	40 91 5d 01 	lds	r20, 0x015D
    2e08:	50 91 5e 01 	lds	r21, 0x015E
        cap.cval += (COMP_SLEW1 / (cap.cval+COMP_SLEW2 ));
     }
#endif
#ifdef AUTO_CAL
     // auto calibration mode, cap_null can be updated in selftest section
     tmpint = eeprom_read_byte(&c_zero_tab[pin_combination]);	// read zero offset
    2e0c:	90 e0       	ldi	r25, 0x00	; 0
     if (cap.cval > tmpint) {
    2e0e:	a0 e0       	ldi	r26, 0x00	; 0
    2e10:	b0 e0       	ldi	r27, 0x00	; 0
    2e12:	82 17       	cp	r24, r18
    2e14:	93 07       	cpc	r25, r19
    2e16:	a4 07       	cpc	r26, r20
    2e18:	b5 07       	cpc	r27, r21
    2e1a:	68 f4       	brcc	.+26     	; 0x2e36 <ReadCapacity+0x3ee>
         cap.cval -= tmpint;		//subtract zero offset (pF)
    2e1c:	28 1b       	sub	r18, r24
    2e1e:	39 0b       	sbc	r19, r25
    2e20:	4a 0b       	sbc	r20, r26
    2e22:	5b 0b       	sbc	r21, r27
    2e24:	20 93 5b 01 	sts	0x015B, r18
    2e28:	30 93 5c 01 	sts	0x015C, r19
    2e2c:	40 93 5d 01 	sts	0x015D, r20
    2e30:	50 93 5e 01 	sts	0x015E, r21
    2e34:	08 c0       	rjmp	.+16     	; 0x2e46 <ReadCapacity+0x3fe>
     } else {
         cap.cval = 0;			//unsigned long may not reach negativ value
    2e36:	10 92 5b 01 	sts	0x015B, r1
    2e3a:	10 92 5c 01 	sts	0x015C, r1
    2e3e:	10 92 5d 01 	sts	0x015D, r1
    2e42:	10 92 5e 01 	sts	0x015E, r1
  lcd_testpin(HighPin);
  lcd_space();
  DisplayValue(cap.cval,cpre,'F',4);
  wait3s();
#endif
  R_DDR = HiPinR_L; 		//switch R_L for High-Pin to GND
    2e46:	94 b8       	out	0x04, r9	; 4
#if F_CPU < 2000001
   if(cap.cval < 50)
#else 
   if(cap.cval < 25)
    2e48:	80 91 5b 01 	lds	r24, 0x015B
    2e4c:	90 91 5c 01 	lds	r25, 0x015C
    2e50:	a0 91 5d 01 	lds	r26, 0x015D
    2e54:	b0 91 5e 01 	lds	r27, 0x015E
    2e58:	89 31       	cpi	r24, 0x19	; 25
    2e5a:	91 05       	cpc	r25, r1
    2e5c:	a1 05       	cpc	r26, r1
    2e5e:	b1 05       	cpc	r27, r1
    2e60:	b0 f0       	brcs	.+44     	; 0x2e8e <ReadCapacity+0x446>
#endif
      goto keinC;	//capacity to low, < 70pF @1MHz (35pF @8MHz)
   }
   // end low capacity 
#if FLASHEND > 0x1fff
   if (ovcnt16 > (6 * ((unsigned long)F_CPU/1000000))) {	// above 3 uF
    2e62:	c1 33       	cpi	r28, 0x31	; 49
    2e64:	d1 05       	cpc	r29, r1
    2e66:	20 f0       	brcs	.+8      	; 0x2e70 <ReadCapacity+0x428>
      GetESR(HighPin,LowPin);
    2e68:	81 2f       	mov	r24, r17
    2e6a:	60 2f       	mov	r22, r16
    2e6c:	0e 94 25 1a 	call	0x344a	; 0x344a <GetESR>
   }
#endif
checkDiodes:
   if((NumOfDiodes > 0)  && (PartFound != PART_FET)) {
    2e70:	80 91 07 01 	lds	r24, 0x0107
    2e74:	88 23       	and	r24, r24
    2e76:	21 f0       	breq	.+8      	; 0x2e80 <ReadCapacity+0x438>
    2e78:	80 91 09 01 	lds	r24, 0x0109
    2e7c:	83 30       	cpi	r24, 0x03	; 3
    2e7e:	39 f4       	brne	.+14     	; 0x2e8e <ReadCapacity+0x446>
      wait1s();
#endif
      // nearly shure, that there is one or more diodes in reverse direction,
      // which would be wrongly detected as capacitor 
   } else {
      PartFound = PART_CAPACITOR;	//capacitor is found
    2e80:	87 e0       	ldi	r24, 0x07	; 7
    2e82:	80 93 09 01 	sts	0x0109, r24
      cap.ca = LowPin;			// save LowPin
    2e86:	00 93 65 01 	sts	0x0165, r16
      cap.cb = HighPin;		// save HighPin
    2e8a:	10 93 66 01 	sts	0x0166, r17
keinC:
  // discharge capacitor again
//  EntladePins();		// discharge capacitors
  //ready
  // switch all ports to input
  ADC_DDR =  TXD_MSK;		// switch all ADC ports to input
    2e8e:	88 e0       	ldi	r24, 0x08	; 8
    2e90:	87 b9       	out	0x07, r24	; 7
  ADC_PORT = TXD_VAL;		// switch all ADC outputs to GNG, no pull up
    2e92:	88 b9       	out	0x08, r24	; 8
  R_DDR = 0;			// switch all resistor ports to input
    2e94:	14 b8       	out	0x04, r1	; 4
  R_PORT = 0; 			// switch all resistor outputs to GND, no pull up
    2e96:	15 b8       	out	0x05, r1	; 5
  return;
 } // end ReadCapacity()
    2e98:	df 91       	pop	r29
    2e9a:	cf 91       	pop	r28
    2e9c:	1f 91       	pop	r17
    2e9e:	0f 91       	pop	r16
    2ea0:	ff 90       	pop	r15
    2ea2:	ef 90       	pop	r14
    2ea4:	df 90       	pop	r13
    2ea6:	cf 90       	pop	r12
    2ea8:	bf 90       	pop	r11
    2eaa:	af 90       	pop	r10
    2eac:	9f 90       	pop	r9
    2eae:	08 95       	ret

00002eb0 <ReadInductance>:

unsigned long CombineII2Long( unsigned int ovcnt16, unsigned int tmpcnt); //tricky function to build unsigned long from two unsigned int values


//=================================================================
void ReadInductance(void) {
    2eb0:	2f 92       	push	r2
    2eb2:	3f 92       	push	r3
    2eb4:	4f 92       	push	r4
    2eb6:	5f 92       	push	r5
    2eb8:	6f 92       	push	r6
    2eba:	7f 92       	push	r7
    2ebc:	8f 92       	push	r8
    2ebe:	9f 92       	push	r9
    2ec0:	af 92       	push	r10
    2ec2:	bf 92       	push	r11
    2ec4:	cf 92       	push	r12
    2ec6:	df 92       	push	r13
    2ec8:	ef 92       	push	r14
    2eca:	ff 92       	push	r15
    2ecc:	0f 93       	push	r16
    2ece:	1f 93       	push	r17
    2ed0:	df 93       	push	r29
    2ed2:	cf 93       	push	r28
    2ed4:	cd b7       	in	r28, 0x3d	; 61
    2ed6:	de b7       	in	r29, 0x3e	; 62
    2ed8:	a0 97       	sbiw	r28, 0x20	; 32
    2eda:	0f b6       	in	r0, 0x3f	; 63
    2edc:	f8 94       	cli
    2ede:	de bf       	out	0x3e, r29	; 62
    2ee0:	0f be       	out	0x3f, r0	; 63
    2ee2:	cd bf       	out	0x3d, r28	; 61
  uint8_t found;	// variable used for searching resistors 
  uint8_t LowPin;	// number of pin with low voltage
  uint8_t HighPin;	// number of pin with high voltage 


  if(PartFound != PART_RESISTOR) {
    2ee4:	80 91 09 01 	lds	r24, 0x0109
    2ee8:	86 30       	cpi	r24, 0x06	; 6
    2eea:	09 f0       	breq	.+2      	; 0x2eee <ReadInductance+0x3e>
    2eec:	22 c2       	rjmp	.+1092   	; 0x3332 <ReadInductance+0x482>
    2eee:	19 8a       	std	Y+17, r1	; 0x11
     return;	//We have found no resistor  
  }
  for (found=0;found<ResistorsFound;found++) {
     if (resis[found].rx > 28000) continue;
    2ef0:	ab e0       	ldi	r26, 0x0B	; 11
    2ef2:	2a 2e       	mov	r2, r26
    2ef4:	31 2c       	mov	r3, r1
    2ef6:	14 c2       	rjmp	.+1064   	; 0x3320 <ReadInductance+0x470>
    2ef8:	29 89       	ldd	r18, Y+17	; 0x11
    2efa:	62 2e       	mov	r6, r18
    2efc:	77 24       	eor	r7, r7
    2efe:	62 9c       	mul	r6, r2
    2f00:	f0 01       	movw	r30, r0
    2f02:	63 9c       	mul	r6, r3
    2f04:	f0 0d       	add	r31, r0
    2f06:	72 9c       	mul	r7, r2
    2f08:	f0 0d       	add	r31, r0
    2f0a:	11 24       	eor	r1, r1
    2f0c:	e6 5e       	subi	r30, 0xE6	; 230
    2f0e:	fe 4f       	sbci	r31, 0xFE	; 254
    2f10:	80 81       	ld	r24, Z
    2f12:	91 81       	ldd	r25, Z+1	; 0x01
    2f14:	a2 81       	ldd	r26, Z+2	; 0x02
    2f16:	b3 81       	ldd	r27, Z+3	; 0x03
    2f18:	81 36       	cpi	r24, 0x61	; 97
    2f1a:	3d e6       	ldi	r19, 0x6D	; 109
    2f1c:	93 07       	cpc	r25, r19
    2f1e:	30 e0       	ldi	r19, 0x00	; 0
    2f20:	a3 07       	cpc	r26, r19
    2f22:	30 e0       	ldi	r19, 0x00	; 0
    2f24:	b3 07       	cpc	r27, r19
    2f26:	08 f0       	brcs	.+2      	; 0x2f2a <ReadInductance+0x7a>
    2f28:	f8 c1       	rjmp	.+1008   	; 0x331a <ReadInductance+0x46a>
    2f2a:	ff 24       	eor	r15, r15
           // first and second pass, direction 1
           LowPin = resis[found].ra;
           HighPin = resis[found].rb;
        } else {
           // third and fourth pass, direction 2
           LowPin = resis[found].rb;
    2f2c:	fb 8b       	std	Y+19, r31	; 0x13
    2f2e:	ea 8b       	std	Y+18, r30	; 0x12
    2f30:	39 96       	adiw	r30, 0x09	; 9
    2f32:	fb 8f       	std	Y+27, r31	; 0x1b
    2f34:	ea 8f       	std	Y+26, r30	; 0x1a
           HighPin = resis[found].ra;
    2f36:	4a 89       	ldd	r20, Y+18	; 0x12
    2f38:	5b 89       	ldd	r21, Y+19	; 0x13
    2f3a:	48 5f       	subi	r20, 0xF8	; 248
    2f3c:	5f 4f       	sbci	r21, 0xFF	; 255
    2f3e:	5d 8f       	std	Y+29, r21	; 0x1d
    2f40:	4c 8f       	std	Y+28, r20	; 0x1c
           // this OV was not counted, but was before the Input Capture
           TI1_INT_FLAGS = (1<<TOV1);		// Reset OV Flag
           ovcnt16++;
        }
        ADC_PORT = TXD_VAL;		// switch ADC-Port to GND
        ADCSRA = (1<<ADEN) | (1<<ADIF) | AUTO_CLOCK_DIV; //enable ADC
    2f42:	7f 8e       	std	Y+31, r7	; 0x1f
    2f44:	6e 8e       	std	Y+30, r6	; 0x1e
  for (found=0;found<ResistorsFound;found++) {
     if (resis[found].rx > 28000) continue;
     // we can check for Inductance, if resistance is below 2800 Ohm
     for (count=0;count<4;count++) {
        // Try four times (different direction and with delayed counter start)
        if (count < 2) {
    2f46:	5f 2d       	mov	r21, r15
    2f48:	52 30       	cpi	r21, 0x02	; 2
    2f4a:	30 f4       	brcc	.+12     	; 0x2f58 <ReadInductance+0xa8>
           // first and second pass, direction 1
           LowPin = resis[found].ra;
    2f4c:	ec 8d       	ldd	r30, Y+28	; 0x1c
    2f4e:	fd 8d       	ldd	r31, Y+29	; 0x1d
    2f50:	e0 80       	ld	r14, Z
           HighPin = resis[found].rb;
    2f52:	ea 8d       	ldd	r30, Y+26	; 0x1a
    2f54:	fb 8d       	ldd	r31, Y+27	; 0x1b
    2f56:	05 c0       	rjmp	.+10     	; 0x2f62 <ReadInductance+0xb2>
        } else {
           // third and fourth pass, direction 2
           LowPin = resis[found].rb;
    2f58:	ea 8d       	ldd	r30, Y+26	; 0x1a
    2f5a:	fb 8d       	ldd	r31, Y+27	; 0x1b
    2f5c:	e0 80       	ld	r14, Z
           HighPin = resis[found].ra;
    2f5e:	ec 8d       	ldd	r30, Y+28	; 0x1c
    2f60:	fd 8d       	ldd	r31, Y+29	; 0x1d
    2f62:	80 80       	ld	r8, Z
        }
        HiADC = MEM_read_byte(&PinADCtab[HighPin]);
    2f64:	88 2d       	mov	r24, r8
    2f66:	90 e0       	ldi	r25, 0x00	; 0
    2f68:	84 55       	subi	r24, 0x54	; 84
    2f6a:	9e 4f       	sbci	r25, 0xFE	; 254
    2f6c:	0e 94 9c 1c 	call	0x3938	; 0x3938 <__eerd_byte_m168>
    2f70:	a8 2e       	mov	r10, r24
        LoPinR_L = MEM_read_byte(&PinRLtab[LowPin]);	//R_L mask for HighPin R_L load
    2f72:	8e 2d       	mov	r24, r14
    2f74:	90 e0       	ldi	r25, 0x00	; 0
    2f76:	87 55       	subi	r24, 0x57	; 87
    2f78:	9e 4f       	sbci	r25, 0xFE	; 254
    2f7a:	0e 94 9c 1c 	call	0x3938	; 0x3938 <__eerd_byte_m168>
        //==================================================================================
        // Measurement of Inductance values
        R_PORT = 0;		// switch R port to GND
    2f7e:	15 b8       	out	0x05, r1	; 5
        ADC_PORT =   TXD_VAL;		// switch ADC-Port to GND
    2f80:	f8 e0       	ldi	r31, 0x08	; 8
    2f82:	f8 b9       	out	0x08, r31	; 8
        if ((resis[found].rx < 80) && ((count & 0x01) == 0)) {
    2f84:	ea 89       	ldd	r30, Y+18	; 0x12
    2f86:	fb 89       	ldd	r31, Y+19	; 0x13
    2f88:	20 81       	ld	r18, Z
    2f8a:	31 81       	ldd	r19, Z+1	; 0x01
    2f8c:	42 81       	ldd	r20, Z+2	; 0x02
    2f8e:	53 81       	ldd	r21, Z+3	; 0x03
    2f90:	20 35       	cpi	r18, 0x50	; 80
    2f92:	31 05       	cpc	r19, r1
    2f94:	41 05       	cpc	r20, r1
    2f96:	51 05       	cpc	r21, r1
    2f98:	b8 f4       	brcc	.+46     	; 0x2fc8 <ReadInductance+0x118>
    2f9a:	f0 fc       	sbrc	r15, 0
    2f9c:	15 c0       	rjmp	.+42     	; 0x2fc8 <ReadInductance+0x118>
           // we can use PinR_L for measurement
           mess_r = RR680MI - R_L_VAL;
    2f9e:	c0 90 04 01 	lds	r12, 0x0104
    2fa2:	d0 90 05 01 	lds	r13, 0x0105
    2fa6:	20 e7       	ldi	r18, 0x70	; 112
    2fa8:	35 ee       	ldi	r19, 0xE5	; 229
    2faa:	c2 0e       	add	r12, r18
    2fac:	d3 1e       	adc	r13, r19
           ADC_DDR = HiADC | (1<<LowPin) | TXD_MSK;	// switch HiADC and Low Pin to GND, 
    2fae:	2a 2d       	mov	r18, r10
    2fb0:	28 60       	ori	r18, 0x08	; 8
    2fb2:	81 e0       	ldi	r24, 0x01	; 1
    2fb4:	90 e0       	ldi	r25, 0x00	; 0
    2fb6:	0e 2c       	mov	r0, r14
    2fb8:	02 c0       	rjmp	.+4      	; 0x2fbe <ReadInductance+0x10e>
    2fba:	88 0f       	add	r24, r24
    2fbc:	99 1f       	adc	r25, r25
    2fbe:	0a 94       	dec	r0
    2fc0:	e2 f7       	brpl	.-8      	; 0x2fba <ReadInductance+0x10a>
    2fc2:	28 2b       	or	r18, r24
    2fc4:	27 b9       	out	0x07, r18	; 7
    2fc6:	08 c0       	rjmp	.+16     	; 0x2fd8 <ReadInductance+0x128>
        } else {
           R_DDR = LoPinR_L;   		// switch R_L resistor port for LowPin to output (GND)
    2fc8:	84 b9       	out	0x04, r24	; 4
           ADC_DDR = HiADC | TXD_MSK;	// switch HiADC Pin to GND 
    2fca:	8a 2d       	mov	r24, r10
    2fcc:	88 60       	ori	r24, 0x08	; 8
    2fce:	87 b9       	out	0x07, r24	; 7
           mess_r = RR680MI;			// use 680 Ohm and PinR_L for current measurement
    2fd0:	c0 90 04 01 	lds	r12, 0x0104
    2fd4:	d0 90 05 01 	lds	r13, 0x0105

  if(PartFound != PART_RESISTOR) {
     return;	//We have found no resistor  
  }
  for (found=0;found<ResistorsFound;found++) {
     if (resis[found].rx > 28000) continue;
    2fd8:	f4 e1       	ldi	r31, 0x14	; 20
    2fda:	7f 2e       	mov	r7, r31
           mess_r = RR680MI;			// use 680 Ohm and PinR_L for current measurement
        }
        // Look, if we can detect any current
        for (ii=0;ii<20;ii++) {
            // wait for current is near zero
            umax = W10msReadADC(LowPin);
    2fdc:	8e 2d       	mov	r24, r14
    2fde:	0e 94 b4 19 	call	0x3368	; 0x3368 <W10msReadADC>
    2fe2:	8c 01       	movw	r16, r24
            total_r =  ReadADC(HighPin);
    2fe4:	88 2d       	mov	r24, r8
    2fe6:	0e 94 b8 19 	call	0x3370	; 0x3370 <ReadADC>
            if ((umax < 2) && (total_r < 2)) break;	// low current detected
    2fea:	02 30       	cpi	r16, 0x02	; 2
    2fec:	11 05       	cpc	r17, r1
    2fee:	18 f4       	brcc	.+6      	; 0x2ff6 <ReadInductance+0x146>
    2ff0:	82 30       	cpi	r24, 0x02	; 2
    2ff2:	91 05       	cpc	r25, r1
    2ff4:	10 f0       	brcs	.+4      	; 0x2ffa <ReadInductance+0x14a>
    2ff6:	7a 94       	dec	r7
           R_DDR = LoPinR_L;   		// switch R_L resistor port for LowPin to output (GND)
           ADC_DDR = HiADC | TXD_MSK;	// switch HiADC Pin to GND 
           mess_r = RR680MI;			// use 680 Ohm and PinR_L for current measurement
        }
        // Look, if we can detect any current
        for (ii=0;ii<20;ii++) {
    2ff8:	89 f7       	brne	.-30     	; 0x2fdc <ReadInductance+0x12c>
            umax = W10msReadADC(LowPin);
            total_r =  ReadADC(HighPin);
            if ((umax < 2) && (total_r < 2)) break;	// low current detected
        }
        // setup Analog Comparator
        ADC_COMP_CONTROL = (1<<ACME);			//enable Analog Comparator Multiplexer
    2ffa:	30 e4       	ldi	r19, 0x40	; 64
    2ffc:	30 93 7b 00 	sts	0x007B, r19
        ACSR =  (1<<ACBG) | (1<<ACI)  | (1<<ACIC);	// enable, 1.3V, no Interrupt, Connect to Timer1 
    3000:	44 e5       	ldi	r20, 0x54	; 84
    3002:	40 bf       	out	0x30, r20	; 48
        ADMUX = (1<<REFS0) | LowPin;			// switch Mux to Low-Pin
    3004:	8e 2d       	mov	r24, r14
    3006:	80 64       	ori	r24, 0x40	; 64
    3008:	80 93 7c 00 	sts	0x007C, r24
        ADCSRA = (1<<ADIF) | AUTO_CLOCK_DIV; //disable ADC
    300c:	56 e1       	ldi	r21, 0x16	; 22
    300e:	50 93 7a 00 	sts	0x007A, r21
   
      // setup Counter1
        ovcnt16 = 0;
        TCCR1A = 0;			// set Counter1 to normal Mode
    3012:	10 92 80 00 	sts	0x0080, r1
        TCNT1 = 0;			//set Counter to 0
    3016:	10 92 85 00 	sts	0x0085, r1
    301a:	10 92 84 00 	sts	0x0084, r1
        TI1_INT_FLAGS = (1<<ICF1) | (1<<OCF1B) | (1<<OCF1A) | (1<<TOV1);	// mega88
    301e:	87 e2       	ldi	r24, 0x27	; 39
    3020:	86 bb       	out	0x16, r24	; 22
        HiADC |= TXD_VAL;
    3022:	0a 2d       	mov	r16, r10
    3024:	08 60       	ori	r16, 0x08	; 8
        wait200us();			// wait for bandgap to start up
    3026:	0e 94 83 14 	call	0x2906	; 0x2906 <wait200us>
        if ((count & 0x01) == 0 ) {
    302a:	4f 2c       	mov	r4, r15
    302c:	55 24       	eor	r5, r5
    302e:	f2 01       	movw	r30, r4
    3030:	e1 70       	andi	r30, 0x01	; 1
    3032:	f0 70       	andi	r31, 0x00	; 0
    3034:	fd 8b       	std	Y+21, r31	; 0x15
    3036:	ec 8b       	std	Y+20, r30	; 0x14
    3038:	f0 fc       	sbrc	r15, 0
    303a:	05 c0       	rjmp	.+10     	; 0x3046 <ReadInductance+0x196>
           //first start counter, then start current
           TCCR1B =  (1<<ICNC1) | (0<<ICES1) | (1<<CS10);	//start counter 1MHz or 8MHz
    303c:	f1 e8       	ldi	r31, 0x81	; 129
    303e:	f0 93 81 00 	sts	0x0081, r31
           ADC_PORT = HiADC;		// switch ADC-Port to VCC
    3042:	08 b9       	out	0x08, r16	; 8
    3044:	08 c0       	rjmp	.+16     	; 0x3056 <ReadInductance+0x1a6>
        } else {
           //first start current, then start counter with delay
           //parasitic capacity of coil can cause high current at the beginning
           ADC_PORT = HiADC;		// switch ADC-Port to VCC
    3046:	08 b9       	out	0x08, r16	; 8
      #if F_CPU >= 8000000UL
           wait3us();		// ignore current peak from capacity
    3048:	0e 94 8c 14 	call	0x2918	; 0x2918 <wait3us>
      #else
           wdt_reset();			// delay
           wdt_reset();			// delay
      #endif
           TI1_INT_FLAGS = (1<<ICF1);	// Reset Input Capture
    304c:	20 e2       	ldi	r18, 0x20	; 32
    304e:	26 bb       	out	0x16, r18	; 22
           TCCR1B =  (1<<ICNC1) | (0<<ICES1) | (1<<CS10);	//start counter 1MHz or 8MHz
    3050:	31 e8       	ldi	r19, 0x81	; 129
    3052:	30 93 81 00 	sts	0x0081, r19

  if(PartFound != PART_RESISTOR) {
     return;	//We have found no resistor  
  }
  for (found=0;found<ResistorsFound;found++) {
     if (resis[found].rx > 28000) continue;
    3056:	00 e0       	ldi	r16, 0x00	; 0
    3058:	10 e0       	ldi	r17, 0x00	; 0
        }
      
      //******************************
        while(1) {
           // Wait, until  Input Capture is set
           ii = TI1_INT_FLAGS;		//read Timer flags
    305a:	26 b3       	in	r18, 0x16	; 22
           if (ii & (1<<ICF1))  {
    305c:	25 fd       	sbrc	r18, 5
    305e:	0a c0       	rjmp	.+20     	; 0x3074 <ReadInductance+0x1c4>
              break;
           }
           if((ii & (1<<TOV1))) {		// counter overflow, 65.536 ms @ 1MHz, 8.192ms @ 8MHz
    3060:	20 ff       	sbrs	r18, 0
    3062:	fb cf       	rjmp	.-10     	; 0x305a <ReadInductance+0x1aa>
              TI1_INT_FLAGS = (1<<TOV1);	// Reset OV Flag
    3064:	41 e0       	ldi	r20, 0x01	; 1
    3066:	46 bb       	out	0x16, r20	; 22
              wdt_reset();
    3068:	a8 95       	wdr
              ovcnt16++;
    306a:	0f 5f       	subi	r16, 0xFF	; 255
    306c:	1f 4f       	sbci	r17, 0xFF	; 255
              if(ovcnt16 == (F_CPU/100000)) {
    306e:	00 35       	cpi	r16, 0x50	; 80
    3070:	11 05       	cpc	r17, r1
    3072:	99 f7       	brne	.-26     	; 0x305a <ReadInductance+0x1aa>
                 break; 	//Timeout for Charging, above 0.13 s
              }
           }
        }
        TCCR1B = (0<<ICNC1) | (0<<ICES1) | (0<<CS10);  // stop counter
    3074:	10 92 81 00 	sts	0x0081, r1
        TI1_INT_FLAGS = (1<<ICF1);			// Reset Input Capture
    3078:	50 e2       	ldi	r21, 0x20	; 32
    307a:	56 bb       	out	0x16, r21	; 22
        tmpint = ICR1;		// get previous Input Capture Counter flag
    307c:	a0 90 86 00 	lds	r10, 0x0086
    3080:	b0 90 87 00 	lds	r11, 0x0087
      // check actual counter, if an additional overflow must be added
        if((TCNT1 > tmpint) && (ii & (1<<TOV1))) {
    3084:	80 91 84 00 	lds	r24, 0x0084
    3088:	90 91 85 00 	lds	r25, 0x0085
    308c:	a8 16       	cp	r10, r24
    308e:	b9 06       	cpc	r11, r25
    3090:	30 f4       	brcc	.+12     	; 0x309e <ReadInductance+0x1ee>
    3092:	20 ff       	sbrs	r18, 0
    3094:	04 c0       	rjmp	.+8      	; 0x309e <ReadInductance+0x1ee>
           // this OV was not counted, but was before the Input Capture
           TI1_INT_FLAGS = (1<<TOV1);		// Reset OV Flag
    3096:	81 e0       	ldi	r24, 0x01	; 1
    3098:	86 bb       	out	0x16, r24	; 22
           ovcnt16++;
    309a:	0f 5f       	subi	r16, 0xFF	; 255
    309c:	1f 4f       	sbci	r17, 0xFF	; 255
        }
        ADC_PORT = TXD_VAL;		// switch ADC-Port to GND
    309e:	98 e0       	ldi	r25, 0x08	; 8
    30a0:	98 b9       	out	0x08, r25	; 8
        ADCSRA = (1<<ADEN) | (1<<ADIF) | AUTO_CLOCK_DIV; //enable ADC
    30a2:	e6 e9       	ldi	r30, 0x96	; 150
    30a4:	e0 93 7a 00 	sts	0x007A, r30
        for (ii=0;ii<20;ii++) {
    30a8:	40 e0       	ldi	r20, 0x00	; 0
            // wait for current is near zero
            umax = W10msReadADC(LowPin);
    30aa:	8e 2d       	mov	r24, r14
    30ac:	48 a3       	std	Y+32, r20	; 0x20
    30ae:	0e 94 b4 19 	call	0x3368	; 0x3368 <W10msReadADC>
    30b2:	3c 01       	movw	r6, r24
            total_r =  ReadADC(HighPin);
    30b4:	88 2d       	mov	r24, r8
    30b6:	0e 94 b8 19 	call	0x3370	; 0x3370 <ReadADC>
            if ((umax < 2) && (total_r < 2)) break;	// low current detected
    30ba:	48 a1       	ldd	r20, Y+32	; 0x20
    30bc:	f2 e0       	ldi	r31, 0x02	; 2
    30be:	6f 16       	cp	r6, r31
    30c0:	71 04       	cpc	r7, r1
    30c2:	18 f4       	brcc	.+6      	; 0x30ca <ReadInductance+0x21a>
    30c4:	82 30       	cpi	r24, 0x02	; 2
    30c6:	91 05       	cpc	r25, r1
    30c8:	18 f0       	brcs	.+6      	; 0x30d0 <ReadInductance+0x220>
           TI1_INT_FLAGS = (1<<TOV1);		// Reset OV Flag
           ovcnt16++;
        }
        ADC_PORT = TXD_VAL;		// switch ADC-Port to GND
        ADCSRA = (1<<ADEN) | (1<<ADIF) | AUTO_CLOCK_DIV; //enable ADC
        for (ii=0;ii<20;ii++) {
    30ca:	4f 5f       	subi	r20, 0xFF	; 255
    30cc:	44 31       	cpi	r20, 0x14	; 20
    30ce:	69 f7       	brne	.-38     	; 0x30aa <ReadInductance+0x1fa>
            // wait for current is near zero
            umax = W10msReadADC(LowPin);
            total_r =  ReadADC(HighPin);
            if ((umax < 2) && (total_r < 2)) break;	// low current detected
        }
        cap.cval = CombineII2Long(ovcnt16, tmpint);
    30d0:	c8 01       	movw	r24, r16
    30d2:	b5 01       	movw	r22, r10
    30d4:	0e 94 91 14 	call	0x2922	; 0x2922 <CombineII2Long>
        if (cap.cval > 6) cap.cval -= 6;
    30d8:	67 30       	cpi	r22, 0x07	; 7
    30da:	71 05       	cpc	r23, r1
    30dc:	81 05       	cpc	r24, r1
    30de:	91 05       	cpc	r25, r1
    30e0:	68 f0       	brcs	.+26     	; 0x30fc <ReadInductance+0x24c>
    30e2:	66 50       	subi	r22, 0x06	; 6
    30e4:	70 40       	sbci	r23, 0x00	; 0
    30e6:	80 40       	sbci	r24, 0x00	; 0
    30e8:	90 40       	sbci	r25, 0x00	; 0
    30ea:	60 93 5b 01 	sts	0x015B, r22
    30ee:	70 93 5c 01 	sts	0x015C, r23
    30f2:	80 93 5d 01 	sts	0x015D, r24
    30f6:	90 93 5e 01 	sts	0x015E, r25
    30fa:	08 c0       	rjmp	.+16     	; 0x310c <ReadInductance+0x25c>
        else          cap.cval = 0;
    30fc:	10 92 5b 01 	sts	0x015B, r1
    3100:	10 92 5c 01 	sts	0x015C, r1
    3104:	10 92 5d 01 	sts	0x015D, r1
    3108:	10 92 5e 01 	sts	0x015E, r1
        if ((count&0x01) == 1) {
    310c:	2c 89       	ldd	r18, Y+20	; 0x14
    310e:	3d 89       	ldd	r19, Y+21	; 0x15
    3110:	21 15       	cp	r18, r1
    3112:	31 05       	cpc	r19, r1
    3114:	99 f0       	breq	.+38     	; 0x313c <ReadInductance+0x28c>
           // second pass with delayed counter start
           cap.cval += (3 * (F_CPU/1000000))+10;
    3116:	80 91 5b 01 	lds	r24, 0x015B
    311a:	90 91 5c 01 	lds	r25, 0x015C
    311e:	a0 91 5d 01 	lds	r26, 0x015D
    3122:	b0 91 5e 01 	lds	r27, 0x015E
    3126:	82 96       	adiw	r24, 0x22	; 34
    3128:	a1 1d       	adc	r26, r1
    312a:	b1 1d       	adc	r27, r1
    312c:	80 93 5b 01 	sts	0x015B, r24
    3130:	90 93 5c 01 	sts	0x015C, r25
    3134:	a0 93 5d 01 	sts	0x015D, r26
    3138:	b0 93 5e 01 	sts	0x015E, r27
        }
        if (ovcnt16 >= (F_CPU/100000)) cap.cval = 0; // no transition found
    313c:	00 35       	cpi	r16, 0x50	; 80
    313e:	11 05       	cpc	r17, r1
    3140:	40 f0       	brcs	.+16     	; 0x3152 <ReadInductance+0x2a2>
    3142:	10 92 5b 01 	sts	0x015B, r1
    3146:	10 92 5c 01 	sts	0x015C, r1
    314a:	10 92 5d 01 	sts	0x015D, r1
    314e:	10 92 5e 01 	sts	0x015E, r1
        total_r = (mess_r + resis[0].rx + RR680PL - R_L_VAL);
    3152:	80 91 0a 01 	lds	r24, 0x010A
    3156:	90 91 0b 01 	lds	r25, 0x010B
    315a:	80 59       	subi	r24, 0x90	; 144
    315c:	9a 41       	sbci	r25, 0x1A	; 26
    315e:	20 91 1a 01 	lds	r18, 0x011A
    3162:	30 91 1b 01 	lds	r19, 0x011B
    3166:	82 0f       	add	r24, r18
    3168:	93 1f       	adc	r25, r19
    316a:	8c 0d       	add	r24, r12
    316c:	9d 1d       	adc	r25, r13
        // compute the maximum Voltage umax with the Resistor of the coil
        umax = ((unsigned long)mess_r * (unsigned long)ADCconfig.U_AVCC) / total_r;
    316e:	9c 01       	movw	r18, r24
    3170:	40 e0       	ldi	r20, 0x00	; 0
    3172:	50 e0       	ldi	r21, 0x00	; 0
    3174:	2e 8b       	std	Y+22, r18	; 0x16
    3176:	3f 8b       	std	Y+23, r19	; 0x17
    3178:	48 8f       	std	Y+24, r20	; 0x18
    317a:	59 8f       	std	Y+25, r21	; 0x19
        // Voltage of comparator in % of umax
        #ifdef AUTO_CAL
        per_ref = ((unsigned long)(ref_mv + (int16_t)eeprom_read_word((uint16_t *)(&ref_offset))) * 100) / umax;
    317c:	8b eb       	ldi	r24, 0xBB	; 187
    317e:	91 e0       	ldi	r25, 0x01	; 1
    3180:	0e 94 a4 1c 	call	0x3948	; 0x3948 <__eerd_word_m168>
    3184:	60 91 41 01 	lds	r22, 0x0141
    3188:	70 91 42 01 	lds	r23, 0x0142
    318c:	68 0f       	add	r22, r24
    318e:	79 1f       	adc	r23, r25
    3190:	80 e0       	ldi	r24, 0x00	; 0
    3192:	90 e0       	ldi	r25, 0x00	; 0
    3194:	24 e6       	ldi	r18, 0x64	; 100
    3196:	30 e0       	ldi	r19, 0x00	; 0
    3198:	40 e0       	ldi	r20, 0x00	; 0
    319a:	50 e0       	ldi	r21, 0x00	; 0
    319c:	0e 94 e9 1b 	call	0x37d2	; 0x37d2 <__mulsi3>
    31a0:	4b 01       	movw	r8, r22
    31a2:	5c 01       	movw	r10, r24
           cap.cval += (3 * (F_CPU/1000000))+10;
        }
        if (ovcnt16 >= (F_CPU/100000)) cap.cval = 0; // no transition found
        total_r = (mess_r + resis[0].rx + RR680PL - R_L_VAL);
        // compute the maximum Voltage umax with the Resistor of the coil
        umax = ((unsigned long)mess_r * (unsigned long)ADCconfig.U_AVCC) / total_r;
    31a4:	b6 01       	movw	r22, r12
    31a6:	80 e0       	ldi	r24, 0x00	; 0
    31a8:	90 e0       	ldi	r25, 0x00	; 0
    31aa:	20 91 3f 01 	lds	r18, 0x013F
    31ae:	30 91 40 01 	lds	r19, 0x0140
    31b2:	40 e0       	ldi	r20, 0x00	; 0
    31b4:	50 e0       	ldi	r21, 0x00	; 0
    31b6:	0e 94 e9 1b 	call	0x37d2	; 0x37d2 <__mulsi3>
    31ba:	2e 89       	ldd	r18, Y+22	; 0x16
    31bc:	3f 89       	ldd	r19, Y+23	; 0x17
    31be:	48 8d       	ldd	r20, Y+24	; 0x18
    31c0:	59 8d       	ldd	r21, Y+25	; 0x19
    31c2:	0e 94 28 1c 	call	0x3850	; 0x3850 <__udivmodsi4>
        // Voltage of comparator in % of umax
        #ifdef AUTO_CAL
        per_ref = ((unsigned long)(ref_mv + (int16_t)eeprom_read_word((uint16_t *)(&ref_offset))) * 100) / umax;
    31c6:	40 e0       	ldi	r20, 0x00	; 0
    31c8:	50 e0       	ldi	r21, 0x00	; 0
    31ca:	c5 01       	movw	r24, r10
    31cc:	b4 01       	movw	r22, r8
    31ce:	0e 94 28 1c 	call	0x3850	; 0x3850 <__udivmodsi4>
        #else
        per_ref = ((unsigned long)(ref_mv + REF_C_KORR) * 100) / umax;
        #endif
        per_ref = (uint8_t)MEM2_read_byte(&LogTab[per_ref]);	// -log(1 - per_ref/100)
    31d2:	e2 2f       	mov	r30, r18
    31d4:	f0 e0       	ldi	r31, 0x00	; 0
    31d6:	e8 59       	subi	r30, 0x98	; 152
    31d8:	ff 4f       	sbci	r31, 0xFF	; 255
    31da:	04 91       	lpm	r16, Z+
        // lx in 0.01mH units,  L = Tau * R
        inductance[count] = (cap.cval * total_r ) / ((unsigned int)per_ref * (F_CPU/1000000));
    31dc:	20 91 5b 01 	lds	r18, 0x015B
    31e0:	30 91 5c 01 	lds	r19, 0x015C
    31e4:	40 91 5d 01 	lds	r20, 0x015D
    31e8:	50 91 5e 01 	lds	r21, 0x015E
    31ec:	6e 89       	ldd	r22, Y+22	; 0x16
    31ee:	7f 89       	ldd	r23, Y+23	; 0x17
    31f0:	88 8d       	ldd	r24, Y+24	; 0x18
    31f2:	99 8d       	ldd	r25, Y+25	; 0x19
    31f4:	0e 94 e9 1b 	call	0x37d2	; 0x37d2 <__mulsi3>
    31f8:	20 2f       	mov	r18, r16
    31fa:	30 e0       	ldi	r19, 0x00	; 0
    31fc:	40 e0       	ldi	r20, 0x00	; 0
    31fe:	50 e0       	ldi	r21, 0x00	; 0
    3200:	e3 e0       	ldi	r30, 0x03	; 3
    3202:	22 0f       	add	r18, r18
    3204:	33 1f       	adc	r19, r19
    3206:	44 1f       	adc	r20, r20
    3208:	55 1f       	adc	r21, r21
    320a:	ea 95       	dec	r30
    320c:	d1 f7       	brne	.-12     	; 0x3202 <ReadInductance+0x352>
    320e:	0e 94 28 1c 	call	0x3850	; 0x3850 <__udivmodsi4>
    3212:	f2 01       	movw	r30, r4
    3214:	ee 0f       	add	r30, r30
    3216:	ff 1f       	adc	r31, r31
    3218:	ee 0f       	add	r30, r30
    321a:	ff 1f       	adc	r31, r31
    321c:	81 e0       	ldi	r24, 0x01	; 1
    321e:	90 e0       	ldi	r25, 0x00	; 0
    3220:	8c 0f       	add	r24, r28
    3222:	9d 1f       	adc	r25, r29
    3224:	e8 0f       	add	r30, r24
    3226:	f9 1f       	adc	r31, r25
    3228:	20 83       	st	Z, r18
    322a:	31 83       	std	Z+1, r19	; 0x01
    322c:	42 83       	std	Z+2, r20	; 0x02
    322e:	53 83       	std	Z+3, r21	; 0x03
        if (((count&0x01) == 0) && (inductance[count] > (F_CPU/1000000))) {
    3230:	ec 89       	ldd	r30, Y+20	; 0x14
    3232:	fd 89       	ldd	r31, Y+21	; 0x15
    3234:	30 97       	sbiw	r30, 0x00	; 0
    3236:	91 f4       	brne	.+36     	; 0x325c <ReadInductance+0x3ac>
    3238:	29 30       	cpi	r18, 0x09	; 9
    323a:	31 05       	cpc	r19, r1
    323c:	41 05       	cpc	r20, r1
    323e:	51 05       	cpc	r21, r1
    3240:	68 f0       	brcs	.+26     	; 0x325c <ReadInductance+0x3ac>
           // transition is found, measurement with delayed counter start is not necessary
           inductance[count+1] = inductance[count];	// set delayed measurement to same value
    3242:	f2 01       	movw	r30, r4
    3244:	31 96       	adiw	r30, 0x01	; 1
    3246:	ee 0f       	add	r30, r30
    3248:	ff 1f       	adc	r31, r31
    324a:	ee 0f       	add	r30, r30
    324c:	ff 1f       	adc	r31, r31
    324e:	e8 0f       	add	r30, r24
    3250:	f9 1f       	adc	r31, r25
    3252:	20 83       	st	Z, r18
    3254:	31 83       	std	Z+1, r19	; 0x01
    3256:	42 83       	std	Z+2, r20	; 0x02
    3258:	53 83       	std	Z+3, r21	; 0x03
           count++;		// skip the delayed measurement
    325a:	f3 94       	inc	r15
        }
        wdt_reset();
    325c:	a8 95       	wdr
     return;	//We have found no resistor  
  }
  for (found=0;found<ResistorsFound;found++) {
     if (resis[found].rx > 28000) continue;
     // we can check for Inductance, if resistance is below 2800 Ohm
     for (count=0;count<4;count++) {
    325e:	f3 94       	inc	r15
    3260:	ff 2d       	mov	r31, r15
    3262:	f4 30       	cpi	r31, 0x04	; 4
    3264:	08 f4       	brcc	.+2      	; 0x3268 <ReadInductance+0x3b8>
    3266:	6f ce       	rjmp	.-802    	; 0x2f46 <ReadInductance+0x96>
    3268:	6e 8c       	ldd	r6, Y+30	; 0x1e
    326a:	7f 8c       	ldd	r7, Y+31	; 0x1f
           inductance[count+1] = inductance[count];	// set delayed measurement to same value
           count++;		// skip the delayed measurement
        }
        wdt_reset();
     }  //end for count
     ADC_PORT = TXD_VAL;		// switch ADC Port to GND
    326c:	28 e0       	ldi	r18, 0x08	; 8
    326e:	28 b9       	out	0x08, r18	; 8
     wait20ms();
    3270:	0e 94 79 14 	call	0x28f2	; 0x28f2 <wait20ms>
     if (inductance[1] > inductance[0]) {
    3274:	2d 81       	ldd	r18, Y+5	; 0x05
    3276:	3e 81       	ldd	r19, Y+6	; 0x06
    3278:	4f 81       	ldd	r20, Y+7	; 0x07
    327a:	58 85       	ldd	r21, Y+8	; 0x08
    327c:	89 81       	ldd	r24, Y+1	; 0x01
    327e:	9a 81       	ldd	r25, Y+2	; 0x02
    3280:	ab 81       	ldd	r26, Y+3	; 0x03
    3282:	bc 81       	ldd	r27, Y+4	; 0x04
    3284:	82 17       	cp	r24, r18
    3286:	93 07       	cpc	r25, r19
    3288:	a4 07       	cpc	r26, r20
    328a:	b5 07       	cpc	r27, r21
    328c:	70 f4       	brcc	.+28     	; 0x32aa <ReadInductance+0x3fa>
        resis[found].lx = inductance[1];	// use value found with delayed counter start
    328e:	62 9c       	mul	r6, r2
    3290:	f0 01       	movw	r30, r0
    3292:	63 9c       	mul	r6, r3
    3294:	f0 0d       	add	r31, r0
    3296:	72 9c       	mul	r7, r2
    3298:	f0 0d       	add	r31, r0
    329a:	11 24       	eor	r1, r1
    329c:	e6 5e       	subi	r30, 0xE6	; 230
    329e:	fe 4f       	sbci	r31, 0xFE	; 254
    32a0:	24 83       	std	Z+4, r18	; 0x04
    32a2:	35 83       	std	Z+5, r19	; 0x05
    32a4:	46 83       	std	Z+6, r20	; 0x06
    32a6:	57 83       	std	Z+7, r21	; 0x07
    32a8:	0d c0       	rjmp	.+26     	; 0x32c4 <ReadInductance+0x414>
     } else {
        resis[found].lx = inductance[0];
    32aa:	62 9c       	mul	r6, r2
    32ac:	f0 01       	movw	r30, r0
    32ae:	63 9c       	mul	r6, r3
    32b0:	f0 0d       	add	r31, r0
    32b2:	72 9c       	mul	r7, r2
    32b4:	f0 0d       	add	r31, r0
    32b6:	11 24       	eor	r1, r1
    32b8:	e6 5e       	subi	r30, 0xE6	; 230
    32ba:	fe 4f       	sbci	r31, 0xFE	; 254
    32bc:	84 83       	std	Z+4, r24	; 0x04
    32be:	95 83       	std	Z+5, r25	; 0x05
    32c0:	a6 83       	std	Z+6, r26	; 0x06
    32c2:	b7 83       	std	Z+7, r27	; 0x07
     }
     if (inductance[3] > inductance[2]) inductance[2] = inductance[3];
    32c4:	8d 85       	ldd	r24, Y+13	; 0x0d
    32c6:	9e 85       	ldd	r25, Y+14	; 0x0e
    32c8:	af 85       	ldd	r26, Y+15	; 0x0f
    32ca:	b8 89       	ldd	r27, Y+16	; 0x10
    32cc:	29 85       	ldd	r18, Y+9	; 0x09
    32ce:	3a 85       	ldd	r19, Y+10	; 0x0a
    32d0:	4b 85       	ldd	r20, Y+11	; 0x0b
    32d2:	5c 85       	ldd	r21, Y+12	; 0x0c
    32d4:	28 17       	cp	r18, r24
    32d6:	39 07       	cpc	r19, r25
    32d8:	4a 07       	cpc	r20, r26
    32da:	5b 07       	cpc	r21, r27
    32dc:	20 f4       	brcc	.+8      	; 0x32e6 <ReadInductance+0x436>
    32de:	89 87       	std	Y+9, r24	; 0x09
    32e0:	9a 87       	std	Y+10, r25	; 0x0a
    32e2:	ab 87       	std	Y+11, r26	; 0x0b
    32e4:	bc 87       	std	Y+12, r27	; 0x0c
     if (inductance[2] < resis[found].lx) resis[found].lx = inductance[2];	// use the other polarity
    32e6:	89 85       	ldd	r24, Y+9	; 0x09
    32e8:	9a 85       	ldd	r25, Y+10	; 0x0a
    32ea:	ab 85       	ldd	r26, Y+11	; 0x0b
    32ec:	bc 85       	ldd	r27, Y+12	; 0x0c
    32ee:	62 9c       	mul	r6, r2
    32f0:	f0 01       	movw	r30, r0
    32f2:	63 9c       	mul	r6, r3
    32f4:	f0 0d       	add	r31, r0
    32f6:	72 9c       	mul	r7, r2
    32f8:	f0 0d       	add	r31, r0
    32fa:	11 24       	eor	r1, r1
    32fc:	e6 5e       	subi	r30, 0xE6	; 230
    32fe:	fe 4f       	sbci	r31, 0xFE	; 254
    3300:	24 81       	ldd	r18, Z+4	; 0x04
    3302:	35 81       	ldd	r19, Z+5	; 0x05
    3304:	46 81       	ldd	r20, Z+6	; 0x06
    3306:	57 81       	ldd	r21, Z+7	; 0x07
    3308:	82 17       	cp	r24, r18
    330a:	93 07       	cpc	r25, r19
    330c:	a4 07       	cpc	r26, r20
    330e:	b5 07       	cpc	r27, r21
    3310:	20 f4       	brcc	.+8      	; 0x331a <ReadInductance+0x46a>
    3312:	84 83       	std	Z+4, r24	; 0x04
    3314:	95 83       	std	Z+5, r25	; 0x05
    3316:	a6 83       	std	Z+6, r26	; 0x06
    3318:	b7 83       	std	Z+7, r27	; 0x07


  if(PartFound != PART_RESISTOR) {
     return;	//We have found no resistor  
  }
  for (found=0;found<ResistorsFound;found++) {
    331a:	39 89       	ldd	r19, Y+17	; 0x11
    331c:	3f 5f       	subi	r19, 0xFF	; 255
    331e:	39 8b       	std	Y+17, r19	; 0x11
    3320:	80 91 58 01 	lds	r24, 0x0158
    3324:	49 89       	ldd	r20, Y+17	; 0x11
    3326:	48 17       	cp	r20, r24
    3328:	08 f4       	brcc	.+2      	; 0x332c <ReadInductance+0x47c>
    332a:	e6 cd       	rjmp	.-1076   	; 0x2ef8 <ReadInductance+0x48>
     if (inductance[3] > inductance[2]) inductance[2] = inductance[3];
     if (inductance[2] < resis[found].lx) resis[found].lx = inductance[2];	// use the other polarity
  } // end loop for all resistors

  // switch all ports to input
  ADC_DDR =  TXD_MSK;		// switch all ADC ports to input
    332c:	88 e0       	ldi	r24, 0x08	; 8
    332e:	87 b9       	out	0x07, r24	; 7
  R_DDR = 0;			// switch all resistor ports to input
    3330:	14 b8       	out	0x04, r1	; 4
#endif
  return;
 } // end ReadInductance()
    3332:	a0 96       	adiw	r28, 0x20	; 32
    3334:	0f b6       	in	r0, 0x3f	; 63
    3336:	f8 94       	cli
    3338:	de bf       	out	0x3e, r29	; 62
    333a:	0f be       	out	0x3f, r0	; 63
    333c:	cd bf       	out	0x3d, r28	; 61
    333e:	cf 91       	pop	r28
    3340:	df 91       	pop	r29
    3342:	1f 91       	pop	r17
    3344:	0f 91       	pop	r16
    3346:	ff 90       	pop	r15
    3348:	ef 90       	pop	r14
    334a:	df 90       	pop	r13
    334c:	cf 90       	pop	r12
    334e:	bf 90       	pop	r11
    3350:	af 90       	pop	r10
    3352:	9f 90       	pop	r9
    3354:	8f 90       	pop	r8
    3356:	7f 90       	pop	r7
    3358:	6f 90       	pop	r6
    335a:	5f 90       	pop	r5
    335c:	4f 90       	pop	r4
    335e:	3f 90       	pop	r3
    3360:	2f 90       	pop	r2
    3362:	08 95       	ret

00003364 <W20msReadADC>:
    3364:	0e 94 7a 14 	call	0x28f4	; 0x28f4 <wait10ms>

00003368 <W10msReadADC>:
    3368:	0e 94 7b 14 	call	0x28f6	; 0x28f6 <wait5ms>

0000336c <W5msReadADC>:
    336c:	0e 94 7b 14 	call	0x28f6	; 0x28f6 <wait5ms>

00003370 <ReadADC>:
    3370:	1f 93       	push	r17
    3372:	18 2f       	mov	r17, r24
    3374:	10 64       	ori	r17, 0x40	; 64

00003376 <get_sample>:
    3376:	10 93 7c 00 	sts	0x007C, r17
    337a:	e1 2f       	mov	r30, r17
    337c:	e0 78       	andi	r30, 0x80	; 128
    337e:	80 91 3c 01 	lds	r24, 0x013C
    3382:	e8 17       	cp	r30, r24
    3384:	69 f0       	breq	.+26     	; 0x33a0 <r2aa2>
    3386:	0e 94 84 14 	call	0x2908	; 0x2908 <wait100us>
    338a:	80 91 7a 00 	lds	r24, 0x007A
    338e:	80 64       	ori	r24, 0x40	; 64
    3390:	80 93 7a 00 	sts	0x007A, r24

00003394 <wadc1>:
    3394:	80 91 7a 00 	lds	r24, 0x007A
    3398:	86 fd       	sbrc	r24, 6
    339a:	fc cf       	rjmp	.-8      	; 0x3394 <wadc1>
    339c:	e0 93 3c 01 	sts	0x013C, r30

000033a0 <r2aa2>:
    33a0:	20 e0       	ldi	r18, 0x00	; 0
    33a2:	30 e0       	ldi	r19, 0x00	; 0
    33a4:	a9 01       	movw	r20, r18
    33a6:	e0 e0       	ldi	r30, 0x00	; 0
    33a8:	20 c0       	rjmp	.+64     	; 0x33ea <r2ae8>

000033aa <Loop>:
    33aa:	80 91 7a 00 	lds	r24, 0x007A
    33ae:	80 64       	ori	r24, 0x40	; 64
    33b0:	80 93 7a 00 	sts	0x007A, r24

000033b4 <wadc2>:
    33b4:	80 91 7a 00 	lds	r24, 0x007A
    33b8:	86 fd       	sbrc	r24, 6
    33ba:	fc cf       	rjmp	.-8      	; 0x33b4 <wadc2>
    33bc:	60 91 78 00 	lds	r22, 0x0078
    33c0:	70 91 79 00 	lds	r23, 0x0079
    33c4:	26 0f       	add	r18, r22
    33c6:	37 1f       	adc	r19, r23
    33c8:	41 1d       	adc	r20, r1
    33ca:	51 1d       	adc	r21, r1
    33cc:	e4 30       	cpi	r30, 0x04	; 4
    33ce:	61 f4       	brne	.+24     	; 0x33e8 <r2ae6>
    33d0:	80 91 3e 01 	lds	r24, 0x013E
    33d4:	80 30       	cpi	r24, 0x00	; 0
    33d6:	41 f0       	breq	.+16     	; 0x33e8 <r2ae6>
    33d8:	84 e0       	ldi	r24, 0x04	; 4
    33da:	20 30       	cpi	r18, 0x00	; 0
    33dc:	38 07       	cpc	r19, r24
    33de:	20 f4       	brcc	.+8      	; 0x33e8 <r2ae6>
    33e0:	17 fd       	sbrc	r17, 7
    33e2:	02 c0       	rjmp	.+4      	; 0x33e8 <r2ae6>
    33e4:	10 68       	ori	r17, 0x80	; 128
    33e6:	c7 cf       	rjmp	.-114    	; 0x3376 <get_sample>

000033e8 <r2ae6>:
    33e8:	ef 5f       	subi	r30, 0xFF	; 255

000033ea <r2ae8>:
    33ea:	80 91 3b 01 	lds	r24, 0x013B
    33ee:	e8 17       	cp	r30, r24
    33f0:	e0 f2       	brcs	.-72     	; 0x33aa <Loop>
    33f2:	17 ff       	sbrs	r17, 7
    33f4:	05 c0       	rjmp	.+10     	; 0x3400 <r2afe>
    33f6:	60 91 3d 01 	lds	r22, 0x013D
    33fa:	70 91 3e 01 	lds	r23, 0x013E
    33fe:	04 c0       	rjmp	.+8      	; 0x3408 <r2b02>

00003400 <r2afe>:
    3400:	60 91 3f 01 	lds	r22, 0x013F
    3404:	70 91 40 01 	lds	r23, 0x0140

00003408 <r2b02>:
    3408:	80 e0       	ldi	r24, 0x00	; 0
    340a:	90 e0       	ldi	r25, 0x00	; 0
    340c:	0e 94 e9 1b 	call	0x37d2	; 0x37d2 <__mulsi3>
    3410:	2f ef       	ldi	r18, 0xFF	; 255
    3412:	33 e0       	ldi	r19, 0x03	; 3
    3414:	41 e0       	ldi	r20, 0x01	; 1
    3416:	62 0f       	add	r22, r18
    3418:	74 1f       	adc	r23, r20
    341a:	81 1d       	adc	r24, r1
    341c:	91 1d       	adc	r25, r1
    341e:	40 e0       	ldi	r20, 0x00	; 0
    3420:	50 e0       	ldi	r21, 0x00	; 0
    3422:	0e 94 28 1c 	call	0x3850	; 0x3850 <__udivmodsi4>
    3426:	b9 01       	movw	r22, r18
    3428:	ca 01       	movw	r24, r20
    342a:	20 91 3b 01 	lds	r18, 0x013B
    342e:	32 2f       	mov	r19, r18
    3430:	35 95       	asr	r19
    3432:	63 0f       	add	r22, r19
    3434:	71 1d       	adc	r23, r1
    3436:	81 1d       	adc	r24, r1
    3438:	91 1d       	adc	r25, r1
    343a:	30 e0       	ldi	r19, 0x00	; 0
    343c:	40 e0       	ldi	r20, 0x00	; 0
    343e:	50 e0       	ldi	r21, 0x00	; 0
    3440:	0e 94 28 1c 	call	0x3850	; 0x3850 <__udivmodsi4>
    3444:	c9 01       	movw	r24, r18
    3446:	1f 91       	pop	r17
    3448:	08 95       	ret

0000344a <GetESR>:
#include "Transistortester.h"

#define ESR_AC_METHOD		// use the AC measurement method for ESR measurement

//=================================================================
void GetESR(uint8_t HighPin, uint8_t LowPin) {
    344a:	2f 92       	push	r2
    344c:	3f 92       	push	r3
    344e:	4f 92       	push	r4
    3450:	5f 92       	push	r5
    3452:	6f 92       	push	r6
    3454:	7f 92       	push	r7
    3456:	8f 92       	push	r8
    3458:	9f 92       	push	r9
    345a:	af 92       	push	r10
    345c:	bf 92       	push	r11
    345e:	cf 92       	push	r12
    3460:	df 92       	push	r13
    3462:	ef 92       	push	r14
    3464:	ff 92       	push	r15
    3466:	0f 93       	push	r16
    3468:	1f 93       	push	r17
    346a:	df 93       	push	r29
    346c:	cf 93       	push	r28
    346e:	cd b7       	in	r28, 0x3d	; 61
    3470:	de b7       	in	r29, 0x3e	; 62
    3472:	63 97       	sbiw	r28, 0x13	; 19
    3474:	0f b6       	in	r0, 0x3f	; 63
    3476:	f8 94       	cli
    3478:	de bf       	out	0x3e, r29	; 62
    347a:	0f be       	out	0x3f, r0	; 63
    347c:	cd bf       	out	0x3d, r28	; 61
    347e:	a8 2e       	mov	r10, r24
  uint8_t HiADC, LoPinR_L;
 #endif
  uint8_t LoADC;
  uint8_t ii;

  LoADC = MEM_read_byte(&PinADCtab[LowPin]) | TXD_MSK;
    3480:	06 2f       	mov	r16, r22
    3482:	10 e0       	ldi	r17, 0x00	; 0
    3484:	c8 01       	movw	r24, r16
    3486:	84 55       	subi	r24, 0x54	; 84
    3488:	9e 4f       	sbci	r25, 0xFE	; 254
    348a:	6b 8b       	std	Y+19, r22	; 0x13
    348c:	0e 94 9c 1c 	call	0x3938	; 0x3938 <__eerd_byte_m168>
    3490:	88 60       	ori	r24, 0x08	; 8
    3492:	8a 83       	std	Y+2, r24	; 0x02
 #ifdef ESR_AC_METHOD
  HiADC = MEM_read_byte(&PinADCtab[HighPin]) | TXD_MSK;
    3494:	ea 2c       	mov	r14, r10
    3496:	ff 24       	eor	r15, r15
    3498:	c7 01       	movw	r24, r14
    349a:	84 55       	subi	r24, 0x54	; 84
    349c:	9e 4f       	sbci	r25, 0xFE	; 254
    349e:	0e 94 9c 1c 	call	0x3938	; 0x3938 <__eerd_byte_m168>
    34a2:	88 60       	ori	r24, 0x08	; 8
    34a4:	8b 83       	std	Y+3, r24	; 0x03
  LoPinR_L = MEM_read_byte(&PinRLtab[LowPin]);  //R_L mask for LowPin R_L load
    34a6:	c8 01       	movw	r24, r16
    34a8:	87 55       	subi	r24, 0x57	; 87
    34aa:	9e 4f       	sbci	r25, 0xFE	; 254
    34ac:	0e 94 9c 1c 	call	0x3938	; 0x3938 <__eerd_byte_m168>
    34b0:	b8 2e       	mov	r11, r24
 #endif
  HiPinR_L = MEM_read_byte(&PinRLtab[HighPin]);	//R_L mask for HighPin R_L load
    34b2:	c7 01       	movw	r24, r14
    34b4:	87 55       	subi	r24, 0x57	; 87
    34b6:	9e 4f       	sbci	r25, 0xFE	; 254
    34b8:	0e 94 9c 1c 	call	0x3938	; 0x3938 <__eerd_byte_m168>
    34bc:	89 83       	std	Y+1, r24	; 0x01

// Measurement of ESR of capacitors AC Mode
   sumvolt[0] = 1;		// set sum of LowPin voltage to 1 to prevent divide by zero
   sumvolt[1] = 128;		// clear sum of HighPin voltage with current
   sumvolt[2] = 0;		// clear sum of HighPin voltage without current
   EntladePins();	// discharge capacitor
    34be:	0e 94 74 08 	call	0x10e8	; 0x10e8 <EntladePins>
   ADC_PORT = TXD_VAL;		// switch ADC-Port to GND
    34c2:	88 e0       	ldi	r24, 0x08	; 8
    34c4:	88 b9       	out	0x08, r24	; 8
// measurement frequency is given by sum of ADC-Reads < 680 Hz
   ADMUX = LowPin | (1<<REFS1) | (1<<REFS0);	// switch ADC to LowPin, Internal Ref. 
    34c6:	6b 89       	ldd	r22, Y+19	; 0x13
    34c8:	20 ec       	ldi	r18, 0xC0	; 192
    34ca:	d2 2e       	mov	r13, r18
    34cc:	d6 2a       	or	r13, r22
    34ce:	d0 92 7c 00 	sts	0x007C, r13
   ADCSRA |= (1<<ADSC);				// Start Conversion
    34d2:	80 91 7a 00 	lds	r24, 0x007A
    34d6:	80 64       	ori	r24, 0x40	; 64
    34d8:	80 93 7a 00 	sts	0x007A, r24
   while (ADCSRA&(1<<ADSC));	// wait dummy read , sync with ADC-clock
    34dc:	80 91 7a 00 	lds	r24, 0x007A
    34e0:	86 fd       	sbrc	r24, 6
    34e2:	fc cf       	rjmp	.-8      	; 0x34dc <GetESR+0x92>
    34e4:	91 e0       	ldi	r25, 0x01	; 1
    34e6:	29 2e       	mov	r2, r25
    34e8:	31 2c       	mov	r3, r1
    34ea:	41 2c       	mov	r4, r1
    34ec:	51 2c       	mov	r5, r1
    34ee:	80 e8       	ldi	r24, 0x80	; 128
    34f0:	e8 2e       	mov	r14, r24
    34f2:	f1 2c       	mov	r15, r1
    34f4:	01 2d       	mov	r16, r1
    34f6:	11 2d       	mov	r17, r1
    34f8:	66 24       	eor	r6, r6
    34fa:	77 24       	eor	r7, r7
    34fc:	43 01       	movw	r8, r6
    34fe:	cc 24       	eor	r12, r12
          ADCSRA |= (1<<ADSC);			// Start Conversion
          while (ADCSRA&(1<<ADSC));		// wait dummy read after switch
         ADCSRA |= (1<<ADSC);			// Start Conversion
         while (ADCSRA&(1<<ADSC));		// wait
         adcv[0] = ADCW;			// Voltage LowPin with current
          ADMUX = HighPin | (1<<REFS1) | (1<<REFS0);      // switch ADC to HighPin, Internal Ref. 
    3500:	20 ec       	ldi	r18, 0xC0	; 192
    3502:	a2 2a       	or	r10, r18
   ADMUX = LowPin | (1<<REFS1) | (1<<REFS0);	// switch ADC to LowPin, Internal Ref. 
   ADCSRA |= (1<<ADSC);				// Start Conversion
   while (ADCSRA&(1<<ADSC));	// wait dummy read , sync with ADC-clock
   // ADC Sample and Hold (SH) is done 1.5 ADC clock number after starting 
   for(ii=0;ii<128;ii++) {
      ADC_DDR = LoADC;				// switch Low-Pin to output (GND)
    3504:	3a 81       	ldd	r19, Y+2	; 0x02
    3506:	37 b9       	out	0x07, r19	; 7
      while (1) {
         R_PORT = HiPinR_L;			// switch R-Port to VCC
    3508:	49 81       	ldd	r20, Y+1	; 0x01
    350a:	45 b9       	out	0x05, r20	; 5
         R_DDR = HiPinR_L;			// switch R_L port for HighPin to output (VCC)
    350c:	44 b9       	out	0x04, r20	; 4
          ADMUX = LowPin | (1<<REFS1) | (1<<REFS0);      // switch ADC to LowPin, Internal Ref. 
    350e:	d0 92 7c 00 	sts	0x007C, r13
          ADCSRA |= (1<<ADSC);			// Start Conversion
    3512:	80 91 7a 00 	lds	r24, 0x007A
    3516:	80 64       	ori	r24, 0x40	; 64
    3518:	80 93 7a 00 	sts	0x007A, r24
          while (ADCSRA&(1<<ADSC));		// wait dummy read after switch
    351c:	80 91 7a 00 	lds	r24, 0x007A
    3520:	86 fd       	sbrc	r24, 6
    3522:	fc cf       	rjmp	.-8      	; 0x351c <GetESR+0xd2>
         ADCSRA |= (1<<ADSC);			// Start Conversion
    3524:	80 91 7a 00 	lds	r24, 0x007A
    3528:	80 64       	ori	r24, 0x40	; 64
    352a:	80 93 7a 00 	sts	0x007A, r24
         while (ADCSRA&(1<<ADSC));		// wait
    352e:	80 91 7a 00 	lds	r24, 0x007A
    3532:	86 fd       	sbrc	r24, 6
    3534:	fc cf       	rjmp	.-8      	; 0x352e <GetESR+0xe4>
         adcv[0] = ADCW;			// Voltage LowPin with current
    3536:	40 91 78 00 	lds	r20, 0x0078
    353a:	50 91 79 00 	lds	r21, 0x0079
          ADMUX = HighPin | (1<<REFS1) | (1<<REFS0);      // switch ADC to HighPin, Internal Ref. 
    353e:	a0 92 7c 00 	sts	0x007C, r10
          ADCSRA |= (1<<ADSC);			// Start Conversion
    3542:	80 91 7a 00 	lds	r24, 0x007A
    3546:	80 64       	ori	r24, 0x40	; 64
    3548:	80 93 7a 00 	sts	0x007A, r24
          while (ADCSRA&(1<<ADSC));		// wait dummy read after switch
    354c:	80 91 7a 00 	lds	r24, 0x007A
    3550:	86 fd       	sbrc	r24, 6
    3552:	fc cf       	rjmp	.-8      	; 0x354c <GetESR+0x102>
         ADCSRA |= (1<<ADSC);			// Start Conversion, real start is rising edge of ADC clock
    3554:	80 91 7a 00 	lds	r24, 0x007A
    3558:	80 64       	ori	r24, 0x40	; 64
    355a:	80 93 7a 00 	sts	0x007A, r24
         wait10us();				// 2.5 ADC clocks = 20 us
    355e:	48 8b       	std	Y+16, r20	; 0x10
    3560:	5b 8b       	std	Y+19, r21	; 0x13
    3562:	0e 94 89 14 	call	0x2912	; 0x2912 <wait10us>
         wait5us();			
    3566:	0e 94 8a 14 	call	0x2914	; 0x2914 <wait5us>
         wait3us();				// with only 17 us delay the voltage goes down before SH
    356a:	0e 94 8c 14 	call	0x2918	; 0x2918 <wait3us>
//         wdt_reset();				// with wdt_reset the timing can be adjusted,
						// when time is too short, voltage is down before SH of ADC
						// when time is too long, capacitor will be overloaded.
						// That will cause too high voltage without current.
         R_DDR = 0;				// switch current off,  SH is 1.5 ADC clock behind start
    356e:	14 b8       	out	0x04, r1	; 4
    3570:	5b 89       	ldd	r21, Y+19	; 0x13
    3572:	48 89       	ldd	r20, Y+16	; 0x10
         while (ADCSRA&(1<<ADSC));		// wait for conversion finished
    3574:	80 91 7a 00 	lds	r24, 0x007A
    3578:	86 fd       	sbrc	r24, 6
    357a:	fc cf       	rjmp	.-8      	; 0x3574 <GetESR+0x12a>
         adcv[1] = ADCW;			// Voltage HighPin with current
    357c:	20 91 78 00 	lds	r18, 0x0078
    3580:	30 91 79 00 	lds	r19, 0x0079
         R_PORT = 0;
    3584:	15 b8       	out	0x05, r1	; 5
          ADCSRA |= (1<<ADSC);			// Start Conversion
    3586:	80 91 7a 00 	lds	r24, 0x007A
    358a:	80 64       	ori	r24, 0x40	; 64
    358c:	80 93 7a 00 	sts	0x007A, r24
          while (ADCSRA&(1<<ADSC));		// wait dummy read
    3590:	80 91 7a 00 	lds	r24, 0x007A
    3594:	86 fd       	sbrc	r24, 6
    3596:	fc cf       	rjmp	.-8      	; 0x3590 <GetESR+0x146>
         ADCSRA |= (1<<ADSC);			// Start Conversion
    3598:	80 91 7a 00 	lds	r24, 0x007A
    359c:	80 64       	ori	r24, 0x40	; 64
    359e:	80 93 7a 00 	sts	0x007A, r24
         while (ADCSRA&(1<<ADSC));		// wait
    35a2:	80 91 7a 00 	lds	r24, 0x007A
    35a6:	86 fd       	sbrc	r24, 6
    35a8:	fc cf       	rjmp	.-8      	; 0x35a2 <GetESR+0x158>
         adcv[2] = ADCW;			// Voltage HighPin without current
    35aa:	80 91 78 00 	lds	r24, 0x0078
    35ae:	90 91 79 00 	lds	r25, 0x0079
         if (adcv[2] > 2) break;
    35b2:	83 30       	cpi	r24, 0x03	; 3
    35b4:	91 05       	cpc	r25, r1
    35b6:	10 f4       	brcc	.+4      	; 0x35bc <GetESR+0x172>
         wdt_reset();
    35b8:	a8 95       	wdr
      }
    35ba:	a6 cf       	rjmp	.-180    	; 0x3508 <GetESR+0xbe>
      sumvolt[0] += adcv[0];			// add sum of both LowPin voltages with current
    35bc:	60 e0       	ldi	r22, 0x00	; 0
    35be:	70 e0       	ldi	r23, 0x00	; 0
    35c0:	4c 83       	std	Y+4, r20	; 0x04
    35c2:	5d 83       	std	Y+5, r21	; 0x05
    35c4:	6e 83       	std	Y+6, r22	; 0x06
    35c6:	7f 83       	std	Y+7, r23	; 0x07
      sumvolt[1] += adcv[1];			// add  HighPin voltages with current
    35c8:	a9 01       	movw	r20, r18
    35ca:	60 e0       	ldi	r22, 0x00	; 0
    35cc:	70 e0       	ldi	r23, 0x00	; 0
    35ce:	48 87       	std	Y+8, r20	; 0x08
    35d0:	59 87       	std	Y+9, r21	; 0x09
    35d2:	6a 87       	std	Y+10, r22	; 0x0a
    35d4:	7b 87       	std	Y+11, r23	; 0x0b
      sumvolt[2] += adcv[2]; 			// capacitor voltage without current
    35d6:	9c 01       	movw	r18, r24
    35d8:	40 e0       	ldi	r20, 0x00	; 0
    35da:	50 e0       	ldi	r21, 0x00	; 0
    35dc:	2c 87       	std	Y+12, r18	; 0x0c
    35de:	3d 87       	std	Y+13, r19	; 0x0d
    35e0:	4e 87       	std	Y+14, r20	; 0x0e
    35e2:	5f 87       	std	Y+15, r21	; 0x0f
       ADCSRA |= (1<<ADSC);			// Start Conversion
    35e4:	80 91 7a 00 	lds	r24, 0x007A
    35e8:	80 64       	ori	r24, 0x40	; 64
    35ea:	80 93 7a 00 	sts	0x007A, r24
       while (ADCSRA&(1<<ADSC));		// wait dummy read
    35ee:	80 91 7a 00 	lds	r24, 0x007A
    35f2:	86 fd       	sbrc	r24, 6
    35f4:	fc cf       	rjmp	.-8      	; 0x35ee <GetESR+0x1a4>
      ADC_DDR = HiADC;				// switch High Pin to GND
    35f6:	3b 81       	ldd	r19, Y+3	; 0x03
    35f8:	37 b9       	out	0x07, r19	; 7
      while (1) {
         R_PORT = LoPinR_L;
    35fa:	b5 b8       	out	0x05, r11	; 5
         R_DDR = LoPinR_L;			// switch LowPin with 680 Ohm to VCC
    35fc:	b4 b8       	out	0x04, r11	; 4
         wdt_reset();
    35fe:	a8 95       	wdr
          ADMUX = HighPin | (1<<REFS1) | (1<<REFS0);      // switch ADC to HighPin, Internal Ref. 
    3600:	a0 92 7c 00 	sts	0x007C, r10
          ADCSRA |= (1<<ADSC);			// Start Conversion
    3604:	80 91 7a 00 	lds	r24, 0x007A
    3608:	80 64       	ori	r24, 0x40	; 64
    360a:	80 93 7a 00 	sts	0x007A, r24
          while (ADCSRA&(1<<ADSC));		// wait dummy read after switch
    360e:	80 91 7a 00 	lds	r24, 0x007A
    3612:	86 fd       	sbrc	r24, 6
    3614:	fc cf       	rjmp	.-8      	; 0x360e <GetESR+0x1c4>
         ADCSRA |= (1<<ADSC);			// Start Conversion
    3616:	80 91 7a 00 	lds	r24, 0x007A
    361a:	80 64       	ori	r24, 0x40	; 64
    361c:	80 93 7a 00 	sts	0x007A, r24
         while (ADCSRA&(1<<ADSC));		// wait
    3620:	80 91 7a 00 	lds	r24, 0x007A
    3624:	86 fd       	sbrc	r24, 6
    3626:	fc cf       	rjmp	.-8      	; 0x3620 <GetESR+0x1d6>
         adcv[0] = ADCW;			// Voltage HighPin with current
    3628:	60 91 78 00 	lds	r22, 0x0078
    362c:	70 91 79 00 	lds	r23, 0x0079
          ADMUX = LowPin | (1<<REFS1) | (1<<REFS0);      // switch ADC to LowPin, Internal Ref. 
    3630:	d0 92 7c 00 	sts	0x007C, r13
          ADCSRA |= (1<<ADSC);			// Start Conversion
    3634:	80 91 7a 00 	lds	r24, 0x007A
    3638:	80 64       	ori	r24, 0x40	; 64
    363a:	80 93 7a 00 	sts	0x007A, r24
          while (ADCSRA&(1<<ADSC));		// wait dummy read after switch
    363e:	80 91 7a 00 	lds	r24, 0x007A
    3642:	86 fd       	sbrc	r24, 6
    3644:	fc cf       	rjmp	.-8      	; 0x363e <GetESR+0x1f4>
         ADCSRA |= (1<<ADSC);			// Start Conversion, real start is rising edge of ADC clock
    3646:	80 91 7a 00 	lds	r24, 0x007A
    364a:	80 64       	ori	r24, 0x40	; 64
    364c:	80 93 7a 00 	sts	0x007A, r24
         wait10us();				// 2.5 ADC clocks = 20 us
    3650:	6b 8b       	std	Y+19, r22	; 0x13
    3652:	78 8b       	std	Y+16, r23	; 0x10
    3654:	0e 94 89 14 	call	0x2912	; 0x2912 <wait10us>
         wait5us();			
    3658:	0e 94 8a 14 	call	0x2914	; 0x2914 <wait5us>
         wait3us();				// with only 17 us delay the voltage goes down before SH
    365c:	0e 94 8c 14 	call	0x2918	; 0x2918 <wait3us>
//         wdt_reset();				// with wdt_reset the timing can be adjusted,
						// when time is too short, voltage is down before SH of ADC
						// when time is too long, capacitor will be overloaded.
						// That will cause too high voltage without current.
         R_DDR = 0;				// switch current off, SH is 1.5 ADC clock ticks behind start
    3660:	14 b8       	out	0x04, r1	; 4
    3662:	6b 89       	ldd	r22, Y+19	; 0x13
    3664:	78 89       	ldd	r23, Y+16	; 0x10
         while (ADCSRA&(1<<ADSC));		// wait for conversion finished
    3666:	80 91 7a 00 	lds	r24, 0x007A
    366a:	86 fd       	sbrc	r24, 6
    366c:	fc cf       	rjmp	.-8      	; 0x3666 <GetESR+0x21c>
         adcv[1] = ADCW;			//  Voltage LowPin with current
    366e:	40 91 78 00 	lds	r20, 0x0078
    3672:	50 91 79 00 	lds	r21, 0x0079
         R_PORT = 0;
    3676:	15 b8       	out	0x05, r1	; 5
          ADMUX = LowPin | (1<<REFS1) | (1<<REFS0);      // switch ADC to LowPin, Internal Ref. 
    3678:	d0 92 7c 00 	sts	0x007C, r13
          ADCSRA |= (1<<ADSC);		// Start Conversion
    367c:	80 91 7a 00 	lds	r24, 0x007A
    3680:	80 64       	ori	r24, 0x40	; 64
    3682:	80 93 7a 00 	sts	0x007A, r24
          while (ADCSRA&(1<<ADSC));		// wait dummy read
    3686:	80 91 7a 00 	lds	r24, 0x007A
    368a:	86 fd       	sbrc	r24, 6
    368c:	fc cf       	rjmp	.-8      	; 0x3686 <GetESR+0x23c>
         ADCSRA |= (1<<ADSC);			// Start Conversion
    368e:	80 91 7a 00 	lds	r24, 0x007A
    3692:	80 64       	ori	r24, 0x40	; 64
    3694:	80 93 7a 00 	sts	0x007A, r24
         while (ADCSRA&(1<<ADSC));		// wait
    3698:	80 91 7a 00 	lds	r24, 0x007A
    369c:	86 fd       	sbrc	r24, 6
    369e:	fc cf       	rjmp	.-8      	; 0x3698 <GetESR+0x24e>
         adcv[2] = ADCW;			// Voltage LowPin without current
    36a0:	20 91 78 00 	lds	r18, 0x0078
    36a4:	30 91 79 00 	lds	r19, 0x0079
         if (adcv[2] > 2) break;
    36a8:	23 30       	cpi	r18, 0x03	; 3
    36aa:	31 05       	cpc	r19, r1
    36ac:	10 f4       	brcc	.+4      	; 0x36b2 <GetESR+0x268>
         wdt_reset();
    36ae:	a8 95       	wdr
      }
    36b0:	a4 cf       	rjmp	.-184    	; 0x35fa <GetESR+0x1b0>
    36b2:	5a 8b       	std	Y+18, r21	; 0x12
    36b4:	49 8b       	std	Y+17, r20	; 0x11
      R_DDR = 0;				// switch current off
    36b6:	14 b8       	out	0x04, r1	; 4
      sumvolt[0] += adcv[0];			// add  LowPin voltages with current
    36b8:	cb 01       	movw	r24, r22
    36ba:	a0 e0       	ldi	r26, 0x00	; 0
    36bc:	b0 e0       	ldi	r27, 0x00	; 0
         while (ADCSRA&(1<<ADSC));		// wait
         adcv[2] = ADCW;			// Voltage HighPin without current
         if (adcv[2] > 2) break;
         wdt_reset();
      }
      sumvolt[0] += adcv[0];			// add sum of both LowPin voltages with current
    36be:	4c 81       	ldd	r20, Y+4	; 0x04
    36c0:	5d 81       	ldd	r21, Y+5	; 0x05
    36c2:	6e 81       	ldd	r22, Y+6	; 0x06
    36c4:	7f 81       	ldd	r23, Y+7	; 0x07
    36c6:	84 0f       	add	r24, r20
    36c8:	95 1f       	adc	r25, r21
    36ca:	a6 1f       	adc	r26, r22
    36cc:	b7 1f       	adc	r27, r23
         adcv[2] = ADCW;			// Voltage LowPin without current
         if (adcv[2] > 2) break;
         wdt_reset();
      }
      R_DDR = 0;				// switch current off
      sumvolt[0] += adcv[0];			// add  LowPin voltages with current
    36ce:	28 0e       	add	r2, r24
    36d0:	39 1e       	adc	r3, r25
    36d2:	4a 1e       	adc	r4, r26
    36d4:	5b 1e       	adc	r5, r27
      sumvolt[1] += adcv[1];			// add  HighPin voltages with current
    36d6:	69 89       	ldd	r22, Y+17	; 0x11
    36d8:	7a 89       	ldd	r23, Y+18	; 0x12
    36da:	cb 01       	movw	r24, r22
    36dc:	a0 e0       	ldi	r26, 0x00	; 0
    36de:	b0 e0       	ldi	r27, 0x00	; 0
         adcv[2] = ADCW;			// Voltage HighPin without current
         if (adcv[2] > 2) break;
         wdt_reset();
      }
      sumvolt[0] += adcv[0];			// add sum of both LowPin voltages with current
      sumvolt[1] += adcv[1];			// add  HighPin voltages with current
    36e0:	48 85       	ldd	r20, Y+8	; 0x08
    36e2:	59 85       	ldd	r21, Y+9	; 0x09
    36e4:	6a 85       	ldd	r22, Y+10	; 0x0a
    36e6:	7b 85       	ldd	r23, Y+11	; 0x0b
    36e8:	84 0f       	add	r24, r20
    36ea:	95 1f       	adc	r25, r21
    36ec:	a6 1f       	adc	r26, r22
    36ee:	b7 1f       	adc	r27, r23
         if (adcv[2] > 2) break;
         wdt_reset();
      }
      R_DDR = 0;				// switch current off
      sumvolt[0] += adcv[0];			// add  LowPin voltages with current
      sumvolt[1] += adcv[1];			// add  HighPin voltages with current
    36f0:	e8 0e       	add	r14, r24
    36f2:	f9 1e       	adc	r15, r25
    36f4:	0a 1f       	adc	r16, r26
    36f6:	1b 1f       	adc	r17, r27
      sumvolt[2] += adcv[2];			// add  HighPin voltages without current
    36f8:	c9 01       	movw	r24, r18
    36fa:	a0 e0       	ldi	r26, 0x00	; 0
    36fc:	b0 e0       	ldi	r27, 0x00	; 0
         if (adcv[2] > 2) break;
         wdt_reset();
      }
      sumvolt[0] += adcv[0];			// add sum of both LowPin voltages with current
      sumvolt[1] += adcv[1];			// add  HighPin voltages with current
      sumvolt[2] += adcv[2]; 			// capacitor voltage without current
    36fe:	2c 85       	ldd	r18, Y+12	; 0x0c
    3700:	3d 85       	ldd	r19, Y+13	; 0x0d
    3702:	4e 85       	ldd	r20, Y+14	; 0x0e
    3704:	5f 85       	ldd	r21, Y+15	; 0x0f
    3706:	82 0f       	add	r24, r18
    3708:	93 1f       	adc	r25, r19
    370a:	a4 1f       	adc	r26, r20
    370c:	b5 1f       	adc	r27, r21
         wdt_reset();
      }
      R_DDR = 0;				// switch current off
      sumvolt[0] += adcv[0];			// add  LowPin voltages with current
      sumvolt[1] += adcv[1];			// add  HighPin voltages with current
      sumvolt[2] += adcv[2];			// add  HighPin voltages without current
    370e:	68 0e       	add	r6, r24
    3710:	79 1e       	adc	r7, r25
    3712:	8a 1e       	adc	r8, r26
    3714:	9b 1e       	adc	r9, r27
// measurement frequency is given by sum of ADC-Reads < 680 Hz
   ADMUX = LowPin | (1<<REFS1) | (1<<REFS0);	// switch ADC to LowPin, Internal Ref. 
   ADCSRA |= (1<<ADSC);				// Start Conversion
   while (ADCSRA&(1<<ADSC));	// wait dummy read , sync with ADC-clock
   // ADC Sample and Hold (SH) is done 1.5 ADC clock number after starting 
   for(ii=0;ii<128;ii++) {
    3716:	c3 94       	inc	r12
    3718:	3c 2d       	mov	r19, r12
    371a:	30 38       	cpi	r19, 0x80	; 128
    371c:	09 f0       	breq	.+2      	; 0x3720 <GetESR+0x2d6>
    371e:	f2 ce       	rjmp	.-540    	; 0x3504 <GetESR+0xba>
      R_DDR = 0;				// switch current off
      sumvolt[0] += adcv[0];			// add  LowPin voltages with current
      sumvolt[1] += adcv[1];			// add  HighPin voltages with current
      sumvolt[2] += adcv[2];			// add  HighPin voltages without current
   } // end for
   if (sumvolt[1] > sumvolt[0]) {
    3720:	2e 14       	cp	r2, r14
    3722:	3f 04       	cpc	r3, r15
    3724:	40 06       	cpc	r4, r16
    3726:	51 06       	cpc	r5, r17
    3728:	28 f4       	brcc	.+10     	; 0x3734 <GetESR+0x2ea>
      sumvolt[1] -= sumvolt[0];
    372a:	e2 18       	sub	r14, r2
    372c:	f3 08       	sbc	r15, r3
    372e:	04 09       	sbc	r16, r4
    3730:	15 09       	sbc	r17, r5
    3732:	03 c0       	rjmp	.+6      	; 0x373a <GetESR+0x2f0>
   } else {
      sumvolt[1] = 0;
    3734:	ee 24       	eor	r14, r14
    3736:	ff 24       	eor	r15, r15
    3738:	87 01       	movw	r16, r14
   }
   sumvolt[2] = (sumvolt[2] * 960) / 1000;	// scale down the voltage without current with 96.0%
    373a:	c4 01       	movw	r24, r8
    373c:	b3 01       	movw	r22, r6
    373e:	20 ec       	ldi	r18, 0xC0	; 192
    3740:	33 e0       	ldi	r19, 0x03	; 3
    3742:	40 e0       	ldi	r20, 0x00	; 0
    3744:	50 e0       	ldi	r21, 0x00	; 0
    3746:	0e 94 e9 1b 	call	0x37d2	; 0x37d2 <__mulsi3>
    374a:	28 ee       	ldi	r18, 0xE8	; 232
    374c:	33 e0       	ldi	r19, 0x03	; 3
    374e:	40 e0       	ldi	r20, 0x00	; 0
    3750:	50 e0       	ldi	r21, 0x00	; 0
    3752:	0e 94 28 1c 	call	0x3850	; 0x3850 <__udivmodsi4>
    3756:	59 01       	movw	r10, r18
    3758:	6a 01       	movw	r12, r20
   } else {
      sumvolt[1] = 0;			// no mean voltage at the capacitor!
   }
   sumvolt[2] = (sumvolt[2] * 1998) / 2000;
 #endif
   if (sumvolt[1] > sumvolt[2]) {
    375a:	2e 15       	cp	r18, r14
    375c:	3f 05       	cpc	r19, r15
    375e:	40 07       	cpc	r20, r16
    3760:	51 07       	cpc	r21, r17
    3762:	f0 f4       	brcc	.+60     	; 0x37a0 <GetESR+0x356>
      // mean voltage at the capacitor is higher with current
      // sumvolt[0] is the sum of voltages at LowPin, caused by output resistance of Port
      // (RR680MI - R_L_VAL) is the port output resistance in 0.1 Ohm units.
      // we scale up the difference voltage with 10 to get 0.01 Ohm units of ESR
      cap.esr = ((sumvolt[1] - sumvolt[2]) * 10 * (unsigned long)(RR680MI - R_L_VAL)) / sumvolt[0];
    3764:	60 91 04 01 	lds	r22, 0x0104
    3768:	70 91 05 01 	lds	r23, 0x0105
    376c:	60 59       	subi	r22, 0x90	; 144
    376e:	7a 41       	sbci	r23, 0x1A	; 26
    3770:	80 e0       	ldi	r24, 0x00	; 0
    3772:	90 e0       	ldi	r25, 0x00	; 0
    3774:	2a e0       	ldi	r18, 0x0A	; 10
    3776:	30 e0       	ldi	r19, 0x00	; 0
    3778:	40 e0       	ldi	r20, 0x00	; 0
    377a:	50 e0       	ldi	r21, 0x00	; 0
    377c:	0e 94 e9 1b 	call	0x37d2	; 0x37d2 <__mulsi3>
    3780:	a8 01       	movw	r20, r16
    3782:	97 01       	movw	r18, r14
    3784:	2a 19       	sub	r18, r10
    3786:	3b 09       	sbc	r19, r11
    3788:	4c 09       	sbc	r20, r12
    378a:	5d 09       	sbc	r21, r13
    378c:	0e 94 e9 1b 	call	0x37d2	; 0x37d2 <__mulsi3>
    3790:	a2 01       	movw	r20, r4
    3792:	91 01       	movw	r18, r2
    3794:	0e 94 28 1c 	call	0x3850	; 0x3850 <__udivmodsi4>
    3798:	30 93 64 01 	sts	0x0164, r19
    379c:	20 93 63 01 	sts	0x0163, r18
//   DisplayValue(sumvolt[1],0,' ',4);	// Difference Voltage HighPin - LowPin
//   DisplayValue(sumvolt[2],0,' ',4);	// Voltage at HighPin without current
//   wait3s();
#endif
  return;
}
    37a0:	63 96       	adiw	r28, 0x13	; 19
    37a2:	0f b6       	in	r0, 0x3f	; 63
    37a4:	f8 94       	cli
    37a6:	de bf       	out	0x3e, r29	; 62
    37a8:	0f be       	out	0x3f, r0	; 63
    37aa:	cd bf       	out	0x3d, r28	; 61
    37ac:	cf 91       	pop	r28
    37ae:	df 91       	pop	r29
    37b0:	1f 91       	pop	r17
    37b2:	0f 91       	pop	r16
    37b4:	ff 90       	pop	r15
    37b6:	ef 90       	pop	r14
    37b8:	df 90       	pop	r13
    37ba:	cf 90       	pop	r12
    37bc:	bf 90       	pop	r11
    37be:	af 90       	pop	r10
    37c0:	9f 90       	pop	r9
    37c2:	8f 90       	pop	r8
    37c4:	7f 90       	pop	r7
    37c6:	6f 90       	pop	r6
    37c8:	5f 90       	pop	r5
    37ca:	4f 90       	pop	r4
    37cc:	3f 90       	pop	r3
    37ce:	2f 90       	pop	r2
    37d0:	08 95       	ret

000037d2 <__mulsi3>:
    37d2:	62 9f       	mul	r22, r18
    37d4:	d0 01       	movw	r26, r0
    37d6:	73 9f       	mul	r23, r19
    37d8:	f0 01       	movw	r30, r0
    37da:	82 9f       	mul	r24, r18
    37dc:	e0 0d       	add	r30, r0
    37de:	f1 1d       	adc	r31, r1
    37e0:	64 9f       	mul	r22, r20
    37e2:	e0 0d       	add	r30, r0
    37e4:	f1 1d       	adc	r31, r1
    37e6:	92 9f       	mul	r25, r18
    37e8:	f0 0d       	add	r31, r0
    37ea:	83 9f       	mul	r24, r19
    37ec:	f0 0d       	add	r31, r0
    37ee:	74 9f       	mul	r23, r20
    37f0:	f0 0d       	add	r31, r0
    37f2:	65 9f       	mul	r22, r21
    37f4:	f0 0d       	add	r31, r0
    37f6:	99 27       	eor	r25, r25
    37f8:	72 9f       	mul	r23, r18
    37fa:	b0 0d       	add	r27, r0
    37fc:	e1 1d       	adc	r30, r1
    37fe:	f9 1f       	adc	r31, r25
    3800:	63 9f       	mul	r22, r19
    3802:	b0 0d       	add	r27, r0
    3804:	e1 1d       	adc	r30, r1
    3806:	f9 1f       	adc	r31, r25
    3808:	bd 01       	movw	r22, r26
    380a:	cf 01       	movw	r24, r30
    380c:	11 24       	eor	r1, r1
    380e:	08 95       	ret

00003810 <__udivmodqi4>:
    3810:	99 1b       	sub	r25, r25
    3812:	79 e0       	ldi	r23, 0x09	; 9
    3814:	04 c0       	rjmp	.+8      	; 0x381e <__udivmodqi4_ep>

00003816 <__udivmodqi4_loop>:
    3816:	99 1f       	adc	r25, r25
    3818:	96 17       	cp	r25, r22
    381a:	08 f0       	brcs	.+2      	; 0x381e <__udivmodqi4_ep>
    381c:	96 1b       	sub	r25, r22

0000381e <__udivmodqi4_ep>:
    381e:	88 1f       	adc	r24, r24
    3820:	7a 95       	dec	r23
    3822:	c9 f7       	brne	.-14     	; 0x3816 <__udivmodqi4_loop>
    3824:	80 95       	com	r24
    3826:	08 95       	ret

00003828 <__udivmodhi4>:
    3828:	aa 1b       	sub	r26, r26
    382a:	bb 1b       	sub	r27, r27
    382c:	51 e1       	ldi	r21, 0x11	; 17
    382e:	07 c0       	rjmp	.+14     	; 0x383e <__udivmodhi4_ep>

00003830 <__udivmodhi4_loop>:
    3830:	aa 1f       	adc	r26, r26
    3832:	bb 1f       	adc	r27, r27
    3834:	a6 17       	cp	r26, r22
    3836:	b7 07       	cpc	r27, r23
    3838:	10 f0       	brcs	.+4      	; 0x383e <__udivmodhi4_ep>
    383a:	a6 1b       	sub	r26, r22
    383c:	b7 0b       	sbc	r27, r23

0000383e <__udivmodhi4_ep>:
    383e:	88 1f       	adc	r24, r24
    3840:	99 1f       	adc	r25, r25
    3842:	5a 95       	dec	r21
    3844:	a9 f7       	brne	.-22     	; 0x3830 <__udivmodhi4_loop>
    3846:	80 95       	com	r24
    3848:	90 95       	com	r25
    384a:	bc 01       	movw	r22, r24
    384c:	cd 01       	movw	r24, r26
    384e:	08 95       	ret

00003850 <__udivmodsi4>:
    3850:	a1 e2       	ldi	r26, 0x21	; 33
    3852:	1a 2e       	mov	r1, r26
    3854:	aa 1b       	sub	r26, r26
    3856:	bb 1b       	sub	r27, r27
    3858:	fd 01       	movw	r30, r26
    385a:	0d c0       	rjmp	.+26     	; 0x3876 <__udivmodsi4_ep>

0000385c <__udivmodsi4_loop>:
    385c:	aa 1f       	adc	r26, r26
    385e:	bb 1f       	adc	r27, r27
    3860:	ee 1f       	adc	r30, r30
    3862:	ff 1f       	adc	r31, r31
    3864:	a2 17       	cp	r26, r18
    3866:	b3 07       	cpc	r27, r19
    3868:	e4 07       	cpc	r30, r20
    386a:	f5 07       	cpc	r31, r21
    386c:	20 f0       	brcs	.+8      	; 0x3876 <__udivmodsi4_ep>
    386e:	a2 1b       	sub	r26, r18
    3870:	b3 0b       	sbc	r27, r19
    3872:	e4 0b       	sbc	r30, r20
    3874:	f5 0b       	sbc	r31, r21

00003876 <__udivmodsi4_ep>:
    3876:	66 1f       	adc	r22, r22
    3878:	77 1f       	adc	r23, r23
    387a:	88 1f       	adc	r24, r24
    387c:	99 1f       	adc	r25, r25
    387e:	1a 94       	dec	r1
    3880:	69 f7       	brne	.-38     	; 0x385c <__udivmodsi4_loop>
    3882:	60 95       	com	r22
    3884:	70 95       	com	r23
    3886:	80 95       	com	r24
    3888:	90 95       	com	r25
    388a:	9b 01       	movw	r18, r22
    388c:	ac 01       	movw	r20, r24
    388e:	bd 01       	movw	r22, r26
    3890:	cf 01       	movw	r24, r30
    3892:	08 95       	ret

00003894 <__divmodsi4>:
    3894:	97 fb       	bst	r25, 7
    3896:	09 2e       	mov	r0, r25
    3898:	05 26       	eor	r0, r21
    389a:	0e d0       	rcall	.+28     	; 0x38b8 <__divmodsi4_neg1>
    389c:	57 fd       	sbrc	r21, 7
    389e:	04 d0       	rcall	.+8      	; 0x38a8 <__divmodsi4_neg2>
    38a0:	d7 df       	rcall	.-82     	; 0x3850 <__udivmodsi4>
    38a2:	0a d0       	rcall	.+20     	; 0x38b8 <__divmodsi4_neg1>
    38a4:	00 1c       	adc	r0, r0
    38a6:	38 f4       	brcc	.+14     	; 0x38b6 <__divmodsi4_exit>

000038a8 <__divmodsi4_neg2>:
    38a8:	50 95       	com	r21
    38aa:	40 95       	com	r20
    38ac:	30 95       	com	r19
    38ae:	21 95       	neg	r18
    38b0:	3f 4f       	sbci	r19, 0xFF	; 255
    38b2:	4f 4f       	sbci	r20, 0xFF	; 255
    38b4:	5f 4f       	sbci	r21, 0xFF	; 255

000038b6 <__divmodsi4_exit>:
    38b6:	08 95       	ret

000038b8 <__divmodsi4_neg1>:
    38b8:	f6 f7       	brtc	.-4      	; 0x38b6 <__divmodsi4_exit>
    38ba:	90 95       	com	r25
    38bc:	80 95       	com	r24
    38be:	70 95       	com	r23
    38c0:	61 95       	neg	r22
    38c2:	7f 4f       	sbci	r23, 0xFF	; 255
    38c4:	8f 4f       	sbci	r24, 0xFF	; 255
    38c6:	9f 4f       	sbci	r25, 0xFF	; 255
    38c8:	08 95       	ret

000038ca <itoa>:
    38ca:	fb 01       	movw	r30, r22
    38cc:	9f 01       	movw	r18, r30
    38ce:	e8 94       	clt
    38d0:	42 30       	cpi	r20, 0x02	; 2
    38d2:	c4 f0       	brlt	.+48     	; 0x3904 <itoa+0x3a>
    38d4:	45 32       	cpi	r20, 0x25	; 37
    38d6:	b4 f4       	brge	.+44     	; 0x3904 <itoa+0x3a>
    38d8:	4a 30       	cpi	r20, 0x0A	; 10
    38da:	29 f4       	brne	.+10     	; 0x38e6 <itoa+0x1c>
    38dc:	97 fb       	bst	r25, 7
    38de:	1e f4       	brtc	.+6      	; 0x38e6 <itoa+0x1c>
    38e0:	90 95       	com	r25
    38e2:	81 95       	neg	r24
    38e4:	9f 4f       	sbci	r25, 0xFF	; 255
    38e6:	64 2f       	mov	r22, r20
    38e8:	77 27       	eor	r23, r23
    38ea:	0e 94 14 1c 	call	0x3828	; 0x3828 <__udivmodhi4>
    38ee:	80 5d       	subi	r24, 0xD0	; 208
    38f0:	8a 33       	cpi	r24, 0x3A	; 58
    38f2:	0c f0       	brlt	.+2      	; 0x38f6 <itoa+0x2c>
    38f4:	89 5d       	subi	r24, 0xD9	; 217
    38f6:	81 93       	st	Z+, r24
    38f8:	cb 01       	movw	r24, r22
    38fa:	00 97       	sbiw	r24, 0x00	; 0
    38fc:	a1 f7       	brne	.-24     	; 0x38e6 <itoa+0x1c>
    38fe:	16 f4       	brtc	.+4      	; 0x3904 <itoa+0x3a>
    3900:	5d e2       	ldi	r21, 0x2D	; 45
    3902:	51 93       	st	Z+, r21
    3904:	10 82       	st	Z, r1
    3906:	c9 01       	movw	r24, r18
    3908:	0c 94 bd 1c 	jmp	0x397a	; 0x397a <strrev>

0000390c <utoa>:
    390c:	fb 01       	movw	r30, r22
    390e:	9f 01       	movw	r18, r30
    3910:	42 30       	cpi	r20, 0x02	; 2
    3912:	74 f0       	brlt	.+28     	; 0x3930 <utoa+0x24>
    3914:	45 32       	cpi	r20, 0x25	; 37
    3916:	64 f4       	brge	.+24     	; 0x3930 <utoa+0x24>
    3918:	64 2f       	mov	r22, r20
    391a:	77 27       	eor	r23, r23
    391c:	0e 94 14 1c 	call	0x3828	; 0x3828 <__udivmodhi4>
    3920:	80 5d       	subi	r24, 0xD0	; 208
    3922:	8a 33       	cpi	r24, 0x3A	; 58
    3924:	0c f0       	brlt	.+2      	; 0x3928 <utoa+0x1c>
    3926:	89 5d       	subi	r24, 0xD9	; 217
    3928:	81 93       	st	Z+, r24
    392a:	cb 01       	movw	r24, r22
    392c:	00 97       	sbiw	r24, 0x00	; 0
    392e:	a1 f7       	brne	.-24     	; 0x3918 <utoa+0xc>
    3930:	10 82       	st	Z, r1
    3932:	c9 01       	movw	r24, r18
    3934:	0c 94 bd 1c 	jmp	0x397a	; 0x397a <strrev>

00003938 <__eerd_byte_m168>:
    3938:	f9 99       	sbic	0x1f, 1	; 31
    393a:	fe cf       	rjmp	.-4      	; 0x3938 <__eerd_byte_m168>
    393c:	92 bd       	out	0x22, r25	; 34
    393e:	81 bd       	out	0x21, r24	; 33
    3940:	f8 9a       	sbi	0x1f, 0	; 31
    3942:	99 27       	eor	r25, r25
    3944:	80 b5       	in	r24, 0x20	; 32
    3946:	08 95       	ret

00003948 <__eerd_word_m168>:
    3948:	a8 e1       	ldi	r26, 0x18	; 24
    394a:	b0 e0       	ldi	r27, 0x00	; 0
    394c:	42 e0       	ldi	r20, 0x02	; 2
    394e:	50 e0       	ldi	r21, 0x00	; 0
    3950:	0c 94 cf 1c 	jmp	0x399e	; 0x399e <__eerd_blraw_m168>

00003954 <__eewr_byte_m168>:
    3954:	26 2f       	mov	r18, r22

00003956 <__eewr_r18_m168>:
    3956:	f9 99       	sbic	0x1f, 1	; 31
    3958:	fe cf       	rjmp	.-4      	; 0x3956 <__eewr_r18_m168>
    395a:	1f ba       	out	0x1f, r1	; 31
    395c:	92 bd       	out	0x22, r25	; 34
    395e:	81 bd       	out	0x21, r24	; 33
    3960:	20 bd       	out	0x20, r18	; 32
    3962:	0f b6       	in	r0, 0x3f	; 63
    3964:	f8 94       	cli
    3966:	fa 9a       	sbi	0x1f, 2	; 31
    3968:	f9 9a       	sbi	0x1f, 1	; 31
    396a:	0f be       	out	0x3f, r0	; 63
    396c:	01 96       	adiw	r24, 0x01	; 1
    396e:	08 95       	ret

00003970 <__eewr_word_m168>:
    3970:	0e 94 aa 1c 	call	0x3954	; 0x3954 <__eewr_byte_m168>
    3974:	27 2f       	mov	r18, r23
    3976:	0c 94 ab 1c 	jmp	0x3956	; 0x3956 <__eewr_r18_m168>

0000397a <strrev>:
    397a:	dc 01       	movw	r26, r24
    397c:	fc 01       	movw	r30, r24
    397e:	67 2f       	mov	r22, r23
    3980:	71 91       	ld	r23, Z+
    3982:	77 23       	and	r23, r23
    3984:	e1 f7       	brne	.-8      	; 0x397e <strrev+0x4>
    3986:	32 97       	sbiw	r30, 0x02	; 2
    3988:	04 c0       	rjmp	.+8      	; 0x3992 <strrev+0x18>
    398a:	7c 91       	ld	r23, X
    398c:	6d 93       	st	X+, r22
    398e:	70 83       	st	Z, r23
    3990:	62 91       	ld	r22, -Z
    3992:	ae 17       	cp	r26, r30
    3994:	bf 07       	cpc	r27, r31
    3996:	c8 f3       	brcs	.-14     	; 0x398a <strrev+0x10>
    3998:	08 95       	ret

0000399a <__eerd_block_m168>:
    399a:	dc 01       	movw	r26, r24
    399c:	cb 01       	movw	r24, r22

0000399e <__eerd_blraw_m168>:
    399e:	fc 01       	movw	r30, r24
    39a0:	f9 99       	sbic	0x1f, 1	; 31
    39a2:	fe cf       	rjmp	.-4      	; 0x39a0 <__eerd_blraw_m168+0x2>
    39a4:	06 c0       	rjmp	.+12     	; 0x39b2 <__eerd_blraw_m168+0x14>
    39a6:	f2 bd       	out	0x22, r31	; 34
    39a8:	e1 bd       	out	0x21, r30	; 33
    39aa:	f8 9a       	sbi	0x1f, 0	; 31
    39ac:	31 96       	adiw	r30, 0x01	; 1
    39ae:	00 b4       	in	r0, 0x20	; 32
    39b0:	0d 92       	st	X+, r0
    39b2:	41 50       	subi	r20, 0x01	; 1
    39b4:	50 40       	sbci	r21, 0x00	; 0
    39b6:	b8 f7       	brcc	.-18     	; 0x39a6 <__eerd_blraw_m168+0x8>
    39b8:	08 95       	ret

000039ba <_exit>:
    39ba:	f8 94       	cli

000039bc <__stop_program>:
    39bc:	ff cf       	rjmp	.-2      	; 0x39bc <__stop_program>
