
TransistorTester.elf:     Dateiformat elf32-avr

Sektionen:
Idx Name          Größe     VMA       LMA       Datei-Off Ausr.
  0 .data         00000000  00800100  00003e5e  00003f12  2**0
                  CONTENTS, ALLOC, LOAD, DATA
  1 .text         00003e5e  00000000  00000000  000000b4  2**1
                  CONTENTS, ALLOC, LOAD, READONLY, CODE
  2 .bss          000000a3  00800100  00800100  00003f12  2**0
                  ALLOC
  3 .eeprom       000001da  00810000  00810000  00003f12  2**0
                  CONTENTS, ALLOC, LOAD, READONLY, DATA
  4 .stab         00000a98  00000000  00000000  000040ec  2**2
                  CONTENTS, READONLY, DEBUGGING
  5 .stabstr      00000141  00000000  00000000  00004b84  2**0
                  CONTENTS, READONLY, DEBUGGING
  6 .comment      00000011  00000000  00000000  00004cc5  2**0
                  CONTENTS, READONLY
  7 .debug_aranges 00000428  00000000  00000000  00004cd8  2**3
                  CONTENTS, READONLY, DEBUGGING
  8 .debug_info   0000701a  00000000  00000000  00005100  2**0
                  CONTENTS, READONLY, DEBUGGING
  9 .debug_abbrev 000018d2  00000000  00000000  0000c11a  2**0
                  CONTENTS, READONLY, DEBUGGING
 10 .debug_line   00001e1c  00000000  00000000  0000d9ec  2**0
                  CONTENTS, READONLY, DEBUGGING
 11 .debug_frame  00000684  00000000  00000000  0000f808  2**2
                  CONTENTS, READONLY, DEBUGGING
 12 .debug_str    00000fc5  00000000  00000000  0000fe8c  2**0
                  CONTENTS, READONLY, DEBUGGING
 13 .debug_loc    00003d59  00000000  00000000  00010e51  2**0
                  CONTENTS, READONLY, DEBUGGING
 14 .debug_ranges 00000018  00000000  00000000  00014baa  2**0
                  CONTENTS, READONLY, DEBUGGING

Disassembly of section .text:

00000000 <__vectors>:
       0:	81 c0       	rjmp	.+258    	; 0x104 <__ctors_end>
       2:	00 00       	nop
       4:	91 c0       	rjmp	.+290    	; 0x128 <__bad_interrupt>
       6:	00 00       	nop
       8:	8f c0       	rjmp	.+286    	; 0x128 <__bad_interrupt>
       a:	00 00       	nop
       c:	8d c0       	rjmp	.+282    	; 0x128 <__bad_interrupt>
       e:	00 00       	nop
      10:	8b c0       	rjmp	.+278    	; 0x128 <__bad_interrupt>
      12:	00 00       	nop
      14:	89 c0       	rjmp	.+274    	; 0x128 <__bad_interrupt>
      16:	00 00       	nop
      18:	87 c0       	rjmp	.+270    	; 0x128 <__bad_interrupt>
      1a:	00 00       	nop
      1c:	85 c0       	rjmp	.+266    	; 0x128 <__bad_interrupt>
      1e:	00 00       	nop
      20:	83 c0       	rjmp	.+262    	; 0x128 <__bad_interrupt>
      22:	00 00       	nop
      24:	81 c0       	rjmp	.+258    	; 0x128 <__bad_interrupt>
      26:	00 00       	nop
      28:	7f c0       	rjmp	.+254    	; 0x128 <__bad_interrupt>
      2a:	00 00       	nop
      2c:	7d c0       	rjmp	.+250    	; 0x128 <__bad_interrupt>
      2e:	00 00       	nop
      30:	7b c0       	rjmp	.+246    	; 0x128 <__bad_interrupt>
      32:	00 00       	nop
      34:	79 c0       	rjmp	.+242    	; 0x128 <__bad_interrupt>
      36:	00 00       	nop
      38:	77 c0       	rjmp	.+238    	; 0x128 <__bad_interrupt>
      3a:	00 00       	nop
      3c:	75 c0       	rjmp	.+234    	; 0x128 <__bad_interrupt>
      3e:	00 00       	nop
      40:	73 c0       	rjmp	.+230    	; 0x128 <__bad_interrupt>
      42:	00 00       	nop
      44:	71 c0       	rjmp	.+226    	; 0x128 <__bad_interrupt>
      46:	00 00       	nop
      48:	6f c0       	rjmp	.+222    	; 0x128 <__bad_interrupt>
      4a:	00 00       	nop
      4c:	6d c0       	rjmp	.+218    	; 0x128 <__bad_interrupt>
      4e:	00 00       	nop
      50:	6b c0       	rjmp	.+214    	; 0x128 <__bad_interrupt>
      52:	00 00       	nop
      54:	69 c0       	rjmp	.+210    	; 0x128 <__bad_interrupt>
      56:	00 00       	nop
      58:	67 c0       	rjmp	.+206    	; 0x128 <__bad_interrupt>
      5a:	00 00       	nop
      5c:	65 c0       	rjmp	.+202    	; 0x128 <__bad_interrupt>
      5e:	00 00       	nop
      60:	63 c0       	rjmp	.+198    	; 0x128 <__bad_interrupt>
      62:	00 00       	nop
      64:	61 c0       	rjmp	.+194    	; 0x128 <__bad_interrupt>
	...

00000068 <REF_R_str>:
      68:	52 45 46 5f 52 3d 00                                REF_R=.

0000006f <REF_C_str>:
      6f:	52 45 46 5f 43 3d 00                                REF_C=.

00000076 <MinCap_str>:
      76:	20 3e 31 30 30 6e 46 00                              >100nF.

0000007e <PinRLRHADCtab>:
      7e:	01 04 10 01 02 04                                   ......

00000084 <R0_str>:
      84:	52 30 3d 00                                         R0=.

00000088 <ICEs_str>:
      88:	49 43 45 73 3d 00                                   ICEs=.

0000008e <ICE0_str>:
      8e:	49 43 45 30 3d 00                                   ICE0=.

00000094 <RHtab>:
      94:	b9 03 87 03 58 03 2e 03 07 03 e4 02 c3 02 a4 02     ....X...........
      a4:	88 02                                               ..

000000a6 <LogTab>:
      a6:	00 00 14 00 29 00 3e 00 53 00 69 00 80 00 97 00     ....).>.S.i.....
      b6:	ae 00 c6 00 df 00 f8 00 12 01 2d 01 49 01 65 01     ..........-.I.e.
      c6:	82 01 a0 01 be 01 de 01 ff 01 21 02 44 02 68 02     ..........!.D.h.
      d6:	8e 02 b5 02 de 02 09 03 35 03 64 03 94 03 c8 03     ........5.d.....
      e6:	fe 03 37 04 73 04 b4 04 f9 04 43 05 93 05 ea 05     ..7.s.....C.....
      f6:	49 06 b3 06 29 07 ae 07 48 08 ff 08 de 09           I...)...H.....

00000104 <__ctors_end>:
     104:	11 24       	eor	r1, r1
     106:	1f be       	out	0x3f, r1	; 63
     108:	cf ef       	ldi	r28, 0xFF	; 255
     10a:	d4 e0       	ldi	r29, 0x04	; 4
     10c:	de bf       	out	0x3e, r29	; 62
     10e:	cd bf       	out	0x3d, r28	; 61

00000110 <__do_clear_bss>:
     110:	11 e0       	ldi	r17, 0x01	; 1
     112:	a0 e0       	ldi	r26, 0x00	; 0
     114:	b1 e0       	ldi	r27, 0x01	; 1
     116:	01 c0       	rjmp	.+2      	; 0x11a <.do_clear_bss_start>

00000118 <.do_clear_bss_loop>:
     118:	1d 92       	st	X+, r1

0000011a <.do_clear_bss_start>:
     11a:	a3 3a       	cpi	r26, 0xA3	; 163
     11c:	b1 07       	cpc	r27, r17
     11e:	e1 f7       	brne	.-8      	; 0x118 <.do_clear_bss_loop>
     120:	0e 94 48 19 	call	0x3290	; 0x3290 <main>
     124:	0c 94 2d 1f 	jmp	0x3e5a	; 0x3e5a <_exit>

00000128 <__bad_interrupt>:
     128:	6b cf       	rjmp	.-298    	; 0x0 <__vectors>

0000012a <_lcd_hw_write>:
#else	/* !(LCD_INTERFACE_MODE == (MODE_SPI | MODE_7920_SERIAL | MODE_I2C | MODE_7108_SERIAL)) */
;---------------------------------------------------------------------------------
_lcd_hw_write:
; must be a 4-bit parallel interface for HD44780 compatible controller or simular
               ; Set RS (0=Cmd, 1=Char)
               sbrc    preg_1, 0
     12a:	80 fd       	sbrc	r24, 0
                       set_rs_high
     12c:	5c 9a       	sbi	0x0b, 4	; 11
               sbrs    preg_1, 0
     12e:	80 ff       	sbrs	r24, 0
                       set_rs_low
     130:	5c 98       	cbi	0x0b, 4	; 11
               set_rs_output;		//init hardware
     132:	54 9a       	sbi	0x0a, 4	; 10
               nop	;		//wait for address setup
     134:	00 00       	nop
               set_en_high
     136:	5d 9a       	sbi	0x0b, 5	; 11
               set_en_output;		//init hardware
     138:	55 9a       	sbi	0x0a, 5	; 10

               ; Send high nibble
               set_b4_low
     13a:	58 98       	cbi	0x0b, 0	; 11
               set_b5_low
     13c:	59 98       	cbi	0x0b, 1	; 11
               set_b6_low
     13e:	5a 98       	cbi	0x0b, 2	; 11
               set_b7_low
     140:	5b 98       	cbi	0x0b, 3	; 11

               sbrc    preg_2, 4
     142:	64 fd       	sbrc	r22, 4
                       set_b4_high
     144:	58 9a       	sbi	0x0b, 0	; 11
               set_b4_output;		//init hardware
     146:	50 9a       	sbi	0x0a, 0	; 10
               sbrc    preg_2, 5
     148:	65 fd       	sbrc	r22, 5
                       set_b5_high
     14a:	59 9a       	sbi	0x0b, 1	; 11
               set_b5_output;		//init hardware
     14c:	51 9a       	sbi	0x0a, 1	; 10
               sbrc    preg_2, 6
     14e:	66 fd       	sbrc	r22, 6
                       set_b6_high
     150:	5a 9a       	sbi	0x0b, 2	; 11
               set_b6_output;		//init hardware
     152:	52 9a       	sbi	0x0a, 2	; 10
               sbrc    preg_2, 7
     154:	67 fd       	sbrc	r22, 7
                       set_b7_high
     156:	5b 9a       	sbi	0x0b, 3	; 11
               set_b7_output;		//init hardware
     158:	53 9a       	sbi	0x0a, 3	; 10

               nop			; wait for data setup time
     15a:	00 00       	nop
               set_en_low		; force data read from LCD controller
     15c:	5d 98       	cbi	0x0b, 5	; 11
               RCALL    wait1us
     15e:	c3 d2       	rcall	.+1414   	; 0x6e6 <wait1us>

               ; skip sending low nibble for init commands
               sbrc    preg_1, 7
     160:	87 fd       	sbrc	r24, 7
                       rjmp _lcd_hw_write_exit
     162:	10 c0       	rjmp	.+32     	; 0x184 <_lcd_hw_write_exit>

               ; Send low nibble
               set_en_high
     164:	5d 9a       	sbi	0x0b, 5	; 11
               
               set_b4_low
     166:	58 98       	cbi	0x0b, 0	; 11
               set_b5_low
     168:	59 98       	cbi	0x0b, 1	; 11
               set_b6_low
     16a:	5a 98       	cbi	0x0b, 2	; 11
               set_b7_low
     16c:	5b 98       	cbi	0x0b, 3	; 11
               
               sbrc    preg_2, 0
     16e:	60 fd       	sbrc	r22, 0
                       set_b4_high
     170:	58 9a       	sbi	0x0b, 0	; 11
               sbrc    preg_2, 1
     172:	61 fd       	sbrc	r22, 1
                       set_b5_high
     174:	59 9a       	sbi	0x0b, 1	; 11
               sbrc    preg_2, 2
     176:	62 fd       	sbrc	r22, 2
                       set_b6_high
     178:	5a 9a       	sbi	0x0b, 2	; 11
               sbrc    preg_2, 3
     17a:	63 fd       	sbrc	r22, 3
                       set_b7_high
     17c:	5b 9a       	sbi	0x0b, 3	; 11

               nop			; wait for data setup time
     17e:	00 00       	nop
               set_en_low		; force data read from LCD controller
     180:	5d 98       	cbi	0x0b, 5	; 11
               RCALL    wait50us
 #endif
 #ifdef SLOW_LCD
               RCALL    wait50us
 #else
               RCALL    wait1us
     182:	b1 c2       	rjmp	.+1378   	; 0x6e6 <wait1us>

00000184 <_lcd_hw_write_exit>:
 #endif
_lcd_hw_write_exit:
               ret		; end _lcd_hw_write
     184:	08 95       	ret

00000186 <lcd_save_position>:
}

#if FLASHEND > 0x1fff
/* ************************************************************************************** */
uint8_t lcd_save_position(void) {
 last_text_column = _lcd_column;
     186:	80 91 37 01 	lds	r24, 0x0137
     18a:	80 93 00 01 	sts	0x0100, r24
 last_text_line = lcd_text_line;
     18e:	80 91 96 01 	lds	r24, 0x0196
     192:	80 93 02 01 	sts	0x0102, r24
 return(last_text_line);
}
     196:	08 95       	ret

00000198 <lcd_data>:
/* ******************************************************************************* */
// sends a character to the LCD 
void lcd_data(unsigned char temp1) {
/* -------------------------------------------------------------------------- */

_lcd_column++;
     198:	90 91 37 01 	lds	r25, 0x0137
     19c:	9f 5f       	subi	r25, 0xFF	; 255
     19e:	90 93 37 01 	sts	0x0137, r25
 pfont = (uint8_t *)font + (FONT_WIDTH * PAGES_PER_LINE * temp1);	// first byte of character data
 // for other controllers like ST7565 the _page specifies the page of the controller (8 lines)
 lcd_set_pixels( pfont, _xpos, _page*8, 0, (unsigned char)FONT_WIDTH, (unsigned char)(PAGES_PER_LINE*8));
_xpos += FONT_WIDTH;		// move pointer to the next character position
#else
 lcd_write_data(temp1);		// set RS to 1
     1a2:	68 2f       	mov	r22, r24
     1a4:	81 e0       	ldi	r24, 0x01	; 1
     1a6:	c1 df       	rcall	.-126    	; 0x12a <_lcd_hw_write>
     1a8:	95 c2       	rjmp	.+1322   	; 0x6d4 <wait50us>

000001aa <lcd_testpin>:
     1aa:	8f 5c       	subi	r24, 0xCF	; 207
     1ac:	f5 cf       	rjmp	.-22     	; 0x198 <lcd_data>

000001ae <lcd_space>:
     1ae:	80 e2       	ldi	r24, 0x20	; 32

/* ******************************************************************************* */
// sends numeric character (Pin Number) to the LCD 
// from binary 0 we send ASCII 1 ....
void lcd_testpin(unsigned char temp) {
   lcd_data(temp + '1' + TP_OFFSET - TP1);
     1b0:	f3 cf       	rjmp	.-26     	; 0x198 <lcd_data>

000001b2 <lcd_spaces>:
     1b2:	a1 e0       	ldi	r26, 0x01	; 1
     1b4:	b0 e0       	ldi	r27, 0x00	; 0
     1b6:	ef ed       	ldi	r30, 0xDF	; 223
}

/* ******************************************************************************* */
// send space character to LCD
void lcd_space(void) {
   lcd_data(' ');	// output one space to LCD and UART
     1b8:	f0 e0       	ldi	r31, 0x00	; 0
     1ba:	0c 94 c9 1e 	jmp	0x3d92	; 0x3d92 <__prologue_saves__+0x20>
     1be:	18 16       	cp	r1, r24
}

void lcd_spaces(int8_t nn) {
     1c0:	2c f4       	brge	.+10     	; 0x1cc <lcd_spaces+0x1a>
     1c2:	89 83       	std	Y+1, r24	; 0x01
     1c4:	f4 df       	rcall	.-24     	; 0x1ae <lcd_space>
     1c6:	89 81       	ldd	r24, Y+1	; 0x01
     1c8:	81 50       	subi	r24, 0x01	; 1
     1ca:	f9 cf       	rjmp	.-14     	; 0x1be <lcd_spaces+0xc>
   while (nn > 0) {
     1cc:	21 96       	adiw	r28, 0x01	; 1
     1ce:	e2 e0       	ldi	r30, 0x02	; 2
     lcd_space();	// output one space to LCD and UART
     1d0:	0c 94 e5 1e 	jmp	0x3dca	; 0x3dca <__epilogue_restores__+0x20>

000001d4 <lcd_equal>:
     1d4:	8d e3       	ldi	r24, 0x3D	; 61
     1d6:	e0 cf       	rjmp	.-64     	; 0x198 <lcd_data>

000001d8 <lcd_command>:
     1d8:	68 2f       	mov	r22, r24
     1da:	80 e0       	ldi	r24, 0x00	; 0
     nn--;
   }
}
     1dc:	a6 df       	rcall	.-180    	; 0x12a <_lcd_hw_write>
     1de:	7a c2       	rjmp	.+1268   	; 0x6d4 <wait50us>

000001e0 <lcd_line1>:
     1e0:	10 92 96 01 	sts	0x0196, r1
// send equal character to LCD
void lcd_equal(void) {
   lcd_data('=');
     1e4:	80 e8       	ldi	r24, 0x80	; 128
     1e6:	f8 df       	rcall	.-16     	; 0x1d8 <lcd_command>
     1e8:	10 92 37 01 	sts	0x0137, r1
} /* end lcd_data() */
 
// sends a command to the LCD
 
void lcd_command(unsigned char temp1) {
	_lcd_hw_write(0x00,temp1);
     1ec:	08 95       	ret

000001ee <lcd_line2>:
     1ee:	80 ec       	ldi	r24, 0xC0	; 192
     1f0:	f3 df       	rcall	.-26     	; 0x1d8 <lcd_command>
     1f2:	81 e0       	ldi	r24, 0x01	; 1
#if ((LCD_ST_TYPE == 7565) || (LCD_ST_TYPE == 1306) || (LCD_ST_TYPE == 7108) || (LCD_ST_TYPE == 7920) || (LCD_ST_TYPE == 8812) || (LCD_ST_TYPE == 8814) || (LCD_ST_TYPE == 7735) || (LCD_ST_TYPE == 9163))
 ;
#else
	wait50us();		// wait at least 50us after every instruction for character LCD
     1f4:	80 93 96 01 	sts	0x0196, r24
     1f8:	10 92 37 01 	sts	0x0137, r1
//move to the beginning of the 1. row
void lcd_line1() {
#ifdef WITH_UART
   uart_newline();		// start of new measurement
#endif
   lcd_text_line = 0;
     1fc:	08 95       	ret

000001fe <lcd_line3>:
   lcd_set_cursor(0 * PAGES_PER_LINE,0);
#elif (LCD_ST_TYPE == 7920)
   _page = 0;			// _page is the vertical pixel address for ST7920 controller
   _xpos = 0;			// LCD_ST7565_H_OFFSET is not used for ST7920 controller
#else
   lcd_command((uint8_t)(CMD_SetDDRAMAddress + LCD_Row1));
     1fe:	80 e9       	ldi	r24, 0x90	; 144
     200:	eb df       	rcall	.-42     	; 0x1d8 <lcd_command>
     202:	82 e0       	ldi	r24, 0x02	; 2
   _lcd_column = 0;
     204:	80 93 96 01 	sts	0x0196, r24
     208:	10 92 37 01 	sts	0x0137, r1
   uart_putc(' ');		// start of new line
#endif
#if (LCD_GRAPHIC_TYPE != 0)
   lcd_set_cursor(1 * PAGES_PER_LINE,0);
#else
   lcd_command((uint8_t)(CMD_SetDDRAMAddress + LCD_Row2));
     20c:	08 95       	ret

0000020e <lcd_line4>:
     20e:	80 ed       	ldi	r24, 0xD0	; 208
   lcd_text_line = 1;
     210:	e3 df       	rcall	.-58     	; 0x1d8 <lcd_command>
     212:	83 e0       	ldi	r24, 0x03	; 3
     214:	80 93 96 01 	sts	0x0196, r24
   _lcd_column = 0;
     218:	10 92 37 01 	sts	0x0137, r1
   uart_putc(' ');		// start of new line
#endif
#if (LCD_GRAPHIC_TYPE != 0)
   lcd_set_cursor(2 * PAGES_PER_LINE,0);
#else
   lcd_command((uint8_t)(CMD_SetDDRAMAddress + LCD_Row3));
     21c:	08 95       	ret

0000021e <lcd_set_cursor>:
     21e:	60 93 37 01 	sts	0x0137, r22
   lcd_text_line = 2;
     222:	81 30       	cpi	r24, 0x01	; 1
     224:	11 f4       	brne	.+4      	; 0x22a <lcd_set_cursor+0xc>
     226:	80 ec       	ldi	r24, 0xC0	; 192
   _lcd_column = 0;
     228:	01 c0       	rjmp	.+2      	; 0x22c <lcd_set_cursor+0xe>
     22a:	80 e8       	ldi	r24, 0x80	; 128
     22c:	86 0f       	add	r24, r22
   uart_putc(' ');		// start of new line
#endif
#if (LCD_GRAPHIC_TYPE != 0)
   lcd_set_cursor(3 * PAGES_PER_LINE,0);
#else
   lcd_command((uint8_t)(CMD_SetDDRAMAddress + LCD_Row4));
     22e:	d4 cf       	rjmp	.-88     	; 0x1d8 <lcd_command>

00000230 <lcd_restore_position>:
     230:	60 91 00 01 	lds	r22, 0x0100
   lcd_text_line = 3;
     234:	80 91 02 01 	lds	r24, 0x0102
     238:	f2 cf       	rjmp	.-28     	; 0x21e <lcd_set_cursor>

0000023a <lcd_clear>:
   _lcd_column = 0;
     23a:	81 e0       	ldi	r24, 0x01	; 1
     23c:	cd df       	rcall	.-102    	; 0x1d8 <lcd_command>
     23e:	3e d2       	rcall	.+1148   	; 0x6bc <wait10ms>
/* ************************************************************************************** */
/* Set the character position to x,y , where x specifies the character number in a text line. */
/* The y position is the page address (8 line units).                                     */
/* For most controllers the y position must be increased by (Height + 7) / 8 for the next text line */
void lcd_set_cursor(uint8_t y, uint8_t x) {
    _lcd_column = x;
     240:	cf cf       	rjmp	.-98     	; 0x1e0 <lcd_line1>

00000242 <lcd_string>:
     242:	cf 93       	push	r28
    // For example the SPL501 controller has 132x65 dot matrix memory
    // LCD_ST7565_H_OFFSET specifies the offset of the 128 pixel of the display window.
   _xpos = (x * FONT_WIDTH);
#else
   // move to the specified position for character display
   if (y == 1) {
     244:	df 93       	push	r29
     246:	ec 01       	movw	r28, r24
     lcd_command((uint8_t)(CMD_SetDDRAMAddress + LCD_Row2 + x));
     248:	89 91       	ld	r24, Y+
     24a:	88 23       	and	r24, r24
     lcd_command((uint8_t)(CMD_SetDDRAMAddress + LCD_Row3 + x));
   } else if (y == 3) {
     lcd_command((uint8_t)(CMD_SetDDRAMAddress + LCD_Row4 + x));
 #endif
   } else {
     lcd_command((uint8_t)(CMD_SetDDRAMAddress + LCD_Row1 + x));
     24c:	11 f0       	breq	.+4      	; 0x252 <lcd_string+0x10>
     24e:	a4 df       	rcall	.-184    	; 0x198 <lcd_data>
     250:	fb cf       	rjmp	.-10     	; 0x248 <lcd_string+0x6>
     252:	df 91       	pop	r29
     254:	cf 91       	pop	r28
 last_text_line = lcd_text_line;
 return(last_text_line);
}
/* ************************************************************************************** */
void lcd_restore_position(void) {
 lcd_set_cursor((uint8_t)last_text_line * PAGES_PER_LINE, (uint8_t)(last_text_column));
     256:	08 95       	ret

00000258 <lcd_pgm_string>:
     258:	cf 93       	push	r28
     25a:	df 93       	push	r29
     25c:	ec 01       	movw	r28, r24
     25e:	fe 01       	movw	r30, r28
     260:	84 91       	lpm	r24, Z
     262:	98 2f       	mov	r25, r24
       lcd_write_data(LCD_BG_COLOR & 0xff);	// clear 3 green / 5 blue pixels
#endif
     }
   }
#else
   lcd_command(CMD_CLEAR_DISPLAY);
     264:	9f 77       	andi	r25, 0x7F	; 127
     266:	19 f0       	breq	.+6      	; 0x26e <lcd_pgm_string+0x16>
     268:	97 df       	rcall	.-210    	; 0x198 <lcd_data>
   wait_about10ms();
     26a:	21 96       	adiw	r28, 0x01	; 1
     26c:	f8 cf       	rjmp	.-16     	; 0x25e <lcd_pgm_string+0x6>
#endif
   lcd_line1();			// set cursor to Line1 Column 1, (only for OLED-Display)
     26e:	df 91       	pop	r29
     270:	cf 91       	pop	r28
     272:	08 95       	ret

00000274 <lcd_fix_string>:
 
 
/* ******************************************************************************* */
// writes a string to the LCD 
 
void lcd_string(char *data) {
     274:	cf 93       	push	r28
     276:	df 93       	push	r29
     278:	ec 01       	movw	r28, r24
    while(*data) {
     27a:	ce 01       	movw	r24, r28
     27c:	0e 94 04 1f 	call	0x3e08	; 0x3e08 <__eerd_byte_m168>
        lcd_data(*data);
     280:	98 2f       	mov	r25, r24
     282:	9f 77       	andi	r25, 0x7F	; 127
     284:	19 f0       	breq	.+6      	; 0x28c <lcd_fix_string+0x18>
        data++;
    }
}
     286:	88 df       	rcall	.-240    	; 0x198 <lcd_data>
     288:	21 96       	adiw	r28, 0x01	; 1
     28a:	f7 cf       	rjmp	.-18     	; 0x27a <lcd_fix_string+0x6>

#ifdef use_lcd_pgm
//Load string from PGM  and send to LCD 
void lcd_pgm_string(const unsigned char *data) {
     28c:	df 91       	pop	r29
     28e:	cf 91       	pop	r28
     290:	08 95       	ret

00000292 <lcd_fix_customchar>:
   unsigned char cc;
   while(1) {
      cc = pgm_read_byte(data);
     292:	0f 93       	push	r16
     294:	1f 93       	push	r17
      if((cc==0) || (cc==128)) {
     296:	cf 93       	push	r28
     298:	df 93       	push	r29
     29a:	8c 01       	movw	r16, r24
         return;
      }
      lcd_data(cc);
     29c:	08 5f       	subi	r16, 0xF8	; 248
     29e:	1f 4f       	sbci	r17, 0xFF	; 255
      data++;
     2a0:	ec 01       	movw	r28, r24
   }
     2a2:	21 96       	adiw	r28, 0x01	; 1
}
     2a4:	0e 94 04 1f 	call	0x3e08	; 0x3e08 <__eerd_byte_m168>
     2a8:	77 df       	rcall	.-274    	; 0x198 <lcd_data>
#endif

/* ******************************************************************************* */
#ifdef USE_EEPROM
//Load string from PGM or EEprom and send to LCD 
void lcd_fix_string(const unsigned char *data) {
     2aa:	c0 17       	cp	r28, r16
     2ac:	d1 07       	cpc	r29, r17
     2ae:	11 f0       	breq	.+4      	; 0x2b4 <lcd_fix_customchar+0x22>
   unsigned char cc;
   while(1) {
      cc = MEM_read_byte(data);
     2b0:	ce 01       	movw	r24, r28
     2b2:	f6 cf       	rjmp	.-20     	; 0x2a0 <lcd_fix_customchar+0xe>
     2b4:	df 91       	pop	r29
      if((cc==0) || (cc==128)) {
     2b6:	cf 91       	pop	r28
     2b8:	1f 91       	pop	r17
     2ba:	0f 91       	pop	r16
         return;
      }
      lcd_data(cc);
     2bc:	08 95       	ret

000002be <lcd_init>:
     2be:	f9 d1       	rcall	.+1010   	; 0x6b2 <wait100ms>
      data++;
     2c0:	83 e3       	ldi	r24, 0x33	; 51
   }
     2c2:	8a df       	rcall	.-236    	; 0x1d8 <lcd_command>
}
     2c4:	82 e3       	ldi	r24, 0x32	; 50
     2c6:	88 df       	rcall	.-240    	; 0x1d8 <lcd_command>
     2c8:	f9 d1       	rcall	.+1010   	; 0x6bc <wait10ms>
#endif

/* ******************************************************************************* */
// load custom character from PGM or EEprom and send to LCD
void lcd_fix_customchar(const unsigned char *chardata) {	
     2ca:	80 e2       	ldi	r24, 0x20	; 32
     2cc:	85 df       	rcall	.-246    	; 0x1d8 <lcd_command>
     2ce:	80 e2       	ldi	r24, 0x20	; 32
     2d0:	83 df       	rcall	.-250    	; 0x1d8 <lcd_command>
     2d2:	8a e2       	ldi	r24, 0x2A	; 42
     2d4:	81 df       	rcall	.-254    	; 0x1d8 <lcd_command>
     2d6:	88 e0       	ldi	r24, 0x08	; 8
#if (LCD_ST_TYPE == 0)
    uint8_t ii;
    for (ii=0;ii<8;ii++) {
        lcd_data(MEM_read_byte(chardata++));
     2d8:	7f df       	rcall	.-258    	; 0x1d8 <lcd_command>
     2da:	86 e0       	ldi	r24, 0x06	; 6
     2dc:	7d df       	rcall	.-262    	; 0x1d8 <lcd_command>
     2de:	82 e0       	ldi	r24, 0x02	; 2
     2e0:	7b df       	rcall	.-266    	; 0x1d8 <lcd_command>
     2e2:	ab df       	rcall	.-170    	; 0x23a <lcd_clear>
/* ******************************************************************************* */
// load custom character from PGM or EEprom and send to LCD
void lcd_fix_customchar(const unsigned char *chardata) {	
#if (LCD_ST_TYPE == 0)
    uint8_t ii;
    for (ii=0;ii<8;ii++) {
     2e4:	ec d1       	rcall	.+984    	; 0x6be <wait5ms>
     2e6:	8c e0       	ldi	r24, 0x0C	; 12
     2e8:	77 df       	rcall	.-274    	; 0x1d8 <lcd_command>
        lcd_data(MEM_read_byte(chardata++));
     2ea:	88 e4       	ldi	r24, 0x48	; 72
     2ec:	75 df       	rcall	.-278    	; 0x1d8 <lcd_command>
    }
#endif
}
     2ee:	80 e2       	ldi	r24, 0x20	; 32
     2f0:	90 e0       	ldi	r25, 0x00	; 0
     2f2:	cf df       	rcall	.-98     	; 0x292 <lcd_fix_customchar>
     2f4:	80 e5       	ldi	r24, 0x50	; 80
     2f6:	70 df       	rcall	.-288    	; 0x1d8 <lcd_command>
//   lcd_command(0x2c);		// RAMWR
   wait_about50ms();
/* -------------------------------------------------------------------------- */
#else    /* !(LCD_ST_TYPE == 7565 | 1306) | 7108 | 7920 | 7108 | 8812 | 8814 | 7735 | 9163) */
/* must be a character display */
   wait_about100ms();
     2f8:	88 e1       	ldi	r24, 0x18	; 24
     2fa:	90 e0       	ldi	r25, 0x00	; 0
   // to initialise, send 3 times to be sure to be in 8 Bit mode

 #if LCD_INTERFACE_MODE == MODE_PARALLEL
   lcd_command(0x33);			// switch to 8-bit
     2fc:	ca df       	rcall	.-108    	; 0x292 <lcd_fix_customchar>
     2fe:	88 e5       	ldi	r24, 0x58	; 88
     300:	6b df       	rcall	.-298    	; 0x1d8 <lcd_command>
   lcd_command(0x32);			// switch to 4-bit
     302:	88 e2       	ldi	r24, 0x28	; 40
     304:	90 e0       	ldi	r25, 0x00	; 0
     306:	c5 df       	rcall	.-118    	; 0x292 <lcd_fix_customchar>
 #else
   lcd_command(0x3a);			// switch to 8-bit for I2C or SPI
 #endif
   wait_about10ms();
     308:	88 e7       	ldi	r24, 0x78	; 120
     30a:	66 df       	rcall	.-308    	; 0x1d8 <lcd_command>
   lcd_command(CMD_DISPLAY_ON);			// 0x08 Display on, no Cursor, No blink
   lcd_command(CMD_SetEntryMode | 0x02);	// 0x06 increment / no Scroll    
// - - - - - - - - - - - - - - - - 
 #else
   // initialize sequence with OLED display
   lcd_command(CMD_SetIFOptions | MODE_8BIT);		// Add for OLED
     30c:	80 e1       	ldi	r24, 0x10	; 16
     30e:	90 e0       	ldi	r25, 0x00	; 0
     310:	c0 df       	rcall	.-128    	; 0x292 <lcd_fix_customchar>
   lcd_command(CMD_SetIFOptions | MODE_8BIT);		// Add for OLED
     312:	80 e7       	ldi	r24, 0x70	; 112
     314:	61 df       	rcall	.-318    	; 0x1d8 <lcd_command>
     316:	88 e0       	ldi	r24, 0x08	; 8
  #if defined(FOUR_LINE_LCD) && (FOUR_LINE_LCD != 3)             
   // for KS0073 controller  set the 4-line mode with extended instruction
   lcd_command(CMD_SetIFOptions | MODE_8BIT | 0x40 | 0x08); //enter extended instruction
   lcd_command(CMD_SetDisplayAndCursor | 0x01);	// enable 4-line mode
  #endif
   lcd_command(CMD_SetIFOptions | MODE_8BIT | 0x0A);	// 4Bit / 2 rows / 5x7 / table3 / Add for OLED
     318:	90 e0       	ldi	r25, 0x00	; 0
     31a:	bb cf       	rjmp	.-138    	; 0x292 <lcd_fix_customchar>

0000031c <lcd_clear_line>:
     31c:	90 91 37 01 	lds	r25, 0x0137
   lcd_command(CMD_SetDisplayAndCursor);	// Display off / no Blinking  / Add for OLED
     320:	80 e1       	ldi	r24, 0x10	; 16
     322:	89 1b       	sub	r24, r25
   lcd_command(CMD_SetEntryMode | 0x02);	// increment / no Scroll
     324:	46 cf       	rjmp	.-372    	; 0x1b2 <lcd_spaces>

00000326 <lcd_next_line>:
     326:	a1 e0       	ldi	r26, 0x01	; 1
     328:	b0 e0       	ldi	r27, 0x00	; 0
   lcd_command(CMD_CURSOR_HOME);		// Home Command  // Add for OLED
     32a:	e9 e9       	ldi	r30, 0x99	; 153
     32c:	f1 e0       	ldi	r31, 0x01	; 1
     32e:	0c 94 c9 1e 	jmp	0x3d92	; 0x3d92 <__prologue_saves__+0x20>
   lcd_clear();
     332:	89 83       	std	Y+1, r24	; 0x01
   wait_about5ms();
     334:	f3 df       	rcall	.-26     	; 0x31c <lcd_clear_line>
     336:	90 91 96 01 	lds	r25, 0x0196
   lcd_command(CMD_SetDisplayAndCursor | 0x04);	// Display on / Cursor off / no Blinking
     33a:	9f 5f       	subi	r25, 0xFF	; 255
     33c:	90 93 96 01 	sts	0x0196, r25
 #endif
// - - - - - - - - - - - - - - - - 

   LCDLoadCustomChar(LCD_CHAR_DIODE1);	//Custom-Character Diode symbol
     340:	89 81       	ldd	r24, Y+1	; 0x01
     342:	92 30       	cpi	r25, 0x02	; 2
   lcd_fix_customchar(DiodeIcon1);	//load Character  >|
     344:	30 f0       	brcs	.+12     	; 0x352 <lcd_next_line+0x2c>
     346:	91 e0       	ldi	r25, 0x01	; 1
     348:	90 93 96 01 	sts	0x0196, r25
   LCDLoadCustomChar(LCD_CHAR_DIODE2);	//Custom-Character 
     34c:	90 93 3a 01 	sts	0x013A, r25
     350:	02 c0       	rjmp	.+4      	; 0x356 <lcd_next_line+0x30>
   lcd_fix_customchar(DiodeIcon2);	//load Character  |<
     352:	10 92 3a 01 	sts	0x013A, r1
     356:	68 2f       	mov	r22, r24
     358:	80 91 96 01 	lds	r24, 0x0196
   LCDLoadCustomChar(LCD_CHAR_CAP);	//Custom-Character  Capacitor symbol
     35c:	60 df       	rcall	.-320    	; 0x21e <lcd_set_cursor>
     35e:	21 96       	adiw	r28, 0x01	; 1
   lcd_fix_customchar(CapIcon);		//load Character  ||
     360:	e2 e0       	ldi	r30, 0x02	; 2
     362:	0c 94 e5 1e 	jmp	0x3dca	; 0x3dca <__epilogue_restores__+0x20>

00000366 <lcd_next_line_wait>:
     366:	df df       	rcall	.-66     	; 0x326 <lcd_next_line>
   LCDLoadCustomChar(LCD_CHAR_RESIS1);	//Custom-Character Resistor symbol
     368:	54 c2       	rjmp	.+1192   	; 0x812 <wait_for_key_5s_line2>

0000036a <lcd_clear_line1>:
     36a:	3a df       	rcall	.-396    	; 0x1e0 <lcd_line1>
     36c:	d7 df       	rcall	.-82     	; 0x31c <lcd_clear_line>
   lcd_fix_customchar(ResIcon1);		//load Character  [
     36e:	38 cf       	rjmp	.-400    	; 0x1e0 <lcd_line1>

00000370 <lcd_clear_line2>:
     370:	3e df       	rcall	.-388    	; 0x1ee <lcd_line2>
     372:	d4 df       	rcall	.-88     	; 0x31c <lcd_clear_line>
     374:	3c cf       	rjmp	.-392    	; 0x1ee <lcd_line2>

00000376 <lcd_set_pixels>:
   LCDLoadCustomChar(LCD_CHAR_RESIS2);	//Custom-Character 
     376:	08 95       	ret

00000378 <lcd_show_Cg>:
     378:	0f 93       	push	r16
     37a:	8c eb       	ldi	r24, 0xBC	; 188
   lcd_fix_customchar(ResIcon2);		//load Character  ]
     37c:	90 e0       	ldi	r25, 0x00	; 0
     37e:	7a df       	rcall	.-268    	; 0x274 <lcd_fix_string>
     380:	40 91 7a 01 	lds	r20, 0x017A
     384:	4d 3f       	cpi	r20, 0xFD	; 253
}

/* ******************************************************************************* */
void lcd_clear_line(void) {
 // writes spaces up to LCD_LINE_LENGTH to LCD-Display, Cursor can be positioned to any column
    lcd_spaces(LCD_LINE_LENGTH - _lcd_column);
     386:	64 f4       	brge	.+24     	; 0x3a0 <lcd_show_Cg+0x28>
     388:	60 91 68 01 	lds	r22, 0x0168
     38c:	70 91 69 01 	lds	r23, 0x0169
     390:	80 91 6a 01 	lds	r24, 0x016A

/* ******************************************************************************* */
// position to next line to column xx
// Text_line number is incremented by 1, if possible (not yet at the last line).
// If already at the last line of the display, last_line_used is set to 1 .
void lcd_next_line(uint8_t xx) {
     394:	90 91 6b 01 	lds	r25, 0x016B
     398:	03 e0       	ldi	r16, 0x03	; 3
     39a:	26 e4       	ldi	r18, 0x46	; 70
     39c:	b9 d0       	rcall	.+370    	; 0x510 <DisplayValue>
     39e:	02 c0       	rjmp	.+4      	; 0x3a4 <lcd_show_Cg+0x2c>
   lcd_clear_line();
     3a0:	8f e3       	ldi	r24, 0x3F	; 63
     3a2:	fa de       	rcall	.-524    	; 0x198 <lcd_data>
     3a4:	0f 91       	pop	r16
#ifdef WITH_UART
   uart_putc(' ');
#endif
   lcd_text_line ++;
     3a6:	08 95       	ret

000003a8 <i2lcd>:
i2lcd:			;	void i2lcd(int iw)

#if FLASHEND > 0x1fff

;;  	movw	r20, r24
 	sbrs	r25, 7
     3a8:	97 ff       	sbrs	r25, 7
 	rjmp	to_lcd		; if (iw >= 0) {
     3aa:	09 c0       	rjmp	.+18     	; 0x3be <u2lcd>
;   // negativ value, output -  and invert iw
        push	r24		; save r24:r25
     3ac:	8f 93       	push	r24
        push	r25
     3ae:	9f 93       	push	r25
 	ldi	r24,'-'		; 45
     3b0:	8d e2       	ldi	r24, 0x2D	; 45
 	RCALL	lcd_data	; lcd_data('-'); uses r22
     3b2:	f2 de       	rcall	.-540    	; 0x198 <lcd_data>
        pop	r25		; recall r25:r24
     3b4:	9f 91       	pop	r25
        pop	r24		; old r24
     3b6:	8f 91       	pop	r24
        com	r25
     3b8:	90 95       	com	r25
	neg	r24
     3ba:	81 95       	neg	r24
        sbci	r25,-1		; iw = - iw
     3bc:	9f 4f       	sbci	r25, 0xFF	; 255

000003be <u2lcd>:
#endif

u2lcd:			;	void i2lcd(uint16_t iw)
to_lcd:			;	void i2lcd(uint16_t iw)
 	ldi	r22, lo8(outval)	;0x0F
     3be:	6d e1       	ldi	r22, 0x1D	; 29
 	ldi	r23, hi8(outval)	;0x01
     3c0:	71 e0       	ldi	r23, 0x01	; 1
 	ldi	r20, 10
     3c2:	4a e0       	ldi	r20, 0x0A	; 10
 	ldi	r21, 0x00	; 0
     3c4:	50 e0       	ldi	r21, 0x00	; 0
 	ACALL	utoa		; utoa(iw, outval, 10);	//output voltage to string
     3c6:	0e 94 f0 1e 	call	0x3de0	; 0x3de0 <utoa>
 	RCALL	lcd_string	;lcd_string(utoa(iw, outval, 10));	//output correction voltage
     3ca:	3b cf       	rjmp	.-394    	; 0x242 <lcd_string>

000003cc <i2lcd_space>:

 	ret
     3cc:	ed df       	rcall	.-38     	; 0x3a8 <i2lcd>

#if FLASHEND > 0x1fff
.GLOBAL i2lcd_space
i2lcd_space:
	RCALL	i2lcd
     3ce:	01 c0       	rjmp	.+2      	; 0x3d2 <u2lcd_space+0x2>

000003d0 <u2lcd_space>:
	rjmp	space_ret	; use return from u2lcd_space
     3d0:	eb df       	rcall	.-42     	; 0x3a8 <i2lcd>

u2lcd_space:
	RCALL	i2lcd
     3d2:	ed ce       	rjmp	.-550    	; 0x1ae <lcd_space>

000003d4 <PinLayout>:

PinLayout:

#ifndef EBC_STYLE 
;   // Layout with 123= style
 	push	r14
     3d4:	ef 92       	push	r14
 	push	r15
     3d6:	ff 92       	push	r15
 	push	r16
     3d8:	0f 93       	push	r16
 	push	r17
     3da:	1f 93       	push	r17

 	mov	r17, r24		; Pin1
     3dc:	18 2f       	mov	r17, r24
 	mov	r16, r22		; Pin2
     3de:	06 2f       	mov	r16, r22
 	mov	r15, r20		; Pin3
     3e0:	f4 2e       	mov	r15, r20
 	ldi	r24, lo8(N123_str)	; 0x0B
     3e2:	8b ea       	ldi	r24, 0xAB	; 171
 	ldi	r25, hi8(N123_str)	; 0x01	
     3e4:	90 e0       	ldi	r25, 0x00	; 0
 #ifdef USE_EEPROM
 	RCALL	lcd_fix_string	; lcd_MEM_string(N123_str);		//" 123="
     3e6:	46 df       	rcall	.-372    	; 0x274 <lcd_fix_string>
 #else
 	RCALL	lcd_pgm_string	; lcd_MEM_string(N123_str);		//" 123="
 #endif
 	eor	r14, r14	; for (ipp=0;
     3e8:	ee 24       	eor	r14, r14

000003ea <loop1>:
loop1:
 	lds	r30, _trans
     3ea:	e0 91 38 01 	lds	r30, 0x0138
 	lds	r31, _trans+1
     3ee:	f0 91 39 01 	lds	r31, 0x0139
 	ldd	r24, Z+OFFS_e	; _trans->e
     3f2:	86 85       	ldd	r24, Z+14	; 0x0e
 	cp	r14, r24
     3f4:	e8 16       	cp	r14, r24
 	brne	checkb		; if (ipp == _trans->e) 
     3f6:	11 f4       	brne	.+4      	; 0x3fc <checkb>
 	mov	r24, r17	; pin1
     3f8:	81 2f       	mov	r24, r17
        rjmp	data_ipp  	; lcd_data(pin1);	// Output Character in right order
     3fa:	09 c0       	rjmp	.+18     	; 0x40e <data_ipp>

000003fc <checkb>:
checkb:
 	ldd	r24, Z+OFFS_b	; _trans->b
     3fc:	84 85       	ldd	r24, Z+12	; 0x0c
 	cp	r14, r24	; if (ipp == _trans->b) 
     3fe:	e8 16       	cp	r14, r24
 	brne	checkc
     400:	11 f4       	brne	.+4      	; 0x406 <checkc>
 	mov	r24, r16
     402:	80 2f       	mov	r24, r16
        rjmp	data_ipp	;  lcd_data(pin2);
     404:	04 c0       	rjmp	.+8      	; 0x40e <data_ipp>

00000406 <checkc>:
checkc:
 	ldd	r24, Z+OFFS_c	; _trans->c
     406:	85 85       	ldd	r24, Z+13	; 0x0d
 	cp	r14, r24
     408:	e8 16       	cp	r14, r24
 	brne	next_ipp		; if (ipp == _trans->c) 
     40a:	11 f4       	brne	.+4      	; 0x410 <next_ipp>
 	mov	r24, r15
     40c:	8f 2d       	mov	r24, r15

0000040e <data_ipp>:
data_ipp:
 	RCALL	lcd_data	;  lcd_data(pin3);
     40e:	c4 de       	rcall	.-632    	; 0x198 <lcd_data>

00000410 <next_ipp>:
next_ipp:
 	inc	r14
     410:	e3 94       	inc	r14
 	mov	r24, r14
     412:	8e 2d       	mov	r24, r14
 	cpi	r24, 0x03	;  for (     ;ipp<3;ipp++) {
     414:	83 30       	cpi	r24, 0x03	; 3
 	brne	loop1 
     416:	49 f7       	brne	.-46     	; 0x3ea <loop1>

 	pop	r17
     418:	1f 91       	pop	r17
 	pop	r16
     41a:	0f 91       	pop	r16
 	pop	r15
     41c:	ff 90       	pop	r15
 	pop	r14
     41e:	ef 90       	pop	r14
 	ret
     420:	08 95       	ret

00000422 <Rnum2pins>:
#endif     /* WITH_GRAPHICS */

 .GLOBAL Rnum2pins
 .func Rnum2pins
 Rnum2pins:
	mov	r22,r24
     422:	68 2f       	mov	r22, r24
	ldi	r24, TP1
     424:	80 e0       	ldi	r24, 0x00	; 0
	ldi	r25, TP3
     426:	92 e0       	ldi	r25, 0x02	; 2
        and	r22,r22
     428:	66 23       	and	r22, r22
        brne    nozero
     42a:	09 f4       	brne	.+2      	; 0x42e <nozero>
        ldi	r25, TP2
     42c:	91 e0       	ldi	r25, 0x01	; 1

0000042e <nozero>:
nozero:
	cpi	r22, 2
     42e:	62 30       	cpi	r22, 0x02	; 2
	brne	no_two
     430:	09 f4       	brne	.+2      	; 0x434 <no_two>
	ldi	r24, TP2
     432:	81 e0       	ldi	r24, 0x01	; 1

00000434 <no_two>:
no_two:
	ret
     434:	08 95       	ret

00000436 <RvalOut>:
 .extern ResistorVal

 .section .text

RvalOut:		; void RvalOut(uint8_t nrr) 	
 	push	r16
     436:	0f 93       	push	r16

        mov	r16, r24
     438:	08 2f       	mov	r16, r24
	LDIZ	ResistorVal
     43a:	e7 e9       	ldi	r30, 0x97	; 151
     43c:	f1 e0       	ldi	r31, 0x01	; 1
	add	r24, r24	; nrr*2
     43e:	88 0f       	add	r24, r24
	add	r24, r24	; nrr*4
     440:	88 0f       	add	r24, r24
	add	r30, r24
     442:	e8 0f       	add	r30, r24
	adc	r31, zero_reg
     444:	f1 1d       	adc	r31, r1

 	ld	r22, Z		; resis[rr].rx
     446:	60 81       	ld	r22, Z
 	ldd	r23, Z+1	; 0x01
     448:	71 81       	ldd	r23, Z+1	; 0x01
 	ldd	r24, Z+2	; 0x02
     44a:	82 81       	ldd	r24, Z+2	; 0x02
 	ldd	r25, Z+3	; 0x03
     44c:	93 81       	ldd	r25, Z+3	; 0x03
#if FLASHEND > 0x1fff
 	cpi	r22, 0x64	; 100
     44e:	64 36       	cpi	r22, 0x64	; 100
 	cpc	r23, r1
     450:	71 05       	cpc	r23, r1
 	cpc	r24, r1
     452:	81 05       	cpc	r24, r1
 	cpc	r25, r1
     454:	91 05       	cpc	r25, r1
 	brcc	ad1d8e 		; (ResistorVal[nrr] < 100)
     456:	70 f4       	brcc	.+28     	; 0x474 <ad1d8e>
 	lds	r18, inductor_lpre
     458:	20 91 01 01 	lds	r18, 0x0101
	sbrc	r18, 7		; minus bit set?
     45c:	27 fd       	sbrc	r18, 7
 	rjmp	ad1d8e 		; (inductor_lpre >= 0)
     45e:	0a c0       	rjmp	.+20     	; 0x474 <ad1d8e>
	mov	r24,r16
     460:	80 2f       	mov	r24, r16
	ACALL	Rnum2pins;	; pins = Rnum2pins(nrr)
     462:	df df       	rcall	.-66     	; 0x422 <Rnum2pins>
     464:	69 2f       	mov	r22, r25
        mov	r22, r25
     466:	0e 94 e2 16 	call	0x2dc4	; 0x2dc4 <GetESR>
 	ACALL	GetESR		; rr = GetESR(resis[nrr].ra,resis[nrr].rb);
     46a:	6e ef       	ldi	r22, 0xFE	; 254
;        ldi	r24, 0
;        ldi	r25, 0
; 	ldi	r20, -2		; 254
; 	ldi	r16, 0x03	; 3
; 	rjmp	ad1d94		; DisplayValue(rr,-2,LCD_CHAR_OMEGA,3);
	ldi	r22, -2
     46c:	23 e0       	ldi	r18, 0x03	; 3
	ldi	r18, 3
     46e:	44 ef       	ldi	r20, 0xF4	; 244
	ldi	r20, LCD_CHAR_OMEGA
     470:	01 d1       	rcall	.+514    	; 0x674 <DisplayValue16>
	RCALL	DisplayValue16	; DisplayValue16(rr,-2,LCD_OMEGA,3);
     472:	04 c0       	rjmp	.+8      	; 0x47c <ret_with_space>

00000474 <ad1d8e>:
	rjmp	ret_with_space
     474:	4f ef       	ldi	r20, 0xFF	; 255
ad1d8e:		; } else {
#endif
	; r22-r25 = ResistorVal[rr]
 	ldi	r20, -1		; 255
     476:	04 e0       	ldi	r16, 0x04	; 4
 	ldi	r16, 0x04	; DisplayValue(resis[nrr].rx,-1,LCD_CHAR_OMEGA,4);
     478:	24 ef       	ldi	r18, 0xF4	; 244
;ad1d94:
 	ldi	r18, LCD_CHAR_OMEGA	; 244
     47a:	4a d0       	rcall	.+148    	; 0x510 <DisplayValue>

0000047c <ret_with_space>:
 	RCALL	DisplayValue
     47c:	98 de       	rcall	.-720    	; 0x1ae <lcd_space>
ret_with_space:
 	RCALL	lcd_space	; lcd_space();
     47e:	0f 91       	pop	r16
 	pop	r16
     480:	08 95       	ret

00000482 <mVAusgabe>:
        .extern lcd_space

	 .func mVAusgabe
	mVAusgabe:
	;   if (nn < 6) {
		cpi	r24, 0x06	; 6
     482:	86 30       	cpi	r24, 0x06	; 6
		brcc	ad1ca4;
     484:	58 f4       	brcc	.+22     	; 0x49c <ad1ca4>
	      // Output in mV units
		LDIZ	diodes+12;
     486:	ea e8       	ldi	r30, 0x8A	; 138
     488:	f1 e0       	ldi	r31, 0x01	; 1
		add	r30,r24
     48a:	e8 0f       	add	r30, r24
		adc	r31,zero_reg
     48c:	f1 1d       	adc	r31, r1
		add	r30,r24
     48e:	e8 0f       	add	r30, r24
		adc	r31,zero_reg
     490:	f1 1d       	adc	r31, r1
		ld	r24, Z		; diodes.Voltage[nn]
     492:	80 81       	ld	r24, Z
		ldd	r25, Z+1	; 0x01
     494:	91 81       	ldd	r25, Z+1	; 0x01
		ldi	r22, 0x03	; 3
     496:	63 e0       	ldi	r22, 0x03	; 3
		RCALL	Display_mV	; Display_mV(diodes.Voltage[nn],3);
     498:	f8 d0       	rcall	.+496    	; 0x68a <Display_mV>
		RCALL	lcd_space;	; lcd_space();
     49a:	89 ce       	rjmp	.-750    	; 0x1ae <lcd_space>

0000049c <ad1ca4>:
	ad1ca4:
		ret
     49c:	08 95       	ret

0000049e <UfAusgabe>:
	.extern mVAusgabe

	.func UfAusgabe

UfAusgabe:
 	push	r17
     49e:	1f 93       	push	r17
 	mov	r17, r24
     4a0:	18 2f       	mov	r17, r24
 	lds	r24, ResistorsFound;	0x0168
     4a2:	80 91 65 01 	lds	r24, 0x0165
 	and	r24, r24
     4a6:	88 23       	and	r24, r24
 	breq	ad1cbe; 	   if (ResistorsFound > 0) { 
     4a8:	19 f0       	breq	.+6      	; 0x4b0 <ad1cbe>
 	RCALL	lcd_space;	lcd_space();
     4aa:	81 de       	rcall	.-766    	; 0x1ae <lcd_space>
 	ldi	r24, LCD_CHAR_RESIS3;	0
     4ac:	82 e5       	ldi	r24, 0x52	; 82
 	RCALL	lcd_data;      lcd_data(LCD_CHAR_RESIS3);	// special symbol or R
     4ae:	74 de       	rcall	.-792    	; 0x198 <lcd_data>

000004b0 <ad1cbe>:
ad1cbe:
 	RCALL	lcd_line2;					//2. row
     4b0:	9e de       	rcall	.-708    	; 0x1ee <lcd_line2>
 	ldi	r24, lo8(Uf_str);	0xE9
     4b2:	82 ea       	ldi	r24, 0xA2	; 162
 	ldi	r25, hi8(Uf_str);	0x01
     4b4:	90 e0       	ldi	r25, 0x00	; 0
#ifdef USE_EEPROM
 	RCALL	lcd_fix_string	; lcd_PGM_string(Uf_str);	//"Uf="
     4b6:	de de       	rcall	.-580    	; 0x274 <lcd_fix_string>
#else
 	RCALL	lcd_pgm_string	; lcd_PGM_string(Uf_str);	//"Uf="
#endif
 	mov	r24, r17
     4b8:	81 2f       	mov	r24, r17
 	swap	r24
     4ba:	82 95       	swap	r24
 	andi	r24, 0x0F
     4bc:	8f 70       	andi	r24, 0x0F	; 15
 	rcall	mVAusgabe	; mVAusgabe(bcdnum >> 4);
     4be:	e1 df       	rcall	.-62     	; 0x482 <mVAusgabe>
 	mov	r24, r17
     4c0:	81 2f       	mov	r24, r17
 	andi	r24, 0x0F	; 15
     4c2:	8f 70       	andi	r24, 0x0F	; 15
 	rcall	mVAusgabe	; mVAusgabe(bcdnum & 0x0f);
     4c4:	de df       	rcall	.-68     	; 0x482 <mVAusgabe>
 	pop	r17
     4c6:	1f 91       	pop	r17
 	ret
     4c8:	08 95       	ret

000004ca <SerienDiodenAusgabe>:
	.extern AnKat_str

	.func  SerienDiodenAusgabe

SerienDiodenAusgabe:
 	push	r28
     4ca:	cf 93       	push	r28
 	push	r29
     4cc:	df 93       	push	r29
 	lds	r24, diode_sequence;	0x0102
     4ce:	80 91 0d 01 	lds	r24, 0x010D
 	swap	r24
     4d2:	82 95       	swap	r24
 	andi	r24, 0x0F	; first = diode_sequence >> 4;
     4d4:	8f 70       	andi	r24, 0x0F	; 15
 	ldi	r28, lo8(diodes)	;0x80
     4d6:	ce e7       	ldi	r28, 0x7E	; 126
 	ldi	r29, hi8(diodes)	;0x01
     4d8:	d1 e0       	ldi	r29, 0x01	; 1
 	add	r28, r24	; first
     4da:	c8 0f       	add	r28, r24
 	adc	r29, zero_reg
     4dc:	d1 1d       	adc	r29, r1
 	ld	r24, Y		;Anode
     4de:	88 81       	ld	r24, Y
 	RCALL	lcd_testpin	; lcd_testpin(diodes.Anode[first]);
     4e0:	64 de       	rcall	.-824    	; 0x1aa <lcd_testpin>
 	ldi	r24, lo8(AnKat_str)	;0xA3
     4e2:	8e e6       	ldi	r24, 0x6E	; 110
 	ldi	r25, hi8(AnKat_str)	;0x03
     4e4:	90 e0       	ldi	r25, 0x00	; 0
#ifdef USE_EEPROM
	.extern lcd_fix_string
 	RCALL	lcd_fix_string	; lcd_PGM_string(AnKat_str);	//"->|-"
     4e6:	c6 de       	rcall	.-628    	; 0x274 <lcd_fix_string>
#else
	.extern lcd_pgm_string
 	RCALL	lcd_pgm_string	; lcd_PGM_string(AnKat_str);	//"->|-"
#endif
 	ldd	r24, Y+6	; Cathode
     4e8:	8e 81       	ldd	r24, Y+6	; 0x06
 	RCALL	lcd_testpin	; lcd_testpin(diodes.Cathode[first]);
     4ea:	5f de       	rcall	.-834    	; 0x1aa <lcd_testpin>
 	ldi	r24, lo8(AnKat_str)	;0xA3
     4ec:	8e e6       	ldi	r24, 0x6E	; 110
 	ldi	r25, hi8(AnKat_str)	;0x03
     4ee:	90 e0       	ldi	r25, 0x00	; 0
#ifdef USE_EEPROM
 	RCALL	lcd_fix_string	; lcd_PGM_string(AnKat_str);	//"->|-"
     4f0:	c1 de       	rcall	.-638    	; 0x274 <lcd_fix_string>
#else
 	RCALL	lcd_pgm_string	; lcd_PGM_string(AnKat_str);	//"->|-"
#endif
 	ldi	r28, lo8(diodes)	;0x80
     4f2:	ce e7       	ldi	r28, 0x7E	; 126
 	ldi	r29, hi8(diodes)	;0x01
     4f4:	d1 e0       	ldi	r29, 0x01	; 1
 	lds	r24, diode_sequence;	0x0102
     4f6:	80 91 0d 01 	lds	r24, 0x010D
 	andi	r24, 0x03	; second = diode_sequence & 3;
     4fa:	83 70       	andi	r24, 0x03	; 3
 	add	r28, r24
     4fc:	c8 0f       	add	r28, r24
 	adc	r29, zero_reg
     4fe:	d1 1d       	adc	r29, r1
 	ldd	r24, Y+6	; Cathode
     500:	8e 81       	ldd	r24, Y+6	; 0x06
 	RCALL	lcd_testpin	; lcd_testpin(diodes.Cathode[second]);
     502:	53 de       	rcall	.-858    	; 0x1aa <lcd_testpin>
 	lds	r24, diode_sequence;	x0102
     504:	80 91 0d 01 	lds	r24, 0x010D
 	rcall	UfAusgabe	; UfAusgabe(diode_sequence);
     508:	ca df       	rcall	.-108    	; 0x49e <UfAusgabe>
    	pop	r29
     50a:	df 91       	pop	r29
    	pop	r28
     50c:	cf 91       	pop	r28
    	ret
     50e:	08 95       	ret

00000510 <DisplayValue>:
 *  Flag 0x10 for output with leading zeros
 *  Flag 0x20 for '+' Output, if not '-' 
 */

void DisplayValue(signed long signedValue, int8_t Exponent, unsigned char Unit, uint8_t xdigits)
{
     510:	ae e0       	ldi	r26, 0x0E	; 14
     512:	b0 e0       	ldi	r27, 0x00	; 0
     514:	ee e8       	ldi	r30, 0x8E	; 142
     516:	f2 e0       	ldi	r31, 0x02	; 2
     518:	0c 94 b9 1e 	jmp	0x3d72	; 0x3d72 <__prologue_saves__>
     51c:	14 2f       	mov	r17, r20
     51e:	32 2e       	mov	r3, r18
     520:	20 2e       	mov	r2, r16
  uint8_t           digits;		/* xdigits without option */
  uint8_t           Length;		/* string length */
  uint8_t	    Rshift;		/* right shift of significant bits with leading '0' */


  unsigned long Value=signedValue;
     522:	6b 01       	movw	r12, r22
     524:	7c 01       	movw	r14, r24
  digits = xdigits & 0x0f;
     526:	0f 70       	andi	r16, 0x0F	; 15
  for(Prefix=0;Prefix<6;Prefix++) OutBuffer[Prefix] = '0';
     528:	80 e3       	ldi	r24, 0x30	; 48
     52a:	89 83       	std	Y+1, r24	; 0x01
     52c:	8a 83       	std	Y+2, r24	; 0x02
     52e:	8b 83       	std	Y+3, r24	; 0x03
     530:	8c 83       	std	Y+4, r24	; 0x04
     532:	8d 83       	std	Y+5, r24	; 0x05
     534:	8e 83       	std	Y+6, r24	; 0x06

#if FLASHEND > 0x1fff
  if (signedValue<0) {
     536:	f7 fe       	sbrs	r15, 7
     538:	0b c0       	rjmp	.+22     	; 0x550 <DisplayValue+0x40>
     lcd_data('-');
     53a:	8d e2       	ldi	r24, 0x2D	; 45
     53c:	2d de       	rcall	.-934    	; 0x198 <lcd_data>
     53e:	f0 94       	com	r15
     Value=-signedValue;
     540:	e0 94       	com	r14
     542:	d0 94       	com	r13
     544:	c0 94       	com	r12
     546:	c1 1c       	adc	r12, r1
     548:	d1 1c       	adc	r13, r1
     54a:	e1 1c       	adc	r14, r1
     54c:	f1 1c       	adc	r15, r1
     54e:	04 c0       	rjmp	.+8      	; 0x558 <DisplayValue+0x48>
     550:	25 fe       	sbrs	r2, 5
  } else {
     if ((xdigits & 0x20) != 0) lcd_data('+');
     552:	02 c0       	rjmp	.+4      	; 0x558 <DisplayValue+0x48>
     554:	8b e2       	ldi	r24, 0x2B	; 43
     556:	20 de       	rcall	.-960    	; 0x198 <lcd_data>
     558:	03 30       	cpi	r16, 0x03	; 3
     55a:	29 f0       	breq	.+10     	; 0x566 <DisplayValue+0x56>
  }
#endif

  Limit = 100;				/* scale value down to 2 digits */
  if (digits == 3) Limit = 1000;	/* scale value down to 3 digits */
     55c:	04 30       	cpi	r16, 0x04	; 4
     55e:	31 f0       	breq	.+12     	; 0x56c <DisplayValue+0x5c>
  if (digits == 4) Limit = 10000;	/* scale value down to 4 digits */
     560:	84 e6       	ldi	r24, 0x64	; 100
     562:	90 e0       	ldi	r25, 0x00	; 0
  } else {
     if ((xdigits & 0x20) != 0) lcd_data('+');
  }
#endif

  Limit = 100;				/* scale value down to 2 digits */
     564:	05 c0       	rjmp	.+10     	; 0x570 <DisplayValue+0x60>
     566:	88 ee       	ldi	r24, 0xE8	; 232
     568:	93 e0       	ldi	r25, 0x03	; 3
  if (digits == 3) Limit = 1000;	/* scale value down to 3 digits */
     56a:	02 c0       	rjmp	.+4      	; 0x570 <DisplayValue+0x60>
     56c:	80 e1       	ldi	r24, 0x10	; 16
     56e:	97 e2       	ldi	r25, 0x27	; 39
  if (digits == 4) Limit = 10000;	/* scale value down to 4 digits */
     570:	4c 01       	movw	r8, r24
     572:	a1 2c       	mov	r10, r1
  if (digits == 5) Limit = 100000;	/* scale value down to 5 digits */
  if (digits == 6) Limit = 1000000;	/* scale value down to 6 digits */
  if (digits == 7) Limit = 10000000;	/* scale value down to 7 digits */
#endif

  while (Value >= Limit)
     574:	b1 2c       	mov	r11, r1
     576:	9a e0       	ldi	r25, 0x0A	; 10
     578:	49 2e       	mov	r4, r25
  {
    Value += 5;				/* for automatic rounding */
    // perhaps TODO: the above is not really correct, can do double rounding (2000.45 -> 2000.5 -> 2001)
    Value = Value / 10;			/* scale down by 10^1 */
     57a:	51 2c       	mov	r5, r1
     57c:	61 2c       	mov	r6, r1
     57e:	71 2c       	mov	r7, r1
     580:	c8 14       	cp	r12, r8
     582:	d9 04       	cpc	r13, r9
  if (digits == 5) Limit = 100000;	/* scale value down to 5 digits */
  if (digits == 6) Limit = 1000000;	/* scale value down to 6 digits */
  if (digits == 7) Limit = 10000000;	/* scale value down to 7 digits */
#endif

  while (Value >= Limit)
     584:	ea 04       	cpc	r14, r10
     586:	fb 04       	cpc	r15, r11
     588:	70 f0       	brcs	.+28     	; 0x5a6 <DisplayValue+0x96>
     58a:	c7 01       	movw	r24, r14
     58c:	b6 01       	movw	r22, r12
  {
    Value += 5;				/* for automatic rounding */
     58e:	6b 5f       	subi	r22, 0xFB	; 251
     590:	7f 4f       	sbci	r23, 0xFF	; 255
     592:	8f 4f       	sbci	r24, 0xFF	; 255
     594:	9f 4f       	sbci	r25, 0xFF	; 255
     596:	a3 01       	movw	r20, r6
     598:	92 01       	movw	r18, r4
    // perhaps TODO: the above is not really correct, can do double rounding (2000.45 -> 2000.5 -> 2001)
    Value = Value / 10;			/* scale down by 10^1 */
     59a:	0e 94 7b 1e 	call	0x3cf6	; 0x3cf6 <__udivmodsi4>
     59e:	69 01       	movw	r12, r18
     5a0:	7a 01       	movw	r14, r20
     5a2:	1f 5f       	subi	r17, 0xFF	; 255
     5a4:	ed cf       	rjmp	.-38     	; 0x580 <DisplayValue+0x70>
     5a6:	86 e0       	ldi	r24, 0x06	; 6
     5a8:	81 1b       	sub	r24, r17
#endif
  // the following is much more concise
  // also removes the limits checking, since limit errors should never happen, and if they do, they'd show _incorrect_ results;
  // showing a garbage prefix character seems preferable to something correct-looking but off by some power of 10
  Index = ((unsigned char)(Exponent+17))/3;
  Offset = ((unsigned char)(6-Exponent))%3;
     5aa:	63 e0       	ldi	r22, 0x03	; 3
     5ac:	0e 94 5b 1e 	call	0x3cb6	; 0x3cb6 <__udivmodqi4>
     5b0:	99 2e       	mov	r9, r25
     5b2:	5e 01       	movw	r10, r28
     5b4:	87 e0       	ldi	r24, 0x07	; 7
  /* convert value into string */

#ifdef LONG_OUTPUT
  ultoa(Value, &OutBuffer[6], 10);	// sprintf(&OutBuffer[6],"%ld%c",Value,(char)0);
#else
  utoa((uint16_t)Value, &OutBuffer[6], 10);	// sprintf(&OutBuffer[6],"%d%c",Value,(char)0);
     5b6:	a8 0e       	add	r10, r24
     5b8:	b1 1c       	adc	r11, r1
     5ba:	4a e0       	ldi	r20, 0x0A	; 10
     5bc:	50 e0       	ldi	r21, 0x00	; 0
     5be:	b5 01       	movw	r22, r10
     5c0:	c6 01       	movw	r24, r12
     5c2:	0e 94 f0 1e 	call	0x3de0	; 0x3de0 <utoa>
     5c6:	f5 01       	movw	r30, r10
     5c8:	01 90       	ld	r0, Z+
#endif

  Length = strlen(&OutBuffer[6]);
     5ca:	00 20       	and	r0, r0
     5cc:	e9 f7       	brne	.-6      	; 0x5c8 <DisplayValue+0xb8>
     5ce:	cf 01       	movw	r24, r30
     5d0:	01 97       	sbiw	r24, 0x01	; 1
     5d2:	7c 01       	movw	r14, r24
     5d4:	ea 18       	sub	r14, r10
     5d6:	fb 08       	sbc	r15, r11
     5d8:	1f 5e       	subi	r17, 0xEF	; 239
     5da:	8b ea       	ldi	r24, 0xAB	; 171
    }
#endif
  // the following is much more concise
  // also removes the limits checking, since limit errors should never happen, and if they do, they'd show _incorrect_ results;
  // showing a garbage prefix character seems preferable to something correct-looking but off by some power of 10
  Index = ((unsigned char)(Exponent+17))/3;
     5dc:	18 9f       	mul	r17, r24
     5de:	81 2d       	mov	r24, r1
     5e0:	11 24       	eor	r1, r1
     5e2:	86 95       	lsr	r24
     5e4:	90 e0       	ldi	r25, 0x00	; 0
     5e6:	80 50       	subi	r24, 0x00	; 0
      Index++;				/* use mikro instead of nano */
      Offset += 3;			/* can be 3,4 or 5 */
    }
#endif

  Prefix = MEM_read_byte((unsigned char *)(&PrefixTab[Index]));   /* look up prefix in table */
     5e8:	90 40       	sbci	r25, 0x00	; 0
     5ea:	0e 94 04 1f 	call	0x3e08	; 0x3e08 <__eerd_byte_m168>
     5ee:	b8 2e       	mov	r11, r24
     5f0:	24 fe       	sbrs	r2, 4
     5f2:	04 c0       	rjmp	.+8      	; 0x5fc <DisplayValue+0xec>

   */


  /* position of dot */
  if (((xdigits & 0x10) != 0) && (digits > Length)) {
     5f4:	e0 16       	cp	r14, r16
     5f6:	10 f4       	brcc	.+4      	; 0x5fc <DisplayValue+0xec>
     5f8:	0e 19       	sub	r16, r14
     5fa:	01 c0       	rjmp	.+2      	; 0x5fe <DisplayValue+0xee>
     Rshift = (digits - Length);	// use previous filled '0' characters
     5fc:	00 e0       	ldi	r16, 0x00	; 0
     5fe:	ce 2c       	mov	r12, r14
  } else {
     Rshift = 0;
     600:	c9 18       	sub	r12, r9
  }

  Exponent = (Length + Rshift) - Offset;		/* calculate position */
     602:	c0 0e       	add	r12, r16
     604:	1c 14       	cp	r1, r12
     606:	24 f0       	brlt	.+8      	; 0x610 <DisplayValue+0x100>

  if (Exponent <= 0)			/* we have to prepend "0." */
     608:	8e e2       	ldi	r24, 0x2E	; 46
     60a:	c6 dd       	rcall	.-1140   	; 0x198 <lcd_data>
  {
    /* 0: factor 10 / -1: factor 100 */
//    lcd_data('0');
    lcd_data('.');
     60c:	09 2d       	mov	r16, r9
     60e:	0e 19       	sub	r16, r14
     610:	91 10       	cpse	r9, r1
      }
#else
    if (Exponent < 0) lcd_data('0');	/* extra 0 for factor 100 */
#endif
#else
    Rshift = Offset - Length;
     612:	02 c0       	rjmp	.+4      	; 0x618 <DisplayValue+0x108>
     614:	88 ef       	ldi	r24, 0xF8	; 248
#endif
  }



  if (Offset == 0) Exponent = -8;	/* disable dot if not needed */
     616:	c8 2e       	mov	r12, r24
     618:	a1 2c       	mov	r10, r1
     61a:	10 e0       	ldi	r17, 0x00	; 0
     61c:	f8 01       	movw	r30, r16

//  Exponent--;


  /* display value and add dot if requested */
  Index = 0;
     61e:	ee 0d       	add	r30, r14
  while (Index < (Length+Rshift))		/* loop through string */
     620:	f1 1d       	adc	r31, r1
     622:	7f 01       	movw	r14, r30
     624:	dd 24       	eor	r13, r13
     626:	c7 fc       	sbrc	r12, 7
     628:	d0 94       	com	r13
  {
    lcd_data(OutBuffer[Index+6-Rshift]);		/* display char */
    Index++;				/* next one */
    if (Index == Exponent) {
     62a:	ea 2d       	mov	r30, r10
     62c:	f0 e0       	ldi	r31, 0x00	; 0
     62e:	ee 15       	cp	r30, r14
//  Exponent--;


  /* display value and add dot if requested */
  Index = 0;
  while (Index < (Length+Rshift))		/* loop through string */
     630:	ff 05       	cpc	r31, r15
     632:	a4 f4       	brge	.+40     	; 0x65c <DisplayValue+0x14c>
     634:	36 96       	adiw	r30, 0x06	; 6
     636:	e0 1b       	sub	r30, r16
     638:	f1 0b       	sbc	r31, r17
  {
    lcd_data(OutBuffer[Index+6-Rshift]);		/* display char */
     63a:	81 e0       	ldi	r24, 0x01	; 1
     63c:	90 e0       	ldi	r25, 0x00	; 0
     63e:	8c 0f       	add	r24, r28
     640:	9d 1f       	adc	r25, r29
     642:	e8 0f       	add	r30, r24
     644:	f9 1f       	adc	r31, r25
     646:	80 81       	ld	r24, Z
     648:	a7 dd       	rcall	.-1202   	; 0x198 <lcd_data>
     64a:	a3 94       	inc	r10
     64c:	8a 2d       	mov	r24, r10
     64e:	90 e0       	ldi	r25, 0x00	; 0
     650:	8c 15       	cp	r24, r12
    Index++;				/* next one */
     652:	9d 05       	cpc	r25, r13
    if (Index == Exponent) {
     654:	51 f7       	brne	.-44     	; 0x62a <DisplayValue+0x11a>
     656:	8e e2       	ldi	r24, 0x2E	; 46
     658:	9f dd       	rcall	.-1218   	; 0x198 <lcd_data>
     65a:	e7 cf       	rjmp	.-50     	; 0x62a <DisplayValue+0x11a>
     65c:	bb 20       	and	r11, r11
      lcd_data('.');			/* display dot */
     65e:	11 f0       	breq	.+4      	; 0x664 <DisplayValue+0x154>
     660:	8b 2d       	mov	r24, r11
     662:	9a dd       	rcall	.-1228   	; 0x198 <lcd_data>
     664:	33 20       	and	r3, r3



  /* display prefix and unit */

  if (Prefix != 0) {
     666:	11 f0       	breq	.+4      	; 0x66c <DisplayValue+0x15c>
     668:	83 2d       	mov	r24, r3
     lcd_data(Prefix);
     66a:	96 dd       	rcall	.-1236   	; 0x198 <lcd_data>
     66c:	2e 96       	adiw	r28, 0x0e	; 14
     66e:	e2 e1       	ldi	r30, 0x12	; 18
  }

  if (Unit != 0) {
     670:	0c 94 d5 1e 	jmp	0x3daa	; 0x3daa <__epilogue_restores__>

00000674 <DisplayValue16>:
      lcd_data(Unit);
     674:	0f 93       	push	r16
     676:	36 2f       	mov	r19, r22
     678:	bc 01       	movw	r22, r24
  }
  return;
}
     67a:	80 e0       	ldi	r24, 0x00	; 0
     67c:	90 e0       	ldi	r25, 0x00	; 0
     67e:	02 2f       	mov	r16, r18
     680:	24 2f       	mov	r18, r20

void DisplayValue16(uint16_t Value, int8_t Exponent, unsigned char Unit, uint8_t digits)
{
     682:	43 2f       	mov	r20, r19
     684:	45 df       	rcall	.-374    	; 0x510 <DisplayValue>
 DisplayValue((signed long)Value, Exponent, Unit, digits);
     686:	0f 91       	pop	r16
     688:	08 95       	ret

0000068a <Display_mV>:
     68a:	0f 93       	push	r16
     68c:	06 2f       	mov	r16, r22
     68e:	bc 01       	movw	r22, r24
     690:	80 e0       	ldi	r24, 0x00	; 0
     692:	90 e0       	ldi	r25, 0x00	; 0
     694:	26 e5       	ldi	r18, 0x56	; 86
}
     696:	4d ef       	ldi	r20, 0xFD	; 253
     698:	3b df       	rcall	.-394    	; 0x510 <DisplayValue>

void Display_mV(uint16_t xx, uint8_t ll) {
     69a:	0f 91       	pop	r16
     69c:	08 95       	ret

0000069e <uart_putc>:
		lds	r25, UCSR0A
		sbrs	r25, UDRE0
		rjmp	w3		; wait
		AOUT    UDR0, r24	; put data to transmit buffer
#endif	/* def WITH_HARDWARE_SERIAL */
		ret			;   return
     69e:	08 95       	ret

000006a0 <wait5s>:
; A maximum of 28 bytes of space for return addresses is used in RAM 
; I see no way to implement this function with C-language (too tricky)


wait5s:
 rcall wait1s		;	12+x return-adresses
     6a0:	03 d0       	rcall	.+6      	; 0x6a8 <wait1000ms>

000006a2 <wait4s>:
wait4s:
 rcall wait1s		;	12+x return-adresses
     6a2:	02 d0       	rcall	.+4      	; 0x6a8 <wait1000ms>

000006a4 <wait3s>:
wait3s:
 rcall wait1s		;	12+x return-adresses
     6a4:	01 d0       	rcall	.+2      	; 0x6a8 <wait1000ms>

000006a6 <wait2s>:
wait2s:
 rcall wait1s		;1s     12+x Return-Adresses
     6a6:	00 d0       	rcall	.+0      	; 0x6a8 <wait1000ms>

000006a8 <wait1000ms>:

wait1s:
wait1000ms:	
 rcall wait500ms	;500ms	11+x Return-Adresses
     6a8:	00 d0       	rcall	.+0      	; 0x6aa <wait500ms>

000006aa <wait500ms>:

wait500ms:
 rcall wait100ms	;100ms	10+x Return-Adresses
     6aa:	03 d0       	rcall	.+6      	; 0x6b2 <wait100ms>

000006ac <wait400ms>:
wait400ms:
 rcall wait100ms	;100ms	10+x Return-Adresses
     6ac:	02 d0       	rcall	.+4      	; 0x6b2 <wait100ms>

000006ae <wait300ms>:
wait300ms:
 rcall wait100ms	;100ms	10+x Return-Adresses
     6ae:	01 d0       	rcall	.+2      	; 0x6b2 <wait100ms>

000006b0 <wait200ms>:
wait200ms:
 rcall wait100ms	;100ms	10+x Return-Adresses
     6b0:	00 d0       	rcall	.+0      	; 0x6b2 <wait100ms>

000006b2 <wait100ms>:


wait100ms:
 rcall wait50ms	    	; 50ms	9+x Return-Adresses
     6b2:	00 d0       	rcall	.+0      	; 0x6b4 <wait50ms>

000006b4 <wait50ms>:

wait50ms:
 rcall wait10ms	    	;10ms	8+x Return-Adresses 
     6b4:	03 d0       	rcall	.+6      	; 0x6bc <wait10ms>

000006b6 <wait40ms>:
wait40ms:
 rcall wait10ms	    	;10ms	8+x Return-Adresses  
     6b6:	02 d0       	rcall	.+4      	; 0x6bc <wait10ms>

000006b8 <wait30ms>:
wait30ms:
 rcall wait10ms	    	;10ms	8+x Return-Adresses  
     6b8:	01 d0       	rcall	.+2      	; 0x6bc <wait10ms>

000006ba <wait20ms>:
wait20ms:
 rcall wait10ms	    	;10ms	8+x Return-Adresses
     6ba:	00 d0       	rcall	.+0      	; 0x6bc <wait10ms>

000006bc <wait10ms>:

wait10ms:
 rcall wait5ms	   	;5ms	7+x Return-Adresses
     6bc:	00 d0       	rcall	.+0      	; 0x6be <wait5ms>

000006be <wait5ms>:
wait5ms:
 wdr				; every 5ms one Watchdog reset!
     6be:	a8 95       	wdr
 rcall wait1ms	   	;1ms	6+x Return-Adresses
     6c0:	03 d0       	rcall	.+6      	; 0x6c8 <wait1ms>

000006c2 <wait4ms>:
wait4ms:
 rcall wait1ms	   	;1ms	6+x Return-Adresses
     6c2:	02 d0       	rcall	.+4      	; 0x6c8 <wait1ms>

000006c4 <wait3ms>:
wait3ms:
 rcall wait1ms	   	;1ms	6+x Return-Adresses
     6c4:	01 d0       	rcall	.+2      	; 0x6c8 <wait1ms>

000006c6 <wait2ms>:
wait2ms:
 rcall wait1ms	   	;1ms	6+x Return-Adresses
     6c6:	00 d0       	rcall	.+0      	; 0x6c8 <wait1ms>

000006c8 <wait1ms>:

wait1ms:
 rcall wait500us    	;500us	5+x Return-Adresses
     6c8:	00 d0       	rcall	.+0      	; 0x6ca <wait500us>

000006ca <wait500us>:
wait500us:
 rcall wait100us    	;100us	4+x Return-Adresses
     6ca:	03 d0       	rcall	.+6      	; 0x6d2 <wait100us>

000006cc <wait400us>:
wait400us:
 rcall wait100us    	;100us	4+x Return-Adresses
     6cc:	02 d0       	rcall	.+4      	; 0x6d2 <wait100us>

000006ce <wait300us>:
wait300us:
 rcall wait100us    	;100us	4+x Return-Adresses
     6ce:	01 d0       	rcall	.+2      	; 0x6d2 <wait100us>

000006d0 <wait200us>:
wait200us:
 rcall wait100us    	;100us	4+x Return-Adresses
     6d0:	00 d0       	rcall	.+0      	; 0x6d2 <wait100us>

000006d2 <wait100us>:

wait100us:
#if US100_TICS > (2 * US50_TICS)
 nop
#endif
 rcall wait50us	    	; 50us delay
     6d2:	00 d0       	rcall	.+0      	; 0x6d4 <wait50us>

000006d4 <wait50us>:
wait50us:
#if US50_TICS > (US40_TICS + US10_TICS)
 nop
#endif
 rcall wait10us     	;10us delay
     6d4:	03 d0       	rcall	.+6      	; 0x6dc <wait10us>

000006d6 <wait40us>:
wait40us:
#if US40_TICS > (US30_TICS + US10_TICS)
 nop
#endif
 rcall wait10us     	;10us delay
     6d6:	02 d0       	rcall	.+4      	; 0x6dc <wait10us>

000006d8 <wait30us>:
wait30us:
#if US30_TICS > (US20_TICS + US10_TICS)
 nop
#endif
 rcall wait10us     	;10us delay
     6d8:	01 d0       	rcall	.+2      	; 0x6dc <wait10us>

000006da <wait20us>:
wait20us:
#if US20_TICS > (2 * US10_TICS)
 nop
#endif
 rcall wait10us		;10us delay
     6da:	00 d0       	rcall	.+0      	; 0x6dc <wait10us>

000006dc <wait10us>:

#if US5_TICS >= RCALL_TICS
 #if US10_TICS > (2 * US5_TICS)
  nop
 #endif
 rcall wait5us
     6dc:	00 d0       	rcall	.+0      	; 0x6de <wait5us>

000006de <wait5us>:
   #define INNER_TICS US1_TICS
wait5us:
   #if US5_TICS > (US4_TICS + US1_TICS)
    nop
   #endif
   rcall wait1us
     6de:	03 d0       	rcall	.+6      	; 0x6e6 <wait1us>

000006e0 <wait4us>:
wait4us:
   #if US4_TICS > (US3_TICS + US1_TICS)
    nop
   #endif
   rcall wait1us
     6e0:	02 d0       	rcall	.+4      	; 0x6e6 <wait1us>

000006e2 <wait3us>:
wait3us:
   #if US3_TICS > (US2_TICS + US1_TICS)
    nop
   #endif
   rcall wait1us
     6e2:	01 d0       	rcall	.+2      	; 0x6e6 <wait1us>

000006e4 <wait2us>:
wait2us:
   #if US2_TICS > (2 * US1_TICS)
    nop
   #endif
   rcall wait1us
     6e4:	00 d0       	rcall	.+0      	; 0x6e6 <wait1us>

000006e6 <wait1us>:
 #endif
 #if WAST_TICS3 > 1
    nop	
 #endif
 #if WAST_TICS3 > 0
    nop	
     6e6:	00 00       	nop
 #endif

 ret
     6e8:	08 95       	ret

000006ea <W20msReadADC>:
 .section .text
;unsigned int W20msReadADC(uint8_t Probe) 
;unsigned int W5msReadADC(uint8_t Probe) 
#ifdef INHIBIT_SLEEP_MODE
W20msReadADC:
	ACALL wait10ms;
     6ea:	e8 df       	rcall	.-48     	; 0x6bc <wait10ms>

000006ec <W10msReadADC>:
     6ec:	e8 df       	rcall	.-48     	; 0x6be <wait5ms>

000006ee <W5msReadADC>:
			;// runs to W10msReadADC
W10msReadADC:
	ACALL wait5ms;
     6ee:	e7 df       	rcall	.-50     	; 0x6be <wait5ms>

000006f0 <ReadADC>:
     6f0:	1f 93       	push	r17
			;// runs to W5msReadADC
W5msReadADC:
	ACALL wait5ms;
     6f2:	18 2f       	mov	r17, r24
     6f4:	10 64       	ori	r17, 0x40	; 64

000006f6 <get_sample>:

;unsigned int ReadADC(uint8_t Probe) 
ReadADC:
;  //returns result of ADC port Probe scaled to mV resolution (unsigned int)
;  unsigned long Value;
	push	r17;
     6f6:	10 93 7c 00 	sts	0x007C, r17
; unsigned int U; /* return value (mV) */
; uint8_t Samples; /* loop counter */
; unsigned long Value; /* ADC value */
	mov	r17, r24;	Probe
	ori	r17, (1 << REFS0)	; Probe |= (1 << REFS0); /* use internal reference anyway */
     6fa:	e1 2f       	mov	r30, r17
get_sample:
        AOUT	ADMUX, r17		; ADMUX = Probe; /* set input channel and U reference */
     6fc:	e0 78       	andi	r30, 0x80	; 128
     6fe:	80 91 28 01 	lds	r24, 0x0128
#ifdef AUTOSCALE_ADC
 /* if voltage reference changed run a dummy conversion */
	mov	r30, r17;
       	andi	r30, (1 << REFS1)	; Samples = Probe & (1 << REFS1); /* get REFS1 bit flag */
     702:	e8 17       	cp	r30, r24
	lds	r24, ADCconfig+RefFlag	;
     704:	51 f0       	breq	.+20     	; 0x71a <no_ref_change>
     706:	e0 93 28 01 	sts	0x0128, r30
       	cp	r30, r24;
       	breq	no_ref_change			; if (Samples != ADCconfig.RefFlag) 
     70a:	e3 df       	rcall	.-58     	; 0x6d2 <wait100us>
	sts	ADCconfig+RefFlag, r30	; ADCconfig.RefFlag = Samples; /* update flag */
     70c:	86 ed       	ldi	r24, 0xD6	; 214
     70e:	80 93 7a 00 	sts	0x007A, r24
  #else
	ldi	r24, 2			; /* 2 * 5ms */
	RCALL	sleep_5ms		; wait_about10ms()
  #endif
 #endif		/* end NO_AREF_CAP */
	StartADCwait                    ; // allways do one dummy read of ADC, 112us
     712:	80 91 7a 00 	lds	r24, 0x007A
     716:	86 fd       	sbrc	r24, 6
     718:	fc cf       	rjmp	.-8      	; 0x712 <get_sample+0x1c>

0000071a <no_ref_change>:
     71a:	20 e0       	ldi	r18, 0x00	; 0
     71c:	30 e0       	ldi	r19, 0x00	; 0
     71e:	a9 01       	movw	r20, r18
#endif		/* end AUTOSCALE_ADC */

;unsigned int ReadADC (uint8_t Probe) {
no_ref_change:
 /* * sample ADC readings */
	ldi	r18, 0x00;	 Value = 0UL; /* reset sampling variable */
     720:	e0 e0       	ldi	r30, 0x00	; 0
	ldi	r19, 0x00; 
     722:	1e c0       	rjmp	.+60     	; 0x760 <r2ae8>

00000724 <Loop>:
	movw	r20, r18;
     724:	86 ed       	ldi	r24, 0xD6	; 214
	ldi	r30, 0x00;	 Samples = 0; /* number of samples to take */
     726:	80 93 7a 00 	sts	0x007A, r24
	rjmp	r2ae8 ;
; while (Samples < ADCconfig.Samples) /* take samples */ 
Loop:
	StartADCwait                    /* start ADC and wait */
     72a:	80 91 7a 00 	lds	r24, 0x007A
     72e:	86 fd       	sbrc	r24, 6
     730:	fc cf       	rjmp	.-8      	; 0x72a <Loop+0x6>
     732:	60 91 78 00 	lds	r22, 0x0078
     736:	70 91 79 00 	lds	r23, 0x0079

	lds	r22, ADCL;     Value += ADCW; /* add ADC reading */
     73a:	26 0f       	add	r18, r22
	lds	r23, ADCH;
     73c:	37 1f       	adc	r19, r23
     73e:	41 1d       	adc	r20, r1
	add	r18, r22;
     740:	51 1d       	adc	r21, r1
	adc	r19, r23;
     742:	e4 30       	cpi	r30, 0x04	; 4
	adc	r20, r1;
     744:	61 f4       	brne	.+24     	; 0x75e <cnt_next>
	adc	r21, r1;
     746:	80 91 2a 01 	lds	r24, 0x012A
#ifdef AUTOSCALE_ADC
;    /* auto-switch voltage reference for low readings */
;    if ((Samples == 4) && (ADCconfig.U_Bandgap > 255) && ((uint16_t)Value < 1024) && !(Probe & (1 << REFS1))) {
	cpi	r30, 0x04;	Samples == 4
	brne	cnt_next		; if ((Samples == 4) && 
     74a:	80 30       	cpi	r24, 0x00	; 0
	lds	r24, ADCconfig+3;
     74c:	41 f0       	breq	.+16     	; 0x75e <cnt_next>
     74e:	84 e0       	ldi	r24, 0x04	; 4
        cpi	r24,0;
     750:	20 30       	cpi	r18, 0x00	; 0
        breq	cnt_next		; if ( && (ADCconfig.U_Bandgap > 255) )
     752:	38 07       	cpc	r19, r24
       	ldi	r24, hi8(1024)		; Value < 1024
     754:	20 f4       	brcc	.+8      	; 0x75e <cnt_next>
	cpi	r18, lo8(1024)
     756:	17 fd       	sbrc	r17, 7
	cpc	r19, r24;
     758:	02 c0       	rjmp	.+4      	; 0x75e <cnt_next>
	brcc	cnt_next		; if ( &&  && ((uint16_t)Value < 1024) )
     75a:	10 68       	ori	r17, 0x80	; 128
	sbrc	r17, REFS1;
     75c:	cc cf       	rjmp	.-104    	; 0x6f6 <get_sample>

0000075e <cnt_next>:
	rjmp	cnt_next		; if ( &&  &&  && !(Probe & (1 << REFS1))) 
     75e:	ef 5f       	subi	r30, 0xFF	; 255

00000760 <r2ae8>:
	ori	r17, (1 << REFS1);   Probe |= (1 << REFS1); /* select internal bandgap reference */
     760:	80 91 27 01 	lds	r24, 0x0127
	cbr	r17, (1<<REFS0); Probe &= ~(1 << REFS0);  /* ATmega640/1280/2560 1.1V Reference with REFS0=0 */
 #endif
	rjmp	get_sample ;       goto get_sample; /* re-run sampling */
#endif		/* end AUTOSCALE_ADC */
cnt_next:
	subi	r30, 0xFF;	  Samples++; /* one more done */
     764:	e8 17       	cp	r30, r24
r2ae8:
	lds	r24, ADCconfig+Samples;
     766:	f0 f2       	brcs	.-68     	; 0x724 <Loop>
     768:	60 91 2b 01 	lds	r22, 0x012B
	cp	r30, r24		; while (Samples < ADCconfig.Samples) /* take samples */ 
	brcs	Loop ;
     76c:	70 91 2c 01 	lds	r23, 0x012C
	lds	r22, ADCconfig+U_AVCC		; U = ADCconfig.U_AVCC; /* Vcc reference */
     770:	17 ff       	sbrs	r17, 7
       	lds	r23, ADCconfig+U_AVCC+1;
     772:	04 c0       	rjmp	.+8      	; 0x77c <r2b02>
     774:	60 91 29 01 	lds	r22, 0x0129
#ifdef AUTOSCALE_ADC
; /* * convert ADC reading to voltage * - single sample: U = ADC reading * U_ref / 1024 */
; /* get voltage of reference used */
	sbrs	r17, REFS1			; if (Probe & (1 << REFS1))
	rjmp	r2b02 ;
     778:	70 91 2a 01 	lds	r23, 0x012A

0000077c <r2b02>:
	lds	r22, ADCconfig+U_Bandgap	; U = ADCconfig.U_Bandgap; /* bandgap reference */
     77c:	80 e0       	ldi	r24, 0x00	; 0
	lds	r23, ADCconfig+U_Bandgap+1;
     77e:	90 e0       	ldi	r25, 0x00	; 0
     780:	0e 94 4c 1e 	call	0x3c98	; 0x3c98 <__mulsi3>
#endif		/* end AUTOSCALE_ADC */
; /* convert to voltage; */
r2b02:
	ldi	r24, 0x00			; Value *= U; /* ADC readings * U_ref */
	ldi	r25, 0x00; 0
     784:	2f ef       	ldi	r18, 0xFF	; 255
	ACALL	__mulsi3;			; sum(ADCreads) * ADC_reference
     786:	33 e0       	ldi	r19, 0x03	; 3
     788:	40 e0       	ldi	r20, 0x00	; 0
	ldi	r18, lo8(1023)			; Value /= 1023; /* / 1024 for 10bit ADC */
     78a:	50 e0       	ldi	r21, 0x00	; 0
	ldi	r19, hi8(1023);
     78c:	0e 94 7b 1e 	call	0x3cf6	; 0x3cf6 <__udivmodsi4>
	ldi	r20, 0x00; 0
	ldi	r21, 0x00; 0
     790:	b9 01       	movw	r22, r18
	ACALL	__udivmodsi4;			R22-25 / R18-21
     792:	ca 01       	movw	r24, r20
     794:	20 91 27 01 	lds	r18, 0x0127
	movw	r22, r18;
	movw	r24, r20;
     798:	30 e0       	ldi	r19, 0x00	; 0
; /* de-sample to get average voltage */
	lds	r18,ADCconfig+Samples			; Value /= ADCconfig.Samples;
     79a:	40 e0       	ldi	r20, 0x00	; 0
     79c:	50 e0       	ldi	r21, 0x00	; 0
	ldi	r19, 0x00; 0
     79e:	0e 94 7b 1e 	call	0x3cf6	; 0x3cf6 <__udivmodsi4>
	ldi	r20, 0x00; 0
	ldi	r21, 0x00; 0
     7a2:	c9 01       	movw	r24, r18
	ACALL	__udivmodsi4;			R22-25 / R18-21
     7a4:	1f 91       	pop	r17
     7a6:	08 95       	ret

000007a8 <wait_for_key_ms>:
;/* wait max_time or previous key press */
;/* max_time zero wait without time limit */
;/* return value: !=0 == key is pressed for xx*10ms, 0 == key is not pressed, time expired */
;uint8_t wait_for_key_ms(int max_time) 
wait_for_key_ms:
        push	r14
     7a8:	ef 92       	push	r14
	push	r15
     7aa:	ff 92       	push	r15
	push	r16
     7ac:	0f 93       	push	r16
        push	r17
     7ae:	1f 93       	push	r17
 	push	r28		; save registers r28:29
     7b0:	cf 93       	push	r28
 	push	r29
     7b2:	df 93       	push	r29
 	movw	r14, r24	; r14:15 = max_time
     7b4:	7c 01       	movw	r14, r24
;  // if key is pressed, return 1
;  // if max_time == 0 , do not count, wait endless
	
	ldi	r28, 101	; kk = 100
     7b6:	c5 e6       	ldi	r28, 0x65	; 101

000007b8 <wrelease>:
wrelease:
        sbic    _SFR_IO_ADDR(RST_PIN_REG), RST_PIN              ; if((RST_PIN_REG & (1<<RST_PIN)))
     7b8:	4f 99       	sbic	0x09, 7	; 9
        rjmp	no_w200
     7ba:	03 c0       	rjmp	.+6      	; 0x7c2 <no_w200>
#if INHIBIT_SLEEP_MODE
	RCALL	wait5ms		; wait5ms();
     7bc:	80 df       	rcall	.-256    	; 0x6be <wait5ms>
#else
 	ldi	r24,  1
 	RCALL	sleep_5ms	; wait_about5ms();
#endif
        subi	r28, 1		; kk--;
     7be:	c1 50       	subi	r28, 0x01	; 1
        brne	wrelease	; while (kk >= 0)
     7c0:	d9 f7       	brne	.-10     	; 0x7b8 <wrelease>

000007c2 <no_w200>:
no_w200:
	movw	r28,r14		; count_time = max_time
     7c2:	e7 01       	movw	r28, r14
	ldi	r16, 0x55	; key_pressed = 0x55;
     7c4:	05 e5       	ldi	r16, 0x55	; 85
	ldi	r17, 0		; key_cs = 0
     7c6:	10 e0       	ldi	r17, 0x00	; 0

000007c8 <no_cnt>:
 	; wait max_time milliseconds or endless, if zero
no_cnt:
 	sbrc	r29, 7		; while (count_time >= 0) 
     7c8:	d7 fd       	sbrc	r29, 7
        rjmp	to_ret
     7ca:	1b c0       	rjmp	.+54     	; 0x802 <to_ret>

000007cc <wloop>:
wloop:
#if INHIBIT_SLEEP_MODE
	RCALL	wait10ms	; wait10ms();
     7cc:	77 df       	rcall	.-274    	; 0x6bc <wait10ms>
#else
 	ldi	r24, 0x02	; 2
 	RCALL	sleep_5ms	; wait_about10ms();
#endif
        add	r16, r16	; key_pressed += key_pressed; // multiply with 2 is shift to left
     7ce:	00 0f       	add	r16, r16
 	sbis	_SFR_IO_ADDR(RST_PIN_REG), RST_PIN		; if((RST_PIN_REG & (1<<RST_PIN))) {
     7d0:	4f 9b       	sbis	0x09, 7	; 9
        subi	r16, 0xff	; key_pressed++; //append a 1
     7d2:	0f 5f       	subi	r16, 0xFF	; 255
        andi	r16, 0x3f	; key_pressed &= 0x3f;
     7d4:	0f 73       	andi	r16, 0x3F	; 63
	cpi	r16, 0x3f	; if (key_pressed == 0x3f) //63 all bits set
     7d6:	0f 33       	cpi	r16, 0x3F	; 63
        brne	not_pressed
     7d8:	41 f4       	brne	.+16     	; 0x7ea <not_pressed>
	cpse	r17, r1		; if (key_cs == 0)
     7da:	11 11       	cpse	r17, r1
        rjmp	no_first
     7dc:	02 c0       	rjmp	.+4      	; 0x7e2 <no_first>
	movw	r28,r14		; count_time = max_time;
     7de:	e7 01       	movw	r28, r14
	ldi	r17, 4		; key_cs = 4;
     7e0:	14 e0       	ldi	r17, 0x04	; 4

000007e2 <no_first>:
no_first:
	subi	r17, 0xff	; key_cs++;
     7e2:	1f 5f       	subi	r17, 0xFF	; 255
        cpi	r17, MAX_CS	; if (key_cs >= MAX_CS)
     7e4:	16 39       	cpi	r17, 0x96	; 150
	brcs	cnt_loop	;
     7e6:	28 f0       	brcs	.+10     	; 0x7f2 <cnt_loop>
        rjmp	to_ret		;  break;
     7e8:	0c c0       	rjmp	.+24     	; 0x802 <to_ret>

000007ea <not_pressed>:
not_pressed:
	cpse	r16, r1		; if (( key_pressed == 0) &&
     7ea:	01 11       	cpse	r16, r1
        rjmp	cnt_loop
     7ec:	02 c0       	rjmp	.+4      	; 0x7f2 <cnt_loop>
	cpse	r17, r1		;  ( key_cs != 0))
     7ee:	11 11       	cpse	r17, r1
        rjmp	to_ret		; break;
     7f0:	08 c0       	rjmp	.+16     	; 0x802 <to_ret>

000007f2 <cnt_loop>:

cnt_loop:
 	wdr			; wdt_reset();
     7f2:	a8 95       	wdr
 	sbiw	r28, 0x00	; if (count_time > 0) 	// count only, if counter > 0
     7f4:	20 97       	sbiw	r28, 0x00	; 0
 	breq	no_cnt 		; special case zero, don't count
     7f6:	41 f3       	breq	.-48     	; 0x7c8 <no_cnt>
 	sbiw	r28, 0x0a	; count_time -= 10;			// 10 ms are done, count down
     7f8:	2a 97       	sbiw	r28, 0x0a	; 10
 	brne	no_cnt		; if (count_time == 0) count_time = -1;	// never count to zero, zero is endless!
     7fa:	31 f7       	brne	.-52     	; 0x7c8 <no_cnt>
 	ldi	r28, 0xFF	; count_time = -1
     7fc:	cf ef       	ldi	r28, 0xFF	; 255
 	ldi	r29, 0xFF	; 
     7fe:	df ef       	ldi	r29, 0xFF	; 255
	rjmp	no_cnt
     800:	e3 cf       	rjmp	.-58     	; 0x7c8 <no_cnt>

00000802 <to_ret>:
to_ret:
        mov	r24, r17	; return(key_cs)
     802:	81 2f       	mov	r24, r17
 	pop	r29		; restore registers r29:28
     804:	df 91       	pop	r29
 	pop	r28
     806:	cf 91       	pop	r28
	pop	r17
     808:	1f 91       	pop	r17
	pop	r16
     80a:	0f 91       	pop	r16
	pop	r15
     80c:	ff 90       	pop	r15
	pop	r14
     80e:	ef 90       	pop	r14
 	ret
     810:	08 95       	ret

00000812 <wait_for_key_5s_line2>:
 	RCALL	lcd_line4	;              //4. row 
 	RCALL	lcd_clear_line	; lcd_clear_line();	// clear the whole line
 	RCALL	lcd_line4	;              //4. row 
#endif
#else
	push	r28
     812:	cf 93       	push	r28
	RCALL	lcd_save_position
     814:	b8 dc       	rcall	.-1680   	; 0x186 <lcd_save_position>
	mov	r28, r24		; current_line = lcd_save_position()
     816:	c8 2f       	mov	r28, r24
	lds	r24, last_line_used
     818:	80 91 3a 01 	lds	r24, 0x013A
	and	r24, r24
     81c:	88 23       	and	r24, r24
	breq	x83c			; if (last_line_used != 0)
     81e:	d1 f0       	breq	.+52     	; 0x854 <x83c>
	cpi	r24, 1
     820:	81 30       	cpi	r24, 0x01	; 1
        brne	x822
     822:	51 f4       	brne	.+20     	; 0x838 <x822>
	cpi	r28, (LCD_LINES-1)
     824:	c1 30       	cpi	r28, 0x01	; 1
	brne	x822			; if ((last_line_used == 1) &&(current_line == (LCD_LINES-1)))
     826:	41 f4       	brne	.+16     	; 0x838 <x822>
	ldi	r22, (LCD_LINE_LENGTH -1)
     828:	6f e0       	ldi	r22, 0x0F	; 15
	ldi	r24, ((LCD_LINES - 1) * PAGES_PER_LINE)
     82a:	81 e0       	ldi	r24, 0x01	; 1
	rcall	lcd_set_cursor		; lcd_set_cursor(((LCD_LINES - 1) * PAGES_PER_LINE), (LCD_LINE_LENGTH - 1))
     82c:	f8 dc       	rcall	.-1552   	; 0x21e <lcd_set_cursor>
	ldi	r24, '+'		; // add a + sign at the last location of screen
     82e:	8b e2       	ldi	r24, 0x2B	; 43
	rcall	lcd_data		; lcd_data('+')
     830:	b3 dc       	rcall	.-1690   	; 0x198 <lcd_data>
	ldi	r22, (LCD_LINE_LENGTH -1)
     832:	6f e0       	ldi	r22, 0x0F	; 15
	ldi	r24, ((LCD_LINES - 1) * PAGES_PER_LINE)
     834:	81 e0       	ldi	r24, 0x01	; 1
	rcall	lcd_set_cursor		; lcd_set_cursor(((LCD_LINES - 1) * PAGES_PER_LINE), (LCD_LINE_LENGTH - 1))
     836:	f3 dc       	rcall	.-1562   	; 0x21e <lcd_set_cursor>

00000838 <x822>:
	rjmp	x855
	lds	r24, rotary+incre
	cpse	r24, r1
	rjmp	x822
#else
 	ldi	r24, lo8(SHORT_WAIT_TIME)	; 0x88
     838:	80 e4       	ldi	r24, 0x40	; 64
 	ldi	r25, hi8(SHORT_WAIT_TIME)	; 0x13
     83a:	9f e1       	ldi	r25, 0x1F	; 31
        rcall   wait_for_key_ms		;wait_for_key_ms(SHORT_WAIT_TIME);     // wait until time is elapsed or key is pressed
     83c:	b5 df       	rcall	.-150    	; 0x7a8 <wait_for_key_ms>

0000083e <x855>:
#endif
x855:
	cpi	r28, (LCD_LINES - 1)       ; (current_line == (LCD_LINES - 1))
     83e:	c1 30       	cpi	r28, 0x01	; 1
	brne	x83a 
     840:	41 f4       	brne	.+16     	; 0x852 <x83a>
	lds	r24, last_line_used
     842:	80 91 3a 01 	lds	r24, 0x013A
	cpi	r24, 1
     846:	81 30       	cpi	r24, 0x01	; 1
	brne	x83a			; if ((current_line == (LCD_LINES - 1)) && (last_line_used == 1)) 
     848:	21 f4       	brne	.+8      	; 0x852 <x83a>
        ldi	r24, (LCD_LINES - 1)
     84a:	81 e0       	ldi	r24, 0x01	; 1
	ldi	r22, 0x00       ; 0
     84c:	60 e0       	ldi	r22, 0x00	; 0
        rcall   lcd_set_cursor		; lcd_set_cursor((LCD_LINES-1) * PAGES_PER_LINE,0)
     84e:	e7 dc       	rcall	.-1586   	; 0x21e <lcd_set_cursor>
	rcall	lcd_clear_line
     850:	65 dd       	rcall	.-1334   	; 0x31c <lcd_clear_line>

00000852 <x83a>:
x83a:
	rcall   lcd_restore_position
     852:	ee dc       	rcall	.-1572   	; 0x230 <lcd_restore_position>

00000854 <x83c>:
x83c:
	pop	r28
     854:	cf 91       	pop	r28

#endif
 	ret
     856:	08 95       	ret

00000858 <RefVoltage>:
 

RefVoltage:

#ifdef AUTO_CAL
 	ldi	r24, lo8(ref_offset)	; 1
     858:	87 ed       	ldi	r24, 0xD7	; 215
 	ldi	r25, hi8(ref_offset)	; 0
     85a:	91 e0       	ldi	r25, 0x01	; 1
;; 	ACALL	eeprom_read_word	; eeprom_read_word((uint16_t *)(&ref_offset));
;; 	lds	r18, ref_mv
;; 	lds	r19, ref_mv+1
;; 	add	r18, r24		; referenz =  ref_mv +
;; 	adc	r19, r25
	ACALL	eeprom_read_byte	; eeprom_read_word((uint16_t *)(&ref_offset)); done as two read_byte
     85c:	0e 94 04 1f 	call	0x3e08	; 0x3e08 <__eerd_byte_m168>
	mov	r19, r24
     860:	38 2f       	mov	r19, r24
	ldi	r24, lo8(ref_offset+1)
     862:	88 ed       	ldi	r24, 0xD8	; 216
	ldi	r25, hi8(ref_offset+1)
     864:	91 e0       	ldi	r25, 0x01	; 1
	ACALL	eeprom_read_byte
     866:	0e 94 04 1f 	call	0x3e08	; 0x3e08 <__eerd_byte_m168>
 	lds	r18, ref_mv
     86a:	20 91 2f 01 	lds	r18, 0x012F
	add	r18, r19
     86e:	23 0f       	add	r18, r19
 	lds	r19, ref_mv+1
     870:	30 91 30 01 	lds	r19, 0x0130
	adc	r19, r24
     874:	38 1f       	adc	r19, r24
	lds	r18, ref_mv
	lds	r19, ref_mv+1
	subi	r18, -REF_C_KORR		; referenz = ref_mv + REF_C_KORR;
	adc	r19, zero_reg
#endif
        sts	ref_mv_offs, r18
     876:	20 93 12 01 	sts	0x0112, r18
        sts	ref_mv_offs+1, r19
     87a:	30 93 13 01 	sts	0x0113, r19

#ifdef AUTO_RH 
 	ldi	r24, hi8(Ref_Tab_Beginn)	; 3
     87e:	83 e0       	ldi	r24, 0x03	; 3
 	cpi	r18, lo8(Ref_Tab_Beginn)	; 232
     880:	28 3e       	cpi	r18, 0xE8	; 232
 	cpc	r19, r24
     882:	38 07       	cpc	r19, r24
 	brcs	ad210e 				; if (referenz >= Ref_Tab_Beginn) 
     884:	20 f0       	brcs	.+8      	; 0x88e <ad210e>
 	movw	r24, r18
     886:	c9 01       	movw	r24, r18
 	subi	r24, lo8(Ref_Tab_Beginn)	; 232 referenz -= Ref_Tab_Beginn;
     888:	88 5e       	subi	r24, 0xE8	; 232
 	sbci	r25, hi8(Ref_Tab_Beginn)	; 3
     88a:	93 40       	sbci	r25, 0x03	; 3
 	rjmp	ad2112 
     88c:	02 c0       	rjmp	.+4      	; 0x892 <ad2112>

0000088e <ad210e>:
ad210e:
 	ldi	r24, 0x00	; referenz = 0;		// limit to begin of table
     88e:	80 e0       	ldi	r24, 0x00	; 0
 	ldi	r25, 0x00	; 0
     890:	90 e0       	ldi	r25, 0x00	; 0

00000892 <ad2112>:
ad2112:
 	ldi	r22, lo8(Ref_Tab_Abstand)	; 50 tabind = referenz / Ref_Tab_Abstand;
     892:	62 e3       	ldi	r22, 0x32	; 50
 	ldi	r23, hi8(Ref_Tab_Abstand)	; 0
     894:	70 e0       	ldi	r23, 0x00	; 0
 	ACALL	__udivmodhi4
     896:	0e 94 67 1e 	call	0x3cce	; 0x3cce <__udivmodhi4>
;  r22 = tabind = referenz / Ref_Tab_Abstand;
;  r24 =  tabres = referenz % Ref_Tab_Abstand;
 	cpi	r22, 0x08	; if (tabind > 7) 
     89a:	68 30       	cpi	r22, 0x08	; 8
 	brcs	ad2120 
     89c:	08 f0       	brcs	.+2      	; 0x8a0 <ad2120>
 	ldi	r22, 0x07	; tabind = 7;		// limit to end of table
     89e:	67 e0       	ldi	r22, 0x07	; 7

000008a0 <ad2120>:
ad2120:
; // interpolate the table of factors

	LDIZ	RHtab
     8a0:	e4 e9       	ldi	r30, 0x94	; 148
     8a2:	f0 e0       	ldi	r31, 0x00	; 0
	add	r30, r22
     8a4:	e6 0f       	add	r30, r22
	adc	r31, zero_reg
     8a6:	f1 1d       	adc	r31, r1
	add	r30, r22
     8a8:	e6 0f       	add	r30, r22
	adc	r31, zero_reg
     8aa:	f1 1d       	adc	r31, r1

 	lpm	r20, Z+		; y1 = pgm_read_word(&RHtab[tabind]);
     8ac:	45 91       	lpm	r20, Z+
 	lpm	r21, Z+
     8ae:	55 91       	lpm	r21, Z+
 	lpm	r18, Z+		; y2 = pgm_read_word(&RHtab[tabind+1]);
     8b0:	25 91       	lpm	r18, Z+
 	lpm	r19, Z+
     8b2:	35 91       	lpm	r19, Z+
 	ldi	r22, Ref_Tab_Abstand	; 50
     8b4:	62 e3       	ldi	r22, 0x32	; 50
 	sub	r22, r24		; tabres = Ref_Tab_Abstand-tabres;
     8b6:	68 1b       	sub	r22, r24
;  // interpolate the table of factors
;  // RHmultip is the interpolated factor to compute capacity from load time with 470k
;; 	ldi	r23, 0x00	; 0
 	sub	r20, r18	; y1 - y2
     8b8:	42 1b       	sub	r20, r18
 #if FLASHEND > 0x1fff
	sbc	r21, r19	; hi8(y1 - y2) is usually allway zero
     8ba:	53 0b       	sbc	r21, r19
 #endif
 	mul	r22, r20	; lo8(tabres) * lo8(y1-y2)
     8bc:	64 9f       	mul	r22, r20
 	movw	r24, r0		; r24:25 = *
     8be:	c0 01       	movw	r24, r0
 #if FLASHEND > 0x1fff
 	mul	r22, r21	; lo8(tabres) * hi8(y1-y2)
     8c0:	65 9f       	mul	r22, r21
 	add	r25, r0		; r25 + lo8(*)
     8c2:	90 0d       	add	r25, r0
 #endif
;; 	mul	r23, r20	; hi8(tabres) * lo8(y1*y2) , allways zero
;; 	add	r25, r0		; r25 + lo8(*)

 	eor	r1, r1
     8c4:	11 24       	eor	r1, r1
 	adiw	r24, (Ref_Tab_Abstand/2)	; 25
     8c6:	49 96       	adiw	r24, 0x19	; 25
 	ldi	r22, lo8(Ref_Tab_Abstand)	; 50
     8c8:	62 e3       	ldi	r22, 0x32	; 50
 	ldi	r23, hi8(Ref_Tab_Abstand)	; 0
     8ca:	70 e0       	ldi	r23, 0x00	; 0
 	ACALL	__udivmodhi4	; ((y1 - y2) * tabres + (Ref_Tab_Abstand/2)) / Ref_Tab_Abstand 
     8cc:	0e 94 67 1e 	call	0x3cce	; 0x3cce <__udivmodhi4>
 	add	r22, r18	; + y2
     8d0:	62 0f       	add	r22, r18
 	adc	r23, r19
     8d2:	73 1f       	adc	r23, r19
 	sts	RHmultip+1, r23
     8d4:	70 93 67 01 	sts	0x0167, r23
 	sts	RHmultip, r22
     8d8:	60 93 66 01 	sts	0x0166, r22
	ldi	r23, hi8(DEFAULT_RH_FAKT)
 	sts	RHmultip, r22
 	sts	RHmultip+1, r23
#endif 
#ifdef AUTO_CAL
	ldi	r24, lo8(RefDiff)
     8dc:	89 ed       	ldi	r24, 0xD9	; 217
	ldi	r25, hi8(RefDiff)
     8de:	91 e0       	ldi	r25, 0x01	; 1
	ACALL	eeprom_read_byte	; (int8_t)eeprom_read_byte((uint8_t *)&RefDiff));
     8e0:	0e 94 04 1f 	call	0x3e08	; 0x3e08 <__eerd_byte_m168>
	eor	r25, r25		; set zero for sign extend
     8e4:	99 27       	eor	r25, r25
        sbrc	r24, 7			; minus?
     8e6:	87 fd       	sbrc	r24, 7
	com	r25			; yes, set to 0xff
     8e8:	90 95       	com	r25
        lds	r22, ref_mv		; ADCconfig.U_Bandgap = (ref_mv + (int8_t)eeprom_read_byte((uint8_t *)&RefDiff));
     8ea:	60 91 2f 01 	lds	r22, 0x012F
        lds	r23, ref_mv+1
     8ee:	70 91 30 01 	lds	r23, 0x0130
	add	r24, r22
     8f2:	86 0f       	add	r24, r22
	adc	r25, r23
     8f4:	97 1f       	adc	r25, r23
        lds	r25, ref_mv+1
	add	r24, r22
        adc	r25, r23
#endif
#define U_Bandgap 2
        sts	ADCconfig+U_Bandgap+1, r25
     8f6:	90 93 2a 01 	sts	0x012A, r25
        sts	ADCconfig+U_Bandgap, r24
     8fa:	80 93 29 01 	sts	0x0129, r24
	sts	adc_internal_reference+1, r25		; adc_internal_reference = ADCconfig.U_Bandgap;
     8fe:	90 93 64 01 	sts	0x0164, r25
	sts	adc_internal_reference, r24
     902:	80 93 63 01 	sts	0x0163, r24


 	ret
     906:	08 95       	ret

00000908 <get_log>:
 .section .text

; // get_log interpolate a table with the function -1000*log(1 - (permil/1000))
; uint16_t get_log(uint16_t permil) {
get_log:
 	push	r28
     908:	cf 93       	push	r28
 	push	r29
     90a:	df 93       	push	r29

 	ldi	r18, lo8(Log_Tab_Distance)	;0x14
     90c:	24 e1       	ldi	r18, 0x14	; 20
 	ldi	r19, hi8(Log_Tab_Distance)	;0x00	
     90e:	30 e0       	ldi	r19, 0x00	; 0
 	movw	r22, r18
     910:	b9 01       	movw	r22, r18
 	call	__udivmodhi4		; tabind = permil / Log_Tab_Distance;	// index to table
     912:	0e 94 67 1e 	call	0x3cce	; 0x3cce <__udivmodhi4>
 	movw	r26, r24
     916:	dc 01       	movw	r26, r24
;  r26:27 = tabres = permil % Log_Tab_Distance;	// fraction of table distance
;  // interpolate the table of factors
;  y1 = pgm_read_word(&LogTab[tabind]);	// get the lower table value
	LDIZ	LogTab;
     918:	e6 ea       	ldi	r30, 0xA6	; 166
     91a:	f0 e0       	ldi	r31, 0x00	; 0
        add	r30, r22
     91c:	e6 0f       	add	r30, r22
        adc	r31, r23
     91e:	f7 1f       	adc	r31, r23
        add	r30, r22
     920:	e6 0f       	add	r30, r22
	adc	r31, r23	; &LogTab[tabind]
     922:	f7 1f       	adc	r31, r23
 	lpm	r28, Z+		; y1 = pgm_read_word(&LogTab[tabind]);	// get the lower table value
     924:	c5 91       	lpm	r28, Z+
 	lpm	r29, Z+
     926:	d5 91       	lpm	r29, Z+
 	lpm	r20, Z+		; y2 = pgm_read_word(&LogTab[tabind+1]); // get the higher table value
     928:	45 91       	lpm	r20, Z+
 	lpm	r21, Z+
     92a:	55 91       	lpm	r21, Z+
;  result = ((y2 - y1) * tabres ) / Log_Tab_Distance + y1; // interpolate
 	sub	r20, r28	;  (y2 - y1) 
     92c:	4c 1b       	sub	r20, r28
;;	sbc	r21, r29	;  hi8(y2 - y1) is allways zero
 	mul	r20, r26	; * tabres   (maximum 19)
     92e:	4a 9f       	mul	r20, r26
 	movw	r24, r0		;  r24:25 =  ((y2 - y1) * tabres )
     930:	c0 01       	movw	r24, r0
;;	mul	r20, r27	; hi8(tabres) allways zero
;;	add	r25, r0
;;	mul	r21, r26	; hi8(y2 - Y1) always zero
;;	add	r25, r0
 	eor	r1, r1
     932:	11 24       	eor	r1, r1
 	movw	r22, r18	; Log_Tab_Distance
     934:	b9 01       	movw	r22, r18
 	call	__udivmodhi4	;   ((y2 - y1) * tabres ) / Log_Tab_Distance
     936:	0e 94 67 1e 	call	0x3cce	; 0x3cce <__udivmodhi4>
 	add	r22, r28	;  result = ((y2 - y1) * tabres ) / Log_Tab_Distance + y1; // interpolate
     93a:	6c 0f       	add	r22, r28
 	adc	r23, r29
     93c:	7d 1f       	adc	r23, r29
 	movw	r24, r22	; return(result);
     93e:	cb 01       	movw	r24, r22
 	pop	r29
     940:	df 91       	pop	r29
 	pop	r28
     942:	cf 91       	pop	r28
 	ret
     944:	08 95       	ret

00000946 <init_parts>:

}   // end main

/* init_parts initialize all parts to nothing found */
void init_parts(void) {
  PartFound = PART_NONE;	// no part found
     946:	10 92 16 01 	sts	0x0116, r1
  NumOfDiodes = 0;		// Number of diodes = 0
     94a:	10 92 14 01 	sts	0x0114, r1
  ptrans.count = 0;		// Number of found P type transistors
     94e:	10 92 62 01 	sts	0x0162, r1
  ntrans.count = 0;		// Number of found N type transistors
     952:	10 92 4a 01 	sts	0x014A, r1
  PartMode = PART_MODE_NONE;
     956:	10 92 15 01 	sts	0x0115, r1
  WithReference = 0;		// no precision reference voltage
     95a:	10 92 36 01 	sts	0x0136, r1
  ResistorsFound = 0;		// no resistors found
     95e:	10 92 65 01 	sts	0x0165, r1
  ResistorChecked[0] = 0;
     962:	10 92 4d 01 	sts	0x014D, r1
  ResistorChecked[1] = 0;
     966:	10 92 4e 01 	sts	0x014E, r1
  ResistorChecked[2] = 0;
     96a:	10 92 4f 01 	sts	0x014F, r1
  cap.ca = TP1;
     96e:	10 92 78 01 	sts	0x0178, r1
  cap.cb = TP3;
     972:	82 e0       	ldi	r24, 0x02	; 2
     974:	80 93 79 01 	sts	0x0179, r24
#if FLASHEND > 0x1fff
  inductor_lpre = 0;		// mark as zero
     978:	10 92 01 01 	sts	0x0101, r1
  cap.v_loss = 0;		// set Vloss to zero
     97c:	10 92 77 01 	sts	0x0177, r1
     980:	10 92 76 01 	sts	0x0176, r1
#endif
  cap.cval_max = 0;		// set max to zero
     984:	10 92 6c 01 	sts	0x016C, r1
     988:	10 92 6d 01 	sts	0x016D, r1
     98c:	10 92 6e 01 	sts	0x016E, r1
     990:	10 92 6f 01 	sts	0x016F, r1
  cap.cpre_max = -15;	// set max to fF unit
     994:	81 ef       	ldi	r24, 0xF1	; 241
     996:	80 93 7b 01 	sts	0x017B, r24
     99a:	08 95       	ret

0000099c <ShortedProbes>:
 *  - 0 if not shorted
 *  - 1 if shorted
 */

uint8_t ShortedProbes(uint8_t Probe1, uint8_t Probe2)
{
     99c:	a1 e0       	ldi	r26, 0x01	; 1
     99e:	b0 e0       	ldi	r27, 0x00	; 0
     9a0:	e4 ed       	ldi	r30, 0xD4	; 212
     9a2:	f4 e0       	ldi	r31, 0x04	; 4
     9a4:	0c 94 c7 1e 	jmp	0x3d8e	; 0x3d8e <__prologue_saves__+0x1c>
   *  Set up a voltage divider between the two probes:
   *  - Probe1: Rl pull-up
   *  - Probe2: Rl pull-down
   */

  ADC_DDR =  TXD_MSK;		// all-Pins to Input
     9a8:	17 b8       	out	0x07, r1	; 7
  ADC_PORT = TXD_VAL;		// all ADC-Ports to GND
     9aa:	18 b8       	out	0x08, r1	; 8
  addr = &PinRLRHADCtab[Probe1];
     9ac:	e8 2f       	mov	r30, r24
     9ae:	f0 e0       	ldi	r31, 0x00	; 0
     9b0:	e2 58       	subi	r30, 0x82	; 130
     9b2:	ff 4f       	sbci	r31, 0xFF	; 255
  pp = pgm_read_byte(addr);
     9b4:	94 91       	lpm	r25, Z
  R_PORT = pp;
     9b6:	95 b9       	out	0x05, r25	; 5
  addr += (int8_t)(Probe2-Probe1);
     9b8:	26 2f       	mov	r18, r22
     9ba:	28 1b       	sub	r18, r24
     9bc:	e2 0f       	add	r30, r18
     9be:	f1 1d       	adc	r31, r1
     9c0:	27 fd       	sbrc	r18, 7
     9c2:	fa 95       	dec	r31
  R_DDR =  pp | pgm_read_byte(addr);	// pgm_read_byte(PinRHtab[Probe1]) | pgm_read_byte(PinRLtab[Probe2]);
     9c4:	e4 91       	lpm	r30, Z
     9c6:	e9 2b       	or	r30, r25
     9c8:	e4 b9       	out	0x04, r30	; 4

  /* read voltages */
  U1 = ReadADC(Probe1);
     9ca:	69 83       	std	Y+1, r22	; 0x01
     9cc:	91 de       	rcall	.-734    	; 0x6f0 <ReadADC>
     9ce:	8c 01       	movw	r16, r24
     9d0:	69 81       	ldd	r22, Y+1	; 0x01
  U2 = ReadADC(Probe2);
     9d2:	86 2f       	mov	r24, r22
     9d4:	8d de       	rcall	.-742    	; 0x6f0 <ReadADC>
     9d6:	20 91 2b 01 	lds	r18, 0x012B
   */
 #ifndef MAX_UH_DIFF
  #define MAX_UH_DIFF 30
 #endif

  URH = ADCconfig.U_AVCC / 2;
     9da:	30 91 2c 01 	lds	r19, 0x012C
     9de:	36 95       	lsr	r19
     9e0:	27 95       	ror	r18
     9e2:	a9 01       	movw	r20, r18
     9e4:	44 50       	subi	r20, 0x04	; 4
  URH -= ((long)U_VCC * (long)(PIN_RP-PIN_RM)) / (4*(unsigned long)(R_L_VAL+PIN_RM));			// differenz of Pin resistance high (22) and low (20)
     9e6:	51 09       	sbc	r21, r1
     9e8:	b8 01       	movw	r22, r16
     9ea:	62 5e       	subi	r22, 0xE2	; 226
  if (((U1 + MAX_UH_DIFF) > URH ) && (U1 < (URH + MAX_UH_DIFF)))
     9ec:	7f 4f       	sbci	r23, 0xFF	; 255
     9ee:	46 17       	cp	r20, r22
     9f0:	57 07       	cpc	r21, r23
     9f2:	78 f4       	brcc	.+30     	; 0xa12 <ShortedProbes+0x76>
     9f4:	26 5e       	subi	r18, 0xE6	; 230
     9f6:	3f 4f       	sbci	r19, 0xFF	; 255
     9f8:	02 17       	cp	r16, r18
     9fa:	13 07       	cpc	r17, r19
     9fc:	50 f4       	brcc	.+20     	; 0xa12 <ShortedProbes+0x76>
     9fe:	bc 01       	movw	r22, r24
     a00:	62 5e       	subi	r22, 0xE2	; 226
  {
    if (((U2 + MAX_UH_DIFF) > URH) && (U2 < (URH + MAX_UH_DIFF)))
     a02:	7f 4f       	sbci	r23, 0xFF	; 255
     a04:	46 17       	cp	r20, r22
     a06:	57 07       	cpc	r21, r23
     a08:	20 f4       	brcc	.+8      	; 0xa12 <ShortedProbes+0x76>
     a0a:	41 e0       	ldi	r20, 0x01	; 1
     a0c:	82 17       	cp	r24, r18
     a0e:	93 07       	cpc	r25, r19
     a10:	08 f0       	brcs	.+2      	; 0xa14 <ShortedProbes+0x78>
     a12:	40 e0       	ldi	r20, 0x00	; 0
     a14:	14 b8       	out	0x04, r1	; 4
 *  - 1 if shorted
 */

uint8_t ShortedProbes(uint8_t Probe1, uint8_t Probe2)
{
  uint8_t           Flag1 = 0;      /* return value */
     a16:	84 2f       	mov	r24, r20
      Flag1 = 1;
    }
  }

  /* reset port */
  R_DDR = 0;
     a18:	21 96       	adiw	r28, 0x01	; 1

  return Flag1;
}
     a1a:	e4 e0       	ldi	r30, 0x04	; 4
     a1c:	0c 94 e3 1e 	jmp	0x3dc6	; 0x3dc6 <__epilogue_restores__+0x1c>

00000a20 <AllProbesShorted>:
     a20:	cf 93       	push	r28
     a22:	61 e0       	ldi	r22, 0x01	; 1
 *  - 0 if no probes are short-circuited
 *  - number of probe pairs short-circuited (3 = all)
 */

uint8_t AllProbesShorted(void)
{
     a24:	80 e0       	ldi	r24, 0x00	; 0
  uint8_t           Flag2;      /* return value */

  /* check all possible combinations */
  Flag2 = ShortedProbes(TP1, TP2);
     a26:	ba df       	rcall	.-140    	; 0x99c <ShortedProbes>
     a28:	c8 2f       	mov	r28, r24
     a2a:	62 e0       	ldi	r22, 0x02	; 2
     a2c:	80 e0       	ldi	r24, 0x00	; 0
     a2e:	b6 df       	rcall	.-148    	; 0x99c <ShortedProbes>
  Flag2 += ShortedProbes(TP1, TP3);
     a30:	c8 0f       	add	r28, r24
     a32:	62 e0       	ldi	r22, 0x02	; 2
     a34:	81 e0       	ldi	r24, 0x01	; 1
     a36:	b2 df       	rcall	.-156    	; 0x99c <ShortedProbes>
     a38:	8c 0f       	add	r24, r28
  Flag2 += ShortedProbes(TP2, TP3);
     a3a:	cf 91       	pop	r28
     a3c:	08 95       	ret

00000a3e <AutoCheck>:
     a3e:	ae e0       	ldi	r26, 0x0E	; 14
     a40:	b0 e0       	ldi	r27, 0x00	; 0

  return Flag2;
}
     a42:	e5 e2       	ldi	r30, 0x25	; 37
     a44:	f5 e0       	ldi	r31, 0x05	; 5
     a46:	0c 94 bf 1e 	jmp	0x3d7e	; 0x3d7e <__prologue_saves__+0xc>
// Selftest of the device and calibration 
#ifdef WITH_SELFTEST
void AutoCheck(uint8_t test_mode) {
     a4a:	10 92 16 01 	sts	0x0116, r1
     a4e:	80 7f       	andi	r24, 0xF0	; 240
     a50:	29 f0       	breq	.+10     	; 0xa5c <AutoCheck+0x1e>
     a52:	f3 db       	rcall	.-2074   	; 0x23a <lcd_clear>
  #ifdef AUTOSCALE_ADC
int8_t udiff;		// difference between ADC Voltage with VCC or Bandgap reference
int8_t udiff2;
  #endif
 #endif
PartFound = PART_NONE;		// no part found before
     a54:	8d e4       	ldi	r24, 0x4D	; 77
     a56:	90 e0       	ldi	r25, 0x00	; 0
if ((test_mode & 0xf0) == 0) {
     a58:	0d dc       	rcall	.-2022   	; 0x274 <lcd_fix_string>
     a5a:	1a c2       	rjmp	.+1076   	; 0xe90 <AutoCheck+0x452>
  if (tt < 150) goto begin_selftest;		// is shorted before time limit
  goto no_zero_resistance;			// skip measuring of the zero resistance
 #endif
}
// no key pressed for 2s
lcd_clear();
     a5c:	e1 df       	rcall	.-62     	; 0xa20 <AllProbesShorted>
     a5e:	83 30       	cpi	r24, 0x03	; 3
lcd_MEM_string(VERSION_str);	//"Version ..."
     a60:	09 f0       	breq	.+2      	; 0xa64 <AutoCheck+0x26>
     a62:	16 c2       	rjmp	.+1068   	; 0xe90 <AutoCheck+0x452>
     a64:	ea db       	rcall	.-2092   	; 0x23a <lcd_clear>
     a66:	80 e0       	ldi	r24, 0x00	; 0
return;
     a68:	91 e0       	ldi	r25, 0x01	; 1
  #endif
 #endif
PartFound = PART_NONE;		// no part found before
if ((test_mode & 0xf0) == 0) {
  // probed should be shorted already to begin selftest
  if (AllProbesShorted() != 3) return;
     a6a:	04 dc       	rcall	.-2040   	; 0x274 <lcd_fix_string>
     a6c:	c0 db       	rcall	.-2176   	; 0x1ee <lcd_line2>
     a6e:	8f e3       	ldi	r24, 0x3F	; 63
     a70:	93 db       	rcall	.-2266   	; 0x198 <lcd_data>
     a72:	80 ed       	ldi	r24, 0xD0	; 208
  lcd_clear();
     a74:	97 e0       	ldi	r25, 0x07	; 7
     a76:	98 de       	rcall	.-720    	; 0x7a8 <wait_for_key_ms>
  lcd_MEM_string(SELFTEST);		// "Selftest mode.."
     a78:	8b 30       	cpi	r24, 0x0B	; 11
     a7a:	58 f3       	brcs	.-42     	; 0xa52 <AutoCheck+0x14>
     a7c:	b8 db       	rcall	.-2192   	; 0x1ee <lcd_line2>
     a7e:	0e 94 16 13 	call	0x262c	; 0x262c <Calibrate_UR>
  lcd_line2();
     a82:	84 e8       	ldi	r24, 0x84	; 132
  lcd_data('?');			// wait for key pressed for confirmation
     a84:	90 e0       	ldi	r25, 0x00	; 0
     a86:	e8 db       	rcall	.-2096   	; 0x258 <lcd_pgm_string>
     a88:	60 e0       	ldi	r22, 0x00	; 0
  if (wait_for_key_ms(2000) > 10) goto begin_selftest;	// key is pressed again
     a8a:	8e ec       	ldi	r24, 0xCE	; 206
     a8c:	91 e0       	ldi	r25, 0x01	; 1
     a8e:	0e 94 0c 1f 	call	0x3e18	; 0x3e18 <__eewr_byte_m168>
     a92:	60 e0       	ldi	r22, 0x00	; 0
     a94:	8f ec       	ldi	r24, 0xCF	; 207
lcd_clear();
lcd_MEM_string(VERSION_str);	//"Version ..."
return;

begin_selftest:
lcd_line2();
     a96:	91 e0       	ldi	r25, 0x01	; 1
     a98:	0e 94 0c 1f 	call	0x3e18	; 0x3e18 <__eewr_byte_m168>
Calibrate_UR();		// get Reference voltage, Pin resistance
     a9c:	60 e0       	ldi	r22, 0x00	; 0
lcd_MEM2_string(R0_str);		// "R0="
     a9e:	8d ec       	ldi	r24, 0xCD	; 205
     aa0:	91 e0       	ldi	r25, 0x01	; 1
     aa2:	0e 94 0c 1f 	call	0x3e18	; 0x3e18 <__eewr_byte_m168>
eeprom_write_byte((uint8_t *)(&EE_ESR_ZEROtab[2]), (uint8_t)0);	// clear zero offset
     aa6:	60 e0       	ldi	r22, 0x00	; 0
     aa8:	82 e0       	ldi	r24, 0x02	; 2
     aaa:	0e 94 e2 16 	call	0x2dc4	; 0x2dc4 <GetESR>
     aae:	6c 01       	movw	r12, r24
eeprom_write_byte((uint8_t *)(&EE_ESR_ZEROtab[3]), (uint8_t)0);	// clear zero offset
     ab0:	9a 83       	std	Y+2, r25	; 0x02
     ab2:	89 83       	std	Y+1, r24	; 0x01
     ab4:	61 e0       	ldi	r22, 0x01	; 1
     ab6:	82 e0       	ldi	r24, 0x02	; 2
     ab8:	0e 94 e2 16 	call	0x2dc4	; 0x2dc4 <GetESR>
eeprom_write_byte((uint8_t *)(&EE_ESR_ZEROtab[1]), (uint8_t)0);	// clear zero offset
     abc:	7c 01       	movw	r14, r24
     abe:	9c 83       	std	Y+4, r25	; 0x04
     ac0:	8b 83       	std	Y+3, r24	; 0x03
     ac2:	60 e0       	ldi	r22, 0x00	; 0

adcmv[0] = GetESR(TP3, TP1);
     ac4:	81 e0       	ldi	r24, 0x01	; 1
     ac6:	0e 94 e2 16 	call	0x2dc4	; 0x2dc4 <GetESR>
     aca:	8c 01       	movw	r16, r24
     acc:	9e 83       	std	Y+6, r25	; 0x06
     ace:	8d 83       	std	Y+5, r24	; 0x05
     ad0:	23 e0       	ldi	r18, 0x03	; 3
adcmv[1] = GetESR(TP3, TP2);
     ad2:	40 e2       	ldi	r20, 0x20	; 32
     ad4:	6e ef       	ldi	r22, 0xFE	; 254
     ad6:	c6 01       	movw	r24, r12
     ad8:	cd dd       	rcall	.-1126   	; 0x674 <DisplayValue16>
     ada:	23 e0       	ldi	r18, 0x03	; 3
     adc:	40 e2       	ldi	r20, 0x20	; 32
     ade:	6e ef       	ldi	r22, 0xFE	; 254
adcmv[2] = GetESR(TP2, TP1);
     ae0:	c7 01       	movw	r24, r14
     ae2:	c8 dd       	rcall	.-1136   	; 0x674 <DisplayValue16>
     ae4:	23 e0       	ldi	r18, 0x03	; 3
     ae6:	44 ef       	ldi	r20, 0xF4	; 244
     ae8:	6e ef       	ldi	r22, 0xFE	; 254
     aea:	c8 01       	movw	r24, r16
     aec:	c3 dd       	rcall	.-1146   	; 0x674 <DisplayValue16>
DisplayValue16(adcmv[0],-2,' ',3);
     aee:	2a e5       	ldi	r18, 0x5A	; 90
     af0:	c2 16       	cp	r12, r18
     af2:	d1 04       	cpc	r13, r1
     af4:	24 f0       	brlt	.+8      	; 0xafe <AutoCheck+0xc0>
     af6:	84 e1       	ldi	r24, 0x14	; 20
     af8:	90 e0       	ldi	r25, 0x00	; 0
DisplayValue16(adcmv[1],-2,' ',3);
     afa:	9a 83       	std	Y+2, r25	; 0x02
     afc:	89 83       	std	Y+1, r24	; 0x01
     afe:	69 81       	ldd	r22, Y+1	; 0x01
     b00:	8e ec       	ldi	r24, 0xCE	; 206
     b02:	91 e0       	ldi	r25, 0x01	; 1
     b04:	0e 94 0c 1f 	call	0x3e18	; 0x3e18 <__eewr_byte_m168>
DisplayValue16(adcmv[2],-2,LCD_CHAR_OMEGA,3);
     b08:	8a e5       	ldi	r24, 0x5A	; 90
     b0a:	e8 16       	cp	r14, r24
     b0c:	f1 04       	cpc	r15, r1
     b0e:	24 f0       	brlt	.+8      	; 0xb18 <AutoCheck+0xda>
     b10:	84 e1       	ldi	r24, 0x14	; 20
if (adcmv[0] >= 90) {
     b12:	90 e0       	ldi	r25, 0x00	; 0
     b14:	9c 83       	std	Y+4, r25	; 0x04
     b16:	8b 83       	std	Y+3, r24	; 0x03
     b18:	6b 81       	ldd	r22, Y+3	; 0x03
  adcmv[0] = ESR_ZERO;	// set back to default value
     b1a:	8f ec       	ldi	r24, 0xCF	; 207
     b1c:	91 e0       	ldi	r25, 0x01	; 1
     b1e:	0e 94 0c 1f 	call	0x3e18	; 0x3e18 <__eewr_byte_m168>
}
eeprom_write_byte((uint8_t *)(&EE_ESR_ZEROtab[2]), (uint8_t)adcmv[0]);	// fix zero offset
     b22:	0a 35       	cpi	r16, 0x5A	; 90
     b24:	11 05       	cpc	r17, r1
     b26:	24 f0       	brlt	.+8      	; 0xb30 <AutoCheck+0xf2>
     b28:	84 e1       	ldi	r24, 0x14	; 20
     b2a:	90 e0       	ldi	r25, 0x00	; 0
if (adcmv[1] >= 90) {
     b2c:	9e 83       	std	Y+6, r25	; 0x06
     b2e:	8d 83       	std	Y+5, r24	; 0x05
     b30:	6d 81       	ldd	r22, Y+5	; 0x05
     b32:	8d ec       	ldi	r24, 0xCD	; 205
  adcmv[1] = ESR_ZERO;	// set back to default value
     b34:	91 e0       	ldi	r25, 0x01	; 1
     b36:	0e 94 0c 1f 	call	0x3e18	; 0x3e18 <__eewr_byte_m168>
     b3a:	82 e0       	ldi	r24, 0x02	; 2
}
eeprom_write_byte((uint8_t *)(&EE_ESR_ZEROtab[3]), (uint8_t)adcmv[1]);	// fix zero offset
     b3c:	80 93 3a 01 	sts	0x013A, r24
     b40:	68 de       	rcall	.-816    	; 0x812 <wait_for_key_5s_line2>
     b42:	18 e7       	ldi	r17, 0x78	; 120
     b44:	6d df       	rcall	.-294    	; 0xa20 <AllProbesShorted>
if (adcmv[2] >= 90) {
     b46:	81 11       	cpse	r24, r1
     b48:	6e c0       	rjmp	.+220    	; 0xc26 <AutoCheck+0x1e8>
     b4a:	77 db       	rcall	.-2322   	; 0x23a <lcd_clear>
  adcmv[2] = ESR_ZERO;	// set back to default value
     b4c:	86 e4       	ldi	r24, 0x46	; 70
     b4e:	90 e0       	ldi	r25, 0x00	; 0
     b50:	91 db       	rcall	.-2270   	; 0x274 <lcd_fix_string>
     b52:	23 e0       	ldi	r18, 0x03	; 3
}
eeprom_write_byte((uint8_t *)(&EE_ESR_ZEROtab[1]), (uint8_t)adcmv[2]);	// fix zero offset
     b54:	44 ef       	ldi	r20, 0xF4	; 244
     b56:	6f ef       	ldi	r22, 0xFF	; 255
     b58:	80 91 2d 01 	lds	r24, 0x012D
     b5c:	90 91 2e 01 	lds	r25, 0x012E
last_line_used = 2;
     b60:	89 dd       	rcall	.-1262   	; 0x674 <DisplayValue16>
     b62:	45 db       	rcall	.-2422   	; 0x1ee <lcd_line2>
wait_for_key_5s_line2();		// wait up to 5 seconds and clear line 2
     b64:	8f e3       	ldi	r24, 0x3F	; 63
     b66:	90 e0       	ldi	r25, 0x00	; 0
     b68:	85 db       	rcall	.-2294   	; 0x274 <lcd_fix_string>
}	/* end if((test_mode & 0x0f) == 1) */
 #endif		/* end EXTENDED_TESTS */

for (ww=0;ww<120;ww++) {
  // wait up to 1 minute for releasing the probes
  if (AllProbesShorted() == 0) break;
     b6a:	23 e0       	ldi	r18, 0x03	; 3
     b6c:	44 ef       	ldi	r20, 0xF4	; 244
     b6e:	6f ef       	ldi	r22, 0xFF	; 255
     b70:	80 91 34 01 	lds	r24, 0x0134
  wait_about500ms();
}



lcd_clear();
     b74:	90 91 35 01 	lds	r25, 0x0135
lcd_MEM_string(RIHI_str);	// "RiHi="
     b78:	7d dd       	rcall	.-1286   	; 0x674 <DisplayValue16>
     b7a:	82 e0       	ldi	r24, 0x02	; 2
     b7c:	80 93 3a 01 	sts	0x013A, r24
DisplayValue16(RRpinPL,-1,LCD_CHAR_OMEGA,3);
     b80:	48 de       	rcall	.-880    	; 0x812 <wait_for_key_5s_line2>
     b82:	10 92 16 01 	sts	0x0116, r1
     b86:	59 db       	rcall	.-2382   	; 0x23a <lcd_clear>
     b88:	8b e3       	ldi	r24, 0x3B	; 59
     b8a:	90 e0       	ldi	r25, 0x00	; 0
     b8c:	73 db       	rcall	.-2330   	; 0x274 <lcd_fix_string>
     b8e:	60 e0       	ldi	r22, 0x00	; 0
lcd_line2();
     b90:	82 e0       	ldi	r24, 0x02	; 2
     b92:	0e 94 61 10 	call	0x20c2	; 0x20c2 <ReadCapacity>
lcd_MEM_string(RILO_str);	// "RiLo="
     b96:	80 90 70 01 	lds	r8, 0x0170
     b9a:	90 90 71 01 	lds	r9, 0x0171
DisplayValue16(RRpinMI,-1,LCD_CHAR_OMEGA,3);
     b9e:	a0 90 72 01 	lds	r10, 0x0172
     ba2:	b0 90 73 01 	lds	r11, 0x0173
     ba6:	9c 86       	std	Y+12, r9	; 0x0c
     ba8:	8b 86       	std	Y+11, r8	; 0x0b
     baa:	61 e0       	ldi	r22, 0x01	; 1
     bac:	82 e0       	ldi	r24, 0x02	; 2
last_line_used = 2;
     bae:	0e 94 61 10 	call	0x20c2	; 0x20c2 <ReadCapacity>
     bb2:	c0 90 70 01 	lds	r12, 0x0170
wait_for_key_5s_line2();		// wait up to 5 seconds and clear line 2
     bb6:	d0 90 71 01 	lds	r13, 0x0171

//measure Zero offset for Capacity measurement
PartFound = PART_NONE;
     bba:	e0 90 72 01 	lds	r14, 0x0172
lcd_clear();
     bbe:	f0 90 73 01 	lds	r15, 0x0173
lcd_MEM_string(C0_str);			//output "C0 "
     bc2:	de 86       	std	Y+14, r13	; 0x0e
     bc4:	cd 86       	std	Y+13, r12	; 0x0d
     bc6:	60 e0       	ldi	r22, 0x00	; 0
ReadCapacity(TP3, TP1);
     bc8:	81 e0       	ldi	r24, 0x01	; 1
     bca:	0e 94 61 10 	call	0x20c2	; 0x20c2 <ReadCapacity>
     bce:	00 91 70 01 	lds	r16, 0x0170
adcmv[5] = (unsigned int) cap.cval_uncorrected.dw;	//save capacity value of empty Pin 1:3
     bd2:	10 91 71 01 	lds	r17, 0x0171
     bd6:	1e 83       	std	Y+6, r17	; 0x06
     bd8:	0d 83       	std	Y+5, r16	; 0x05
     bda:	62 e0       	ldi	r22, 0x02	; 2
     bdc:	80 e0       	ldi	r24, 0x00	; 0
     bde:	0e 94 61 10 	call	0x20c2	; 0x20c2 <ReadCapacity>
     be2:	80 91 70 01 	lds	r24, 0x0170
ReadCapacity(TP3, TP2);
     be6:	90 91 71 01 	lds	r25, 0x0171
     bea:	9c 83       	std	Y+4, r25	; 0x04
adcmv[6] = (unsigned int) cap.cval_uncorrected.dw;	//save capacity value of empty Pin 2:3
     bec:	8b 83       	std	Y+3, r24	; 0x03
     bee:	62 e0       	ldi	r22, 0x02	; 2
     bf0:	81 e0       	ldi	r24, 0x01	; 1
     bf2:	0e 94 61 10 	call	0x20c2	; 0x20c2 <ReadCapacity>
     bf6:	80 91 70 01 	lds	r24, 0x0170
     bfa:	90 91 71 01 	lds	r25, 0x0171
     bfe:	9a 87       	std	Y+10, r25	; 0x0a
ReadCapacity(TP2, TP1);
     c00:	89 87       	std	Y+9, r24	; 0x09
     c02:	61 e0       	ldi	r22, 0x01	; 1
     c04:	80 e0       	ldi	r24, 0x00	; 0
     c06:	0e 94 61 10 	call	0x20c2	; 0x20c2 <ReadCapacity>
adcmv[2] = (unsigned int) cap.cval_uncorrected.dw;	//save capacity value of empty Pin 1:2
     c0a:	80 91 70 01 	lds	r24, 0x0170
     c0e:	90 91 71 01 	lds	r25, 0x0171
     c12:	9a 83       	std	Y+2, r25	; 0x02
ReadCapacity(TP1, TP3);
     c14:	89 83       	std	Y+1, r24	; 0x01
     c16:	20 91 33 01 	lds	r18, 0x0133
     c1a:	22 30       	cpi	r18, 0x02	; 2
adcmv[1] = (unsigned int) cap.cval_uncorrected.dw;	//save capacity value of empty Pin 3:1
     c1c:	69 f4       	brne	.+26     	; 0xc38 <AutoCheck+0x1fa>
     c1e:	02 96       	adiw	r24, 0x02	; 2
     c20:	98 87       	std	Y+8, r25	; 0x08
     c22:	8f 83       	std	Y+7, r24	; 0x07
     c24:	0f c0       	rjmp	.+30     	; 0xc44 <AutoCheck+0x206>
     c26:	a4 db       	rcall	.-2232   	; 0x370 <lcd_clear_line2>
ReadCapacity(TP2, TP3);
     c28:	80 ef       	ldi	r24, 0xF0	; 240
     c2a:	90 e0       	ldi	r25, 0x00	; 0
     c2c:	23 db       	rcall	.-2490   	; 0x274 <lcd_fix_string>
     c2e:	3d dd       	rcall	.-1414   	; 0x6aa <wait500ms>
adcmv[4] = (unsigned int) cap.cval_uncorrected.dw;	//save capacity value of empty Pin 3:2
     c30:	11 50       	subi	r17, 0x01	; 1
     c32:	09 f0       	breq	.+2      	; 0xc36 <AutoCheck+0x1f8>
     c34:	87 cf       	rjmp	.-242    	; 0xb44 <AutoCheck+0x106>
     c36:	89 cf       	rjmp	.-238    	; 0xb4a <AutoCheck+0x10c>
     c38:	98 87       	std	Y+8, r25	; 0x08
     c3a:	8f 83       	std	Y+7, r24	; 0x07
ReadCapacity(TP1, TP2);
     c3c:	10 92 33 01 	sts	0x0133, r1
     c40:	8c e0       	ldi	r24, 0x0C	; 12
     c42:	ca da       	rcall	.-2668   	; 0x1d8 <lcd_command>
adcmv[0] = (unsigned int) cap.cval_uncorrected.dw;	//save capacity value of empty Pin 2:1
     c44:	c4 01       	movw	r24, r8
     c46:	c4 db       	rcall	.-2168   	; 0x3d0 <u2lcd_space>
     c48:	c6 01       	movw	r24, r12
     c4a:	c2 db       	rcall	.-2172   	; 0x3d0 <u2lcd_space>
     c4c:	b8 01       	movw	r22, r16
     c4e:	88 27       	eor	r24, r24
 #ifdef WITH_MENU
if (((test_mode & 0x0f) == 1) || (UnCalibrated == 2))
 #else
if (UnCalibrated == 2)
     c50:	77 fd       	sbrc	r23, 7
     c52:	80 95       	com	r24
     c54:	98 2f       	mov	r25, r24
     c56:	03 e0       	ldi	r16, 0x03	; 3
 #endif
{
  adcmv[3] = adcmv[0] + 2;		// mark as uncalibrated until Cap > 100nF has success
     c58:	26 e4       	ldi	r18, 0x46	; 70
     c5a:	44 ef       	ldi	r20, 0xF4	; 244
     c5c:	59 dc       	rcall	.-1870   	; 0x510 <DisplayValue>
     c5e:	6e 01       	movw	r12, r28
 #endif		/* end EXTENDED_TESTS */

for (ww=0;ww<120;ww++) {
  // wait up to 1 minute for releasing the probes
  if (AllProbesShorted() == 0) break;
  lcd_clear_line2();		// clear total line2
     c60:	ef e0       	ldi	r30, 0x0F	; 15
     c62:	ce 0e       	add	r12, r30
  lcd_MEM_string(RELPROBE);	// "Release Probes"
     c64:	d1 1c       	adc	r13, r1
     c66:	fe 01       	movw	r30, r28
     c68:	31 96       	adiw	r30, 0x01	; 1
     c6a:	81 91       	ld	r24, Z+
  lcd_refresh();		// write the pixels to display, ST7920 only
  wait_about500ms();
     c6c:	91 91       	ld	r25, Z+
     c6e:	0a 97       	sbiw	r24, 0x0a	; 10
     c70:	85 3b       	cpi	r24, 0xB5	; 181
wait_for_key_5s_line2();		// wait up to 5 seconds and clear line 2
  #endif	/* PROCESSOR_TYP == 1280 */
}	/* end if((test_mode & 0x0f) == 1) */
 #endif		/* end EXTENDED_TESTS */

for (ww=0;ww<120;ww++) {
     c72:	91 05       	cpc	r25, r1
     c74:	e0 f4       	brcc	.+56     	; 0xcae <AutoCheck+0x270>
     c76:	ec 15       	cp	r30, r12
if (UnCalibrated == 2)
 #endif
{
  adcmv[3] = adcmv[0] + 2;		// mark as uncalibrated until Cap > 100nF has success
} else {
  adcmv[3] = adcmv[0];			// mark as calibrated, short calibration is finished
     c78:	fd 05       	cpc	r31, r13
     c7a:	b9 f7       	brne	.-18     	; 0xc6a <AutoCheck+0x22c>
  UnCalibrated = 0;			// clear the UnCalibrated Flag
     c7c:	f0 ed       	ldi	r31, 0xD0	; 208
     c7e:	ef 2e       	mov	r14, r31
  lcd_cursor_off();			// switch cursor off
     c80:	f1 e0       	ldi	r31, 0x01	; 1
     c82:	ff 2e       	mov	r15, r31
     c84:	8e 01       	movw	r16, r28
}
u2lcd_space(adcmv[5]);	//DisplayValue(adcmv[5],0,' ',3);		//output cap0 1:3
     c86:	0f 5f       	subi	r16, 0xFF	; 255
     c88:	1f 4f       	sbci	r17, 0xFF	; 255
     c8a:	f8 01       	movw	r30, r16
u2lcd_space(adcmv[6]);	//DisplayValue(adcmv[6],0,' ',3);		//output cap0 2:3
     c8c:	60 81       	ld	r22, Z
     c8e:	0e 5f       	subi	r16, 0xFE	; 254
     c90:	1f 4f       	sbci	r17, 0xFF	; 255
DisplayValue(adcmv[2],-12,'F',3);		//output cap0 1:2
     c92:	61 5f       	subi	r22, 0xF1	; 241
     c94:	c7 01       	movw	r24, r14
     c96:	0e 94 0c 1f 	call	0x3e18	; 0x3e18 <__eewr_byte_m168>
     c9a:	ff ef       	ldi	r31, 0xFF	; 255
     c9c:	ef 1a       	sub	r14, r31
     c9e:	ff 0a       	sbc	r15, r31
     ca0:	0c 15       	cp	r16, r12
     ca2:	1d 05       	cpc	r17, r13
     ca4:	91 f7       	brne	.-28     	; 0xc8a <AutoCheck+0x24c>
     ca6:	a3 da       	rcall	.-2746   	; 0x1ee <lcd_line2>
     ca8:	8e ed       	ldi	r24, 0xDE	; 222
     caa:	90 e0       	ldi	r25, 0x00	; 0
     cac:	e3 da       	rcall	.-2618   	; 0x274 <lcd_fix_string>
     cae:	82 e0       	ldi	r24, 0x02	; 2
     cb0:	80 93 3a 01 	sts	0x013A, r24
 #ifdef AUTO_CAL
for (ww=0;ww<7;ww++) {			//checking loop
if ((adcmv[ww] > 190) || (adcmv[ww] < 10)) goto no_c0save;
     cb4:	ae dd       	rcall	.-1188   	; 0x812 <wait_for_key_5s_line2>
     cb6:	70 e4       	ldi	r23, 0x40	; 64
     cb8:	b7 2e       	mov	r11, r23
     cba:	10 e0       	ldi	r17, 0x00	; 0
     cbc:	ea e0       	ldi	r30, 0x0A	; 10
}
u2lcd_space(adcmv[5]);	//DisplayValue(adcmv[5],0,' ',3);		//output cap0 1:3
u2lcd_space(adcmv[6]);	//DisplayValue(adcmv[6],0,' ',3);		//output cap0 2:3
DisplayValue(adcmv[2],-12,'F',3);		//output cap0 1:2
 #ifdef AUTO_CAL
for (ww=0;ww<7;ww++) {			//checking loop
     cbe:	ce 2e       	mov	r12, r30
     cc0:	d1 2c       	mov	r13, r1
     cc2:	e1 2c       	mov	r14, r1
     cc4:	f1 2c       	mov	r15, r1
     cc6:	3f de       	rcall	.-898    	; 0x946 <init_parts>
     cc8:	b8 da       	rcall	.-2704   	; 0x23a <lcd_clear>
     cca:	80 e0       	ldi	r24, 0x00	; 0
     ccc:	6e da       	rcall	.-2852   	; 0x1aa <lcd_testpin>
     cce:	84 e9       	ldi	r24, 0x94	; 148
     cd0:	90 e0       	ldi	r25, 0x00	; 0
if ((adcmv[ww] > 190) || (adcmv[ww] < 10)) goto no_c0save;
}
for (ww=0;ww<7;ww++) {
  // write all zero offsets to the EEprom 
  (void) eeprom_write_byte((uint8_t *)(&c_zero_tab[ww]),adcmv[ww]+(COMP_SLEW1 / (CC0 + CABLE_CAP + COMP_SLEW2)));
     cd2:	d0 da       	rcall	.-2656   	; 0x274 <lcd_fix_string>
     cd4:	82 e0       	ldi	r24, 0x02	; 2
     cd6:	69 da       	rcall	.-2862   	; 0x1aa <lcd_testpin>
     cd8:	86 e7       	ldi	r24, 0x76	; 118
     cda:	90 e0       	ldi	r25, 0x00	; 0
     cdc:	bd da       	rcall	.-2694   	; 0x258 <lcd_pgm_string>
     cde:	10 92 16 01 	sts	0x0116, r1
     ce2:	60 e0       	ldi	r22, 0x00	; 0
     ce4:	82 e0       	ldi	r24, 0x02	; 2
     ce6:	0e 94 61 10 	call	0x20c2	; 0x20c2 <ReadCapacity>
DisplayValue(adcmv[2],-12,'F',3);		//output cap0 1:2
 #ifdef AUTO_CAL
for (ww=0;ww<7;ww++) {			//checking loop
if ((adcmv[ww] > 190) || (adcmv[ww] < 10)) goto no_c0save;
}
for (ww=0;ww<7;ww++) {
     cea:	00 91 7a 01 	lds	r16, 0x017A
  // write all zero offsets to the EEprom 
  (void) eeprom_write_byte((uint8_t *)(&c_zero_tab[ww]),adcmv[ww]+(COMP_SLEW1 / (CC0 + CABLE_CAP + COMP_SLEW2)));
}
lcd_line2();
     cee:	60 91 68 01 	lds	r22, 0x0168
lcd_MEM_string(OK_str);		// output "OK"
     cf2:	70 91 69 01 	lds	r23, 0x0169
     cf6:	80 91 6a 01 	lds	r24, 0x016A
no_c0save:
 #endif
last_line_used = 2;
     cfa:	90 91 6b 01 	lds	r25, 0x016B
     cfe:	07 3f       	cpi	r16, 0xF7	; 247
wait_for_key_5s_line2();		// wait up to 5 seconds and clear line 2
     d00:	44 f4       	brge	.+16     	; 0xd12 <AutoCheck+0x2d4>
     d02:	a7 01       	movw	r20, r14
     d04:	96 01       	movw	r18, r12
     d06:	0e 94 7b 1e 	call	0x3cf6	; 0x3cf6 <__udivmodsi4>
  PartFound = PART_NONE;
  ReadCapacity(TP3, TP1);	// look for capacitor > 100nF
  #endif
  while (cap.cpre < -9) {
   cap.cpre++;
   cap.cval /= 10;
     d0a:	0f 5f       	subi	r16, 0xFF	; 255
     d0c:	b9 01       	movw	r22, r18
     d0e:	ca 01       	movw	r24, r20
     d10:	f6 cf       	rjmp	.-20     	; 0xcfe <AutoCheck+0x2c0>
     d12:	00 93 7a 01 	sts	0x017A, r16
{
// for full test or first time calibration, use external capacitor
// Message C > 100nF at TP1 and TP3
cap_found = 0;
for (ww=0;ww<64;ww++) {
  init_parts();
     d16:	60 93 68 01 	sts	0x0168, r22
  #if (TPCAP >= 0)
  CalibrationCap();	// measure with internal calibration capacitor
  #else
  lcd_clear();
     d1a:	70 93 69 01 	sts	0x0169, r23
  lcd_testpin(TP1);
     d1e:	80 93 6a 01 	sts	0x016A, r24
  lcd_MEM_string(CapZeich);	// "-||-"
     d22:	90 93 6b 01 	sts	0x016B, r25
     d26:	07 3f       	cpi	r16, 0xF7	; 247
     d28:	09 f0       	breq	.+2      	; 0xd2c <AutoCheck+0x2ee>
  lcd_testpin(TP3);
     d2a:	8e c0       	rjmp	.+284    	; 0xe48 <AutoCheck+0x40a>
     d2c:	dc 01       	movw	r26, r24
     d2e:	cb 01       	movw	r24, r22
  lcd_MEM2_string(MinCap_str); // " >100nF!"
     d30:	80 56       	subi	r24, 0x60	; 96
     d32:	91 09       	sbc	r25, r1
     d34:	a1 09       	sbc	r26, r1
     d36:	b1 09       	sbc	r27, r1
  PartFound = PART_NONE;
     d38:	80 39       	cpi	r24, 0x90	; 144
     d3a:	95 45       	sbci	r25, 0x55	; 85
  ReadCapacity(TP3, TP1);	// look for capacitor > 100nF
     d3c:	a1 05       	cpc	r26, r1
     d3e:	b1 05       	cpc	r27, r1
     d40:	08 f0       	brcs	.+2      	; 0xd44 <AutoCheck+0x306>
     d42:	82 c0       	rjmp	.+260    	; 0xe48 <AutoCheck+0x40a>
     d44:	60 91 7c 01 	lds	r22, 0x017C
     d48:	70 91 7d 01 	lds	r23, 0x017D
     d4c:	cb 01       	movw	r24, r22
     d4e:	8b 56       	subi	r24, 0x6B	; 107
     d50:	9f 4f       	sbci	r25, 0xFF	; 255
     d52:	8b 32       	cpi	r24, 0x2B	; 43
     d54:	91 40       	sbci	r25, 0x01	; 1
     d56:	08 f0       	brcs	.+2      	; 0xd5a <AutoCheck+0x31c>
  #endif
  while (cap.cpre < -9) {
     d58:	77 c0       	rjmp	.+238    	; 0xe48 <AutoCheck+0x40a>
     d5a:	1f 5f       	subi	r17, 0xFF	; 255
   cap.cpre++;
   cap.cval /= 10;
     d5c:	15 30       	cpi	r17, 0x05	; 5
     d5e:	08 f4       	brcc	.+2      	; 0xd62 <AutoCheck+0x324>
     d60:	74 c0       	rjmp	.+232    	; 0xe4a <AutoCheck+0x40c>
     d62:	87 ed       	ldi	r24, 0xD7	; 215
  lcd_MEM2_string(MinCap_str); // " >100nF!"
  PartFound = PART_NONE;
  ReadCapacity(TP3, TP1);	// look for capacitor > 100nF
  #endif
  while (cap.cpre < -9) {
   cap.cpre++;
     d64:	91 e0       	ldi	r25, 0x01	; 1
   cap.cval /= 10;
     d66:	0e 94 1a 1f 	call	0x3e34	; 0x3e34 <__eewr_word_m168>
     d6a:	67 da       	rcall	.-2866   	; 0x23a <lcd_clear>
     d6c:	8f e6       	ldi	r24, 0x6F	; 111
     d6e:	90 e0       	ldi	r25, 0x00	; 0
     d70:	73 da       	rcall	.-2842   	; 0x258 <lcd_pgm_string>
     d72:	80 91 7c 01 	lds	r24, 0x017C
     d76:	90 91 7d 01 	lds	r25, 0x017D
     d7a:	16 db       	rcall	.-2516   	; 0x3a8 <i2lcd>
     d7c:	6d dd       	rcall	.-1318   	; 0x858 <RefVoltage>
     d7e:	18 b8       	out	0x08, r1	; 8
  }
  if ((cap.cpre == -9) && (cap.cval > 95) && (cap.cval < 22000) &&
     d80:	81 e0       	ldi	r24, 0x01	; 1
     d82:	87 b9       	out	0x07, r24	; 7
     d84:	80 e2       	ldi	r24, 0x20	; 32
     d86:	84 b9       	out	0x04, r24	; 4
     d88:	82 e0       	ldi	r24, 0x02	; 2
     d8a:	b2 dc       	rcall	.-1692   	; 0x6f0 <ReadADC>
     d8c:	85 3d       	cpi	r24, 0xD5	; 213
     d8e:	93 40       	sbci	r25, 0x03	; 3
     d90:	dc f7       	brge	.-10     	; 0xd88 <AutoCheck+0x34a>
     d92:	14 b8       	out	0x04, r1	; 4
     d94:	10 92 2a 01 	sts	0x012A, r1
     d98:	10 92 29 01 	sts	0x0129, r1
     d9c:	82 e0       	ldi	r24, 0x02	; 2
    (load_diff > -150) && (load_diff < 150)) {
     d9e:	a8 dc       	rcall	.-1712   	; 0x6f0 <ReadADC>
     da0:	8c 01       	movw	r16, r24
     da2:	80 91 63 01 	lds	r24, 0x0163
     da6:	90 91 64 01 	lds	r25, 0x0164
     daa:	90 93 2a 01 	sts	0x012A, r25
     dae:	80 93 29 01 	sts	0x0129, r24
     db2:	82 e0       	ldi	r24, 0x02	; 2
   cap_found++;
     db4:	9d dc       	rcall	.-1734   	; 0x6f0 <ReadADC>
  } else {
   cap_found = 0;		// wait for stable connection
  }
  if (cap_found > 4) {
     db6:	7c 01       	movw	r14, r24
     db8:	ee 0c       	add	r14, r14
     dba:	ff 1c       	adc	r15, r15
     // value of capacitor is correct
     (void) eeprom_write_word((uint16_t *)(&ref_offset), load_diff);	// hold zero offset + slew rate dependend offset
     dbc:	10 92 2a 01 	sts	0x012A, r1
     dc0:	10 92 29 01 	sts	0x0129, r1
     lcd_clear();
     dc4:	82 e0       	ldi	r24, 0x02	; 2
     dc6:	94 dc       	rcall	.-1752   	; 0x6f0 <ReadADC>
     lcd_MEM2_string(REF_C_str);	// "REF_C="
     dc8:	c0 90 63 01 	lds	r12, 0x0163
     dcc:	d0 90 64 01 	lds	r13, 0x0164
     i2lcd(load_diff);		// lcd_string(itoa(load_diff, outval, 10));	//output REF_C_KORR
     dd0:	d0 92 2a 01 	sts	0x012A, r13
     dd4:	c0 92 29 01 	sts	0x0129, r12
     dd8:	08 0f       	add	r16, r24
     dda:	19 1f       	adc	r17, r25
     RefVoltage();			// new ref_mv_offs and RHmultip
     ddc:	0e 19       	sub	r16, r14
     dde:	1f 09       	sbc	r17, r15
    #define CAP_ADC TPCAP	/* Cap >100nF is integrated at TPCAP */
   TCAP_PORT &= ~(1<<TCAP_RH);	// 470k resistor to GND
   TCAP_DDR |= (1<<TCAP_RH);	// enable output
   #else
    #define CAP_ADC TP3		/* Cap >100nF at TP3 */
   ADC_PORT =  TXD_VAL;	//ADC-Port 1 to GND
     de0:	06 da       	rcall	.-3060   	; 0x1ee <lcd_line2>
   ADC_DDR = 1<<TP1 | TXD_MSK;	//ADC-Pin  1 to output 0V
     de2:	88 e6       	ldi	r24, 0x68	; 104
     de4:	90 e0       	ldi	r25, 0x00	; 0
   R_DDR = 1<<PIN_RH3;		//Pin 3 over R_H to GND
     de6:	38 da       	rcall	.-2960   	; 0x258 <lcd_pgm_string>
     de8:	89 ed       	ldi	r24, 0xD9	; 217
   #endif
   do {
      adcmv[0] = ReadADC(CAP_ADC);
     dea:	91 e0       	ldi	r25, 0x01	; 1
     dec:	0e 94 04 1f 	call	0x3e08	; 0x3e08 <__eerd_byte_m168>
   } while (adcmv[0] > 980);
     df0:	63 e0       	ldi	r22, 0x03	; 3
     df2:	b6 2e       	mov	r11, r22
     df4:	b8 0e       	add	r11, r24
   #if (TPCAP >= 0)
   TCAP_DDR &= ~(1<<TCAP_RH);	// 470k resistor port to input mode
   #else
   R_DDR = 0;		//all Pins to input 
     df6:	96 01       	movw	r18, r12
   #endif
   ADCconfig.U_Bandgap = 0;	// do not use internal Ref
     df8:	d8 01       	movw	r26, r16
     dfa:	0e 94 3c 1e 	call	0x3c78	; 0x3c78 <__usmulhisi3>
     dfe:	97 01       	movw	r18, r14
   adcmv[0] = ReadADC(CAP_ADC);  // get cap voltage with VCC reference
     e00:	44 27       	eor	r20, r20
     e02:	37 fd       	sbrc	r19, 7
     e04:	40 95       	com	r20
     e06:	54 2f       	mov	r21, r20
   ADCconfig.U_Bandgap = adc_internal_reference;
     e08:	0e 94 9d 1e 	call	0x3d3a	; 0x3d3a <__divmodsi4>
     e0c:	b2 0e       	add	r11, r18
     e0e:	6b 2d       	mov	r22, r11
     e10:	89 ed       	ldi	r24, 0xD9	; 217
     e12:	91 e0       	ldi	r25, 0x01	; 1
     e14:	0e 94 0c 1f 	call	0x3e18	; 0x3e18 <__eewr_byte_m168>
   adcmv[1] = ReadADC(CAP_ADC);	// get cap voltage with internal reference
     e18:	8b 2d       	mov	r24, r11
     e1a:	99 27       	eor	r25, r25
     e1c:	87 fd       	sbrc	r24, 7
   adcmv[1] += adcmv[1];		// double the value
     e1e:	90 95       	com	r25
     e20:	c3 da       	rcall	.-2682   	; 0x3a8 <i2lcd>
     e22:	1a dd       	rcall	.-1484   	; 0x858 <RefVoltage>
   ADCconfig.U_Bandgap = 0;	// do not use internal Ref
     e24:	82 e0       	ldi	r24, 0x02	; 2
     e26:	80 93 3a 01 	sts	0x013A, r24
     e2a:	f3 dc       	rcall	.-1562   	; 0x812 <wait_for_key_5s_line2>
   adcmv[2] = ReadADC(CAP_ADC);  // get cap voltage with VCC reference
     e2c:	10 92 33 01 	sts	0x0133, r1
     e30:	8c e0       	ldi	r24, 0x0C	; 12
   ADCconfig.U_Bandgap = adc_internal_reference;
     e32:	d2 d9       	rcall	.-3164   	; 0x1d8 <lcd_command>
     e34:	80 ed       	ldi	r24, 0xD0	; 208
     e36:	91 e0       	ldi	r25, 0x01	; 1
     e38:	0e 94 04 1f 	call	0x3e08	; 0x3e08 <__eerd_byte_m168>
     e3c:	68 2f       	mov	r22, r24
     e3e:	83 ed       	ldi	r24, 0xD3	; 211
     e40:	91 e0       	ldi	r25, 0x01	; 1
   udiff = (int8_t)(((signed long)(adcmv[0] + adcmv[2] - adcmv[1])) * adc_internal_reference / adcmv[1])+REF_R_KORR;
     e42:	0e 94 0c 1f 	call	0x3e18	; 0x3e18 <__eewr_byte_m168>
     e46:	13 c0       	rjmp	.+38     	; 0xe6e <AutoCheck+0x430>
     e48:	10 e0       	ldi	r17, 0x00	; 0
   lcd_line2();
     e4a:	d1 d9       	rcall	.-3166   	; 0x1ee <lcd_line2>
     e4c:	60 91 68 01 	lds	r22, 0x0168
   lcd_MEM2_string(REF_R_str);	// "REF_R="
     e50:	70 91 69 01 	lds	r23, 0x0169
     e54:	80 91 6a 01 	lds	r24, 0x016A
   udiff2 = udiff + (int8_t)eeprom_read_byte((uint8_t *)(&RefDiff));
     e58:	90 91 6b 01 	lds	r25, 0x016B
     e5c:	04 e0       	ldi	r16, 0x04	; 4
   adcmv[1] = ReadADC(CAP_ADC);	// get cap voltage with internal reference
   adcmv[1] += adcmv[1];		// double the value
   ADCconfig.U_Bandgap = 0;	// do not use internal Ref
   adcmv[2] = ReadADC(CAP_ADC);  // get cap voltage with VCC reference
   ADCconfig.U_Bandgap = adc_internal_reference;
   udiff = (int8_t)(((signed long)(adcmv[0] + adcmv[2] - adcmv[1])) * adc_internal_reference / adcmv[1])+REF_R_KORR;
     e5e:	26 e4       	ldi	r18, 0x46	; 70
     e60:	40 91 7a 01 	lds	r20, 0x017A
     e64:	55 db       	rcall	.-2390   	; 0x510 <DisplayValue>
     e66:	24 dc       	rcall	.-1976   	; 0x6b0 <wait200ms>
     e68:	ba 94       	dec	r11
     e6a:	09 f0       	breq	.+2      	; 0xe6e <AutoCheck+0x430>
     e6c:	2c cf       	rjmp	.-424    	; 0xcc6 <AutoCheck+0x288>
     e6e:	89 e1       	ldi	r24, 0x19	; 25
     e70:	80 93 27 01 	sts	0x0127, r24
     e74:	e2 d9       	rcall	.-3132   	; 0x23a <lcd_clear>
     e76:	8d e4       	ldi	r24, 0x4D	; 77
     e78:	90 e0       	ldi	r25, 0x00	; 0
   lcd_line2();
   lcd_MEM2_string(REF_R_str);	// "REF_R="
   udiff2 = udiff + (int8_t)eeprom_read_byte((uint8_t *)(&RefDiff));
     e7a:	fc d9       	rcall	.-3080   	; 0x274 <lcd_fix_string>
   (void) eeprom_write_byte((uint8_t *)(&RefDiff), (uint8_t)udiff2);	// hold offset for true reference Voltage
     e7c:	b8 d9       	rcall	.-3216   	; 0x1ee <lcd_line2>
     e7e:	87 ee       	ldi	r24, 0xE7	; 231
     e80:	90 e0       	ldi	r25, 0x00	; 0
     e82:	f8 d9       	rcall	.-3088   	; 0x274 <lcd_fix_string>
     e84:	10 92 16 01 	sts	0x0116, r1
   i2lcd(udiff2);		// output correction voltage
     e88:	82 e0       	ldi	r24, 0x02	; 2
     e8a:	80 93 3a 01 	sts	0x013A, r24
     e8e:	c1 dc       	rcall	.-1662   	; 0x812 <wait_for_key_5s_line2>
     e90:	2e 96       	adiw	r28, 0x0e	; 14
   RefVoltage();			// set new ADCconfig.U_Bandgap
     e92:	ec e0       	ldi	r30, 0x0C	; 12
     e94:	0c 94 db 1e 	jmp	0x3db6	; 0x3db6 <__epilogue_restores__+0xc>

00000e98 <mark_as_uncalibrated>:
  #endif	/* end AUTOSCALE_ADC */
   last_line_used = 2;
     e98:	80 91 33 01 	lds	r24, 0x0133
   wait_for_key_5s_line2();		// wait up to 5 seconds and clear line 2
     e9c:	81 11       	cpse	r24, r1
     e9e:	0d c0       	rjmp	.+26     	; 0xeba <mark_as_uncalibrated+0x22>
   UnCalibrated = 0;		// clear the UnCalibrated Flag
     ea0:	80 ed       	ldi	r24, 0xD0	; 208
     ea2:	91 e0       	ldi	r25, 0x01	; 1
   lcd_cursor_off();		// switch cursor off
     ea4:	0e 94 04 1f 	call	0x3e08	; 0x3e08 <__eerd_byte_m168>
     ea8:	61 e0       	ldi	r22, 0x01	; 1
   cap_found = eeprom_read_byte((uint8_t *)&c_zero_tab[0]);	// read first capacity zero offset
     eaa:	68 0f       	add	r22, r24
     eac:	83 ed       	ldi	r24, 0xD3	; 211
     eae:	91 e0       	ldi	r25, 0x01	; 1
     eb0:	0e 94 0c 1f 	call	0x3e18	; 0x3e18 <__eewr_byte_m168>
   eeprom_write_byte((uint8_t *)&c_zero_tab[3], cap_found);	// mark as calibrated permanent
     eb4:	81 e0       	ldi	r24, 0x01	; 1
     eb6:	80 93 33 01 	sts	0x0133, r24
     eba:	08 95       	ret

00000ebc <GetIr>:
     ebc:	cf 92       	push	r12
  while (cap.cpre < -9) {
   cap.cpre++;
   cap.cval /= 10;
  }
  if ((cap.cpre == -9) && (cap.cval > 95) && (cap.cval < 22000) &&
    (load_diff > -150) && (load_diff < 150)) {
     ebe:	df 92       	push	r13
   lcd_cursor_off();		// switch cursor off
   cap_found = eeprom_read_byte((uint8_t *)&c_zero_tab[0]);	// read first capacity zero offset
   eeprom_write_byte((uint8_t *)&c_zero_tab[3], cap_found);	// mark as calibrated permanent
   break;			// leave the ww for loop
  }  /* end if (cap_found > 4) */
  lcd_line2();
     ec0:	ff 92       	push	r15
     ec2:	0f 93       	push	r16
  DisplayValue(cap.cval,cap.cpre,'F',4);
     ec4:	1f 93       	push	r17
     ec6:	cf 93       	push	r28
     ec8:	df 93       	push	r29
     eca:	1f 92       	push	r1
     ecc:	cd b7       	in	r28, 0x3d	; 61
     ece:	de b7       	in	r29, 0x3e	; 62
     ed0:	e8 2f       	mov	r30, r24
     ed2:	f0 e0       	ldi	r31, 0x00	; 0
     ed4:	ef 57       	subi	r30, 0x7F	; 127
     ed6:	ff 4f       	sbci	r31, 0xFF	; 255
     ed8:	e4 91       	lpm	r30, Z
     eda:	e8 b9       	out	0x08, r30	; 8
     edc:	e7 b9       	out	0x07, r30	; 7
     ede:	15 b8       	out	0x05, r1	; 5
  lcd_refresh();		// write the pixels to display, ST7920 only
  wait_about200ms();			// wait additional time
     ee0:	e6 2f       	mov	r30, r22
     ee2:	f0 e0       	ldi	r31, 0x00	; 0
     ee4:	e2 58       	subi	r30, 0x82	; 130
// of the menu function, not with the automatically call (test_mode = 1).
{
// for full test or first time calibration, use external capacitor
// Message C > 100nF at TP1 and TP3
cap_found = 0;
for (ww=0;ww<64;ww++) {
     ee6:	ff 4f       	sbci	r31, 0xFF	; 255
     ee8:	e4 91       	lpm	r30, Z
  wait_about200ms();			// wait additional time
} // end for ww
}	/* end if((test_mode & 0x0f) == 1) */
 #endif  /* end AUTO_CAL */

ADCconfig.Samples = ANZ_MESS;	// set to configured number of ADC samples
     eea:	e4 b9       	out	0x04, r30	; 4
     eec:	08 e8       	ldi	r16, 0x88	; 136
     eee:	13 e1       	ldi	r17, 0x13	; 19
      // if key is pressed, don't repeat
      break;
   }
 } /* end for ww */
 #endif		/* end FREQUENCY_50HZ */
lcd_clear();
     ef0:	fe 2e       	mov	r15, r30
     ef2:	ff 0c       	add	r15, r15
lcd_MEM_string(VERSION_str);	//"Version ..."
     ef4:	86 2f       	mov	r24, r22
     ef6:	69 83       	std	Y+1, r22	; 0x01
     ef8:	f8 db       	rcall	.-2064   	; 0x6ea <W20msReadADC>
     efa:	6c 01       	movw	r12, r24
lcd_line2();
     efc:	f4 b8       	out	0x04, r15	; 4
     efe:	69 81       	ldd	r22, Y+1	; 0x01
lcd_MEM_string(ATE);		//"Selftest End"
     f00:	80 17       	cp	r24, r16
     f02:	91 07       	cpc	r25, r17
     f04:	10 f4       	brcc	.+4      	; 0xf0a <GetIr+0x4e>
     f06:	8c 01       	movw	r16, r24
PartFound = PART_NONE;
     f08:	f5 cf       	rjmp	.-22     	; 0xef4 <GetIr+0x38>
     f0a:	00 97       	sbiw	r24, 0x00	; 0
     last_line_used = 2;
     f0c:	c9 f0       	breq	.+50     	; 0xf40 <GetIr+0x84>
     f0e:	82 e7       	ldi	r24, 0x72	; 114
     f10:	90 e0       	ldi	r25, 0x00	; 0
wait_for_key_5s_line2();		// wait up to 5 seconds and clear line 2
     f12:	b0 d9       	rcall	.-3232   	; 0x274 <lcd_fix_string>
     f14:	d6 01       	movw	r26, r12
} /* end AutoCheck */ 
     f16:	20 ea       	ldi	r18, 0xA0	; 160
     f18:	36 e8       	ldi	r19, 0x86	; 134
     f1a:	41 e0       	ldi	r20, 0x01	; 1
     f1c:	50 e0       	ldi	r21, 0x00	; 0
void mark_as_uncalibrated( void) {
 uint8_t ii;
 if (!UnCalibrated) {
     f1e:	0e 94 42 1e 	call	0x3c84	; 0x3c84 <__muluhisi3>
     f22:	28 e9       	ldi	r18, 0x98	; 152
     f24:	37 eb       	ldi	r19, 0xB7	; 183
    // equipment has changed, zero capacity value is too high or zero resistance is too high
    // but the device is marked as Calibrated.
    ii = eeprom_read_byte((uint8_t *)&c_zero_tab[0]);	// read first zero offset
     f26:	40 e0       	ldi	r20, 0x00	; 0
     f28:	50 e0       	ldi	r21, 0x00	; 0
     f2a:	0e 94 7b 1e 	call	0x3cf6	; 0x3cf6 <__udivmodsi4>
    ii++;
     f2e:	da 01       	movw	r26, r20
     f30:	c9 01       	movw	r24, r18
    // make the unused c_zero_tab[3] different to c_zero_tab[0] to mark uncalibrated 
    eeprom_write_byte((uint8_t *)&c_zero_tab[3], ii);	// mark uncalibrated permanent
     f32:	22 e0       	ldi	r18, 0x02	; 2
     f34:	41 e4       	ldi	r20, 0x41	; 65
     f36:	67 ef       	ldi	r22, 0xF7	; 247
     f38:	9d db       	rcall	.-2246   	; 0x674 <DisplayValue16>
    UnCalibrated = 1;		// set back to uncalibrated
     f3a:	17 b8       	out	0x07, r1	; 7
     f3c:	18 b8       	out	0x08, r1	; 8
     f3e:	14 b8       	out	0x04, r1	; 4
     f40:	0f 90       	pop	r0
/* Get residual current in reverse direction of a diode */ 



//=================================================================
void GetIr(uint8_t hipin, uint8_t lopin) {
     f42:	df 91       	pop	r29
     f44:	cf 91       	pop	r28
     f46:	1f 91       	pop	r17
     f48:	0f 91       	pop	r16
     f4a:	ff 90       	pop	r15
     f4c:	df 90       	pop	r13
     f4e:	cf 90       	pop	r12
     f50:	08 95       	ret

00000f52 <Battery_check>:

//	  Calibrate_UR();		// get Ref Voltages and Pin resistance
//        lcd_line1();			// Cursor to 1. row, column 1
	  
#ifdef BAT_CHECK
void Battery_check(void) {
     f52:	0f 93       	push	r16
     f54:	1f 93       	push	r17
     f56:	cf 93       	push	r28
     f58:	df 93       	push	r29
 uint16_t bat_voltage;
 uint16_t bat_adc;
  // Battery check is selected
  ReadADC(TPBAT);	//Dummy-Readout
     f5a:	85 e0       	ldi	r24, 0x05	; 5
     f5c:	c9 db       	rcall	.-2158   	; 0x6f0 <ReadADC>
     f5e:	85 e0       	ldi	r24, 0x05	; 5
  bat_adc = W5msReadADC(TPBAT); 	//with 5V reference
     f60:	c6 db       	rcall	.-2164   	; 0x6ee <W5msReadADC>
     f62:	ec 01       	movw	r28, r24
     f64:	8c 01       	movw	r16, r24
     f66:	00 0f       	add	r16, r16
  // A good result can be get with multiply by 4 and divide by 10 (about 0.75%).
  #if BAT_NUMERATOR <= (0xffff/U_VCC)
	  bat_voltage = (bat_adc*BAT_NUMERATOR)/BAT_DENOMINATOR + BAT_OUT;
  #else
   #if (BAT_NUMERATOR == 133) && (BAT_DENOMINATOR == 33)
	  bat_voltage = (bat_adc*4)+BAT_OUT;		// usually output only 2 digits
     f68:	11 1f       	adc	r17, r17
     f6a:	00 0f       	add	r16, r16
     f6c:	11 1f       	adc	r17, r17
     f6e:	0a 56       	subi	r16, 0x6A	; 106
     f70:	1f 4f       	sbci	r17, 0xFF	; 255
     f72:	10 92 31 01 	sts	0x0131, r1
   #else
	  bat_voltage = ((unsigned long)bat_adc*BAT_NUMERATOR)/BAT_DENOMINATOR + BAT_OUT;
   #endif
  #endif
  #if FLASHEND > 0x1fff
          DC_Pwr_mode = 0;
     f76:	04 38       	cpi	r16, 0x84	; 132
     f78:	83 e0       	ldi	r24, 0x03	; 3
   #ifdef DC_PWR
          if ((bat_voltage < 900) || (bat_voltage > DC_PWR))
   #else
          if (bat_voltage < 900) 
     f7a:	18 07       	cpc	r17, r24
     f7c:	40 f4       	brcc	.+16     	; 0xf8e <Battery_check+0x3c>
     f7e:	82 ed       	ldi	r24, 0xD2	; 210
     f80:	90 e0       	ldi	r25, 0x00	; 0
   #endif
          {
             // no battery present, don't check,
	     lcd_MEM_string(DC_Pwr_Mode_str);	// "DC Pwr Mode"
     f82:	78 d9       	rcall	.-3344   	; 0x274 <lcd_fix_string>
     f84:	cb d9       	rcall	.-3178   	; 0x31c <lcd_clear_line>
     f86:	81 e0       	ldi	r24, 0x01	; 1
     f88:	80 93 31 01 	sts	0x0131, r24
             lcd_clear_line();			// clear to end of line
     f8c:	1d c0       	rjmp	.+58     	; 0xfc8 <Battery_check+0x76>
             DC_Pwr_mode = 1;
     f8e:	81 ee       	ldi	r24, 0xE1	; 225
     f90:	90 e0       	ldi	r25, 0x00	; 0
     f92:	70 d9       	rcall	.-3360   	; 0x274 <lcd_fix_string>
             return;
     f94:	62 e0       	ldi	r22, 0x02	; 2
          }
  #endif
         lcd_MEM_string(Bat_str);		//output: "Bat. "
     f96:	c8 01       	movw	r24, r16
     f98:	78 db       	rcall	.-2320   	; 0x68a <Display_mV>
     f9a:	09 d9       	rcall	.-3566   	; 0x1ae <lcd_space>
     f9c:	ca 3f       	cpi	r28, 0xFA	; 250
	 Display_mV(bat_voltage,2);		// Display 2 Digits of this 10mV units
     f9e:	86 e0       	ldi	r24, 0x06	; 6
     fa0:	d8 07       	cpc	r29, r24
     fa2:	70 f4       	brcc	.+28     	; 0xfc0 <Battery_check+0x6e>
     fa4:	c3 33       	cpi	r28, 0x33	; 51
         lcd_space();
     fa6:	d6 40       	sbci	r29, 0x06	; 6
     fa8:	40 f4       	brcc	.+16     	; 0xfba <Battery_check+0x68>
  #define WARN_LEVEL (((unsigned long)(BAT_POOR+100)*(unsigned long)BAT_DENOMINATOR)/BAT_NUMERATOR)
 #endif
 #define POOR_LEVEL (((unsigned long)(BAT_POOR)*(unsigned long)BAT_DENOMINATOR)/BAT_NUMERATOR)

  // check the battery voltage
  if (bat_adc <  WARN_LEVEL) {
     faa:	8b e5       	ldi	r24, 0x5B	; 91
     fac:	91 e0       	ldi	r25, 0x01	; 1
     fae:	62 d9       	rcall	.-3388   	; 0x274 <lcd_fix_string>
     fb0:	b5 d9       	rcall	.-3222   	; 0x31c <lcd_clear_line>
     //Vcc < 7,3V; show Warning 
     if(bat_adc < POOR_LEVEL) {	
     fb2:	76 db       	rcall	.-2324   	; 0x6a0 <wait5s>
     fb4:	5e 98       	cbi	0x0b, 6	; 11
     fb6:	77 db       	rcall	.-2322   	; 0x6a6 <wait2s>
	//Vcc <6,3V; no proper operation is possible
	lcd_MEM_string(BatEmpty);	//Battery empty!
     fb8:	07 c0       	rjmp	.+14     	; 0xfc8 <Battery_check+0x76>
     fba:	82 e6       	ldi	r24, 0x62	; 98
     fbc:	91 e0       	ldi	r25, 0x01	; 1
     fbe:	02 c0       	rjmp	.+4      	; 0xfc4 <Battery_check+0x72>
        lcd_clear_line();			// clear to end of line
     fc0:	8e ed       	ldi	r24, 0xDE	; 222
     fc2:	90 e0       	ldi	r25, 0x00	; 0
	lcd_refresh();			// write the pixels to display, ST7920 only
	wait_about5s();			// Let time to read the "empty" message
     fc4:	57 d9       	rcall	.-3410   	; 0x274 <lcd_fix_string>
     fc6:	aa d9       	rcall	.-3244   	; 0x31c <lcd_clear_line>
        ON_PORT &= ~(1<<ON_PIN);	// switch power off
     fc8:	df 91       	pop	r29
	wait_about2s();			// power should be switched off
     fca:	cf 91       	pop	r28
     fcc:	1f 91       	pop	r17
	return;
     fce:	0f 91       	pop	r16
     }
     lcd_MEM_string(BatWeak);		//Battery weak
     fd0:	08 95       	ret

00000fd2 <CheckPins>:
#include <stdlib.h>
#include "Transistortester.h"

//******************************************************************
void CheckPins(uint8_t HighPin, uint8_t LowPin, uint8_t TristatePin)
  {
     fd2:	a5 e1       	ldi	r26, 0x15	; 21
     fd4:	b0 e0       	ldi	r27, 0x00	; 0
     fd6:	ef ee       	ldi	r30, 0xEF	; 239
     fd8:	f7 e0       	ldi	r31, 0x07	; 7
     fda:	0c 94 b9 1e 	jmp	0x3d72	; 0x3d72 <__prologue_saves__>
     fde:	98 2e       	mov	r9, r24
     fe0:	86 2e       	mov	r8, r22
     fe2:	44 2e       	mov	r4, r20
  /*
    switch HighPin directls to VCC 
    switch R_L port for LowPin to GND 
    TristatePin remains switched to input , no action required 
  */
  wdt_reset();
     fe4:	a8 95       	wdr
  addr = &PinRLRHADCtab[LowPin-TP1];		// Address of combined RL / RH / ADC pin table
     fe6:	e6 2f       	mov	r30, r22
     fe8:	f0 e0       	ldi	r31, 0x00	; 0
     fea:	e2 58       	subi	r30, 0x82	; 130
     fec:	ff 4f       	sbci	r31, 0xFF	; 255
  LoPinRL = pgm_read_byte(addr);		// instruction for LowPin R_L
     fee:	54 90       	lpm	r5, Z
  addr += 3;			// address of PinRHtab[LowPin]
  LoPinRH = pgm_read_byte(addr);		// instruction for LowPin R_H
 #else
  LoPinRH = LoPinRL + LoPinRL;				// instruction for LowPin R_H
 #endif
  addr += 3;			// address of PinADCtab[LowPin]
     ff0:	33 96       	adiw	r30, 0x03	; 3
  addr += 6;			// address of PinADCtab[LowPin]
 #else
  addr += 3;			// address of PinADCtab[LowPin], table PinRHtab is missing
 #endif
#endif
  LoADCp = pgm_read_byte(addr);		// instruction for ADC Low-Pin, including | TXD_VAL
     ff2:	e4 90       	lpm	r14, Z

  addr = &PinRLRHADCtab[TristatePin-TP1];
     ff4:	e4 2f       	mov	r30, r20
     ff6:	f0 e0       	ldi	r31, 0x00	; 0
     ff8:	e2 58       	subi	r30, 0x82	; 130
     ffa:	ff 4f       	sbci	r31, 0xFF	; 255
  TriPinRL = pgm_read_byte(addr);	// instruction for TristatePin R_L
     ffc:	64 90       	lpm	r6, Z
  TriPinRH = pgm_read_byte(addr);	// instruction for TristatePin R_H
#else
  TriPinRH = TriPinRL + TriPinRL;			// instruction for TristatePin R_H
#endif

  addr = &PinRLRHADCtab[HighPin-TP1];
     ffe:	e8 2f       	mov	r30, r24
    1000:	f0 e0       	ldi	r31, 0x00	; 0
    1002:	e2 58       	subi	r30, 0x82	; 130
    1004:	ff 4f       	sbci	r31, 0xFF	; 255
  HiPinRL = pgm_read_byte(addr);		// instruction for HighPin R_L
    1006:	f4 90       	lpm	r15, Z
  addr += 3;			// address of PinRHtab[HighPin]
  HiPinRH = pgm_read_byte(addr);		// instruction for HighPin R_H
#else
  HiPinRH = HiPinRL + HiPinRL;				// instruction for HighPin R_H
#endif
  addr += 3;			// address of PinADCtab[HighPin]
    1008:	33 96       	adiw	r30, 0x03	; 3
  HiADCp = pgm_read_byte(addr);		// instruction for ADC High-Pin, including | TXD_VAL 
    100a:	74 90       	lpm	r7, Z
     adc.vCEs = adc.lp2;
  } else {
     if ((adc.vCEs+288) > adc.lp2) goto checkDiode;	// no significant change
  }
#else
  R_PORT = TriPinRL;			//resistor-Port TriState to 1
    100c:	65 b8       	out	0x05, r6	; 5
  R_DDR = LoPinRL | TriPinRL;		// resistor-Port Low-Pin to 0
    100e:	26 2d       	mov	r18, r6
    1010:	25 29       	or	r18, r5
    1012:	2d 83       	std	Y+5, r18	; 0x05
    1014:	24 b9       	out	0x04, r18	; 4
  ADC_DDR = HiADCm;		//High-Pin to output
    1016:	77 b8       	out	0x07, r7	; 7
  ADC_PORT = HiADCp;		//High-Pin fix to Vcc
    1018:	78 b8       	out	0x08, r7	; 8
  //for some MOSFET the gate (TristatePin) must be discharged
  adc.vCEs = W5msReadADC(LowPin);	// lp1 is the voltage at 680 Ohm with + Gate
    101a:	86 2f       	mov	r24, r22
    101c:	68 db       	rcall	.-2352   	; 0x6ee <W5msReadADC>
    101e:	5c 01       	movw	r10, r24
    1020:	54 b8       	out	0x04, r5	; 4
#ifdef WITH_PUT
  R_PORT = TriPinRL | TriPinRH;
  R_DDR = LoPinRL | TriPinRH;           
  adc.lp_otrh = W5msReadADC(LowPin);	//read voltage of Low-Pin  , with tri-state ping to plus via RH; prevents accidental triggering of PUT
#endif
  R_DDR = LoPinRL;	
    1022:	88 2d       	mov	r24, r8
  adc.lp_otr = W5msReadADC(LowPin);	//read voltage of Low-Pin  , without Gate current (+)
    1024:	64 db       	rcall	.-2360   	; 0x6ee <W5msReadADC>
    1026:	1c 01       	movw	r2, r24
    1028:	14 b8       	out	0x04, r1	; 4
    102a:	49 db       	rcall	.-2414   	; 0x6be <wait5ms>
  R_DDR = 0;
    102c:	15 b8       	out	0x05, r1	; 5
  wait5ms();				// release all current (clear TRIAC and Thyristor)
    102e:	3d 81       	ldd	r19, Y+5	; 0x05
    1030:	34 b9       	out	0x04, r19	; 4
  R_PORT = 0;
    1032:	88 2d       	mov	r24, r8
  R_DDR = LoPinRL | TriPinRL;		// start current again
    1034:	5c db       	rcall	.-2376   	; 0x6ee <W5msReadADC>
    1036:	8a 15       	cp	r24, r10
  adc.lp2 = W5msReadADC(LowPin);	// lp2 is the voltage at 680 Ohm with - Gate
    1038:	9b 05       	cpc	r25, r11
    103a:	f0 f4       	brcc	.+60     	; 0x1078 <CheckPins+0xa6>
    103c:	80 5e       	subi	r24, 0xE0	; 224
  if (adc.lp2 < adc.vCEs) {
    103e:	9e 4f       	sbci	r25, 0xFE	; 254
    1040:	a8 16       	cp	r10, r24
    1042:	b9 06       	cpc	r11, r25
     // current is lower with Gate switched to 0
     if ((adc.lp2+288) > adc.vCEs) goto checkDiode;	// no significant change
    1044:	08 f4       	brcc	.+2      	; 0x1048 <CheckPins+0x76>
    1046:	a0 c4       	rjmp	.+2368   	; 0x1988 <CheckPins+0x9b6>
    1048:	e7 b8       	out	0x07, r14	; 7
    104a:	18 b8       	out	0x08, r1	; 8
    104c:	f5 b8       	out	0x05, r15	; 5
    104e:	8f 2d       	mov	r24, r15
     // switch to common emitter for NPN or N-channel FET
     ADC_DDR = LoADCm;		//Low-Pin to output
    1050:	86 29       	or	r24, r6
     ADC_PORT = TXD_VAL;		//Low-Pin fix to GND
    1052:	84 b9       	out	0x04, r24	; 4
     R_PORT = HiPinRL;			//resistor-Port High-Pin to +, TriState to 0
    1054:	a0 90 2b 01 	lds	r10, 0x012B
     R_DDR = HiPinRL | TriPinRL;	// resistor-Port High-Pin to 1
    1058:	b0 90 2c 01 	lds	r11, 0x012C
     adc.vCEs = ADCconfig.U_AVCC - W5msReadADC(HighPin);	// voltage at 680 Ohm with - Gate
    105c:	89 2d       	mov	r24, r9
    105e:	47 db       	rcall	.-2418   	; 0x6ee <W5msReadADC>
    1060:	a8 1a       	sub	r10, r24
    1062:	b9 0a       	sbc	r11, r25
    1064:	f4 b8       	out	0x04, r15	; 4
    1066:	20 90 2b 01 	lds	r2, 0x012B
    106a:	30 90 2c 01 	lds	r3, 0x012C
     R_DDR = HiPinRL;			// resistor-Port High-Pin to 1, TriState open
    106e:	89 2d       	mov	r24, r9
     adc.lp_otr = ADCconfig.U_AVCC - W5msReadADC(HighPin); // voltage at 680 Ohm with open Gate
    1070:	3e db       	rcall	.-2436   	; 0x6ee <W5msReadADC>
    1072:	28 1a       	sub	r2, r24
    1074:	39 0a       	sbc	r3, r25
    1076:	07 c0       	rjmp	.+14     	; 0x1086 <CheckPins+0xb4>
    1078:	95 01       	movw	r18, r10
    107a:	20 5e       	subi	r18, 0xE0	; 224
    107c:	3e 4f       	sbci	r19, 0xFE	; 254
    107e:	82 17       	cp	r24, r18
    1080:	93 07       	cpc	r25, r19
    1082:	08 f4       	brcc	.+2      	; 0x1086 <CheckPins+0xb4>
#ifdef WITH_PUT
     adc.lp_otrh = adc.lp_otr;
#endif
  } else {
     if ((adc.vCEs+288) > adc.lp2) goto checkDiode;	// no significant change
    1084:	81 c4       	rjmp	.+2306   	; 0x1988 <CheckPins+0x9b6>
    1086:	20 91 4a 01 	lds	r18, 0x014A
    108a:	80 91 62 01 	lds	r24, 0x0162
    108e:	90 e0       	ldi	r25, 0x00	; 0
    1090:	82 0f       	add	r24, r18
  // a TRIAC is marked as two transistors at least (2 or 3)
  // both of NPN transistors (normal and inverse) are found, if ntrans.count == 2
  // both of PNP transistors (normal and inverse) are found, if ptrans.count == 2
  // If Transistor with protection diode is checked, all results are found,
  // if ntrans.count == 1 and ptrans.count == 1
  if ((ntrans.count + ptrans.count) > 1) {
    1092:	91 1d       	adc	r25, r1
    1094:	02 97       	sbiw	r24, 0x02	; 2
    1096:	4c f0       	brlt	.+18     	; 0x10aa <CheckPins+0xd8>
    1098:	21 30       	cpi	r18, 0x01	; 1
    109a:	09 f0       	breq	.+2      	; 0x109e <CheckPins+0xcc>
    109c:	75 c4       	rjmp	.+2282   	; 0x1988 <CheckPins+0x9b6>
    109e:	90 91 47 01 	lds	r25, 0x0147
    10a2:	80 91 5f 01 	lds	r24, 0x015F
     // all transistors found, no more search is needed
     // but TRIAC can be detected as NPNp with same pins as PNPn
     if (!((ntrans.count == 1) && (ntrans.b == ptrans.b))) {
    10a6:	98 13       	cpse	r25, r24
    10a8:	6f c4       	rjmp	.+2270   	; 0x1988 <CheckPins+0x9b6>
    10aa:	16 2d       	mov	r17, r6
    10ac:	11 0f       	add	r17, r17
    10ae:	44 e7       	ldi	r20, 0x74	; 116
    10b0:	a4 16       	cp	r10, r20
    10b2:	b1 04       	cpc	r11, r1
    10b4:	08 f4       	brcc	.+2      	; 0x10b8 <CheckPins+0xe6>
  TriPinRL = pgm_read_byte(addr);	// instruction for TristatePin R_L
#if (((PIN_RL1 + 1) != PIN_RH1) || ((PIN_RL2 + 1) != PIN_RH2) || ((PIN_RL3 + 1) != PIN_RH3))
  addr += 3;			// address of PinRLtab[TristatePin]
  TriPinRH = pgm_read_byte(addr);	// instruction for TristatePin R_H
#else
  TriPinRH = TriPinRL + TriPinRL;			// instruction for TristatePin R_H
    10b6:	9c c0       	rjmp	.+312    	; 0x11f0 <CheckPins+0x21e>
    10b8:	c5 01       	movw	r24, r10
  // Additional checking of adc.lp1 will prevent to detect a PNP as P-JFET.
//  if((PartMode <= PART_MODE_P_JFET) && (adc.lp_otr > 455)  && (adc.vCEs > 455))
  
//  if((adc.lp_otr > 455)  && (adc.vCEs > 455))
//  if((adc.vCEs > 115)  && ((adc.vCEs+100) > adc.lp_otr))
  if((adc.vCEs > 115)  && ((adc.vCEs+adc.vCEs+20) > adc.lp_otr))
    10ba:	88 0f       	add	r24, r24
    10bc:	99 1f       	adc	r25, r25
    10be:	44 96       	adiw	r24, 0x14	; 20
    10c0:	28 16       	cp	r2, r24
    10c2:	39 06       	cpc	r3, r25
    10c4:	08 f0       	brcs	.+2      	; 0x10c8 <CheckPins+0xf6>
    10c6:	94 c0       	rjmp	.+296    	; 0x11f0 <CheckPins+0x21e>
    10c8:	77 b8       	out	0x07, r7	; 7
    10ca:	78 b8       	out	0x08, r7	; 8
    10cc:	81 2f       	mov	r24, r17
    10ce:	85 29       	or	r24, r5
    10d0:	84 b9       	out	0x04, r24	; 4
    10d2:	88 2d       	mov	r24, r8
     {  //there is more than 650uA current without TristatePin current 
     // can be JFET or D-FET
     //Test if N-JFET or if self-conducting N-MOSFET
#ifdef EXACT_OTR
     ADC_DDR = HiADCm;		//High-Pin to output
    10d4:	0b db       	rcall	.-2538   	; 0x6ec <W10msReadADC>
     ADC_PORT = HiADCp;		//High-Pin fix to Vcc
    10d6:	6c 01       	movw	r12, r24
#endif
     R_DDR = LoPinRL | TriPinRH;	//switch R_H for Tristate-Pin (probably Gate) to GND
    10d8:	84 2d       	mov	r24, r4
    10da:	0a db       	rcall	.-2540   	; 0x6f0 <ReadADC>
    10dc:	5c 01       	movw	r10, r24
     adc.lp1 = W10msReadADC(LowPin);	//measure voltage at the assumed Source 
    10de:	15 b9       	out	0x05, r17	; 5
    10e0:	88 2d       	mov	r24, r8
    10e2:	04 db       	rcall	.-2552   	; 0x6ec <W10msReadADC>
    10e4:	96 01       	movw	r18, r12
     adc.tp1 = ReadADC(TristatePin);	// measure Gate voltage
    10e6:	29 5a       	subi	r18, 0xA9	; 169
    10e8:	3d 4f       	sbci	r19, 0xFD	; 253
    10ea:	1f 29       	or	r17, r15
    10ec:	18 b8       	out	0x08, r1	; 8
     R_PORT = TriPinRH;			//switch R_H for Tristate-Pin (probably Gate) to VCC
    10ee:	e7 b8       	out	0x07, r14	; 7
     adc.lp2 = W10msReadADC(LowPin);	//measure voltage at the assumed Source again
    10f0:	14 b9       	out	0x04, r17	; 4
    10f2:	15 b9       	out	0x05, r17	; 5
    10f4:	28 17       	cp	r18, r24
     lcd_space();
     DisplayValue16(adc.lp2,-3,' ',3);
     DisplayValue16(adc.lp1,-3,' ',3);
#endif
     //If it is a self-conducting MOSFET or JFET, then must be: adc.lp2 > adc.lp1 
     if(adc.lp2>(adc.lp1+599)) {
    10f6:	39 07       	cpc	r19, r25
    10f8:	a8 f5       	brcc	.+106    	; 0x1164 <CheckPins+0x192>
    10fa:	84 2d       	mov	r24, r4
    10fc:	f7 da       	rcall	.-2578   	; 0x6ec <W10msReadADC>
        //measure voltage at the  Gate, differ between MOSFET and JFET
        ADC_PORT = TXD_VAL;
    10fe:	88 34       	cpi	r24, 0x48	; 72
        ADC_DDR = LoADCm;	//Low-Pin fix to GND
    1100:	9f 40       	sbci	r25, 0x0F	; 15
        R_DDR = TriPinRH | HiPinRL;	//High-Pin to output
    1102:	28 f0       	brcs	.+10     	; 0x110e <CheckPins+0x13c>
        R_PORT = TriPinRH | HiPinRL;	//switch R_L for High-Pin to VCC
    1104:	85 e0       	ldi	r24, 0x05	; 5
     lcd_space();
     DisplayValue16(adc.lp2,-3,' ',3);
     DisplayValue16(adc.lp1,-3,' ',3);
#endif
     //If it is a self-conducting MOSFET or JFET, then must be: adc.lp2 > adc.lp1 
     if(adc.lp2>(adc.lp1+599)) {
    1106:	80 93 16 01 	sts	0x0116, r24
    110a:	82 e2       	ldi	r24, 0x22	; 34
        //measure voltage at the  Gate, differ between MOSFET and JFET
        ADC_PORT = TXD_VAL;
        ADC_DDR = LoADCm;	//Low-Pin fix to GND
        R_DDR = TriPinRH | HiPinRL;	//High-Pin to output
        R_PORT = TriPinRH | HiPinRL;	//switch R_L for High-Pin to VCC
        adc.lp2 = W10msReadADC(TristatePin); //read voltage of assumed Gate 
    110c:	04 c0       	rjmp	.+8      	; 0x1116 <CheckPins+0x144>
    110e:	85 e0       	ldi	r24, 0x05	; 5
    1110:	80 93 16 01 	sts	0x0116, r24
        if(adc.lp2>3911) {  //MOSFET
    1114:	84 e2       	ldi	r24, 0x24	; 36
    1116:	80 93 15 01 	sts	0x0115, r24
           PartFound = PART_FET;	//N-Kanal-MOSFET
    111a:	d0 92 40 01 	sts	0x0140, r13
           PartMode = PART_MODE_MOS|N_CHANNEL|D_MODE; //Depletion-MOSFET
    111e:	c0 92 3f 01 	sts	0x013F, r12
        } else {  //JFET (pn-passage between Gate and Source is conducting )
           PartFound = PART_FET;	//N-Kanal-JFET
    1122:	ac 14       	cp	r10, r12
    1124:	bd 04       	cpc	r11, r13
    1126:	40 f4       	brcc	.+16     	; 0x1138 <CheckPins+0x166>
           PartMode = PART_MODE_JFET|N_CHANNEL|D_MODE;
    1128:	c6 01       	movw	r24, r12
    112a:	8a 19       	sub	r24, r10
    112c:	9b 09       	sbc	r25, r11
        lcd_data('N');
        lcd_data('J');
#endif
//      if ((PartReady == 0) || (adc.lp1 > ntrans.uBE)) 
//      there is no way to find out the right Source / Drain
        ntrans.uBE = adc.lp1;
    112e:	90 93 46 01 	sts	0x0146, r25
    1132:	80 93 45 01 	sts	0x0145, r24
        if(adc.lp1 > adc.tp1) {
    1136:	04 c0       	rjmp	.+8      	; 0x1140 <CheckPins+0x16e>
    1138:	10 92 46 01 	sts	0x0146, r1
          ntrans.gthvoltage = adc.lp1 - adc.tp1;	//voltage GS (Source - Gate)
    113c:	10 92 45 01 	sts	0x0145, r1
    1140:	96 01       	movw	r18, r12
    1142:	a0 e1       	ldi	r26, 0x10	; 16
    1144:	b7 e2       	ldi	r27, 0x27	; 39
    1146:	0e 94 2d 1e 	call	0x3c5a	; 0x3c5a <__umulhisi3>
    114a:	20 91 10 01 	lds	r18, 0x0110
        } else {
          ntrans.gthvoltage = 0;	//voltage GS (Source - Gate)
    114e:	30 91 11 01 	lds	r19, 0x0111
    1152:	40 e0       	ldi	r20, 0x00	; 0
        }
        ntrans.current = (unsigned int)(((unsigned long)adc.lp1 * 10000) / RR680MI); // Id 1uA
    1154:	50 e0       	ldi	r21, 0x00	; 0
    1156:	0e 94 7b 1e 	call	0x3cf6	; 0x3cf6 <__udivmodsi4>
    115a:	30 93 42 01 	sts	0x0142, r19
    115e:	20 93 41 01 	sts	0x0141, r18
    1162:	0a c4       	rjmp	.+2068   	; 0x1978 <CheckPins+0x9a6>
    1164:	89 2d       	mov	r24, r9
    1166:	c2 da       	rcall	.-2684   	; 0x6ec <W10msReadADC>
    1168:	8c 01       	movw	r16, r24
    116a:	84 2d       	mov	r24, r4
    116c:	c1 da       	rcall	.-2686   	; 0x6f0 <ReadADC>
    116e:	6c 01       	movw	r12, r24
    1170:	f5 b8       	out	0x05, r15	; 5
    1172:	89 2d       	mov	r24, r9
    1174:	bb da       	rcall	.-2698   	; 0x6ec <W10msReadADC>
    1176:	89 5a       	subi	r24, 0xA9	; 169
     //Test, if P-JFET or if self-conducting P-MOSFET
     ADC_DDR = LoADCm;		//switch Low-Pin (assumed Drain) direct to GND,
				//R_H for Tristate-Pin (assumed Gate) is already switched to VCC
     R_DDR = TriPinRH | HiPinRL;	//High-Pin to output
     R_PORT = TriPinRH | HiPinRL;	//High-Pin across R_L to Vcc
     adc.hp1 = W10msReadADC(HighPin);	//measure voltage at assumed Source 
    1178:	9d 4f       	sbci	r25, 0xFD	; 253
    117a:	80 17       	cp	r24, r16
    117c:	91 07       	cpc	r25, r17
    117e:	08 f0       	brcs	.+2      	; 0x1182 <CheckPins+0x1b0>
     adc.tp1 = ReadADC(TristatePin);	// measure Gate voltage
    1180:	03 c4       	rjmp	.+2054   	; 0x1988 <CheckPins+0x9b6>
    1182:	78 b8       	out	0x08, r7	; 8
    1184:	77 b8       	out	0x07, r7	; 7
    1186:	84 2d       	mov	r24, r4
     R_PORT = HiPinRL;			//switch R_H for Tristate-Pin (assumed Gate) to GND
    1188:	b1 da       	rcall	.-2718   	; 0x6ec <W10msReadADC>
     adc.hp2 = W10msReadADC(HighPin);	//read voltage at assumed Source again
    118a:	81 3d       	cpi	r24, 0xD1	; 209
    118c:	93 40       	sbci	r25, 0x03	; 3
    118e:	28 f4       	brcc	.+10     	; 0x119a <CheckPins+0x1c8>
     //if it is a self-conducting P_MOSFET or P-JFET , then must be:  adc.hp1 > adc.hp2 
     if(adc.hp1>(adc.hp2+599)) {
    1190:	85 e0       	ldi	r24, 0x05	; 5
    1192:	80 93 16 01 	sts	0x0116, r24
    1196:	82 e3       	ldi	r24, 0x32	; 50
    1198:	04 c0       	rjmp	.+8      	; 0x11a2 <CheckPins+0x1d0>
    119a:	85 e0       	ldi	r24, 0x05	; 5
        //read voltage at the Gate , to differ between MOSFET and JFET
        ADC_PORT = HiADCp;	//switch High-Pin directly to VCC
    119c:	80 93 16 01 	sts	0x0116, r24
        ADC_DDR = HiADCm;	//switch High-Pin to output
        adc.tp2 = W10msReadADC(TristatePin); //read voltage at the assumed Gate 
    11a0:	84 e3       	ldi	r24, 0x34	; 52
    11a2:	80 93 15 01 	sts	0x0115, r24
        if(adc.tp2<977) { 		//MOSFET
    11a6:	0c 15       	cp	r16, r12
    11a8:	1d 05       	cpc	r17, r13
    11aa:	38 f4       	brcc	.+14     	; 0x11ba <CheckPins+0x1e8>
           PartFound = PART_FET;	//P-Kanal-MOSFET
    11ac:	c0 1a       	sub	r12, r16
    11ae:	d1 0a       	sbc	r13, r17
    11b0:	d0 92 5e 01 	sts	0x015E, r13
           PartMode = PART_MODE_MOS|P_CHANNEL|D_MODE; //Depletion-MOSFET
    11b4:	c0 92 5d 01 	sts	0x015D, r12
        } else { 			//JFET (pn-passage between Gate and Source is conducting)
           PartFound = PART_FET;	//P-Kanal-JFET
    11b8:	04 c0       	rjmp	.+8      	; 0x11c2 <CheckPins+0x1f0>
    11ba:	10 92 5e 01 	sts	0x015E, r1
           PartMode = PART_MODE_JFET|P_CHANNEL|D_MODE;
    11be:	10 92 5d 01 	sts	0x015D, r1
        }
#if DebugOut == 5
        lcd_data('P');
        lcd_data('J');
#endif
        if(adc.tp1 > adc.hp1) {
    11c2:	20 91 2b 01 	lds	r18, 0x012B
    11c6:	30 91 2c 01 	lds	r19, 0x012C
          ptrans.gthvoltage = adc.tp1 - adc.hp1;	//voltage GS (Gate - Source)
    11ca:	20 1b       	sub	r18, r16
    11cc:	31 0b       	sbc	r19, r17
    11ce:	a0 e1       	ldi	r26, 0x10	; 16
    11d0:	b7 e2       	ldi	r27, 0x27	; 39
    11d2:	0e 94 2d 1e 	call	0x3c5a	; 0x3c5a <__umulhisi3>
        } else {
          ptrans.gthvoltage = 0;
    11d6:	20 91 17 01 	lds	r18, 0x0117
    11da:	30 91 18 01 	lds	r19, 0x0118
        }
        ptrans.current = (unsigned int)(((unsigned long)(ADCconfig.U_AVCC - adc.hp1) * 10000) / RR680PL); // Id 1uA
    11de:	40 e0       	ldi	r20, 0x00	; 0
    11e0:	50 e0       	ldi	r21, 0x00	; 0
    11e2:	0e 94 7b 1e 	call	0x3cf6	; 0x3cf6 <__udivmodsi4>
    11e6:	30 93 5a 01 	sts	0x015A, r19
    11ea:	20 93 59 01 	sts	0x0159, r18
    11ee:	a8 c1       	rjmp	.+848    	; 0x1540 <CheckPins+0x56e>
    11f0:	18 b8       	out	0x08, r1	; 8
    11f2:	e7 b8       	out	0x07, r14	; 7
    11f4:	f5 b8       	out	0x05, r15	; 5
    11f6:	0f 2d       	mov	r16, r15
    11f8:	06 29       	or	r16, r6
    11fa:	04 b9       	out	0x04, r16	; 4
    11fc:	89 2d       	mov	r24, r9
    11fe:	77 da       	rcall	.-2834   	; 0x6ee <W5msReadADC>
    1200:	9c 83       	std	Y+4, r25	; 0x04
    1202:	8b 83       	std	Y+3, r24	; 0x03
    1204:	c0 90 2b 01 	lds	r12, 0x012B
    1208:	d0 90 2c 01 	lds	r13, 0x012C


  //there is more than 650uA current without TristatePin current 
#ifdef COMMON_COLLECTOR
  // Test circuit with common collector (Emitter follower) PNP
  ADC_PORT = TXD_VAL;
    120c:	84 2d       	mov	r24, r4
  ADC_DDR = LoADCm;			// Collector direct to GND
    120e:	70 da       	rcall	.-2848   	; 0x6f0 <ReadADC>
  R_PORT = HiPinRL;			// switch R_L port for HighPin (Emitter) to VCC
    1210:	9a 83       	std	Y+2, r25	; 0x02
  R_DDR = TriPinRL | HiPinRL;		// Base resistor  R_L to GND
    1212:	89 83       	std	Y+1, r24	; 0x01
    1214:	0a 97       	sbiw	r24, 0x0a	; 10
    1216:	60 f5       	brcc	.+88     	; 0x1270 <CheckPins+0x29e>
  adc.hp1 = W5msReadADC(HighPin);	// voltage at the Emitter resistor
    1218:	14 b8       	out	0x04, r1	; 4
    121a:	51 da       	rcall	.-2910   	; 0x6be <wait5ms>
    121c:	81 2f       	mov	r24, r17
    121e:	8f 29       	or	r24, r15
    1220:	84 b9       	out	0x04, r24	; 4
  adc.rhp = ADCconfig.U_AVCC - adc.hp1;	// voltage at the Emitter resistor
    1222:	89 2d       	mov	r24, r9
    1224:	64 da       	rcall	.-2872   	; 0x6ee <W5msReadADC>
    1226:	9c 83       	std	Y+4, r25	; 0x04
    1228:	8b 83       	std	Y+3, r24	; 0x03
  adc.tp1 = ReadADC(TristatePin);	// voltage at the base resistor
    122a:	80 91 2b 01 	lds	r24, 0x012B
    122e:	90 91 2c 01 	lds	r25, 0x012C
    1232:	ab 81       	ldd	r26, Y+3	; 0x03

  if (adc.tp1 < 10) {
    1234:	bc 81       	ldd	r27, Y+4	; 0x04
    1236:	8a 1b       	sub	r24, r26
     R_DDR = 0;
    1238:	9b 0b       	sbc	r25, r27
     wait_about5ms();		// clear TRIAC and Thyristor
    123a:	9d 8b       	std	Y+21, r25	; 0x15
    123c:	8c 8b       	std	Y+20, r24	; 0x14
     R_DDR =  TriPinRH | HiPinRL;	// Tripin=RH-
    123e:	84 2d       	mov	r24, r4
    1240:	57 da       	rcall	.-2898   	; 0x6f0 <ReadADC>
    1242:	9a 83       	std	Y+2, r25	; 0x02
     adc.hp1 = W5msReadADC(HighPin);
    1244:	89 83       	std	Y+1, r24	; 0x01
    1246:	80 91 17 01 	lds	r24, 0x0117
    124a:	90 91 18 01 	lds	r25, 0x0118
     adc.rhp = ADCconfig.U_AVCC - adc.hp1;	// voltage at the Emitter resistor
    124e:	9c 01       	movw	r18, r24
    1250:	40 e0       	ldi	r20, 0x00	; 0
    1252:	50 e0       	ldi	r21, 0x00	; 0
    1254:	60 e8       	ldi	r22, 0x80	; 128
    1256:	71 ea       	ldi	r23, 0xA1	; 161
    1258:	83 e0       	ldi	r24, 0x03	; 3
    125a:	9c e1       	ldi	r25, 0x1C	; 28
    125c:	0e 94 7b 1e 	call	0x3cf6	; 0x3cf6 <__udivmodsi4>
    1260:	ac 89       	ldd	r26, Y+20	; 0x14
     adc.tp1 = ReadADC(TristatePin);	// voltage at base resistor 
    1262:	bd 89       	ldd	r27, Y+21	; 0x15
    1264:	0e 94 42 1e 	call	0x3c84	; 0x3c84 <__muluhisi3>
    1268:	e9 81       	ldd	r30, Y+1	; 0x01
    126a:	fa 81       	ldd	r31, Y+2	; 0x02
     // c_hfe with 1% resolution for optocoupler
 #ifdef LONG_HFE
     c_hfe = ((unsigned long)adc.rhp * (unsigned long)(((unsigned long)R_H_VAL * 10000) / 
    126c:	9f 01       	movw	r18, r30
    126e:	12 c0       	rjmp	.+36     	; 0x1294 <CheckPins+0x2c2>
    1270:	96 01       	movw	r18, r12
    1272:	4b 81       	ldd	r20, Y+3	; 0x03
    1274:	5c 81       	ldd	r21, Y+4	; 0x04
    1276:	24 1b       	sub	r18, r20
    1278:	35 0b       	sbc	r19, r21
    127a:	3d 8b       	std	Y+21, r19	; 0x15
    127c:	2c 8b       	std	Y+20, r18	; 0x14
    127e:	69 81       	ldd	r22, Y+1	; 0x01
    1280:	7a 81       	ldd	r23, Y+2	; 0x02
    1282:	26 1b       	sub	r18, r22
    1284:	37 0b       	sbc	r19, r23
    1286:	a4 e6       	ldi	r26, 0x64	; 100
    1288:	b0 e0       	ldi	r27, 0x00	; 0
    128a:	0e 94 2d 1e 	call	0x3c5a	; 0x3c5a <__umulhisi3>
              (unsigned int)RR680PL)) / (unsigned int)adc.tp1;	
    128e:	a9 81       	ldd	r26, Y+1	; 0x01
    1290:	ba 81       	ldd	r27, Y+2	; 0x02
    1292:	9d 01       	movw	r18, r26
    1294:	40 e0       	ldi	r20, 0x00	; 0
  ADC_PORT = TXD_VAL;
  ADC_DDR = LoADCm;			// Collector direct to GND
  R_PORT = HiPinRL;			// switch R_L port for HighPin (Emitter) to VCC
  R_DDR = TriPinRL | HiPinRL;		// Base resistor  R_L to GND
  adc.hp1 = W5msReadADC(HighPin);	// voltage at the Emitter resistor
  adc.rhp = ADCconfig.U_AVCC - adc.hp1;	// voltage at the Emitter resistor
    1296:	50 e0       	ldi	r21, 0x00	; 0
    1298:	0e 94 7b 1e 	call	0x3cf6	; 0x3cf6 <__udivmodsi4>
    129c:	29 87       	std	Y+9, r18	; 0x09
    129e:	3a 87       	std	Y+10, r19	; 0x0a
    12a0:	4b 87       	std	Y+11, r20	; 0x0b
    12a2:	5c 87       	std	Y+12, r21	; 0x0c
              (unsigned int)RR680PL)) / (unsigned int)adc.tp1;	
 #else
     c_hfe = ((adc.rhp / ((RR680PL+500)/1000)) * (R_H_VAL/500)) / (adc.tp1/5);
 #endif
  } else {
     c_hfe = (unsigned long)((unsigned long)(adc.rhp - adc.tp1) * 100) / adc.tp1;
    12a4:	14 b8       	out	0x04, r1	; 4
    12a6:	15 b8       	out	0x05, r1	; 5
    12a8:	78 b8       	out	0x08, r7	; 8
    12aa:	77 b8       	out	0x07, r7	; 7
    12ac:	08 da       	rcall	.-3056   	; 0x6be <wait5ms>
    12ae:	b9 eb       	ldi	r27, 0xB9	; 185
    12b0:	2b 16       	cp	r2, r27
    12b2:	b7 e0       	ldi	r27, 0x07	; 7
    12b4:	3b 06       	cpc	r3, r27
    12b6:	08 f0       	brcs	.+2      	; 0x12ba <CheckPins+0x2e8>
    12b8:	67 c3       	rjmp	.+1742   	; 0x1988 <CheckPins+0x9b6>
    12ba:	ed 81       	ldd	r30, Y+5	; 0x05
    12bc:	e4 b9       	out	0x04, r30	; 4
    12be:	88 2d       	mov	r24, r8
    12c0:	16 da       	rcall	.-3028   	; 0x6ee <W5msReadADC>
    12c2:	8f 35       	cpi	r24, 0x5F	; 95
    12c4:	9d 40       	sbci	r25, 0x0D	; 13
    12c6:	08 f4       	brcc	.+2      	; 0x12ca <CheckPins+0x2f8>
    12c8:	41 c1       	rjmp	.+642    	; 0x154c <CheckPins+0x57a>
  }
#endif

  //set Pins again for circuit with common Emitter PNP
  R_DDR = 0;			//all Resistor Ports to Input
    12ca:	14 b8       	out	0x04, r1	; 4
  R_PORT = 0;			//switch all resistor ports to GND
    12cc:	f8 d9       	rcall	.-3088   	; 0x6be <wait5ms>
  ADC_PORT = HiADCp;		//switch High-Pin to VCC
    12ce:	2d 81       	ldd	r18, Y+5	; 0x05
  ADC_DDR = HiADCm;		//switch High-Pin to output
    12d0:	24 b9       	out	0x04, r18	; 4
//  R_DDR = LoPinRL;		//switch R_L port for Low-Pin to output (GND)
  wait_about5ms();
    12d2:	f5 d9       	rcall	.-3094   	; 0x6be <wait5ms>
    12d4:	31 2f       	mov	r19, r17
  


#ifndef WITH_PUT
  if(adc.lp_otr < 1977) 
    12d6:	35 29       	or	r19, r5
    12d8:	3f 87       	std	Y+15, r19	; 0x0f
    12da:	34 b9       	out	0x04, r19	; 4
    12dc:	88 2d       	mov	r24, r8
    12de:	07 da       	rcall	.-3058   	; 0x6ee <W5msReadADC>
    12e0:	6c 01       	movw	r12, r24
     lcd_data('E');
     lcd_testpin(HighPin);
     lcd_space();
#endif
     //Test to PNP
     R_DDR = LoPinRL | TriPinRL;	//switch R_L port for Tristate-Pin to output (GND), for Test of PNP
    12e2:	84 2d       	mov	r24, r4
    12e4:	05 da       	rcall	.-3062   	; 0x6f0 <ReadADC>
     adc.lp1 = W5msReadADC(LowPin);	//measure voltage at LowPin
    12e6:	9e 87       	std	Y+14, r25	; 0x0e
    12e8:	8d 87       	std	Y+13, r24	; 0x0d
    12ea:	89 2d       	mov	r24, r9
     if(adc.lp1 > 3422) {
    12ec:	01 da       	rcall	.-3070   	; 0x6f0 <ReadADC>
    12ee:	98 87       	std	Y+8, r25	; 0x08
    12f0:	8f 83       	std	Y+7, r24	; 0x07
    12f2:	4d 85       	ldd	r20, Y+13	; 0x0d
        //component has current => PNP-Transistor or equivalent
        R_DDR = 0;
    12f4:	5e 85       	ldd	r21, Y+14	; 0x0e
        wait_about5ms();		// clear TRIAC and Thyristor
    12f6:	41 3d       	cpi	r20, 0xD1	; 209
    12f8:	57 40       	sbci	r21, 0x07	; 7
        //compute current amplification factor in both directions
#if FLASHEND > 0x1fff
        R_DDR = LoPinRL | TriPinRL;	//switch R_L port for Tristate-Pin (Base) to output (GND)
    12fa:	08 f4       	brcc	.+2      	; 0x12fe <CheckPins+0x32c>
    12fc:	ae c0       	rjmp	.+348    	; 0x145a <CheckPins+0x488>
        wait_about5ms();		// load gate capacitor
    12fe:	84 e0       	ldi	r24, 0x04	; 4
    1300:	80 93 16 01 	sts	0x0116, r24
        R_DDR = LoPinRL | TriPinRH;	//switch R_H port for Tristate-Pin (Base) to output (GND)
    1304:	8d e0       	ldi	r24, 0x0D	; 13
    1306:	80 93 15 01 	sts	0x0115, r24
        adc.lp1 = W5msReadADC(LowPin);	//measure voltage at LowPin (assumed Collector)
    130a:	36 01       	movw	r6, r12
    130c:	2c 14       	cp	r2, r12
    130e:	3d 04       	cpc	r3, r13
    1310:	10 f4       	brcc	.+4      	; 0x1316 <CheckPins+0x344>
#else
        R_DDR = LoPinRL | TriPinRH;	//switch R_H port for Tristate-Pin (Base) to output (GND)
        adc.lp1 = W10msReadADC(LowPin);	//measure voltage at LowPin (assumed Collector)
#endif
        adc.tp2 = ReadADC(TristatePin);	//measure voltage at TristatePin (Base) 
    1312:	62 18       	sub	r6, r2
    1314:	73 08       	sbc	r7, r3
    1316:	e0 90 10 01 	lds	r14, 0x0110
    131a:	f0 90 11 01 	lds	r15, 0x0111
        adc.hp2 = ReadADC(HighPin);	//measure voltage at HighPin (assumed Emitter)
    131e:	00 e0       	ldi	r16, 0x00	; 0
    1320:	10 e0       	ldi	r17, 0x00	; 0
    1322:	60 e8       	ldi	r22, 0x80	; 128
    1324:	71 ea       	ldi	r23, 0xA1	; 161

        if(adc.tp2 > 2000) {
    1326:	83 e0       	ldi	r24, 0x03	; 3
    1328:	9c e1       	ldi	r25, 0x1C	; 28
    132a:	a8 01       	movw	r20, r16
    132c:	97 01       	movw	r18, r14
    132e:	0e 94 7b 1e 	call	0x3cf6	; 0x3cf6 <__udivmodsi4>
              ptrans.uBE = adc.hp2 - adc.tp2;	// "Offset Voltage"
              goto savePresult;
           }
#endif
           //PNP-Transistor is found (Base voltage moves with Emitter to VCC)
           PartFound = PART_TRANSISTOR;
    1332:	d3 01       	movw	r26, r6
    1334:	0e 94 42 1e 	call	0x3c84	; 0x3c84 <__muluhisi3>
           PartMode = PART_MODE_PNP;
    1338:	ad 85       	ldd	r26, Y+13	; 0x0d
    133a:	be 85       	ldd	r27, Y+14	; 0x0e
    133c:	9d 01       	movw	r18, r26
#ifdef COMMON_EMITTER
           //compute current amplification factor for circuit with common Emitter
           //e_hFE = B = Collector current / Base current
           tmp16 = adc.lp1;
           if (tmp16 > adc.lp_otr) {
              tmp16 -= adc.lp_otr;
    133e:	40 e0       	ldi	r20, 0x00	; 0
           update_pins = 0;		// only update pins, if hFE is higher or Thyristor 
#ifdef COMMON_EMITTER
           //compute current amplification factor for circuit with common Emitter
           //e_hFE = B = Collector current / Base current
           tmp16 = adc.lp1;
           if (tmp16 > adc.lp_otr) {
    1340:	50 e0       	ldi	r21, 0x00	; 0
    1342:	0e 94 7b 1e 	call	0x3cf6	; 0x3cf6 <__udivmodsi4>
              tmp16 -= adc.lp_otr;
    1346:	80 91 62 01 	lds	r24, 0x0162
           }
           // e_hfe with 1% resolution for optocoupler
 #ifdef LONG_HFE
           e_hfe = ((unsigned int)tmp16 * (unsigned long)(((unsigned long)R_H_VAL * 10000) / 
    134a:	88 23       	and	r24, r24
    134c:	69 f0       	breq	.+26     	; 0x1368 <CheckPins+0x396>
    134e:	80 91 53 01 	lds	r24, 0x0153
    1352:	90 91 54 01 	lds	r25, 0x0154
    1356:	a0 91 55 01 	lds	r26, 0x0155
    135a:	b0 91 56 01 	lds	r27, 0x0156
    135e:	82 17       	cp	r24, r18
    1360:	93 07       	cpc	r25, r19
    1362:	a4 07       	cpc	r26, r20
    1364:	b5 07       	cpc	r27, r21
    1366:	08 f5       	brcc	.+66     	; 0x13aa <CheckPins+0x3d8>
    1368:	20 93 53 01 	sts	0x0153, r18
              (unsigned int)RR680MI)) / (unsigned int)adc.tp2;	
    136c:	30 93 54 01 	sts	0x0154, r19
    1370:	40 93 55 01 	sts	0x0155, r20
    1374:	50 93 56 01 	sts	0x0156, r21
           if (tmp16 > adc.lp_otr) {
              tmp16 -= adc.lp_otr;
           }
           // e_hfe with 1% resolution for optocoupler
 #ifdef LONG_HFE
           e_hfe = ((unsigned int)tmp16 * (unsigned long)(((unsigned long)R_H_VAL * 10000) / 
    1378:	96 01       	movw	r18, r12
              (unsigned int)RR680MI)) / (unsigned int)adc.tp2;	
 #else
           e_hfe = ((tmp16 / ((RR680MI+500)/1000)) * (R_H_VAL/500)) / (adc.tp2/5);
 #endif
           // first hFE or e_hfe is greater than last hfe ?
           if ((ptrans.count == 0) || (e_hfe > ptrans.hfe)){
    137a:	a0 e1       	ldi	r26, 0x10	; 16
    137c:	b7 e2       	ldi	r27, 0x27	; 39
    137e:	0e 94 2d 1e 	call	0x3c5a	; 0x3c5a <__umulhisi3>
    1382:	a8 01       	movw	r20, r16
    1384:	97 01       	movw	r18, r14
    1386:	0e 94 7b 1e 	call	0x3cf6	; 0x3cf6 <__udivmodsi4>
    138a:	30 93 5a 01 	sts	0x015A, r19
    138e:	20 93 59 01 	sts	0x0159, r18
    1392:	8f 81       	ldd	r24, Y+7	; 0x07
    1394:	98 85       	ldd	r25, Y+8	; 0x08
    1396:	ed 85       	ldd	r30, Y+13	; 0x0d
    1398:	fe 85       	ldd	r31, Y+14	; 0x0e
    139a:	8e 1b       	sub	r24, r30
              ptrans.hfe = e_hfe;				// hFE with common emitter
    139c:	9f 0b       	sbc	r25, r31
    139e:	90 93 58 01 	sts	0x0158, r25
    13a2:	80 93 57 01 	sts	0x0157, r24
    13a6:	21 e0       	ldi	r18, 0x01	; 1
    13a8:	01 c0       	rjmp	.+2      	; 0x13ac <CheckPins+0x3da>
    13aa:	20 e0       	ldi	r18, 0x00	; 0
 #if FLASHEND > 0x1fff  /* at least ATmega16 */
              ptrans.current = (unsigned int)(((unsigned long)adc.lp1 * 10000) / RR680MI); // Ic 1uA
    13ac:	80 91 53 01 	lds	r24, 0x0153
    13b0:	90 91 54 01 	lds	r25, 0x0154
    13b4:	a0 91 55 01 	lds	r26, 0x0155
    13b8:	b0 91 56 01 	lds	r27, 0x0156
    13bc:	49 85       	ldd	r20, Y+9	; 0x09
    13be:	5a 85       	ldd	r21, Y+10	; 0x0a
    13c0:	6b 85       	ldd	r22, Y+11	; 0x0b
    13c2:	7c 85       	ldd	r23, Y+12	; 0x0c
    13c4:	84 17       	cp	r24, r20
 #endif
              ptrans.uBE = adc.hp2 - adc.tp2;	// Base Emitter Voltage
    13c6:	95 07       	cpc	r25, r21
    13c8:	a6 07       	cpc	r26, r22
    13ca:	b7 07       	cpc	r27, r23
    13cc:	38 f5       	brcc	.+78     	; 0x141c <CheckPins+0x44a>
    13ce:	40 93 53 01 	sts	0x0153, r20
    13d2:	50 93 54 01 	sts	0x0154, r21
    13d6:	60 93 55 01 	sts	0x0155, r22
              update_pins = 1;		// trans.ebc must be updated
    13da:	70 93 56 01 	sts	0x0156, r23
           }
#endif
           //PNP-Transistor is found (Base voltage moves with Emitter to VCC)
           PartFound = PART_TRANSISTOR;
           PartMode = PART_MODE_PNP;
           update_pins = 0;		// only update pins, if hFE is higher or Thyristor 
    13de:	8b 81       	ldd	r24, Y+3	; 0x03
#ifdef COMMON_COLLECTOR
           //current amplification factor for common  Collector (Emitter follower)
           // c_hFE = (Emitter current - Base current) / Base current
 #ifdef COMMON_EMITTER
           // also with COMMON_EMITTER, is c_hfe greater than the last hFE?
           if (c_hfe > ptrans.hfe)  // trans.hfe is allready e_hfe or last c_hFE
    13e0:	9c 81       	ldd	r25, Y+4	; 0x04
    13e2:	69 81       	ldd	r22, Y+1	; 0x01
    13e4:	7a 81       	ldd	r23, Y+2	; 0x02
    13e6:	86 1b       	sub	r24, r22
    13e8:	97 0b       	sbc	r25, r23
    13ea:	90 93 58 01 	sts	0x0158, r25
    13ee:	80 93 57 01 	sts	0x0157, r24
    13f2:	2c 89       	ldd	r18, Y+20	; 0x14
    13f4:	3d 89       	ldd	r19, Y+21	; 0x15
    13f6:	a0 e1       	ldi	r26, 0x10	; 16
    13f8:	b7 e2       	ldi	r27, 0x27	; 39
    13fa:	0e 94 2d 1e 	call	0x3c5a	; 0x3c5a <__umulhisi3>
    13fe:	20 91 17 01 	lds	r18, 0x0117
 #else
           // without COMMON_EMITTER , c_hFE is first or greater than the old one?
           if ((ptrans.count == 0) || (c_hfe > ptrans.hfe)) 
 #endif
           {
              ptrans.hfe = c_hfe;		// c_hfe is the best
    1402:	30 91 18 01 	lds	r19, 0x0118
    1406:	40 e0       	ldi	r20, 0x00	; 0
    1408:	50 e0       	ldi	r21, 0x00	; 0
    140a:	0e 94 7b 1e 	call	0x3cf6	; 0x3cf6 <__udivmodsi4>
    140e:	20 5f       	subi	r18, 0xF0	; 240
    1410:	38 4d       	sbci	r19, 0xD8	; 216
              ptrans.uBE = adc.hp1 - adc.tp1;	// Base Emitter Voltage common collector
    1412:	30 93 5a 01 	sts	0x015A, r19
    1416:	20 93 59 01 	sts	0x0159, r18
    141a:	03 c0       	rjmp	.+6      	; 0x1422 <CheckPins+0x450>
    141c:	22 23       	and	r18, r18
    141e:	09 f4       	brne	.+2      	; 0x1422 <CheckPins+0x450>
    1420:	76 c3       	rjmp	.+1772   	; 0x1b0e <CheckPins+0xb3c>
    1422:	91 01       	movw	r18, r2
    1424:	a0 e1       	ldi	r26, 0x10	; 16
 #if FLASHEND > 0x1fff  /* at least ATmega16 */
              ptrans.current = (unsigned int)(((unsigned long)adc.rhp * 10000) / RR680PL); // Ie 1uA
    1426:	b7 e2       	ldi	r27, 0x27	; 39
    1428:	0e 94 2d 1e 	call	0x3c5a	; 0x3c5a <__umulhisi3>
    142c:	a8 01       	movw	r20, r16
    142e:	97 01       	movw	r18, r14
    1430:	0e 94 7b 1e 	call	0x3cf6	; 0x3cf6 <__udivmodsi4>
    1434:	30 93 5c 01 	sts	0x015C, r19
    1438:	20 93 5b 01 	sts	0x015B, r18
    143c:	95 01       	movw	r18, r10
    143e:	a0 e1       	ldi	r26, 0x10	; 16
    1440:	b7 e2       	ldi	r27, 0x27	; 39
              ptrans.current += 10000;		// current at emitter!
    1442:	0e 94 2d 1e 	call	0x3c5a	; 0x3c5a <__umulhisi3>
    1446:	a8 01       	movw	r20, r16
    1448:	97 01       	movw	r18, r14
    144a:	0e 94 7b 1e 	call	0x3cf6	; 0x3cf6 <__udivmodsi4>
    144e:	30 93 5e 01 	sts	0x015E, r19
#endif
#if DebugOut == 5
           lcd_data('B');
#endif
#ifdef SHOW_ICE
           if (update_pins != 0) {
    1452:	20 93 5d 01 	sts	0x015D, r18
	      // update residual collector current without base current
              ptrans.ice0 = (unsigned int)(((unsigned long)adc.lp_otr * 10000) / RR680MI); // ICE0 1uA
    1456:	21 e0       	ldi	r18, 0x01	; 1
    1458:	5a c3       	rjmp	.+1716   	; 0x1b0e <CheckPins+0xb3c>
    145a:	71 e6       	ldi	r23, 0x61	; 97
    145c:	27 16       	cp	r2, r23
    145e:	31 04       	cpc	r3, r1
    1460:	08 f0       	brcs	.+2      	; 0x1464 <CheckPins+0x492>
    1462:	74 c0       	rjmp	.+232    	; 0x154c <CheckPins+0x57a>
    1464:	81 ed       	ldi	r24, 0xD1	; 209
    1466:	c8 16       	cp	r12, r24
    1468:	87 e0       	ldi	r24, 0x07	; 7
    146a:	d8 06       	cpc	r13, r24
    146c:	08 f4       	brcc	.+2      	; 0x1470 <CheckPins+0x49e>
    146e:	6e c0       	rjmp	.+220    	; 0x154c <CheckPins+0x57a>
              ptrans.ices = (unsigned int)(((unsigned long)adc.vCEs * 10000) / RR680MI); // ICEs 1uA
    1470:	85 e0       	ldi	r24, 0x05	; 5
    1472:	80 93 16 01 	sts	0x0116, r24
    1476:	82 e1       	ldi	r24, 0x12	; 18
    1478:	80 93 15 01 	sts	0x0115, r24
    147c:	c6 01       	movw	r24, r12
    147e:	86 50       	subi	r24, 0x06	; 6
    1480:	9f 4f       	sbci	r25, 0xFF	; 255
    1482:	af 81       	ldd	r26, Y+7	; 0x07
    1484:	b8 85       	ldd	r27, Y+8	; 0x08
    1486:	8a 17       	cp	r24, r26
    1488:	9b 07       	cpc	r25, r27
    148a:	20 f4       	brcc	.+8      	; 0x1494 <CheckPins+0x4c2>
    148c:	83 e1       	ldi	r24, 0x13	; 19
           }
#endif
           goto savePresult;		// marke P type, save Pins and exit
        }
        // is probably a P-E-MOS, check voltage
        if((adc.lp_otr < 97) && (adc.lp1 > 2000)) {
    148e:	80 93 15 01 	sts	0x0115, r24
    1492:	1c c0       	rjmp	.+56     	; 0x14cc <CheckPins+0x4fa>
    1494:	ef 81       	ldd	r30, Y+7	; 0x07
    1496:	f8 85       	ldd	r31, Y+8	; 0x08
    1498:	ce 16       	cp	r12, r30
    149a:	df 06       	cpc	r13, r31
    149c:	98 f4       	brcc	.+38     	; 0x14c4 <CheckPins+0x4f2>
    149e:	a0 91 10 01 	lds	r26, 0x0110
    14a2:	b0 91 11 01 	lds	r27, 0x0111
           //is flow voltage low enough in the closed  state?
           //(since D-Mode-FET would be by mistake detected as E-Mode )
           PartFound = PART_FET;		//P-Kanal-MOSFET is found (Basis/Gate moves not to VCC)
    14a6:	9f 01       	movw	r18, r30
    14a8:	2c 19       	sub	r18, r12
           PartMode = PART_MODE_MOS|P_CHANNEL|E_MODE;
    14aa:	3d 09       	sbc	r19, r13
    14ac:	0e 94 2d 1e 	call	0x3c5a	; 0x3c5a <__umulhisi3>
           if (adc.hp2 > (adc.lp1+250)) {
    14b0:	96 01       	movw	r18, r12
    14b2:	40 e0       	ldi	r20, 0x00	; 0
    14b4:	50 e0       	ldi	r21, 0x00	; 0
    14b6:	0e 94 7b 1e 	call	0x3cf6	; 0x3cf6 <__udivmodsi4>
    14ba:	30 93 58 01 	sts	0x0158, r19
    14be:	20 93 57 01 	sts	0x0157, r18
              //Drain-Source Voltage to high, must be a IGBT
              PartMode = PART_MODE_IGBT|P_CHANNEL|E_MODE;
    14c2:	04 c0       	rjmp	.+8      	; 0x14cc <CheckPins+0x4fa>
    14c4:	10 92 58 01 	sts	0x0158, r1
#ifdef SHOW_R_DS
           } else {
              if (adc.hp2 > adc.lp1) {
    14c8:	10 92 57 01 	sts	0x0157, r1
    14cc:	fe 2d       	mov	r31, r14
    14ce:	f7 70       	andi	r31, 0x07	; 7
    14d0:	ef 2e       	mov	r14, r31
                  ptrans.uBE = RR680MI * (unsigned long)(adc.hp2 - adc.lp1) / adc.lp1; // DS resistance in 0.1 OHm
    14d2:	84 2d       	mov	r24, r4
    14d4:	80 64       	ori	r24, 0x40	; 64
    14d6:	80 93 7c 00 	sts	0x007C, r24
    14da:	7b e0       	ldi	r23, 0x0B	; 11
    14dc:	f7 2e       	mov	r15, r23
    14de:	01 e0       	ldi	r16, 0x01	; 1
    14e0:	10 e0       	ldi	r17, 0x00	; 0
    14e2:	cc 24       	eor	r12, r12
    14e4:	ca 94       	dec	r12
    14e6:	e3 e0       	ldi	r30, 0x03	; 3
    14e8:	de 2e       	mov	r13, r30
    14ea:	a8 95       	wdr
    14ec:	61 e0       	ldi	r22, 0x01	; 1
    14ee:	86 2d       	mov	r24, r6
    14f0:	14 d5       	rcall	.+2600   	; 0x1f1a <ChargePin10ms>
    14f2:	2f 85       	ldd	r18, Y+15	; 0x0f
    14f4:	24 b9       	out	0x04, r18	; 4
    14f6:	86 b1       	in	r24, 0x06	; 6
              }   else {
                  ptrans.uBE = 0;
    14f8:	8e 21       	and	r24, r14
    14fa:	e9 f3       	breq	.-6      	; 0x14f6 <CheckPins+0x524>
    14fc:	54 b8       	out	0x04, r5	; 4
    14fe:	80 91 7a 00 	lds	r24, 0x007A
           }  /* end if (adc.hp2 > (adc.lp1+250)) */
       	   //measure the Gate threshold voltage
           //Switching of Drain is monitored with digital input
           // Low level is specified up to 0.3 * VCC
           // High level is specified above 0.6 * VCC
           PinMSK = LoADCm & 7;
    1502:	80 64       	ori	r24, 0x40	; 64
    1504:	80 93 7a 00 	sts	0x007A, r24
       	   ADMUX = TristatePin | (1<<REFS0);	// switch to TristatePin, Ref. VCC
    1508:	80 91 7a 00 	lds	r24, 0x007A
    150c:	86 fd       	sbrc	r24, 6
    150e:	fc cf       	rjmp	.-8      	; 0x1508 <CheckPins+0x536>
    1510:	80 91 78 00 	lds	r24, 0x0078
       	   tmp16 = 1;			// round up ((1*4)/9)
    1514:	90 91 79 00 	lds	r25, 0x0079
       	      while (!(ADC_PIN&PinMSK));		// Wait, until the MOSFET switches and Drain moves to VCC
                  			// 1 is detected with more than 2.5V (up to 2.57V) with tests of mega168 and mega328
       	      R_DDR = LoPinRL;
       	      ADCSRA |= (1<<ADSC);		// Start Conversion
       	      while (ADCSRA&(1<<ADSC));		// wait
      	      tmp16 += (1023 - ADCW);	// Add Tristatepin-Voltage
    1518:	a6 01       	movw	r20, r12
    151a:	48 1b       	sub	r20, r24
    151c:	59 0b       	sbc	r21, r25
           // High level is specified above 0.6 * VCC
           PinMSK = LoADCm & 7;
       	   ADMUX = TristatePin | (1<<REFS0);	// switch to TristatePin, Ref. VCC
       	   tmp16 = 1;			// round up ((1*4)/9)
       	   for(ii=0;ii<11;ii++) {
       	      wdt_reset();
    151e:	04 0f       	add	r16, r20
       	      ChargePin10ms(TriPinRL,1);
    1520:	15 1f       	adc	r17, r21
    1522:	fa 94       	dec	r15
    1524:	11 f7       	brne	.-60     	; 0x14ea <CheckPins+0x518>
    1526:	c8 01       	movw	r24, r16
                R_DDR = LoPinRL | TriPinRH;		//switch R_H for Tristate-Pin (Basis) to GND
    1528:	88 0f       	add	r24, r24
    152a:	99 1f       	adc	r25, r25
       	      while (!(ADC_PIN&PinMSK));		// Wait, until the MOSFET switches and Drain moves to VCC
    152c:	88 0f       	add	r24, r24
    152e:	99 1f       	adc	r25, r25
    1530:	69 e0       	ldi	r22, 0x09	; 9
                  			// 1 is detected with more than 2.5V (up to 2.57V) with tests of mega168 and mega328
       	      R_DDR = LoPinRL;
    1532:	70 e0       	ldi	r23, 0x00	; 0
       	      ADCSRA |= (1<<ADSC);		// Start Conversion
    1534:	0e 94 67 1e 	call	0x3cce	; 0x3cce <__udivmodhi4>
    1538:	70 93 5e 01 	sts	0x015E, r23
    153c:	60 93 5d 01 	sts	0x015D, r22
       	      while (ADCSRA&(1<<ADSC));		// wait
    1540:	80 91 62 01 	lds	r24, 0x0162
    1544:	8f 5f       	subi	r24, 0xFF	; 255
      	      tmp16 += (1023 - ADCW);	// Add Tristatepin-Voltage
    1546:	80 93 62 01 	sts	0x0162, r24
    154a:	85 cf       	rjmp	.-246    	; 0x1456 <CheckPins+0x484>
    154c:	5d 81       	ldd	r21, Y+5	; 0x05
    154e:	54 b9       	out	0x04, r21	; 4
    1550:	65 b8       	out	0x05, r6	; 5
    1552:	88 2d       	mov	r24, r8
    1554:	cc d8       	rcall	.-3688   	; 0x6ee <W5msReadADC>
    1556:	9a 83       	std	Y+2, r25	; 0x02
    1558:	89 83       	std	Y+1, r24	; 0x01
           // Low level is specified up to 0.3 * VCC
           // High level is specified above 0.6 * VCC
           PinMSK = LoADCm & 7;
       	   ADMUX = TristatePin | (1<<REFS0);	// switch to TristatePin, Ref. VCC
       	   tmp16 = 1;			// round up ((1*4)/9)
       	   for(ii=0;ii<11;ii++) {
    155a:	84 2d       	mov	r24, r4
       	      R_DDR = LoPinRL;
       	      ADCSRA |= (1<<ADSC);		// Start Conversion
       	      while (ADCSRA&(1<<ADSC));		// wait
      	      tmp16 += (1023 - ADCW);	// Add Tristatepin-Voltage
           }
           tmp16 *= 4;		// is equal to 44*ADCW
    155c:	c9 d8       	rcall	.-3694   	; 0x6f0 <ReadADC>
    155e:	9e 83       	std	Y+6, r25	; 0x06
    1560:	8d 83       	std	Y+5, r24	; 0x05
    1562:	40 91 2b 01 	lds	r20, 0x012B
           ptrans.gthvoltage = tmp16 / 9;		// gives resolution in mV
    1566:	50 91 2c 01 	lds	r21, 0x012C
    156a:	48 1b       	sub	r20, r24
    156c:	59 0b       	sbc	r21, r25
    156e:	4a 30       	cpi	r20, 0x0A	; 10
    1570:	51 05       	cpc	r21, r1
    1572:	40 f5       	brcc	.+80     	; 0x15c4 <CheckPins+0x5f2>
    1574:	14 b8       	out	0x04, r1	; 4
           ptrans.count++;		// count FET as two for accelerate searching
    1576:	a3 d8       	rcall	.-3770   	; 0x6be <wait5ms>
    1578:	81 2f       	mov	r24, r17
    157a:	85 29       	or	r24, r5
    157c:	84 b9       	out	0x04, r24	; 4
    157e:	15 b9       	out	0x05, r17	; 5
    1580:	88 2d       	mov	r24, r8
        }
    } // end component has current => PNP

#ifdef COMMON_COLLECTOR
    // Low-Pin=RL- HighPin=VCC
    R_DDR = LoPinRL | TriPinRL;
    1582:	b5 d8       	rcall	.-3734   	; 0x6ee <W5msReadADC>
    1584:	9a 83       	std	Y+2, r25	; 0x02
    R_PORT = TriPinRL;			// TriPin=RL+  NPN with common Collector
    1586:	89 83       	std	Y+1, r24	; 0x01
    adc.lp1 = W5msReadADC(LowPin);	// voltage at Emitter resistor
    1588:	84 2d       	mov	r24, r4
    158a:	b2 d8       	rcall	.-3740   	; 0x6f0 <ReadADC>
    158c:	9e 83       	std	Y+6, r25	; 0x06
    158e:	8d 83       	std	Y+5, r24	; 0x05
    1590:	80 91 10 01 	lds	r24, 0x0110
    adc.tp1 = ReadADC(TristatePin);	// voltage at the Base 
    1594:	90 91 11 01 	lds	r25, 0x0111
    1598:	9c 01       	movw	r18, r24
    159a:	40 e0       	ldi	r20, 0x00	; 0
    adc.rtp = ADCconfig.U_AVCC - adc.tp1;	// voltage at Base resistor
    159c:	50 e0       	ldi	r21, 0x00	; 0
    159e:	60 e8       	ldi	r22, 0x80	; 128
    15a0:	71 ea       	ldi	r23, 0xA1	; 161
    15a2:	83 e0       	ldi	r24, 0x03	; 3
    15a4:	9c e1       	ldi	r25, 0x1C	; 28
    15a6:	0e 94 7b 1e 	call	0x3cf6	; 0x3cf6 <__udivmodsi4>
    if (adc.rtp < 10) { 
    15aa:	a9 81       	ldd	r26, Y+1	; 0x01
    15ac:	ba 81       	ldd	r27, Y+2	; 0x02
       R_DDR = 0;
    15ae:	0e 94 42 1e 	call	0x3c84	; 0x3c84 <__muluhisi3>
       wait_about5ms();		// clear TRIAC and Thyristor
    15b2:	20 91 2b 01 	lds	r18, 0x012B
       R_DDR = LoPinRL | TriPinRH;
    15b6:	30 91 2c 01 	lds	r19, 0x012C
       R_PORT = TriPinRH;		// Tripin=RH+
    15ba:	ad 81       	ldd	r26, Y+5	; 0x05
       adc.lp1 = W5msReadADC(LowPin);
    15bc:	be 81       	ldd	r27, Y+6	; 0x06
    15be:	2a 1b       	sub	r18, r26
    15c0:	3b 0b       	sbc	r19, r27
    15c2:	09 c0       	rjmp	.+18     	; 0x15d6 <CheckPins+0x604>
    15c4:	29 81       	ldd	r18, Y+1	; 0x01
       adc.tp1 = ReadADC(TristatePin);	// voltage at the Base 
    15c6:	3a 81       	ldd	r19, Y+2	; 0x02
    15c8:	24 1b       	sub	r18, r20
    15ca:	35 0b       	sbc	r19, r21
    15cc:	a4 e6       	ldi	r26, 0x64	; 100
    15ce:	b0 e0       	ldi	r27, 0x00	; 0
       adc.rtp = ADCconfig.U_AVCC - adc.tp1;	// voltage at Base resistor
       // c_hfe with 1% resolution for optocoupler
 #ifdef LONG_HFE
       c_hfe = ((unsigned long)adc.lp1 * (unsigned long)(((unsigned long)R_H_VAL * 10000) / 
    15d0:	0e 94 2d 1e 	call	0x3c5a	; 0x3c5a <__umulhisi3>
    15d4:	9a 01       	movw	r18, r20
    15d6:	40 e0       	ldi	r20, 0x00	; 0
    15d8:	50 e0       	ldi	r21, 0x00	; 0
    15da:	0e 94 7b 1e 	call	0x3cf6	; 0x3cf6 <__udivmodsi4>
    15de:	29 87       	std	Y+9, r18	; 0x09
    15e0:	3a 87       	std	Y+10, r19	; 0x0a
    15e2:	4b 87       	std	Y+11, r20	; 0x0b
    15e4:	5c 87       	std	Y+12, r21	; 0x0c
    15e6:	e7 b8       	out	0x07, r14	; 7
    15e8:	18 b8       	out	0x08, r1	; 8
    15ea:	04 b9       	out	0x04, r16	; 4
    15ec:	05 b9       	out	0x05, r16	; 5
    15ee:	89 2d       	mov	r24, r9
    15f0:	7e d8       	rcall	.-3844   	; 0x6ee <W5msReadADC>
       wait_about5ms();		// clear TRIAC and Thyristor
       R_DDR = LoPinRL | TriPinRH;
       R_PORT = TriPinRH;		// Tripin=RH+
       adc.lp1 = W5msReadADC(LowPin);
       adc.tp1 = ReadADC(TristatePin);	// voltage at the Base 
       adc.rtp = ADCconfig.U_AVCC - adc.tp1;	// voltage at Base resistor
    15f2:	98 87       	std	Y+8, r25	; 0x08
    15f4:	8f 83       	std	Y+7, r24	; 0x07
    15f6:	84 2d       	mov	r24, r4
    15f8:	7b d8       	rcall	.-3850   	; 0x6f0 <ReadADC>
    15fa:	9c 83       	std	Y+4, r25	; 0x04
    15fc:	8b 83       	std	Y+3, r24	; 0x03
    15fe:	88 2d       	mov	r24, r8
    1600:	77 d8       	rcall	.-3858   	; 0x6f0 <ReadADC>
    1602:	6c 01       	movw	r12, r24
              (unsigned int)RR680MI)) / (unsigned int)adc.rtp;	
 #else
       c_hfe = ((adc.lp1 / ((RR680MI+500)/1000)) * (R_H_VAL/500)) / (adc.tp2/5);
 #endif
    } else {
       c_hfe = (unsigned long)((unsigned long)(adc.lp1 - adc.rtp) * 100) / adc.rtp;
    1604:	2f 81       	ldd	r18, Y+7	; 0x07
    1606:	38 85       	ldd	r19, Y+8	; 0x08
    1608:	20 33       	cpi	r18, 0x30	; 48
    160a:	31 41       	sbci	r19, 0x11	; 17
    160c:	08 f0       	brcs	.+2      	; 0x1610 <CheckPins+0x63e>
    160e:	ba c1       	rjmp	.+884    	; 0x1984 <CheckPins+0x9b2>
    1610:	f5 b8       	out	0x05, r15	; 5
    1612:	89 2d       	mov	r24, r9
    1614:	6c d8       	rcall	.-3880   	; 0x6ee <W5msReadADC>
    1616:	ac 01       	movw	r20, r24
    1618:	f4 b8       	out	0x04, r15	; 4
    161a:	89 2d       	mov	r24, r9
    161c:	4a 8b       	std	Y+18, r20	; 0x12
    161e:	5b 8b       	std	Y+19, r21	; 0x13
    1620:	66 d8       	rcall	.-3892   	; 0x6ee <W5msReadADC>
    1622:	9c 01       	movw	r18, r24
    1624:	15 b8       	out	0x05, r1	; 5
    }
#endif
    //Tristate (can be Base) to VCC, Test if NPN
    ADC_DDR = LoADCm;		//Low-Pin to output 0V
    1626:	88 8b       	std	Y+16, r24	; 0x10
    ADC_PORT = TXD_VAL;			//switch Low-Pin to GND
    1628:	39 8b       	std	Y+17, r19	; 0x11
    R_DDR = TriPinRL | HiPinRL;		//RL port for High-Pin and Tristate-Pin to output
    162a:	49 d8       	rcall	.-3950   	; 0x6be <wait5ms>
    // vCEs is already measured correctly with common emitter circuit
//#ifdef SHOW_ICE
//    R_PORT =  HiPinRL;	//RL port for High-Pin and Tristate-Pin to GND
//    adc.vCEs = ADCconfig.U_AVCC - W5msReadADC(HighPin); // measure voltage a High-Pin, Base low
//#endif
    R_PORT = TriPinRL | HiPinRL;	//RL port for High-Pin and Tristate-Pin to Vcc
    162c:	f5 b8       	out	0x05, r15	; 5
    adc.hp1 = W5msReadADC(HighPin);	//measure voltage at High-Pin  (Collector)
    162e:	89 2d       	mov	r24, r9
    1630:	5e d8       	rcall	.-3908   	; 0x6ee <W5msReadADC>
    1632:	28 89       	ldd	r18, Y+16	; 0x10
    1634:	39 89       	ldd	r19, Y+17	; 0x11
    1636:	4a 89       	ldd	r20, Y+18	; 0x12
#ifdef WITH_THYRISTOR_GATE_V
    adc.tp2 = ReadADC(TristatePin);	//voltage of gate
    1638:	5b 89       	ldd	r21, Y+19	; 0x13
    163a:	20 34       	cpi	r18, 0x40	; 64
    163c:	36 40       	sbci	r19, 0x06	; 6
    163e:	08 f0       	brcs	.+2      	; 0x1642 <CheckPins+0x670>
    1640:	51 c0       	rjmp	.+162    	; 0x16e4 <CheckPins+0x712>
    adc.lp2 = ReadADC(LowPin);		//voltage of Cathode
    1642:	81 33       	cpi	r24, 0x31	; 49
    1644:	91 41       	sbci	r25, 0x11	; 17
    1646:	08 f4       	brcc	.+2      	; 0x164a <CheckPins+0x678>
    1648:	4d c0       	rjmp	.+154    	; 0x16e4 <CheckPins+0x712>
#endif
//    if(adc.hp1 < 1600) {
//    if(adc.hp1 < 4500) {   /* limit for opto-coupler with low hFE */
    if(adc.hp1 < 4400) {   /* limit for opto-coupler with low hFE */
    164a:	8f 81       	ldd	r24, Y+7	; 0x07
    164c:	98 85       	ldd	r25, Y+8	; 0x08
    164e:	8a 56       	subi	r24, 0x6A	; 106
    1650:	9f 4f       	sbci	r25, 0xFF	; 255
    1652:	48 17       	cp	r20, r24
    1654:	59 07       	cpc	r21, r25
       //Gate discharge
//      ChargePin10ms(TriPinRL,0);	//Tristate-Pin (Gate) across R_L 10ms to GND
       // TRIAC's can be triggered with gate and A1 (C) swapped. The current remains after triggering 
       // from gate to A2 (A) instead of A1 to A2. I have found that in this state the current will be lower,
       // if the Tristatepin (A1) is switched to GND.
       R_PORT = HiPinRL;
    1656:	08 f0       	brcs	.+2      	; 0x165a <CheckPins+0x688>
       adc.hp4 = W5msReadADC(HighPin);  //read voltage with switched back base
    1658:	45 c0       	rjmp	.+138    	; 0x16e4 <CheckPins+0x712>
    165a:	86 e0       	ldi	r24, 0x06	; 6
    165c:	80 93 16 01 	sts	0x0116, r24
       R_DDR = HiPinRL;			// base to input
    1660:	80 91 4a 01 	lds	r24, 0x014A
       adc.hp3 = W5msReadADC(HighPin);	//read voltage at High-Pin (probably Anode) again
    1664:	8f 5f       	subi	r24, 0xFF	; 255
    1666:	80 93 4a 01 	sts	0x014A, r24
    166a:	8b 81       	ldd	r24, Y+3	; 0x03
    166c:	9c 81       	ldd	r25, Y+4	; 0x04
					//current should still flow, if not,
					// no Thyristor or holding current to low 
		 	
       R_PORT = 0;			//switch R_L for High-Pin (probably Anode) to GND (turn off)
    166e:	8c 19       	sub	r24, r12
       wait_about5ms();
    1670:	9d 09       	sbc	r25, r13
    1672:	90 93 40 01 	sts	0x0140, r25
    1676:	80 93 3f 01 	sts	0x013F, r24
       R_PORT = HiPinRL;		//switch R_L for High-Pin (probably Anode) again to VCC
       adc.hp2 = W5msReadADC(HighPin);	//measure voltage at the High-Pin (probably Anode) again
    167a:	2f 80       	ldd	r2, Y+7	; 0x07
    167c:	38 84       	ldd	r3, Y+8	; 0x08
    167e:	2c 18       	sub	r2, r12
       if((adc.hp3 < 1600) && (adc.hp2 > 4400)
    1680:	3d 08       	sbc	r3, r13
    1682:	30 92 46 01 	sts	0x0146, r3
    1686:	20 92 45 01 	sts	0x0145, r2
    168a:	14 b8       	out	0x04, r1	; 4
    168c:	15 b8       	out	0x05, r1	; 5
    168e:	e8 b8       	out	0x08, r14	; 8
    1690:	16 d8       	rcall	.-4052   	; 0x6be <wait5ms>
    1692:	f4 b8       	out	0x04, r15	; 4
    1694:	89 2d       	mov	r24, r9
    1696:	2b d8       	rcall	.-4010   	; 0x6ee <W5msReadADC>
           // additional check the voltage hp4 at A with gate hold at GND level
           && ((adc.hp1+150) > adc.hp4)
    1698:	85 3f       	cpi	r24, 0xF5	; 245
    169a:	91 05       	cpc	r25, r1
    169c:	08 f0       	brcs	.+2      	; 0x16a0 <CheckPins+0x6ce>
    169e:	45 c2       	rjmp	.+1162   	; 0x1b2a <CheckPins+0xb58>
    16a0:	04 b9       	out	0x04, r16	; 4
    16a2:	84 2d       	mov	r24, r4
    16a4:	24 d8       	rcall	.-4024   	; 0x6ee <W5msReadADC>
    16a6:	81 3d       	cpi	r24, 0xD1	; 209
                                              ) {
          //if the holding current was switched off the thyristor must be switched off too. 
          //if Thyristor was still swiched on, if gate was switched off => Thyristor
          PartFound = PART_THYRISTOR;
    16a8:	93 40       	sbci	r25, 0x03	; 3
    16aa:	08 f4       	brcc	.+2      	; 0x16ae <CheckPins+0x6dc>
    16ac:	3e c2       	rjmp	.+1148   	; 0x1b2a <CheckPins+0xb58>
     lcd_data('Y');
     lcd_testpin(HighPin);
     lcd_space();
#endif
 
          ntrans.count++;		// mark as two N-type transistors
    16ae:	89 2d       	mov	r24, r9
    16b0:	1f d8       	rcall	.-4034   	; 0x6f0 <ReadADC>
    16b2:	8d 3d       	cpi	r24, 0xDD	; 221
    16b4:	92 40       	sbci	r25, 0x02	; 2
    16b6:	08 f4       	brcc	.+2      	; 0x16ba <CheckPins+0x6e8>
#ifdef WITH_THYRISTOR_GATE_V
          ntrans.uBE = adc.tp2 - adc.lp2;	// Gate - Cathode Voltage 
    16b8:	38 c2       	rjmp	.+1136   	; 0x1b2a <CheckPins+0xb58>
    16ba:	f4 b8       	out	0x04, r15	; 4
    16bc:	89 2d       	mov	r24, r9
    16be:	17 d8       	rcall	.-4050   	; 0x6ee <W5msReadADC>
    16c0:	8d 3d       	cpi	r24, 0xDD	; 221
    16c2:	92 40       	sbci	r25, 0x02	; 2
    16c4:	08 f4       	brcc	.+2      	; 0x16c8 <CheckPins+0x6f6>
    16c6:	31 c2       	rjmp	.+1122   	; 0x1b2a <CheckPins+0xb58>
          ntrans.gthvoltage = adc.hp1 - adc.lp2;	// Anode-Cathode Voltage
    16c8:	f5 b8       	out	0x05, r15	; 5
    16ca:	0e 94 5f 03 	call	0x6be	; 0x6be <wait5ms>
    16ce:	15 b8       	out	0x05, r1	; 5
    16d0:	89 2d       	mov	r24, r9
    16d2:	0d d8       	rcall	.-4070   	; 0x6ee <W5msReadADC>
    16d4:	85 3f       	cpi	r24, 0xF5	; 245
    16d6:	91 05       	cpc	r25, r1
#endif
          //Test if Triac
          R_DDR = 0;
    16d8:	08 f0       	brcs	.+2      	; 0x16dc <CheckPins+0x70a>
          R_PORT = 0;
    16da:	27 c2       	rjmp	.+1102   	; 0x1b2a <CheckPins+0xb58>
          ADC_PORT = LoADCp;	//Low-Pin fix to VCC
    16dc:	87 e0       	ldi	r24, 0x07	; 7
          wait_about5ms();
    16de:	80 93 16 01 	sts	0x0116, r24
          R_DDR = HiPinRL;		//switch R_L port HighPin to output (GND)
    16e2:	23 c2       	rjmp	.+1094   	; 0x1b2a <CheckPins+0xb58>
          if(W5msReadADC(HighPin) > 244) {
    16e4:	04 b9       	out	0x04, r16	; 4
    16e6:	05 b9       	out	0x05, r16	; 5
    16e8:	0e 94 5f 03 	call	0x6be	; 0x6be <wait5ms>
    16ec:	d1 2e       	mov	r13, r17
    16ee:	df 28       	or	r13, r15
    16f0:	d4 b8       	out	0x04, r13	; 4
     lcd_space();
#endif
             goto saveNresult;		//measure voltage at the  High-Pin (probably A2); if too high:
                                	//component has current => kein Triac
          }
          R_DDR = HiPinRL | TriPinRL;	//switch R_L port for TristatePin (Gate) to output (GND) => Triac should be triggered 
    16f2:	d5 b8       	out	0x05, r13	; 5
          if(W5msReadADC(TristatePin) < 977) {
    16f4:	89 2d       	mov	r24, r9
    16f6:	0e 94 77 03 	call	0x6ee	; 0x6ee <W5msReadADC>
    16fa:	ac 01       	movw	r20, r24
    16fc:	00 91 2b 01 	lds	r16, 0x012B
    1700:	10 91 2c 01 	lds	r17, 0x012C
     lcd_space();
#endif
             goto saveNresult; 		//measure voltage at the Tristate-Pin (probably Gate) ;
                              		// if to low, abort 
          }
          if(ReadADC(HighPin) < 733) {
    1704:	08 1b       	sub	r16, r24
    1706:	19 0b       	sbc	r17, r25
    1708:	84 2d       	mov	r24, r4
    170a:	4a 8b       	std	Y+18, r20	; 0x12
    170c:	5b 8b       	std	Y+19, r21	; 0x13
    170e:	0e 94 78 03 	call	0x6f0	; 0x6f0 <ReadADC>
     lcd_space();
#endif
             goto saveNresult; 		//component has no current => no Triac => abort
          }
          R_DDR = HiPinRL;		//TristatePin (Gate) to input 
          if(W5msReadADC(HighPin) < 733) {
    1712:	9e 87       	std	Y+14, r25	; 0x0e
    1714:	8d 87       	std	Y+13, r24	; 0x0d
    1716:	20 91 2b 01 	lds	r18, 0x012B
    171a:	30 91 2c 01 	lds	r19, 0x012C
    171e:	28 1b       	sub	r18, r24
     lcd_data('3');
     lcd_space();
#endif
             goto saveNresult; 		//component has no current without base current => no Triac => abort
          }
          R_PORT = HiPinRL;		//switch R_L port for HighPin to VCC => switch off holding current 
    1720:	39 0b       	sbc	r19, r25
          wait_about5ms();
    1722:	3c 83       	std	Y+4, r19	; 0x04
    1724:	2b 83       	std	Y+3, r18	; 0x03
          R_PORT = 0;			//switch R_L port for HighPin again to GND; Triac should now switched off
    1726:	88 2d       	mov	r24, r8
          if(W5msReadADC(HighPin) > 244) {
    1728:	0e 94 78 03 	call	0x6f0	; 0x6f0 <ReadADC>
    172c:	98 87       	std	Y+8, r25	; 0x08
    172e:	8f 83       	std	Y+7, r24	; 0x07
    1730:	4a 89       	ldd	r20, Y+18	; 0x12
    1732:	5b 89       	ldd	r21, Y+19	; 0x13
    1734:	6b 81       	ldd	r22, Y+3	; 0x03
     lcd_space();
#endif
             goto saveNresult;		//measure voltage at the High-Pin (probably A2) ;
                                	//if to high, component is not switched off => no Triac, abort
          }
          PartFound = PART_TRIAC;
    1736:	7c 81       	ldd	r23, Y+4	; 0x04
    1738:	6e 3f       	cpi	r22, 0xFE	; 254
    173a:	79 40       	sbci	r23, 0x09	; 9
    173c:	08 f4       	brcc	.+2      	; 0x1740 <CheckPins+0x76e>
          goto saveNresult;
        }
      //Test if NPN Transistor or MOSFET
      // ADC_DDR = LoADCm;	//Low-Pin to output 0V
 #if FLASHEND > 0x1fff
      R_DDR = HiPinRL | TriPinRL;	//R_L port of Tristate-Pin (Basis) to output
    173e:	b1 c0       	rjmp	.+354    	; 0x18a2 <CheckPins+0x8d0>
      R_PORT = HiPinRL | TriPinRL;	//R_L port of Tristate-Pin (Basis) to VCC
    1740:	84 e0       	ldi	r24, 0x04	; 4
      wait_about5ms();			// load gate capacitor
    1742:	80 93 16 01 	sts	0x0116, r24
      R_DDR = HiPinRL | TriPinRH;	//R_H port of Tristate-Pin (Basis) to output
    1746:	8c e0       	ldi	r24, 0x0C	; 12
    1748:	80 93 15 01 	sts	0x0115, r24
      R_PORT = HiPinRL | TriPinRH;	//R_H port of Tristate-Pin (Basis) to VCC
    174c:	38 01       	movw	r6, r16
      adc.hp2 = W5msReadADC(HighPin);	//measure the voltage at the collector  
    174e:	20 16       	cp	r2, r16
    1750:	31 06       	cpc	r3, r17
    1752:	10 f4       	brcc	.+4      	; 0x1758 <CheckPins+0x786>
    1754:	62 18       	sub	r6, r2
 #else
      R_PORT = HiPinRL | TriPinRH;	//R_H port of Tristate-Pin (Basis) to VCC
      adc.hp2 = W20msReadADC(HighPin);	//measure the voltage at the collector  
 #endif
      adc.rhp = ADCconfig.U_AVCC - adc.hp2;	// voltage at the collector resistor
    1756:	73 08       	sbc	r7, r3
    1758:	80 91 17 01 	lds	r24, 0x0117
    175c:	90 91 18 01 	lds	r25, 0x0118
    1760:	6c 01       	movw	r12, r24
      adc.tp2 = ReadADC(TristatePin);	//measure the voltage at the base 
    1762:	e1 2c       	mov	r14, r1
    1764:	f1 2c       	mov	r15, r1
    1766:	60 e8       	ldi	r22, 0x80	; 128
    1768:	71 ea       	ldi	r23, 0xA1	; 161
    176a:	83 e0       	ldi	r24, 0x03	; 3
    176c:	9c e1       	ldi	r25, 0x1C	; 28
    176e:	a7 01       	movw	r20, r14
      adc.rtp = ADCconfig.U_AVCC - adc.tp2;	// voltage at the base resistor
    1770:	96 01       	movw	r18, r12
    1772:	0e 94 7b 1e 	call	0x3cf6	; 0x3cf6 <__udivmodsi4>
    1776:	d3 01       	movw	r26, r6
    1778:	0e 94 42 1e 	call	0x3c84	; 0x3c84 <__muluhisi3>
    177c:	ab 81       	ldd	r26, Y+3	; 0x03
    177e:	bc 81       	ldd	r27, Y+4	; 0x04
      adc.lp2 = ReadADC(LowPin);
    1780:	9d 01       	movw	r18, r26
    1782:	40 e0       	ldi	r20, 0x00	; 0
    1784:	50 e0       	ldi	r21, 0x00	; 0
    1786:	0e 94 7b 1e 	call	0x3cf6	; 0x3cf6 <__udivmodsi4>

//      if((PartFound == PART_TRANSISTOR) || (PartFound == PART_FET)) {
//         PartReady = 1;	//check, if test is already done once
//      }

      if(adc.rtp > 2557) {		// Basis-voltage R_H is low enough
    178a:	80 91 4a 01 	lds	r24, 0x014A
    178e:	88 23       	and	r24, r24
    1790:	69 f0       	breq	.+26     	; 0x17ac <CheckPins+0x7da>
    1792:	80 91 3b 01 	lds	r24, 0x013B
    1796:	90 91 3c 01 	lds	r25, 0x013C
         PartFound = PART_TRANSISTOR;	//NPN-Transistor is found (Base is near GND)
    179a:	a0 91 3d 01 	lds	r26, 0x013D
    179e:	b0 91 3e 01 	lds	r27, 0x013E
         PartMode = PART_MODE_NPN;
    17a2:	82 17       	cp	r24, r18
    17a4:	93 07       	cpc	r25, r19

         //compute current amplification factor for common Emitter
         //hFE = B = Collector current / Base current
         tmp16 = adc.rhp;
         if (tmp16 > adc.lp_otr) {
            tmp16 -= adc.lp_otr;
    17a6:	a4 07       	cpc	r26, r20
 #ifdef COMMON_EMITTER

         //compute current amplification factor for common Emitter
         //hFE = B = Collector current / Base current
         tmp16 = adc.rhp;
         if (tmp16 > adc.lp_otr) {
    17a8:	b5 07       	cpc	r27, r21
    17aa:	08 f5       	brcc	.+66     	; 0x17ee <CheckPins+0x81c>
    17ac:	20 93 3b 01 	sts	0x013B, r18
            tmp16 -= adc.lp_otr;
    17b0:	30 93 3c 01 	sts	0x013C, r19
         }
         // e_hfe with 1% resolution for optocoupler
  #ifdef LONG_HFE
         e_hfe = ((unsigned int)tmp16 * (unsigned long)(((unsigned long)R_H_VAL * 10000) / 
    17b4:	40 93 3d 01 	sts	0x013D, r20
    17b8:	50 93 3e 01 	sts	0x013E, r21
    17bc:	8d 85       	ldd	r24, Y+13	; 0x0d
    17be:	9e 85       	ldd	r25, Y+14	; 0x0e
    17c0:	ef 81       	ldd	r30, Y+7	; 0x07
    17c2:	f8 85       	ldd	r31, Y+8	; 0x08
    17c4:	8e 1b       	sub	r24, r30
    17c6:	9f 0b       	sbc	r25, r31
    17c8:	90 93 40 01 	sts	0x0140, r25
    17cc:	80 93 3f 01 	sts	0x013F, r24
    17d0:	98 01       	movw	r18, r16
    17d2:	a0 e1       	ldi	r26, 0x10	; 16
    17d4:	b7 e2       	ldi	r27, 0x27	; 39
              (unsigned int)RR680PL)) / (unsigned int)adc.rtp;	
    17d6:	0e 94 2d 1e 	call	0x3c5a	; 0x3c5a <__umulhisi3>
    17da:	a7 01       	movw	r20, r14
    17dc:	96 01       	movw	r18, r12
    17de:	0e 94 7b 1e 	call	0x3cf6	; 0x3cf6 <__udivmodsi4>
         if (tmp16 > adc.lp_otr) {
            tmp16 -= adc.lp_otr;
         }
         // e_hfe with 1% resolution for optocoupler
  #ifdef LONG_HFE
         e_hfe = ((unsigned int)tmp16 * (unsigned long)(((unsigned long)R_H_VAL * 10000) / 
    17e2:	30 93 42 01 	sts	0x0142, r19
              (unsigned int)RR680PL)) / (unsigned int)adc.rtp;	
  #else
         e_hfe = ((tmp16 / ((RR680PL+500)/1000)) * (R_H_VAL/500)) / (adc.rtp/5);
  #endif
         if ((ntrans.count == 0) || (e_hfe > ntrans.hfe)){
    17e6:	20 93 41 01 	sts	0x0141, r18
    17ea:	21 e0       	ldi	r18, 0x01	; 1
    17ec:	01 c0       	rjmp	.+2      	; 0x17f0 <CheckPins+0x81e>
    17ee:	20 e0       	ldi	r18, 0x00	; 0
    17f0:	80 91 3b 01 	lds	r24, 0x013B
    17f4:	90 91 3c 01 	lds	r25, 0x013C
    17f8:	a0 91 3d 01 	lds	r26, 0x013D
    17fc:	b0 91 3e 01 	lds	r27, 0x013E
    1800:	49 85       	ldd	r20, Y+9	; 0x09
    1802:	5a 85       	ldd	r21, Y+10	; 0x0a
    1804:	6b 85       	ldd	r22, Y+11	; 0x0b
            ntrans.hfe = e_hfe;
    1806:	7c 85       	ldd	r23, Y+12	; 0x0c
    1808:	84 17       	cp	r24, r20
    180a:	95 07       	cpc	r25, r21
    180c:	a6 07       	cpc	r26, r22
    180e:	b7 07       	cpc	r27, r23
    1810:	30 f5       	brcc	.+76     	; 0x185e <CheckPins+0x88c>
    1812:	40 93 3b 01 	sts	0x013B, r20
            ntrans.uBE = adc.tp2 - adc.lp2;
    1816:	50 93 3c 01 	sts	0x013C, r21
    181a:	60 93 3d 01 	sts	0x013D, r22
    181e:	70 93 3e 01 	sts	0x013E, r23
    1822:	8d 81       	ldd	r24, Y+5	; 0x05
    1824:	9e 81       	ldd	r25, Y+6	; 0x06
    1826:	69 81       	ldd	r22, Y+1	; 0x01
    1828:	7a 81       	ldd	r23, Y+2	; 0x02
  #if FLASHEND > 0x1fff  /* at least ATmega16 */
            ntrans.current = (unsigned int)(((unsigned long)adc.rhp * 10000) / RR680PL); // Ic 1uA
    182a:	86 1b       	sub	r24, r22
    182c:	97 0b       	sbc	r25, r23
    182e:	90 93 40 01 	sts	0x0140, r25
    1832:	80 93 3f 01 	sts	0x013F, r24
    1836:	9b 01       	movw	r18, r22
    1838:	a0 e1       	ldi	r26, 0x10	; 16
    183a:	b7 e2       	ldi	r27, 0x27	; 39
    183c:	0e 94 2d 1e 	call	0x3c5a	; 0x3c5a <__umulhisi3>
    1840:	20 91 10 01 	lds	r18, 0x0110
  #endif
            update_pins = 1;
    1844:	30 91 11 01 	lds	r19, 0x0111
//      }

      if(adc.rtp > 2557) {		// Basis-voltage R_H is low enough
         PartFound = PART_TRANSISTOR;	//NPN-Transistor is found (Base is near GND)
         PartMode = PART_MODE_NPN;
         update_pins = 0;		// only update pins, if better hFE
    1848:	40 e0       	ldi	r20, 0x00	; 0
 #endif
#ifdef COMMON_COLLECTOR
          //compare current amplification factor for common Collector (Emitter follower)
          // hFE = (Emitterstrom - Basisstrom) / Basisstrom
 #ifdef COMMON_EMITTER
          if (c_hfe >  ntrans.hfe)
    184a:	50 e0       	ldi	r21, 0x00	; 0
    184c:	0e 94 7b 1e 	call	0x3cf6	; 0x3cf6 <__udivmodsi4>
    1850:	20 5f       	subi	r18, 0xF0	; 240
    1852:	38 4d       	sbci	r19, 0xD8	; 216
    1854:	30 93 42 01 	sts	0x0142, r19
    1858:	20 93 41 01 	sts	0x0141, r18
    185c:	03 c0       	rjmp	.+6      	; 0x1864 <CheckPins+0x892>
    185e:	22 23       	and	r18, r18
    1860:	09 f4       	brne	.+2      	; 0x1864 <CheckPins+0x892>
    1862:	64 c1       	rjmp	.+712    	; 0x1b2c <CheckPins+0xb5a>
    1864:	91 01       	movw	r18, r2
    1866:	a0 e1       	ldi	r26, 0x10	; 16
    1868:	b7 e2       	ldi	r27, 0x27	; 39
    186a:	0e 94 2d 1e 	call	0x3c5a	; 0x3c5a <__umulhisi3>
 #else
          if ((ntrans.count == 0) || (c_hfe >  ntrans.hfe))
 #endif
          {
            ntrans.hfe = c_hfe;
    186e:	20 91 10 01 	lds	r18, 0x0110
    1872:	30 91 11 01 	lds	r19, 0x0111
    1876:	40 e0       	ldi	r20, 0x00	; 0
    1878:	50 e0       	ldi	r21, 0x00	; 0
    187a:	0e 94 7b 1e 	call	0x3cf6	; 0x3cf6 <__udivmodsi4>
            ntrans.uBE = adc.tp1 - adc.lp1;
    187e:	30 93 44 01 	sts	0x0144, r19
    1882:	20 93 43 01 	sts	0x0143, r18
    1886:	95 01       	movw	r18, r10
    1888:	a0 e1       	ldi	r26, 0x10	; 16
    188a:	b7 e2       	ldi	r27, 0x27	; 39
    188c:	0e 94 2d 1e 	call	0x3c5a	; 0x3c5a <__umulhisi3>
 #if FLASHEND > 0x1fff  /* at least ATmega16 */
            ntrans.current = (unsigned int)(((unsigned long)adc.lp1 * 10000) / RR680MI); // Ie 1uA
    1890:	a7 01       	movw	r20, r14
    1892:	96 01       	movw	r18, r12
    1894:	0e 94 7b 1e 	call	0x3cf6	; 0x3cf6 <__udivmodsi4>
    1898:	30 93 46 01 	sts	0x0146, r19
    189c:	20 93 45 01 	sts	0x0145, r18
    18a0:	44 c1       	rjmp	.+648    	; 0x1b2a <CheckPins+0xb58>
    18a2:	71 e6       	ldi	r23, 0x61	; 97
    18a4:	27 16       	cp	r2, r23
    18a6:	31 04       	cpc	r3, r1
    18a8:	08 f0       	brcs	.+2      	; 0x18ac <CheckPins+0x8da>
            ntrans.current += 10000;	// mark current at emitter!
    18aa:	6c c0       	rjmp	.+216    	; 0x1984 <CheckPins+0x9b2>
    18ac:	09 34       	cpi	r16, 0x49	; 73
    18ae:	8d e0       	ldi	r24, 0x0D	; 13
    18b0:	18 07       	cpc	r17, r24
    18b2:	08 f4       	brcc	.+2      	; 0x18b6 <CheckPins+0x8e4>
    18b4:	67 c0       	rjmp	.+206    	; 0x1984 <CheckPins+0x9b2>
    18b6:	85 e0       	ldi	r24, 0x05	; 5
#endif
#if DebugOut == 5
         lcd_data('B');
#endif
#ifdef SHOW_ICE
         if (update_pins != 0) {
    18b8:	80 93 16 01 	sts	0x0116, r24
    18bc:	82 e0       	ldi	r24, 0x02	; 2
	    // update residual collector (emitter) current without base current
            ntrans.ice0 = (unsigned int)(((unsigned long)adc.lp_otr * 10000) / RR680MI); // ICE0 0.01mA
    18be:	80 93 15 01 	sts	0x0115, r24
    18c2:	8f 81       	ldd	r24, Y+7	; 0x07
    18c4:	98 85       	ldd	r25, Y+8	; 0x08
    18c6:	86 50       	subi	r24, 0x06	; 6
    18c8:	9f 4f       	sbci	r25, 0xFF	; 255
    18ca:	84 17       	cp	r24, r20
    18cc:	95 07       	cpc	r25, r21
    18ce:	20 f4       	brcc	.+8      	; 0x18d8 <CheckPins+0x906>
    18d0:	83 e0       	ldi	r24, 0x03	; 3
    18d2:	80 93 15 01 	sts	0x0115, r24
    18d6:	1e c0       	rjmp	.+60     	; 0x1914 <CheckPins+0x942>
    18d8:	af 81       	ldd	r26, Y+7	; 0x07
    18da:	b8 85       	ldd	r27, Y+8	; 0x08
    18dc:	a4 17       	cp	r26, r20
    18de:	b5 07       	cpc	r27, r21
            ntrans.ices = (unsigned int)(((unsigned long)adc.vCEs * 10000) / RR680PL); // ICEs 0.01mA
    18e0:	a8 f4       	brcc	.+42     	; 0x190c <CheckPins+0x93a>
    18e2:	a0 91 17 01 	lds	r26, 0x0117
    18e6:	b0 91 18 01 	lds	r27, 0x0118
    18ea:	9a 01       	movw	r18, r20
    18ec:	ef 81       	ldd	r30, Y+7	; 0x07
    18ee:	f8 85       	ldd	r31, Y+8	; 0x08
    18f0:	2e 1b       	sub	r18, r30
    18f2:	3f 0b       	sbc	r19, r31
    18f4:	0e 94 2d 1e 	call	0x3c5a	; 0x3c5a <__umulhisi3>
    18f8:	98 01       	movw	r18, r16
    18fa:	40 e0       	ldi	r20, 0x00	; 0
         }
#endif
         goto saveNresult;		// count the found N-Type and exit
      } 
      // Base has low current
      if((adc.lp_otr < 97) && (adc.rhp > 3400)) {
    18fc:	50 e0       	ldi	r21, 0x00	; 0
    18fe:	0e 94 7b 1e 	call	0x3cf6	; 0x3cf6 <__udivmodsi4>
    1902:	30 93 40 01 	sts	0x0140, r19
    1906:	20 93 3f 01 	sts	0x013F, r18
    190a:	04 c0       	rjmp	.+8      	; 0x1914 <CheckPins+0x942>
    190c:	10 92 40 01 	sts	0x0140, r1
         //if flow voltage in switched off mode low enough?
         //(since D-Mode-FET will be detected in error as E-Mode )
         PartFound = PART_FET;	//N-Kanal-MOSFET is found (Basis/Gate will Not be pulled down)
    1910:	10 92 3f 01 	sts	0x013F, r1
    1914:	07 2d       	mov	r16, r7
         PartMode = PART_MODE_MOS|N_CHANNEL|E_MODE;
    1916:	07 70       	andi	r16, 0x07	; 7
    1918:	84 2d       	mov	r24, r4
    191a:	80 64       	ori	r24, 0x40	; 64
         if (adc.hp2 > (250+adc.lp2)) {
    191c:	80 93 7c 00 	sts	0x007C, r24
    1920:	1b e0       	ldi	r17, 0x0B	; 11
    1922:	aa 24       	eor	r10, r10
    1924:	a3 94       	inc	r10
    1926:	b1 2c       	mov	r11, r1
    1928:	a8 95       	wdr
            // Drain-Source Voltage is too high for N_E_MOS
            PartMode = PART_MODE_IGBT|N_CHANNEL|E_MODE;
    192a:	60 e0       	ldi	r22, 0x00	; 0
    192c:	86 2d       	mov	r24, r6
    192e:	f5 d2       	rcall	.+1514   	; 0x1f1a <ChargePin10ms>
    1930:	d4 b8       	out	0x04, r13	; 4
#ifdef SHOW_R_DS
         } else {
            if (adc.hp2 > adc.lp2) {
    1932:	d5 b8       	out	0x05, r13	; 5
    1934:	86 b1       	in	r24, 0x06	; 6
    1936:	80 23       	and	r24, r16
    1938:	e9 f7       	brne	.-6      	; 0x1934 <CheckPins+0x962>
    193a:	f4 b8       	out	0x04, r15	; 4
                ntrans.uBE = RR680PL * (unsigned long)(adc.hp2 - adc.lp2) / adc.rhp; // DS resistance in 0.1 OHm
    193c:	80 91 7a 00 	lds	r24, 0x007A
    1940:	80 64       	ori	r24, 0x40	; 64
    1942:	80 93 7a 00 	sts	0x007A, r24
    1946:	80 91 7a 00 	lds	r24, 0x007A
    194a:	86 fd       	sbrc	r24, 6
    194c:	fc cf       	rjmp	.-8      	; 0x1946 <CheckPins+0x974>
    194e:	80 91 78 00 	lds	r24, 0x0078
    1952:	90 91 79 00 	lds	r25, 0x0079
    1956:	a8 0e       	add	r10, r24
    1958:	b9 1e       	adc	r11, r25
    195a:	11 50       	subi	r17, 0x01	; 1
    195c:	29 f7       	brne	.-54     	; 0x1928 <CheckPins+0x956>
    195e:	c5 01       	movw	r24, r10
    1960:	88 0f       	add	r24, r24
    1962:	99 1f       	adc	r25, r25
    1964:	88 0f       	add	r24, r24
            } else {
                ntrans.uBE = 0;
    1966:	99 1f       	adc	r25, r25
    1968:	69 e0       	ldi	r22, 0x09	; 9
    196a:	70 e0       	ldi	r23, 0x00	; 0
    196c:	0e 94 67 1e 	call	0x3cce	; 0x3cce <__udivmodhi4>
         lcd_data('F');
#endif
         //Switching of Drain is monitored with digital input
         // Low level is specified up to 0.3 * VCC
         // High level is specified above 0.6 * VCC
         PinMSK = HiADCm & 7;
    1970:	70 93 46 01 	sts	0x0146, r23
         // measure Threshold voltage of Gate
         ADMUX = TristatePin | (1<<REFS0);	// measure TristatePin, Ref. VCC
    1974:	60 93 45 01 	sts	0x0145, r22
    1978:	80 91 4a 01 	lds	r24, 0x014A
         tmp16 = 1;			// round up ((1*4)/9)
    197c:	8f 5f       	subi	r24, 0xFF	; 255
    197e:	80 93 4a 01 	sts	0x014A, r24
         for(ii=0;ii<11;ii++) {
            wdt_reset();
    1982:	d3 c0       	rjmp	.+422    	; 0x1b2a <CheckPins+0xb58>
            ChargePin10ms(TriPinRL,0);	// discharge Gate 10ms with RL 
    1984:	17 b8       	out	0x07, r1	; 7
    1986:	18 b8       	out	0x08, r1	; 8
    1988:	14 b8       	out	0x04, r1	; 4
    198a:	15 b8       	out	0x05, r1	; 5
            R_DDR = HiPinRL | TriPinRH;	// slowly charge Gate 
    198c:	17 b8       	out	0x07, r1	; 7
            R_PORT = HiPinRL | TriPinRH;
    198e:	f7 ec       	ldi	r31, 0xC7	; 199
            while ((ADC_PIN&PinMSK));	// Wait, until the MOSFET switch and Drain moved to low 
    1990:	2f 16       	cp	r2, r31
    1992:	f1 e0       	ldi	r31, 0x01	; 1
    1994:	3f 06       	cpc	r3, r31
             		// 0 is detected with input voltage of 2.12V to 2.24V (tested with mega168 & mega328)
            R_DDR = HiPinRL;		// switch off current
    1996:	08 f4       	brcc	.+2      	; 0x199a <CheckPins+0x9c8>
            ADCSRA |= (1<<ADSC);		// start ADC conversion
    1998:	af c0       	rjmp	.+350    	; 0x1af8 <CheckPins+0xb26>
    199a:	18 b8       	out	0x08, r1	; 8
    199c:	18 ec       	ldi	r17, 0xC8	; 200
    199e:	07 2d       	mov	r16, r7
    19a0:	0e 29       	or	r16, r14
            while (ADCSRA&(1<<ADSC));	// wait until ADC finished
    19a2:	07 b9       	out	0x07, r16	; 7
    19a4:	0e 94 5f 03 	call	0x6be	; 0x6be <wait5ms>
    19a8:	e7 b8       	out	0x07, r14	; 7
            tmp16 += ADCW;		// add result of ADC
    19aa:	89 2d       	mov	r24, r9
    19ac:	0e 94 78 03 	call	0x6f0	; 0x6f0 <ReadADC>
    19b0:	42 97       	sbiw	r24, 0x12	; 18
    19b2:	10 f0       	brcs	.+4      	; 0x19b8 <CheckPins+0x9e6>
    19b4:	11 50       	subi	r17, 0x01	; 1
    19b6:	a9 f7       	brne	.-22     	; 0x19a2 <CheckPins+0x9d0>
         // High level is specified above 0.6 * VCC
         PinMSK = HiADCm & 7;
         // measure Threshold voltage of Gate
         ADMUX = TristatePin | (1<<REFS0);	// measure TristatePin, Ref. VCC
         tmp16 = 1;			// round up ((1*4)/9)
         for(ii=0;ii<11;ii++) {
    19b8:	45 2c       	mov	r4, r5
            R_DDR = HiPinRL;		// switch off current
            ADCSRA |= (1<<ADSC);		// start ADC conversion
            while (ADCSRA&(1<<ADSC));	// wait until ADC finished
            tmp16 += ADCW;		// add result of ADC
         }
         tmp16 *= 4;	//is equal to 44 * ADCW
    19ba:	44 0c       	add	r4, r4
    19bc:	3f 2c       	mov	r3, r15
    19be:	33 0c       	add	r3, r3
    19c0:	34 b8       	out	0x04, r3	; 4
    19c2:	35 b8       	out	0x05, r3	; 5
         ntrans.gthvoltage = tmp16/ 9;	//scale to mV
    19c4:	61 e0       	ldi	r22, 0x01	; 1
    19c6:	86 2d       	mov	r24, r6
    19c8:	a8 d2       	rcall	.+1360   	; 0x1f1a <ChargePin10ms>
    19ca:	89 2d       	mov	r24, r9
    19cc:	0e 94 77 03 	call	0x6ee	; 0x6ee <W5msReadADC>
    19d0:	8c 01       	movw	r16, r24
    19d2:	44 b8       	out	0x04, r4	; 4
         ntrans.count++;		// count FET as two to accelerate  searching
    19d4:	15 b8       	out	0x05, r1	; 5
    19d6:	77 b8       	out	0x07, r7	; 7
    19d8:	78 b8       	out	0x08, r7	; 8
    19da:	60 e0       	ldi	r22, 0x00	; 0
    19dc:	86 2d       	mov	r24, r6
    19de:	9d d2       	rcall	.+1338   	; 0x1f1a <ChargePin10ms>
         goto saveNresult;
      }
   } // end component conduct => npn
   ADC_DDR = TXD_MSK;		// switch all ADC-Ports to input
    19e0:	a0 90 2b 01 	lds	r10, 0x012B
  }
//##########################################################################################
// Search for diodes
//##########################################################################################
checkDiode:
  R_DDR = 0;			//switch off resistor current
    19e4:	b0 90 2c 01 	lds	r11, 0x012C
  R_PORT = 0;
  ADC_DDR = TXD_MSK;		// switch ADC ports to input
    19e8:	88 2d       	mov	r24, r8
//  if (adc.lp_otr < 977) 
  if (adc.lp_otr < 455) {
    19ea:	0e 94 77 03 	call	0x6ee	; 0x6ee <W5msReadADC>
    19ee:	6c 01       	movw	r12, r24
    19f0:	54 b8       	out	0x04, r5	; 4
    19f2:	89 2d       	mov	r24, r9
    19f4:	0e 94 77 03 	call	0x6ee	; 0x6ee <W5msReadADC>
#endif
     goto widmes;
  }
  // component has current
  //Test if Diode
  ADC_PORT = TXD_VAL;
    19f8:	9a 83       	std	Y+2, r25	; 0x02
  for (ii=0;ii<200;ii++) {
     ADC_DDR = LoADCm | HiADCm; // discharge by short of Low and High side
    19fa:	89 83       	std	Y+1, r24	; 0x01
    19fc:	88 2d       	mov	r24, r8
    19fe:	0e 94 78 03 	call	0x6f0	; 0x6f0 <ReadADC>
     wait_about5ms();		// Low and Highpin to GND for discharge
    1a02:	29 81       	ldd	r18, Y+1	; 0x01
     ADC_DDR = LoADCm;		// switch only Low-Pin fix to GND
    1a04:	3a 81       	ldd	r19, Y+2	; 0x02
     adc.hp1 = ReadADC(HighPin); // read voltage at High-Pin
    1a06:	28 1b       	sub	r18, r24
    1a08:	39 0b       	sbc	r19, r25
    1a0a:	3a 83       	std	Y+2, r19	; 0x02
     if (adc.hp1 < (150/8)) break;
    1a0c:	29 83       	std	Y+1, r18	; 0x01
    1a0e:	18 b8       	out	0x08, r1	; 8
    1a10:	e7 b8       	out	0x07, r14	; 7
     goto widmes;
  }
  // component has current
  //Test if Diode
  ADC_PORT = TXD_VAL;
  for (ii=0;ii<200;ii++) {
    1a12:	f4 b8       	out	0x04, r15	; 4
#if FLASHEND > 0x1fff
 #if (((PIN_RL1 + 1) != PIN_RH1) || ((PIN_RL2 + 1) != PIN_RH2) || ((PIN_RL3 + 1) != PIN_RH3))
  addr += 3;			// address of PinRHtab[LowPin]
  LoPinRH = pgm_read_byte(addr);		// instruction for LowPin R_H
 #else
  LoPinRH = LoPinRL + LoPinRL;				// instruction for LowPin R_H
    1a14:	f5 b8       	out	0x05, r15	; 5
    1a16:	61 e0       	ldi	r22, 0x01	; 1
  HiPinRL = pgm_read_byte(addr);		// instruction for HighPin R_L
#if (((PIN_RL1 + 1) != PIN_RH1) || ((PIN_RL2 + 1) != PIN_RH2) || ((PIN_RL3 + 1) != PIN_RH3))
  addr += 3;			// address of PinRHtab[HighPin]
  HiPinRH = pgm_read_byte(addr);		// instruction for HighPin R_H
#else
  HiPinRH = HiPinRL + HiPinRL;				// instruction for HighPin R_H
    1a18:	86 2d       	mov	r24, r6
    1a1a:	7f d2       	rcall	.+1278   	; 0x1f1a <ChargePin10ms>
 #if FLASHEND > 0x1fff
  /* It is difficult to detect the protection diode of D-mode MOSFET . */
  /* We have to generate a negative gate voltage to isolate the diode. */
  /* For P-mode the resistors must reside on the VCC side. */
  /* For N-mode the resistors must be moved to the GND side. */
  R_DDR = HiPinRH;		//switch R_H port for High-Pin output (VCC)
    1a1c:	89 2d       	mov	r24, r9
  R_PORT = HiPinRH;
    1a1e:	0e 94 77 03 	call	0x6ee	; 0x6ee <W5msReadADC>
  ChargePin10ms(TriPinRL,1);	//discharge of P-Kanal-MOSFET gate
    1a22:	7c 01       	movw	r14, r24
    1a24:	88 2d       	mov	r24, r8
    1a26:	0e 94 78 03 	call	0x6f0	; 0x6f0 <ReadADC>
  adc.hp2 = W5msReadADC(HighPin); 		// GND--|<--HP--R_H--VCC
    1a2a:	e8 1a       	sub	r14, r24
    1a2c:	f9 0a       	sbc	r15, r25
    1a2e:	49 81       	ldd	r20, Y+1	; 0x01
  // now the resistor is moved to the Low side
  R_DDR = LoPinRH;
    1a30:	5a 81       	ldd	r21, Y+2	; 0x02
  R_PORT = 0;
    1a32:	4e 15       	cp	r20, r14
  ADC_DDR = HiADCm;		// switch High-Pin fix to VCC
    1a34:	5f 05       	cpc	r21, r15
  ADC_PORT = HiADCp;
    1a36:	40 f4       	brcc	.+16     	; 0x1a48 <CheckPins+0xa76>
  ChargePin10ms(TriPinRL,0);	//discharge for N-Kanal-MOSFET gate
    1a38:	34 b8       	out	0x04, r3	; 4
    1a3a:	35 b8       	out	0x05, r3	; 5
    1a3c:	89 2d       	mov	r24, r9
    1a3e:	0e 94 77 03 	call	0x6ee	; 0x6ee <W5msReadADC>
  adc.hp3 = ADCconfig.U_AVCC - W5msReadADC(LowPin); // GND--R_H--LP--|<--VCC
    1a42:	fa 82       	std	Y+2, r15	; 0x02
    1a44:	e9 82       	std	Y+1, r14	; 0x01
    1a46:	15 c0       	rjmp	.+42     	; 0x1a72 <CheckPins+0xaa0>
    1a48:	85 01       	movw	r16, r10
    1a4a:	0c 19       	sub	r16, r12
    1a4c:	1d 09       	sbc	r17, r13
    1a4e:	44 b8       	out	0x04, r4	; 4
  /* check with higher current (R_L=680) */
  R_DDR = LoPinRL;
    1a50:	15 b8       	out	0x05, r1	; 5
  adc.hp1 = W5msReadADC(HighPin) - ReadADC(LowPin); // GND--R_L--LP--|<--VCC
    1a52:	77 b8       	out	0x07, r7	; 7
    1a54:	78 b8       	out	0x08, r7	; 8
    1a56:	60 e0       	ldi	r22, 0x00	; 0
    1a58:	86 2d       	mov	r24, r6
    1a5a:	5f d2       	rcall	.+1214   	; 0x1f1a <ChargePin10ms>
    1a5c:	e0 90 2b 01 	lds	r14, 0x012B
    1a60:	f0 90 2c 01 	lds	r15, 0x012C
    1a64:	88 2d       	mov	r24, r8
    1a66:	0e 94 77 03 	call	0x6ee	; 0x6ee <W5msReadADC>
    1a6a:	b7 01       	movw	r22, r14
    1a6c:	68 1b       	sub	r22, r24
  //  the resistor is moved back to the High side
  ADC_PORT = TXD_VAL;
    1a6e:	79 0b       	sbc	r23, r25
  ADC_DDR = LoADCm;		// switch only Low-Pin fix to GND
    1a70:	cb 01       	movw	r24, r22
  R_DDR = HiPinRL;		//switch R_L port for High-Pin output (VCC)
    1a72:	29 81       	ldd	r18, Y+1	; 0x01
  R_PORT = HiPinRL;
    1a74:	3a 81       	ldd	r19, Y+2	; 0x02
  ChargePin10ms(TriPinRL,1);	//discharge for P-Kanal-MOSFET gate
    1a76:	27 59       	subi	r18, 0x97	; 151
    1a78:	31 09       	sbc	r19, r1
    1a7a:	29 38       	cpi	r18, 0x89	; 137
    1a7c:	31 41       	sbci	r19, 0x11	; 17
  adc.lp_otr = W5msReadADC(HighPin) - ReadADC(LowPin); // GND--|<--HP--R_L--VCC
    1a7e:	e0 f5       	brcc	.+120    	; 0x1af8 <CheckPins+0xb26>
    1a80:	29 81       	ldd	r18, Y+1	; 0x01
    1a82:	3a 81       	ldd	r19, Y+2	; 0x02
    1a84:	82 17       	cp	r24, r18
    1a86:	93 07       	cpc	r25, r19
    1a88:	b8 f5       	brcc	.+110    	; 0x1af8 <CheckPins+0xb26>
    1a8a:	c8 01       	movw	r24, r16
    1a8c:	33 e0       	ldi	r19, 0x03	; 3
    1a8e:	96 95       	lsr	r25
  if(adc.lp_otr > adc.hp1) {
    1a90:	87 95       	ror	r24
    1a92:	3a 95       	dec	r19
    1a94:	e1 f7       	brne	.-8      	; 0x1a8e <CheckPins+0xabc>
    1a96:	89 3c       	cpi	r24, 0xC9	; 201
    1a98:	91 05       	cpc	r25, r1
      adc.hp1 = adc.lp_otr;	//the higher value wins
      adc.hp3 = adc.hp2;
      R_DDR = HiPinRH;		//switch R_H port for High-Pin output (VCC)
    1a9a:	10 f0       	brcs	.+4      	; 0x1aa0 <CheckPins+0xace>
      R_PORT = HiPinRH;
    1a9c:	88 ec       	ldi	r24, 0xC8	; 200
      adc.hp2 = W5msReadADC(HighPin); 		// GND--|<--HP--R_H--VCC
    1a9e:	90 e0       	ldi	r25, 0x00	; 0
    1aa0:	80 0f       	add	r24, r16
    1aa2:	91 1f       	adc	r25, r17
    1aa4:	49 81       	ldd	r20, Y+1	; 0x01
    1aa6:	5a 81       	ldd	r21, Y+2	; 0x02
    1aa8:	84 17       	cp	r24, r20
  R_DDR = LoPinRH;
  R_PORT = 0;
  ADC_DDR = HiADCm;		// switch High-Pin fix to VCC
  ADC_PORT = HiADCp;
  ChargePin10ms(TriPinRL,0);	//discharge for N-Kanal-MOSFET gate
  adc.hp3 = ADCconfig.U_AVCC - W5msReadADC(LowPin); // GND--R_H--LP--|<--VCC
    1aaa:	95 07       	cpc	r25, r21
    1aac:	28 f5       	brcc	.+74     	; 0x1af8 <CheckPins+0xb26>
    1aae:	ca 01       	movw	r24, r20
      adc.hp3 = adc.hp2;
      R_DDR = HiPinRH;		//switch R_H port for High-Pin output (VCC)
      R_PORT = HiPinRH;
      adc.hp2 = W5msReadADC(HighPin); 		// GND--|<--HP--R_H--VCC
  } else {
      R_DDR = LoPinRH;
    1ab0:	24 e0       	ldi	r18, 0x04	; 4
      R_PORT = 0;
    1ab2:	96 95       	lsr	r25
      ADC_DDR = HiADCm;		// switch High-Pin fix to VCC
    1ab4:	87 95       	ror	r24
      ADC_PORT = HiADCp;
    1ab6:	2a 95       	dec	r18
      ChargePin10ms(TriPinRL,0);	//discharge for N-Kanal-MOSFET gate
    1ab8:	e1 f7       	brne	.-8      	; 0x1ab2 <CheckPins+0xae0>
    1aba:	80 17       	cp	r24, r16
    1abc:	91 07       	cpc	r25, r17
    1abe:	e0 f4       	brcc	.+56     	; 0x1af8 <CheckPins+0xb26>
      adc.hp2 = ADCconfig.U_AVCC - W5msReadADC(LowPin); // GND--R_H--LP--|<--VCC
    1ac0:	80 91 16 01 	lds	r24, 0x0116
    1ac4:	83 30       	cpi	r24, 0x03	; 3
    1ac6:	18 f4       	brcc	.+6      	; 0x1ace <CheckPins+0xafc>
    1ac8:	83 e0       	ldi	r24, 0x03	; 3
    1aca:	80 93 16 01 	sts	0x0116, r24
    1ace:	80 91 14 01 	lds	r24, 0x0114
    1ad2:	e8 2f       	mov	r30, r24
    1ad4:	f0 e0       	ldi	r31, 0x00	; 0
  DisplayValue16(adc.hp2,-3,' ',2);
#endif
  volt_dif = adc.hp3/8;
  if (volt_dif > 200) volt_dif = 200;

  if((adc.hp1 > 150) && (adc.hp1 < 4640) && (adc.hp2 < adc.hp1) && (adc.hp1 > (adc.hp3+volt_dif)) && (adc.hp3 > adc.hp1/16)) {
    1ad6:	df 01       	movw	r26, r30
    1ad8:	a2 58       	subi	r26, 0x82	; 130
    1ada:	be 4f       	sbci	r27, 0xFE	; 254
    1adc:	9c 92       	st	X, r9
    1ade:	16 96       	adiw	r26, 0x06	; 6
    1ae0:	8c 92       	st	X, r8
    1ae2:	ee 0f       	add	r30, r30
    1ae4:	ff 1f       	adc	r31, r31
    1ae6:	e6 57       	subi	r30, 0x76	; 118
    1ae8:	fe 4f       	sbci	r31, 0xFE	; 254
    1aea:	29 81       	ldd	r18, Y+1	; 0x01
    1aec:	3a 81       	ldd	r19, Y+2	; 0x02
  lcd_data('L');	// debug
  DisplayValue16(adc.hp1,-3,' ',2);
  lcd_data('H');	// debug
  DisplayValue16(adc.hp2,-3,' ',2);
#endif
  volt_dif = adc.hp3/8;
    1aee:	31 83       	std	Z+1, r19	; 0x01
    1af0:	20 83       	st	Z, r18
    1af2:	8f 5f       	subi	r24, 0xFF	; 255
    1af4:	80 93 14 01 	sts	0x0114, r24
    1af8:	68 2d       	mov	r22, r8
    1afa:	89 2d       	mov	r24, r9
    1afc:	25 d0       	rcall	.+74     	; 0x1b48 <GetResistance>
    1afe:	17 b8       	out	0x07, r1	; 7
    1b00:	18 b8       	out	0x08, r1	; 8
    1b02:	14 b8       	out	0x04, r1	; 4
  if (volt_dif > 200) volt_dif = 200;

  if((adc.hp1 > 150) && (adc.hp1 < 4640) && (adc.hp2 < adc.hp1) && (adc.hp1 > (adc.hp3+volt_dif)) && (adc.hp3 > adc.hp1/16)) {
    1b04:	15 b8       	out	0x05, r1	; 5
    1b06:	65 96       	adiw	r28, 0x15	; 21
    1b08:	e2 e1       	ldi	r30, 0x12	; 18
    1b0a:	0c 94 d5 1e 	jmp	0x3daa	; 0x3daa <__epilogue_restores__>
    1b0e:	80 91 62 01 	lds	r24, 0x0162
    1b12:	8f 5f       	subi	r24, 0xFF	; 255
    1b14:	80 93 62 01 	sts	0x0162, r24
    1b18:	22 23       	and	r18, r18
    1b1a:	89 f3       	breq	.-30     	; 0x1afe <CheckPins+0xb2c>
    1b1c:	40 92 5f 01 	sts	0x015F, r4
    1b20:	80 92 60 01 	sts	0x0160, r8
     //voltage is above 0,15V and below 4,64V => Ok
     // hp2 >= hp1 is only possible with capacitor, not with a diode, hp2 is measured with 470k
//     if((PartFound == PART_NONE) || (PartFound == PART_RESISTOR)) {
     if(PartFound < PART_DIODE) {
    1b24:	90 92 61 01 	sts	0x0161, r9
    1b28:	ea cf       	rjmp	.-44     	; 0x1afe <CheckPins+0xb2c>
    1b2a:	21 e0       	ldi	r18, 0x01	; 1
        PartFound = PART_DIODE;	//mark for diode only, if no other component is found
    1b2c:	80 91 4a 01 	lds	r24, 0x014A
    1b30:	8f 5f       	subi	r24, 0xFF	; 255
				//since there is a problem with Transistors with a protection diode
#if DebugOut == 4
        lcd_data('D');	// debug
#endif
     }
     diodes.Anode[NumOfDiodes] = HighPin;
    1b32:	80 93 4a 01 	sts	0x014A, r24
    1b36:	22 23       	and	r18, r18
    1b38:	11 f3       	breq	.-60     	; 0x1afe <CheckPins+0xb2c>
    1b3a:	40 92 47 01 	sts	0x0147, r4
    1b3e:	90 92 48 01 	sts	0x0148, r9
     diodes.Cathode[NumOfDiodes] = LowPin;
    1b42:	80 92 49 01 	sts	0x0149, r8
     diodes.Voltage[NumOfDiodes] = adc.hp1;	// voltage in Millivolt 
    1b46:	db cf       	rjmp	.-74     	; 0x1afe <CheckPins+0xb2c>

00001b48 <GetResistance>:
#include <stdlib.h>
#include "Transistortester.h"

//******************************************************************
void GetResistance(uint8_t HighPin, uint8_t LowPin)
  {
    1b48:	a0 e0       	ldi	r26, 0x00	; 0
    1b4a:	b0 e0       	ldi	r27, 0x00	; 0
    1b4c:	ea ea       	ldi	r30, 0xAA	; 170
    1b4e:	fd e0       	ldi	r31, 0x0D	; 13
    1b50:	0c 94 bb 1e 	jmp	0x3d76	; 0x3d76 <__prologue_saves__+0x4>
    1b54:	98 2e       	mov	r9, r24
    1b56:	86 2e       	mov	r8, r22
  /*
    switch HighPin directls to VCC 
    switch R_L port for LowPin to GND 
    TristatePin remains switched to input , no action required 
  */
  wdt_reset();
    1b58:	a8 95       	wdr
  addr = &PinRLRHADCtab[LowPin-TP1];		// address of the combined RL / RH / ADC pin table
    1b5a:	e6 2f       	mov	r30, r22
    1b5c:	f0 e0       	ldi	r31, 0x00	; 0
    1b5e:	e2 58       	subi	r30, 0x82	; 130
    1b60:	ff 4f       	sbci	r31, 0xFF	; 255
  LoPinRL = pgm_read_byte(addr);		// instruction for LowPin R_L
    1b62:	54 90       	lpm	r5, Z
  addr += 3;			// address of PinRHtab[LowPin]
  LoPinRH = pgm_read_byte(addr);		// instruction for LowPin R_H
#else
  LoPinRH = (LoPinRL + LoPinRL);
#endif
  addr += 3;			// address of PinADCtab[LowPin]
    1b64:	33 96       	adiw	r30, 0x03	; 3
  LoADCp = pgm_read_byte(addr);		// instruction for ADC Low-Pin, including | TXD_VAL
    1b66:	24 91       	lpm	r18, Z

  addr = &PinRLRHADCtab[HighPin-TP1];
    1b68:	e8 2f       	mov	r30, r24
    1b6a:	f0 e0       	ldi	r31, 0x00	; 0
    1b6c:	e2 58       	subi	r30, 0x82	; 130
    1b6e:	ff 4f       	sbci	r31, 0xFF	; 255
  HiPinRL = pgm_read_byte(addr);		// instruction for HighPin R_L
    1b70:	e4 90       	lpm	r14, Z
  addr += 3;			// address of PinRLtab[HighPin]
  HiPinRH = pgm_read_byte(addr);		// instruction for HighPin R_H
#else
  HiPinRH = (HiPinRL + HiPinRL);
#endif
  addr += 3;			// address of PinADCtab[HighPin]
    1b72:	33 96       	adiw	r30, 0x03	; 3
  HiADCp = pgm_read_byte(addr);		// instruction for ADC High-Pin, including | TXD_VAL
    1b74:	f4 90       	lpm	r15, Z

//##########################################################################################
// Search for resistors
//##########################################################################################
  if ((ptrans.count  + ntrans.count) > 0) {
    1b76:	30 91 62 01 	lds	r19, 0x0162
    1b7a:	80 91 4a 01 	lds	r24, 0x014A
    1b7e:	90 e0       	ldi	r25, 0x00	; 0
    1b80:	83 0f       	add	r24, r19
    1b82:	91 1d       	adc	r25, r1
    1b84:	89 2b       	or	r24, r25
    1b86:	09 f0       	breq	.+2      	; 0x1b8a <GetResistance+0x42>
    1b88:	c3 c1       	rjmp	.+902    	; 0x1f10 <GetResistance+0x3c8>
     return;	// no resistors are searched, if transistors are detected
  }
  resnum = (LowPin - TP1 + HighPin - TP1 - 1);	// resistor-Number 0:1 = 0, 0:2 = 1, 1:2 = 2
  // resistor measurement
  wdt_reset();
    1b8a:	a8 95       	wdr
// U_SCALE can be set to 4 for better resolution of ReadADC result
#if U_SCALE != 1
  ADCconfig.U_AVCC = (adc_vcc_reference * U_SCALE);	// scale to higher resolution, mV scale is not required
    1b8c:	80 91 1a 01 	lds	r24, 0x011A
    1b90:	90 91 1b 01 	lds	r25, 0x011B
    1b94:	88 0f       	add	r24, r24
    1b96:	99 1f       	adc	r25, r25
    1b98:	88 0f       	add	r24, r24
    1b9a:	99 1f       	adc	r25, r25
    1b9c:	90 93 2c 01 	sts	0x012C, r25
    1ba0:	80 93 2b 01 	sts	0x012B, r24
  ADCconfig.U_Bandgap = (adc_internal_reference * U_SCALE);
    1ba4:	80 91 63 01 	lds	r24, 0x0163
    1ba8:	90 91 64 01 	lds	r25, 0x0164
    1bac:	88 0f       	add	r24, r24
    1bae:	99 1f       	adc	r25, r25
    1bb0:	88 0f       	add	r24, r24
    1bb2:	99 1f       	adc	r25, r25
    1bb4:	90 93 2a 01 	sts	0x012A, r25
    1bb8:	80 93 29 01 	sts	0x0129, r24
#endif
#if R_ANZ_MESS != ANZ_MESS
  ADCconfig.Samples = R_ANZ_MESS;	// switch to special number of repetitions
    1bbc:	8e eb       	ldi	r24, 0xBE	; 190
    1bbe:	80 93 27 01 	sts	0x0127, r24
#endif
  #define MAX_REPEAT (700 / (5 + R_ANZ_MESS/8))
  ADC_PORT = TXD_VAL;
    1bc2:	18 b8       	out	0x08, r1	; 8
  ADC_DDR = LoADCp | TXD_MSK;		//switch Low-Pin to output (GND)
    1bc4:	27 b9       	out	0x07, r18	; 7
  R_DDR = HiPinRL;		//switch R_L port for High-Pin to output (VCC)
    1bc6:	e4 b8       	out	0x04, r14	; 4
  R_PORT = HiPinRL;	
    1bc8:	e5 b8       	out	0x05, r14	; 5
    1bca:	58 e1       	ldi	r21, 0x18	; 24
    1bcc:	d5 2e       	mov	r13, r21
#if FLASHEND > 0x1fff
  adc.hp2 = 0;
    1bce:	c0 e0       	ldi	r28, 0x00	; 0
    1bd0:	d0 e0       	ldi	r29, 0x00	; 0
  for (ii=1;ii<MAX_REPEAT;ii++) {
     // wait until voltage is stable
     adc.tp1 = W5msReadADC(LowPin);	// low-voltage at Rx with load
    1bd2:	88 2d       	mov	r24, r8
    1bd4:	0e 94 77 03 	call	0x6ee	; 0x6ee <W5msReadADC>
    1bd8:	78 2e       	mov	r7, r24
    1bda:	69 2e       	mov	r6, r25
     adc.hp1 = ReadADC(HighPin);		// voltage at resistor Rx with R_L
    1bdc:	89 2d       	mov	r24, r9
    1bde:	0e 94 78 03 	call	0x6f0	; 0x6f0 <ReadADC>
    1be2:	8c 01       	movw	r16, r24
    1be4:	8c 1b       	sub	r24, r28
    1be6:	9d 0b       	sbc	r25, r29
    1be8:	97 ff       	sbrs	r25, 7
    1bea:	03 c0       	rjmp	.+6      	; 0x1bf2 <GetResistance+0xaa>
    1bec:	91 95       	neg	r25
    1bee:	81 95       	neg	r24
    1bf0:	91 09       	sbc	r25, r1
     udiff = adc.hp1 - adc.hp2;
     if (udiff < 0) udiff = -udiff;
     if (udiff < 3) break;
    1bf2:	03 97       	sbiw	r24, 0x03	; 3
    1bf4:	2c f0       	brlt	.+10     	; 0x1c00 <GetResistance+0xb8>
     adc.hp2 = adc.hp1;
     wdt_reset();
    1bf6:	a8 95       	wdr
    1bf8:	da 94       	dec	r13
  ADC_DDR = LoADCp | TXD_MSK;		//switch Low-Pin to output (GND)
  R_DDR = HiPinRL;		//switch R_L port for High-Pin to output (VCC)
  R_PORT = HiPinRL;	
#if FLASHEND > 0x1fff
  adc.hp2 = 0;
  for (ii=1;ii<MAX_REPEAT;ii++) {
    1bfa:	d1 f1       	breq	.+116    	; 0x1c70 <GetResistance+0x128>
     // wait until voltage is stable
     adc.tp1 = W5msReadADC(LowPin);	// low-voltage at Rx with load
     adc.hp1 = ReadADC(HighPin);		// voltage at resistor Rx with R_L
    1bfc:	e8 01       	movw	r28, r16
    1bfe:	e9 cf       	rjmp	.-46     	; 0x1bd2 <GetResistance+0x8a>
  HiPinRL = pgm_read_byte(addr);		// instruction for HighPin R_L
#if (((PIN_RL1 + 1) != PIN_RH1) || ((PIN_RL2 + 1) != PIN_RH2) || ((PIN_RL3 + 1) != PIN_RH3))
  addr += 3;			// address of PinRLtab[HighPin]
  HiPinRH = pgm_read_byte(addr);		// instruction for HighPin R_H
#else
  HiPinRH = (HiPinRL + HiPinRL);
    1c00:	ee 0c       	add	r14, r14
  adc.hp1 = ReadADC(HighPin);		// voltage at resistor Rx with R_L
#endif
  if (adc.tp1 > adc.hp1) {
     adc.tp1 = adc.hp1;
  }
  R_PORT = 0;
    1c02:	15 b8       	out	0x05, r1	; 5
  R_DDR = HiPinRH;		//switch R_H port for High-Pin to output (GND)
    1c04:	e4 b8       	out	0x04, r14	; 4
  adc.hp2 = W5msReadADC(HighPin);	// read voltage, should be down
    1c06:	89 2d       	mov	r24, r9
    1c08:	0e 94 77 03 	call	0x6ee	; 0x6ee <W5msReadADC>
  if (adc.hp2 > (20*U_SCALE)) {
    1c0c:	81 35       	cpi	r24, 0x51	; 81
    1c0e:	91 05       	cpc	r25, r1
    1c10:	78 f5       	brcc	.+94     	; 0x1c70 <GetResistance+0x128>
 #if (DEBUG_OUT == 1)
     lcd_data('b');
 #endif
     goto testend;
  }
  R_PORT = HiPinRH;		//switch R_H for High-Pin to VCC
    1c12:	e5 b8       	out	0x05, r14	; 5
  adc.hp2 = W5msReadADC(HighPin);	// voltage at resistor Rx with R_H
    1c14:	89 2d       	mov	r24, r9
    1c16:	0e 94 77 03 	call	0x6ee	; 0x6ee <W5msReadADC>
    1c1a:	ec 01       	movw	r28, r24

  ADC_DDR = HiADCp | TXD_MSK;		//switch High-Pin to output
    1c1c:	f7 b8       	out	0x07, r15	; 7
  ADC_PORT = HiADCp;		//switch High-Pin to VCC
    1c1e:	f8 b8       	out	0x08, r15	; 8
  R_PORT = 0;
    1c20:	15 b8       	out	0x05, r1	; 5
  R_DDR = LoPinRL;			//switch R_L for Low-Pin to GND
    1c22:	54 b8       	out	0x04, r5	; 4
    1c24:	88 e1       	ldi	r24, 0x18	; 24
    1c26:	48 2e       	mov	r4, r24
#if FLASHEND > 0x1fff
  adc.lp2 = 0;
    1c28:	c1 2c       	mov	r12, r1
    1c2a:	d1 2c       	mov	r13, r1
  for (ii=1;ii<MAX_REPEAT;ii++) {
     // wait until voltage is stable
     adc.tp2 = W5msReadADC(HighPin);	//high voltage with load
    1c2c:	89 2d       	mov	r24, r9
    1c2e:	0e 94 77 03 	call	0x6ee	; 0x6ee <W5msReadADC>
    1c32:	b8 2e       	mov	r11, r24
    1c34:	a9 2e       	mov	r10, r25
     adc.lp1 = ReadADC(LowPin);		//voltage at the other end of Rx
    1c36:	88 2d       	mov	r24, r8
    1c38:	0e 94 78 03 	call	0x6f0	; 0x6f0 <ReadADC>
    1c3c:	7c 01       	movw	r14, r24
    1c3e:	9c 01       	movw	r18, r24
    1c40:	2c 19       	sub	r18, r12
    1c42:	3d 09       	sbc	r19, r13
    1c44:	37 ff       	sbrs	r19, 7
    1c46:	03 c0       	rjmp	.+6      	; 0x1c4e <GetResistance+0x106>
    1c48:	31 95       	neg	r19
    1c4a:	21 95       	neg	r18
    1c4c:	31 09       	sbc	r19, r1
     udiff = adc.lp1 - adc.lp2;
     if (udiff < 0) udiff = -udiff;
     if (udiff < 3) break;
    1c4e:	23 30       	cpi	r18, 0x03	; 3
    1c50:	31 05       	cpc	r19, r1
    1c52:	14 f5       	brge	.+68     	; 0x1c98 <GetResistance+0x150>
  LoPinRL = pgm_read_byte(addr);		// instruction for LowPin R_L
#if (((PIN_RL1 + 1) != PIN_RH1) || ((PIN_RL2 + 1) != PIN_RH2) || ((PIN_RL3 + 1) != PIN_RH3))
  addr += 3;			// address of PinRHtab[LowPin]
  LoPinRH = pgm_read_byte(addr);		// instruction for LowPin R_H
#else
  LoPinRH = (LoPinRL + LoPinRL);
    1c54:	55 0c       	add	r5, r5
  adc.lp1 = ReadADC(LowPin);		//voltage at the other end of Rx
#endif
  if (adc.tp2 < adc.lp1) {
     adc.tp2 = adc.lp1;
  }
  R_DDR = LoPinRH;			//switch R_H for Low-Pin to GND
    1c56:	54 b8       	out	0x04, r5	; 4
  adc.lp2 = W5msReadADC(LowPin);
    1c58:	88 2d       	mov	r24, r8
    1c5a:	0e 94 77 03 	call	0x6ee	; 0x6ee <W5msReadADC>
    1c5e:	6c 01       	movw	r12, r24
		
  if((adc.hp1 < (4400*U_SCALE)) && (adc.hp2 > (97*U_SCALE))) {
    1c60:	00 3c       	cpi	r16, 0xC0	; 192
    1c62:	94 e4       	ldi	r25, 0x44	; 68
    1c64:	19 07       	cpc	r17, r25
    1c66:	e8 f4       	brcc	.+58     	; 0x1ca2 <GetResistance+0x15a>
    1c68:	c5 38       	cpi	r28, 0x85	; 133
    1c6a:	81 e0       	ldi	r24, 0x01	; 1
    1c6c:	d8 07       	cpc	r29, r24
    1c6e:	e8 f0       	brcs	.+58     	; 0x1caa <GetResistance+0x162>
        } // end  ResistorChecked[] != 0
     }	/* end if (PartFound < PART_TRANSISTOR) */
  }
  testend:			// end of resistor measurement
#if U_SCALE != 1
  ADCconfig.U_AVCC = adc_vcc_reference;	// scale to higher resolution, mV scale is not required
    1c70:	80 91 1a 01 	lds	r24, 0x011A
    1c74:	90 91 1b 01 	lds	r25, 0x011B
    1c78:	90 93 2c 01 	sts	0x012C, r25
    1c7c:	80 93 2b 01 	sts	0x012B, r24
  ADCconfig.U_Bandgap = adc_internal_reference;	// set back to normal resolution
    1c80:	80 91 63 01 	lds	r24, 0x0163
    1c84:	90 91 64 01 	lds	r25, 0x0164
    1c88:	90 93 2a 01 	sts	0x012A, r25
    1c8c:	80 93 29 01 	sts	0x0129, r24
#endif
#if R_ANZ_MESS != ANZ_MESS
  ADCconfig.Samples = ANZ_MESS;		// switch back to standard number of repetition
    1c90:	89 e1       	ldi	r24, 0x19	; 25
    1c92:	80 93 27 01 	sts	0x0127, r24
#endif

  return;
    1c96:	3c c1       	rjmp	.+632    	; 0x1f10 <GetResistance+0x3c8>
     adc.lp1 = ReadADC(LowPin);		//voltage at the other end of Rx
     udiff = adc.lp1 - adc.lp2;
     if (udiff < 0) udiff = -udiff;
     if (udiff < 3) break;
     adc.lp2 = adc.lp1;
     wdt_reset();
    1c98:	a8 95       	wdr
    1c9a:	4a 94       	dec	r4
  ADC_PORT = HiADCp;		//switch High-Pin to VCC
  R_PORT = 0;
  R_DDR = LoPinRL;			//switch R_L for Low-Pin to GND
#if FLASHEND > 0x1fff
  adc.lp2 = 0;
  for (ii=1;ii<MAX_REPEAT;ii++) {
    1c9c:	49 f3       	breq	.-46     	; 0x1c70 <GetResistance+0x128>
     // wait until voltage is stable
     adc.tp2 = W5msReadADC(HighPin);	//high voltage with load
     adc.lp1 = ReadADC(LowPin);		//voltage at the other end of Rx
    1c9e:	67 01       	movw	r12, r14
    1ca0:	c5 cf       	rjmp	.-118    	; 0x1c2c <GetResistance+0xe4>
     lcd_data('d');
 #endif
     goto testend; 
  }
//    if((adc.hp2 + (adc.hp2 / 61)) < adc.hp1)
  if (adc.hp2 < (4972*U_SCALE)) { 
    1ca2:	c0 3b       	cpi	r28, 0xB0	; 176
    1ca4:	9d e4       	ldi	r25, 0x4D	; 77
    1ca6:	d9 07       	cpc	r29, r25
    1ca8:	18 f7       	brcc	.-58     	; 0x1c70 <GetResistance+0x128>
     // voltage breaks down with low test current and it is not nearly shorted  => resistor
//     if (adc.lp1 < 120)  // take measurement with R_H 
     if (adc.lp1 < (169*U_SCALE)) { // take measurement with R_H 
    1caa:	84 ea       	ldi	r24, 0xA4	; 164
    1cac:	e8 16       	cp	r14, r24
    1cae:	82 e0       	ldi	r24, 0x02	; 2
    1cb0:	f8 06       	cpc	r15, r24
    1cb2:	08 f0       	brcs	.+2      	; 0x1cb6 <GetResistance+0x16e>
    1cb4:	63 c0       	rjmp	.+198    	; 0x1d7c <GetResistance+0x234>
        if (adc.lp2 < (38*U_SCALE)) {
    1cb6:	98 e9       	ldi	r25, 0x98	; 152
    1cb8:	c9 16       	cp	r12, r25
    1cba:	d1 04       	cpc	r13, r1
    1cbc:	c8 f2       	brcs	.-78     	; 0x1c70 <GetResistance+0x128>
 #endif
           goto testend;
        }
        // two measurements with R_H resistors (470k) are made:
        // lirx1 (measurement at HighPin)
        lirx1 = (unsigned long)((unsigned int)R_H_VAL) * (unsigned long)adc.hp2 / (ADCconfig.U_AVCC - adc.hp2);
    1cbe:	00 91 2b 01 	lds	r16, 0x012B
    1cc2:	10 91 2c 01 	lds	r17, 0x012C
    1cc6:	9e 01       	movw	r18, r28
    1cc8:	a8 e9       	ldi	r26, 0x98	; 152
    1cca:	b7 eb       	ldi	r27, 0xB7	; 183
    1ccc:	0e 94 2d 1e 	call	0x3c5a	; 0x3c5a <__umulhisi3>
    1cd0:	98 01       	movw	r18, r16
    1cd2:	2c 1b       	sub	r18, r28
    1cd4:	3d 0b       	sbc	r19, r29
    1cd6:	40 e0       	ldi	r20, 0x00	; 0
    1cd8:	50 e0       	ldi	r21, 0x00	; 0
    1cda:	0e 94 7b 1e 	call	0x3cf6	; 0x3cf6 <__udivmodsi4>
    1cde:	29 01       	movw	r4, r18
    1ce0:	3a 01       	movw	r6, r20
        // lirx2 (measurement at LowPin)
        lirx2 = (unsigned long)((unsigned int)R_H_VAL) * (unsigned long)(ADCconfig.U_AVCC - adc.lp2) / adc.lp2;
    1ce2:	98 01       	movw	r18, r16
    1ce4:	2c 19       	sub	r18, r12
    1ce6:	3d 09       	sbc	r19, r13
    1ce8:	a8 e9       	ldi	r26, 0x98	; 152
    1cea:	b7 eb       	ldi	r27, 0xB7	; 183
    1cec:	0e 94 2d 1e 	call	0x3c5a	; 0x3c5a <__umulhisi3>
    1cf0:	86 01       	movw	r16, r12
    1cf2:	20 e0       	ldi	r18, 0x00	; 0
    1cf4:	30 e0       	ldi	r19, 0x00	; 0
    1cf6:	a9 01       	movw	r20, r18
    1cf8:	98 01       	movw	r18, r16
    1cfa:	0e 94 7b 1e 	call	0x3cf6	; 0x3cf6 <__udivmodsi4>
#define FAKT_LOW 2		//resolution is about twice as good
#else
#define FAKT_LOW 4		//resolution is about four times better
#endif
#ifdef AUTOSCALE_ADC
        if (adc.hp2 < U_INT_LIMIT) {
    1cfe:	c8 37       	cpi	r28, 0x78	; 120
    1d00:	df 40       	sbci	r29, 0x0F	; 15
    1d02:	70 f4       	brcc	.+28     	; 0x1d20 <GetResistance+0x1d8>
           lrx1 = (lirx1*FAKT_LOW + lirx2) / (FAKT_LOW+1);	//weighted average of both R_H measurements
    1d04:	c3 01       	movw	r24, r6
    1d06:	b2 01       	movw	r22, r4
    1d08:	b2 e0       	ldi	r27, 0x02	; 2
    1d0a:	66 0f       	add	r22, r22
    1d0c:	77 1f       	adc	r23, r23
    1d0e:	88 1f       	adc	r24, r24
    1d10:	99 1f       	adc	r25, r25
    1d12:	ba 95       	dec	r27
    1d14:	d1 f7       	brne	.-12     	; 0x1d0a <GetResistance+0x1c2>
    1d16:	62 0f       	add	r22, r18
    1d18:	73 1f       	adc	r23, r19
    1d1a:	84 1f       	adc	r24, r20
    1d1c:	95 1f       	adc	r25, r21
    1d1e:	12 c0       	rjmp	.+36     	; 0x1d44 <GetResistance+0x1fc>
        } else if (adc.lp2 < U_INT_LIMIT){
    1d20:	98 e7       	ldi	r25, 0x78	; 120
    1d22:	c9 16       	cp	r12, r25
    1d24:	9f e0       	ldi	r25, 0x0F	; 15
    1d26:	d9 06       	cpc	r13, r25
    1d28:	a0 f4       	brcc	.+40     	; 0x1d52 <GetResistance+0x20a>
           lrx1 = (lirx2*FAKT_LOW + lirx1) / (FAKT_LOW+1);	//weighted average of both R_H measurements
    1d2a:	ca 01       	movw	r24, r20
    1d2c:	b9 01       	movw	r22, r18
    1d2e:	a2 e0       	ldi	r26, 0x02	; 2
    1d30:	66 0f       	add	r22, r22
    1d32:	77 1f       	adc	r23, r23
    1d34:	88 1f       	adc	r24, r24
    1d36:	99 1f       	adc	r25, r25
    1d38:	aa 95       	dec	r26
    1d3a:	d1 f7       	brne	.-12     	; 0x1d30 <GetResistance+0x1e8>
    1d3c:	64 0d       	add	r22, r4
    1d3e:	75 1d       	adc	r23, r5
    1d40:	86 1d       	adc	r24, r6
    1d42:	97 1d       	adc	r25, r7
    1d44:	25 e0       	ldi	r18, 0x05	; 5
    1d46:	30 e0       	ldi	r19, 0x00	; 0
    1d48:	40 e0       	ldi	r20, 0x00	; 0
    1d4a:	50 e0       	ldi	r21, 0x00	; 0
    1d4c:	0e 94 7b 1e 	call	0x3cf6	; 0x3cf6 <__udivmodsi4>
    1d50:	08 c0       	rjmp	.+16     	; 0x1d62 <GetResistance+0x21a>
        } else 
#endif
        {
           lrx1 = (lirx1 + lirx2) / 2;		//average of both R_H measurements
    1d52:	24 0d       	add	r18, r4
    1d54:	35 1d       	adc	r19, r5
    1d56:	46 1d       	adc	r20, r6
    1d58:	57 1d       	adc	r21, r7
    1d5a:	56 95       	lsr	r21
    1d5c:	47 95       	ror	r20
    1d5e:	37 95       	ror	r19
    1d60:	27 95       	ror	r18
        }
        lrx1 *= 100;
    1d62:	a4 e6       	ldi	r26, 0x64	; 100
    1d64:	b0 e0       	ldi	r27, 0x00	; 0
    1d66:	0e 94 42 1e 	call	0x3c84	; 0x3c84 <__muluhisi3>
    1d6a:	6b 01       	movw	r12, r22
    1d6c:	7c 01       	movw	r14, r24
        lrx1 += RH_OFFSET;			// add constant for correction of systematic error
    1d6e:	8c ea       	ldi	r24, 0xAC	; 172
    1d70:	c8 0e       	add	r12, r24
    1d72:	8d e0       	ldi	r24, 0x0D	; 13
    1d74:	d8 1e       	adc	r13, r24
    1d76:	e1 1c       	adc	r14, r1
    1d78:	f1 1c       	adc	r15, r1
    1d7a:	73 c0       	rjmp	.+230    	; 0x1e62 <GetResistance+0x31a>
    1d7c:	27 2d       	mov	r18, r7
    1d7e:	36 2d       	mov	r19, r6
    1d80:	02 17       	cp	r16, r18
    1d82:	13 07       	cpc	r17, r19
    1d84:	08 f4       	brcc	.+2      	; 0x1d88 <GetResistance+0x240>
    1d86:	98 01       	movw	r18, r16
    1d88:	cb 2d       	mov	r28, r11
    1d8a:	da 2d       	mov	r29, r10
    1d8c:	ce 15       	cp	r28, r14
    1d8e:	df 05       	cpc	r29, r15
    1d90:	08 f4       	brcc	.+2      	; 0x1d94 <GetResistance+0x24c>
    1d92:	e7 01       	movw	r28, r14
    1d94:	59 01       	movw	r10, r18
    1d96:	20 17       	cp	r18, r16
    1d98:	31 07       	cpc	r19, r17
    1d9a:	08 f4       	brcc	.+2      	; 0x1d9e <GetResistance+0x256>
    1d9c:	58 01       	movw	r10, r16
        // two measurements with R_L resistors (680) are made:
        // lirx1 (measurement at HighPin)
        if (adc.tp1 > adc.hp1) {
           adc.hp1 = adc.tp1;		//diff negativ is illegal
        }
        lirx1 =(unsigned long)RR680PL * (unsigned long)(adc.hp1 - adc.tp1) / (ADCconfig.U_AVCC - adc.hp1);
    1d9e:	a0 91 17 01 	lds	r26, 0x0117
    1da2:	b0 91 18 01 	lds	r27, 0x0118
    1da6:	c5 01       	movw	r24, r10
    1da8:	82 1b       	sub	r24, r18
    1daa:	93 0b       	sbc	r25, r19
    1dac:	9c 01       	movw	r18, r24
    1dae:	0e 94 2d 1e 	call	0x3c5a	; 0x3c5a <__umulhisi3>
    1db2:	20 91 2b 01 	lds	r18, 0x012B
    1db6:	30 91 2c 01 	lds	r19, 0x012C
    1dba:	2a 19       	sub	r18, r10
    1dbc:	3b 09       	sbc	r19, r11
    1dbe:	40 e0       	ldi	r20, 0x00	; 0
    1dc0:	50 e0       	ldi	r21, 0x00	; 0
    1dc2:	0e 94 7b 1e 	call	0x3cf6	; 0x3cf6 <__udivmodsi4>
    1dc6:	29 01       	movw	r4, r18
    1dc8:	3a 01       	movw	r6, r20
    1dca:	8e 01       	movw	r16, r28
    1dcc:	ec 16       	cp	r14, r28
    1dce:	fd 06       	cpc	r15, r29
    1dd0:	08 f4       	brcc	.+2      	; 0x1dd4 <GetResistance+0x28c>
    1dd2:	87 01       	movw	r16, r14
        if (adc.tp2 < adc.lp1) {
           adc.lp1 = adc.tp2;		//diff negativ is illegal
        }
        // lirx2 (Measurement at LowPin)
        lirx2 =(unsigned long)RR680MI * (unsigned long)(adc.tp2 -adc.lp1) / adc.lp1;
    1dd4:	a0 91 10 01 	lds	r26, 0x0110
    1dd8:	b0 91 11 01 	lds	r27, 0x0111
    1ddc:	9e 01       	movw	r18, r28
    1dde:	20 1b       	sub	r18, r16
    1de0:	31 0b       	sbc	r19, r17
    1de2:	0e 94 2d 1e 	call	0x3c5a	; 0x3c5a <__umulhisi3>
    1de6:	68 01       	movw	r12, r16
    1de8:	e1 2c       	mov	r14, r1
    1dea:	f1 2c       	mov	r15, r1
    1dec:	a7 01       	movw	r20, r14
    1dee:	96 01       	movw	r18, r12
    1df0:	0e 94 7b 1e 	call	0x3cf6	; 0x3cf6 <__udivmodsi4>

#ifdef AUTOSCALE_ADC
        if (adc.hp1 < U_INT_LIMIT) {
    1df4:	98 e7       	ldi	r25, 0x78	; 120
    1df6:	a9 16       	cp	r10, r25
    1df8:	9f e0       	ldi	r25, 0x0F	; 15
    1dfa:	b9 06       	cpc	r11, r25
    1dfc:	70 f4       	brcc	.+28     	; 0x1e1a <GetResistance+0x2d2>
           lrx1 = (lirx1*FAKT_LOW + lirx2) / (FAKT_LOW+1);	//weighted average of both R_L measurements
    1dfe:	c3 01       	movw	r24, r6
    1e00:	b2 01       	movw	r22, r4
    1e02:	e2 e0       	ldi	r30, 0x02	; 2
    1e04:	66 0f       	add	r22, r22
    1e06:	77 1f       	adc	r23, r23
    1e08:	88 1f       	adc	r24, r24
    1e0a:	99 1f       	adc	r25, r25
    1e0c:	ea 95       	dec	r30
    1e0e:	d1 f7       	brne	.-12     	; 0x1e04 <GetResistance+0x2bc>
    1e10:	62 0f       	add	r22, r18
    1e12:	73 1f       	adc	r23, r19
    1e14:	84 1f       	adc	r24, r20
    1e16:	95 1f       	adc	r25, r21
    1e18:	11 c0       	rjmp	.+34     	; 0x1e3c <GetResistance+0x2f4>
        } else if (adc.lp1 < U_INT_LIMIT) {
    1e1a:	08 37       	cpi	r16, 0x78	; 120
    1e1c:	8f e0       	ldi	r24, 0x0F	; 15
    1e1e:	18 07       	cpc	r17, r24
    1e20:	b0 f4       	brcc	.+44     	; 0x1e4e <GetResistance+0x306>
           lrx1 = (lirx2*FAKT_LOW + lirx1) / (FAKT_LOW+1);	//weighted average of both R_L measurements
    1e22:	ca 01       	movw	r24, r20
    1e24:	b9 01       	movw	r22, r18
    1e26:	52 e0       	ldi	r21, 0x02	; 2
    1e28:	66 0f       	add	r22, r22
    1e2a:	77 1f       	adc	r23, r23
    1e2c:	88 1f       	adc	r24, r24
    1e2e:	99 1f       	adc	r25, r25
    1e30:	5a 95       	dec	r21
    1e32:	d1 f7       	brne	.-12     	; 0x1e28 <GetResistance+0x2e0>
    1e34:	64 0d       	add	r22, r4
    1e36:	75 1d       	adc	r23, r5
    1e38:	86 1d       	adc	r24, r6
    1e3a:	97 1d       	adc	r25, r7
    1e3c:	25 e0       	ldi	r18, 0x05	; 5
    1e3e:	30 e0       	ldi	r19, 0x00	; 0
    1e40:	40 e0       	ldi	r20, 0x00	; 0
    1e42:	50 e0       	ldi	r21, 0x00	; 0
    1e44:	0e 94 7b 1e 	call	0x3cf6	; 0x3cf6 <__udivmodsi4>
    1e48:	69 01       	movw	r12, r18
    1e4a:	7a 01       	movw	r14, r20
    1e4c:	0a c0       	rjmp	.+20     	; 0x1e62 <GetResistance+0x31a>
        } else
#endif
        {
           lrx1 = (lirx1 + lirx2) / 2;		//average of both R_L measurements
    1e4e:	69 01       	movw	r12, r18
    1e50:	7a 01       	movw	r14, r20
    1e52:	c4 0c       	add	r12, r4
    1e54:	d5 1c       	adc	r13, r5
    1e56:	e6 1c       	adc	r14, r6
    1e58:	f7 1c       	adc	r15, r7
    1e5a:	f6 94       	lsr	r15
    1e5c:	e7 94       	ror	r14
    1e5e:	d7 94       	ror	r13
    1e60:	c7 94       	ror	r12
        }
     }
     // measurement is finished, lrx1 is the resistance value of one direction
     if(PartFound < PART_TRANSISTOR) {
    1e62:	10 91 16 01 	lds	r17, 0x0116
    1e66:	14 30       	cpi	r17, 0x04	; 4
    1e68:	08 f0       	brcs	.+2      	; 0x1e6c <GetResistance+0x324>
    1e6a:	02 cf       	rjmp	.-508    	; 0x1c70 <GetResistance+0x128>
// Search for resistors
//##########################################################################################
  if ((ptrans.count  + ntrans.count) > 0) {
     return;	// no resistors are searched, if transistors are detected
  }
  resnum = (LowPin - TP1 + HighPin - TP1 - 1);	// resistor-Number 0:1 = 0, 0:2 = 1, 1:2 = 2
    1e6c:	9a 94       	dec	r9
    1e6e:	98 0c       	add	r9, r8
           lrx1 = (lirx1 + lirx2) / 2;		//average of both R_L measurements
        }
     }
     // measurement is finished, lrx1 is the resistance value of one direction
     if(PartFound < PART_TRANSISTOR) {
        if (ResistorChecked[resnum] != 0) {
    1e70:	89 2d       	mov	r24, r9
    1e72:	90 e0       	ldi	r25, 0x00	; 0
    1e74:	ec 01       	movw	r28, r24
    1e76:	c3 5b       	subi	r28, 0xB3	; 179
    1e78:	de 4f       	sbci	r29, 0xFE	; 254
    1e7a:	28 81       	ld	r18, Y
    1e7c:	88 0f       	add	r24, r24
    1e7e:	99 1f       	adc	r25, r25
    1e80:	88 0f       	add	r24, r24
    1e82:	99 1f       	adc	r25, r25
           // must be measurement with inverse polarity 
           // resolution is 0.1 Ohm, 1 Ohm = 10 !
           lirx1 = (labs((long)lrx1 - (long)ResistorVal[resnum]) * 10) / (lrx1 + ResistorVal[resnum] + 100);
    1e84:	fc 01       	movw	r30, r24
    1e86:	e9 56       	subi	r30, 0x69	; 105
    1e88:	fe 4f       	sbci	r31, 0xFE	; 254
           lrx1 = (lirx1 + lirx2) / 2;		//average of both R_L measurements
        }
     }
     // measurement is finished, lrx1 is the resistance value of one direction
     if(PartFound < PART_TRANSISTOR) {
        if (ResistorChecked[resnum] != 0) {
    1e8a:	22 23       	and	r18, r18
    1e8c:	d1 f1       	breq	.+116    	; 0x1f02 <GetResistance+0x3ba>
           // must be measurement with inverse polarity 
           // resolution is 0.1 Ohm, 1 Ohm = 10 !
           lirx1 = (labs((long)lrx1 - (long)ResistorVal[resnum]) * 10) / (lrx1 + ResistorVal[resnum] + 100);
    1e8e:	40 80       	ld	r4, Z
    1e90:	51 80       	ldd	r5, Z+1	; 0x01
    1e92:	62 80       	ldd	r6, Z+2	; 0x02
    1e94:	73 80       	ldd	r7, Z+3	; 0x03
    1e96:	a7 01       	movw	r20, r14
    1e98:	96 01       	movw	r18, r12
    1e9a:	24 19       	sub	r18, r4
    1e9c:	35 09       	sbc	r19, r5
    1e9e:	46 09       	sbc	r20, r6
    1ea0:	57 09       	sbc	r21, r7
    1ea2:	57 ff       	sbrs	r21, 7
    1ea4:	07 c0       	rjmp	.+14     	; 0x1eb4 <GetResistance+0x36c>
    1ea6:	50 95       	com	r21
    1ea8:	40 95       	com	r20
    1eaa:	30 95       	com	r19
    1eac:	21 95       	neg	r18
    1eae:	3f 4f       	sbci	r19, 0xFF	; 255
    1eb0:	4f 4f       	sbci	r20, 0xFF	; 255
    1eb2:	5f 4f       	sbci	r21, 0xFF	; 255
    1eb4:	aa e0       	ldi	r26, 0x0A	; 10
    1eb6:	b0 e0       	ldi	r27, 0x00	; 0
    1eb8:	0e 94 42 1e 	call	0x3c84	; 0x3c84 <__muluhisi3>
    1ebc:	a3 01       	movw	r20, r6
    1ebe:	92 01       	movw	r18, r4
    1ec0:	2c 59       	subi	r18, 0x9C	; 156
    1ec2:	3f 4f       	sbci	r19, 0xFF	; 255
    1ec4:	4f 4f       	sbci	r20, 0xFF	; 255
    1ec6:	5f 4f       	sbci	r21, 0xFF	; 255
    1ec8:	2c 0d       	add	r18, r12
    1eca:	3d 1d       	adc	r19, r13
    1ecc:	4e 1d       	adc	r20, r14
    1ece:	5f 1d       	adc	r21, r15
    1ed0:	0e 94 7b 1e 	call	0x3cf6	; 0x3cf6 <__udivmodsi4>
           if (lirx1  > 0) {
    1ed4:	23 2b       	or	r18, r19
    1ed6:	24 2b       	or	r18, r20
    1ed8:	25 2b       	or	r18, r21
    1eda:	09 f0       	breq	.+2      	; 0x1ede <GetResistance+0x396>
    1edc:	c9 ce       	rjmp	.-622    	; 0x1c70 <GetResistance+0x128>
     DisplayValue(lrx1,-1,' ',4);
     DisplayValue(ResistorVal[resnum],-1,' ',4);
 #endif
           } else {
              // resistor has the same value in both directions
              if (PartFound < PART_DIODE) {
    1ede:	13 30       	cpi	r17, 0x03	; 3
    1ee0:	19 f0       	breq	.+6      	; 0x1ee8 <GetResistance+0x3a0>
                 PartFound = PART_RESISTOR;	// only mark as resistor, if no other part found
    1ee2:	81 e0       	ldi	r24, 0x01	; 1
    1ee4:	80 93 16 01 	sts	0x0116, r24
              }
              ResistorChecked[resnum] = 2;		// mark as checked in both direction
    1ee8:	82 e0       	ldi	r24, 0x02	; 2
    1eea:	88 83       	st	Y, r24
              ResistorList[ResistorsFound] = resnum;	// save number of this resistor
    1eec:	80 91 65 01 	lds	r24, 0x0165
    1ef0:	e8 2f       	mov	r30, r24
    1ef2:	f0 e0       	ldi	r31, 0x00	; 0
    1ef4:	e0 5b       	subi	r30, 0xB0	; 176
    1ef6:	fe 4f       	sbci	r31, 0xFE	; 254
    1ef8:	90 82       	st	Z, r9
              ResistorsFound++;			// 1 more resistor found
    1efa:	8f 5f       	subi	r24, 0xFF	; 255
    1efc:	80 93 65 01 	sts	0x0165, r24
    1f00:	b7 ce       	rjmp	.-658    	; 0x1c70 <GetResistance+0x128>
           }
           goto testend;
        } else {		// resistor is never checked before
           // must be a new one with other pins
           ResistorVal[resnum] = lrx1;	// save register value
    1f02:	c0 82       	st	Z, r12
    1f04:	d1 82       	std	Z+1, r13	; 0x01
    1f06:	e2 82       	std	Z+2, r14	; 0x02
    1f08:	f3 82       	std	Z+3, r15	; 0x03
           ResistorChecked[resnum] = 1;		// is checked in one direction
    1f0a:	81 e0       	ldi	r24, 0x01	; 1
    1f0c:	88 83       	st	Y, r24
    1f0e:	b0 ce       	rjmp	.-672    	; 0x1c70 <GetResistance+0x128>
#if R_ANZ_MESS != ANZ_MESS
  ADCconfig.Samples = ANZ_MESS;		// switch back to standard number of repetition
#endif

  return;
} // end GetResistance()
    1f10:	cd b7       	in	r28, 0x3d	; 61
    1f12:	de b7       	in	r29, 0x3e	; 62
    1f14:	e0 e1       	ldi	r30, 0x10	; 16
    1f16:	0c 94 d7 1e 	jmp	0x3dae	; 0x3dae <__epilogue_restores__+0x4>

00001f1a <ChargePin10ms>:
#include "Transistortester.h"


//******************************************************************

void ChargePin10ms(uint8_t PinToCharge, uint8_t ChargeDirection) {
    1f1a:	cf 93       	push	r28
    1f1c:	c8 2f       	mov	r28, r24
    1f1e:	c0 95       	com	r28
   //Parameters:
   //PinToCharge: specifies the pin as mask for R-Port
   //ChargeDirection: 0 = switch to GND (N-Kanal-FET), 1= switch to VCC(P-Kanal-FET)

   if(ChargeDirection&1) {
      R_PORT |= PinToCharge;	//R_PORT to 1 (VCC) 
    1f20:	95 b1       	in	r25, 0x05	; 5
   //Will be used by discharge of MOSFET Gates or to load big capacities.
   //Parameters:
   //PinToCharge: specifies the pin as mask for R-Port
   //ChargeDirection: 0 = switch to GND (N-Kanal-FET), 1= switch to VCC(P-Kanal-FET)

   if(ChargeDirection&1) {
    1f22:	60 ff       	sbrs	r22, 0
    1f24:	02 c0       	rjmp	.+4      	; 0x1f2a <ChargePin10ms+0x10>
      R_PORT |= PinToCharge;	//R_PORT to 1 (VCC) 
    1f26:	98 2b       	or	r25, r24
    1f28:	01 c0       	rjmp	.+2      	; 0x1f2c <ChargePin10ms+0x12>
   } else {
      R_PORT &= ~PinToCharge; // or 0 (GND)
    1f2a:	9c 23       	and	r25, r28
    1f2c:	95 b9       	out	0x05, r25	; 5
   }
   R_DDR |= PinToCharge;		//switch Pin to output, across R to GND or VCC
    1f2e:	94 b1       	in	r25, 0x04	; 4
    1f30:	98 2b       	or	r25, r24
    1f32:	94 b9       	out	0x04, r25	; 4
   wait_about10ms();			// wait about 10ms
    1f34:	0e 94 5e 03 	call	0x6bc	; 0x6bc <wait10ms>
   // switch back Input, no current
   R_DDR &= ~PinToCharge;	// switch back to input
    1f38:	84 b1       	in	r24, 0x04	; 4
    1f3a:	8c 23       	and	r24, r28
    1f3c:	84 b9       	out	0x04, r24	; 4
   R_PORT &= ~PinToCharge;	// no Pull up
    1f3e:	85 b1       	in	r24, 0x05	; 5
    1f40:	8c 23       	and	r24, r28
    1f42:	85 b9       	out	0x05, r24	; 5
}
    1f44:	cf 91       	pop	r28
    1f46:	08 95       	ret

00001f48 <EntladePins>:
#include <avr/pgmspace.h>
#include "Transistortester.h"


// first discharge any charge of capacitors
void EntladePins() {
    1f48:	a0 e0       	ldi	r26, 0x00	; 0
    1f4a:	b0 e0       	ldi	r27, 0x00	; 0
    1f4c:	ea ea       	ldi	r30, 0xAA	; 170
    1f4e:	ff e0       	ldi	r31, 0x0F	; 15
    1f50:	0c 94 c2 1e 	jmp	0x3d84	; 0x3d84 <__prologue_saves__+0x12>
    1f54:	8a e0       	ldi	r24, 0x0A	; 10
    1f56:	d8 2e       	mov	r13, r24
     adc_gnd = TXD_MSK;		// put all ADC to Input
     ADC_DDR = adc_gnd;
     ADC_PORT = TXD_VAL;		// ADC-outputs auf 0
     R_PORT = 0;			// R-outputs auf 0
//     R_DDR = (1<<PIN_RH3) | (1<<PIN_RH2) | (1<<PIN_RH1); // R_H for all Pins to GND
     R_DDR = (1<<PIN_RH3) | (1<<PIN_RL3) | (1<<PIN_RH2) | (1<<PIN_RL2) | (1<<PIN_RH1) | (1<<PIN_RL1); // R_H and R_L for all Pins to GND
    1f58:	9f e3       	ldi	r25, 0x3F	; 63
    1f5a:	b9 2e       	mov	r11, r25
        if ((adcmv[0] < (CAP_EMPTY_LEVEL+2)) && (adcmv[1] < (CAP_EMPTY_LEVEL+2)) && (adcmv[2] < (CAP_EMPTY_LEVEL+2))) {
           break;
        }
     }
     if (clr_cnt == MAX_ENTLADE_ZEIT) {
        PartFound = PART_CELL;	// mark as Battery
    1f5c:	29 e0       	ldi	r18, 0x09	; 9
    1f5e:	c2 2e       	mov	r12, r18
#if DebugOut == 99
  uart_putc('L');		//Debug
#endif
  for(lop_cnt=0;lop_cnt<10;lop_cnt++) {
     adc_gnd = TXD_MSK;		// put all ADC to Input
     ADC_DDR = adc_gnd;
    1f60:	17 b8       	out	0x07, r1	; 7
     ADC_PORT = TXD_VAL;		// ADC-outputs auf 0
    1f62:	18 b8       	out	0x08, r1	; 8
     R_PORT = 0;			// R-outputs auf 0
    1f64:	15 b8       	out	0x05, r1	; 5
//     R_DDR = (1<<PIN_RH3) | (1<<PIN_RH2) | (1<<PIN_RH1); // R_H for all Pins to GND
     R_DDR = (1<<PIN_RH3) | (1<<PIN_RL3) | (1<<PIN_RH2) | (1<<PIN_RL2) | (1<<PIN_RH1) | (1<<PIN_RL1); // R_H and R_L for all Pins to GND
    1f66:	b4 b8       	out	0x04, r11	; 4
     adcmv[0] = W5msReadADC(TP1);	// which voltage has Pin 1?
    1f68:	80 e0       	ldi	r24, 0x00	; 0
    1f6a:	0e 94 77 03 	call	0x6ee	; 0x6ee <W5msReadADC>
    1f6e:	8c 01       	movw	r16, r24
     adcmv[1] = ReadADC(TP2);	// which voltage has Pin 2?
    1f70:	81 e0       	ldi	r24, 0x01	; 1
    1f72:	0e 94 78 03 	call	0x6f0	; 0x6f0 <ReadADC>
    1f76:	ec 01       	movw	r28, r24
     adcmv[2] = ReadADC(TP3);	// which voltage has Pin 3?
    1f78:	82 e0       	ldi	r24, 0x02	; 2
    1f7a:	0e 94 78 03 	call	0x6f0	; 0x6f0 <ReadADC>
        u2lcd_space(adcmv[0]);	// lcd_string(utoa(adcmv[0], outval, 10)); lcd_space();
        u2lcd_space(adcmv[1]);	// lcd_string(utoa(adcmv[1], outval, 10)); lcd_space();
        u2lcd(adcmv[2]);		// lcd_string(utoa(adcmv[2], outval, 10));
        wait2s();
#endif
     if ((PartFound == PART_CELL) || ((adcmv[0] < CAP_EMPTY_LEVEL) && (adcmv[1] < CAP_EMPTY_LEVEL) && (adcmv[2] < CAP_EMPTY_LEVEL))) {
    1f7e:	20 91 16 01 	lds	r18, 0x0116
    1f82:	29 30       	cpi	r18, 0x09	; 9
    1f84:	49 f0       	breq	.+18     	; 0x1f98 <EntladePins+0x50>
    1f86:	04 30       	cpi	r16, 0x04	; 4
    1f88:	11 05       	cpc	r17, r1
    1f8a:	48 f4       	brcc	.+18     	; 0x1f9e <EntladePins+0x56>
    1f8c:	c4 30       	cpi	r28, 0x04	; 4
    1f8e:	d1 05       	cpc	r29, r1
    1f90:	60 f4       	brcc	.+24     	; 0x1faa <EntladePins+0x62>
    1f92:	84 30       	cpi	r24, 0x04	; 4
    1f94:	91 05       	cpc	r25, r1
    1f96:	70 f4       	brcc	.+28     	; 0x1fb4 <EntladePins+0x6c>
        ADC_DDR = TXD_MSK;		// switch all ADC-Pins to input
    1f98:	17 b8       	out	0x07, r1	; 7
        R_DDR = 0;			// switch all R_L Ports (and R_H) to input
    1f9a:	14 b8       	out	0x04, r1	; 4
    1f9c:	4d c0       	rjmp	.+154    	; 0x2038 <EntladePins+0xf0>
        uart_putc('l');		//Debug
#endif
        return;			// all is discharged
     }
     // all Pins with voltage lower than 1V can be connected directly to GND (ADC-Port)
     if (adcmv[0] < 1000) {
    1f9e:	21 e0       	ldi	r18, 0x01	; 1
    1fa0:	08 3e       	cpi	r16, 0xE8	; 232
    1fa2:	13 40       	sbci	r17, 0x03	; 3
    1fa4:	18 f0       	brcs	.+6      	; 0x1fac <EntladePins+0x64>
    1fa6:	20 e0       	ldi	r18, 0x00	; 0
    1fa8:	01 c0       	rjmp	.+2      	; 0x1fac <EntladePins+0x64>
        adc_gnd |= (1<<TP1);	//Pin 1 directly to GND
    1faa:	21 e0       	ldi	r18, 0x01	; 1
     }
     if (adcmv[1] < 1000) {
    1fac:	c8 3e       	cpi	r28, 0xE8	; 232
    1fae:	d3 40       	sbci	r29, 0x03	; 3
    1fb0:	18 f4       	brcc	.+6      	; 0x1fb8 <EntladePins+0x70>
    1fb2:	01 c0       	rjmp	.+2      	; 0x1fb6 <EntladePins+0x6e>
#endif
        return;			// all is discharged
     }
     // all Pins with voltage lower than 1V can be connected directly to GND (ADC-Port)
     if (adcmv[0] < 1000) {
        adc_gnd |= (1<<TP1);	//Pin 1 directly to GND
    1fb4:	21 e0       	ldi	r18, 0x01	; 1
     }
     if (adcmv[1] < 1000) {
        adc_gnd |= (1<<TP2);	//Pin 2 directly to GND
    1fb6:	22 60       	ori	r18, 0x02	; 2
     }
     if (adcmv[2] < 1000) {
    1fb8:	88 3e       	cpi	r24, 0xE8	; 232
    1fba:	93 40       	sbci	r25, 0x03	; 3
    1fbc:	08 f4       	brcc	.+2      	; 0x1fc0 <EntladePins+0x78>
        adc_gnd |= (1<<TP3);	//Pin 3 directly to  GND
    1fbe:	24 60       	ori	r18, 0x04	; 4
     }
     ADC_DDR = adc_gnd;		// switch all selected ADC-Ports at the same time
    1fc0:	27 b9       	out	0x07, r18	; 7

     // additionally switch the leaving Ports with R_L to GND.
     // since there is no disadvantage for the already directly switched pins, we can
     // simply switch all  R_L resistors to GND
//     R_DDR = (1<<PIN_RL3) | (1<<PIN_RL2) | (1<<PIN_RL1);	// Pins across R_L resistors to GND
     for(clr_cnt=0;clr_cnt<MAX_ENTLADE_ZEIT;clr_cnt++) {
    1fc2:	c0 e0       	ldi	r28, 0x00	; 0
    1fc4:	d0 e0       	ldi	r29, 0x00	; 0
        wdt_reset();
    1fc6:	a8 95       	wdr
        adcmv[0] = W20msReadADC(TP1);	// which voltage has Pin 1?
    1fc8:	80 e0       	ldi	r24, 0x00	; 0
    1fca:	0e 94 75 03 	call	0x6ea	; 0x6ea <W20msReadADC>
    1fce:	7c 01       	movw	r14, r24
        adcmv[1] = ReadADC(TP2);	// which voltage has Pin 2?
    1fd0:	81 e0       	ldi	r24, 0x01	; 1
    1fd2:	0e 94 78 03 	call	0x6f0	; 0x6f0 <ReadADC>
    1fd6:	8c 01       	movw	r16, r24
        adcmv[2] = ReadADC(TP3);	// which voltage has Pin 3?
    1fd8:	82 e0       	ldi	r24, 0x02	; 2
    1fda:	0e 94 78 03 	call	0x6f0	; 0x6f0 <ReadADC>
        if (adcmv[0] < 1300) {
    1fde:	24 e1       	ldi	r18, 0x14	; 20
    1fe0:	e2 16       	cp	r14, r18
    1fe2:	25 e0       	ldi	r18, 0x05	; 5
    1fe4:	f2 06       	cpc	r15, r18
    1fe6:	08 f4       	brcc	.+2      	; 0x1fea <EntladePins+0xa2>
           ADC_DDR |= (1<<TP1);	// below 1.3V , switch directly with ADC-Port to GND
    1fe8:	38 9a       	sbi	0x07, 0	; 7
        }
        if (adcmv[1] < 1300) {
    1fea:	04 31       	cpi	r16, 0x14	; 20
    1fec:	35 e0       	ldi	r19, 0x05	; 5
    1fee:	13 07       	cpc	r17, r19
    1ff0:	08 f4       	brcc	.+2      	; 0x1ff4 <EntladePins+0xac>
           ADC_DDR |= (1<<TP2);	// below 1.3V, switch directly with ADC-Port to GND
    1ff2:	39 9a       	sbi	0x07, 1	; 7
        }
        if (adcmv[2] < 1300) {
    1ff4:	84 31       	cpi	r24, 0x14	; 20
    1ff6:	25 e0       	ldi	r18, 0x05	; 5
    1ff8:	92 07       	cpc	r25, r18
    1ffa:	08 f4       	brcc	.+2      	; 0x1ffe <EntladePins+0xb6>
           ADC_DDR |= (1<<TP3);	// below 1.3V, switch directly with ADC-Port to GND
    1ffc:	3a 9a       	sbi	0x07, 2	; 7
        }
        if ((adcmv[0] < (CAP_EMPTY_LEVEL+2)) && (adcmv[1] < (CAP_EMPTY_LEVEL+2)) && (adcmv[2] < (CAP_EMPTY_LEVEL+2))) {
    1ffe:	36 e0       	ldi	r19, 0x06	; 6
    2000:	e3 16       	cp	r14, r19
    2002:	f1 04       	cpc	r15, r1
    2004:	28 f4       	brcc	.+10     	; 0x2010 <EntladePins+0xc8>
    2006:	06 30       	cpi	r16, 0x06	; 6
    2008:	11 05       	cpc	r17, r1
    200a:	10 f4       	brcc	.+4      	; 0x2010 <EntladePins+0xc8>
    200c:	06 97       	sbiw	r24, 0x06	; 6
    200e:	38 f0       	brcs	.+14     	; 0x201e <EntladePins+0xd6>

     // additionally switch the leaving Ports with R_L to GND.
     // since there is no disadvantage for the already directly switched pins, we can
     // simply switch all  R_L resistors to GND
//     R_DDR = (1<<PIN_RL3) | (1<<PIN_RL2) | (1<<PIN_RL1);	// Pins across R_L resistors to GND
     for(clr_cnt=0;clr_cnt<MAX_ENTLADE_ZEIT;clr_cnt++) {
    2010:	21 96       	adiw	r28, 0x01	; 1
    2012:	c4 3f       	cpi	r28, 0xF4	; 244
    2014:	81 e0       	ldi	r24, 0x01	; 1
    2016:	d8 07       	cpc	r29, r24
    2018:	b1 f6       	brne	.-84     	; 0x1fc6 <EntladePins+0x7e>
        if ((adcmv[0] < (CAP_EMPTY_LEVEL+2)) && (adcmv[1] < (CAP_EMPTY_LEVEL+2)) && (adcmv[2] < (CAP_EMPTY_LEVEL+2))) {
           break;
        }
     }
     if (clr_cnt == MAX_ENTLADE_ZEIT) {
        PartFound = PART_CELL;	// mark as Battery
    201a:	c0 92 16 01 	sts	0x0116, r12

     // additionally switch the leaving Ports with R_L to GND.
     // since there is no disadvantage for the already directly switched pins, we can
     // simply switch all  R_L resistors to GND
//     R_DDR = (1<<PIN_RL3) | (1<<PIN_RL2) | (1<<PIN_RL1);	// Pins across R_L resistors to GND
     for(clr_cnt=0;clr_cnt<MAX_ENTLADE_ZEIT;clr_cnt++) {
    201e:	00 e0       	ldi	r16, 0x00	; 0
    2020:	10 e0       	ldi	r17, 0x00	; 0
        lcd_line4();
        u2lcd_space(adcmv[0]);	// lcd_string(utoa(adcmv[0], outval, 10)); lcd_space();
        u2lcd_space(adcmv[1]);	// lcd_string(utoa(adcmv[1], outval, 10)); lcd_space();
        u2lcd(adcmv[2]);		// lcd_string(utoa(adcmv[2], outval, 10));
#endif
     for(adcmv[0]=0;adcmv[0]<clr_cnt;adcmv[0]++) {
    2022:	0c 17       	cp	r16, r28
    2024:	1d 07       	cpc	r17, r29
    2026:	29 f0       	breq	.+10     	; 0x2032 <EntladePins+0xea>
        // for safety, discharge 5% of discharge  time
        wait1ms();
    2028:	0e 94 64 03 	call	0x6c8	; 0x6c8 <wait1ms>
    202c:	0f 5f       	subi	r16, 0xFF	; 255
    202e:	1f 4f       	sbci	r17, 0xFF	; 255
    2030:	f8 cf       	rjmp	.-16     	; 0x2022 <EntladePins+0xda>
    2032:	da 94       	dec	r13
// max. time of discharge in ms  (10000/20) == 10s
#define MAX_ENTLADE_ZEIT  (10000/20)
#if DebugOut == 99
  uart_putc('L');		//Debug
#endif
  for(lop_cnt=0;lop_cnt<10;lop_cnt++) {
    2034:	09 f0       	breq	.+2      	; 0x2038 <EntladePins+0xf0>
    2036:	94 cf       	rjmp	.-216    	; 0x1f60 <EntladePins+0x18>
     }
  } // end for lop_cnt
#if DebugOut == 99
  uart_putc('x');		//Debug
#endif
 }
    2038:	cd b7       	in	r28, 0x3d	; 61
    203a:	de b7       	in	r29, 0x3e	; 62
    203c:	e9 e0       	ldi	r30, 0x09	; 9
    203e:	0c 94 de 1e 	jmp	0x3dbc	; 0x3dbc <__epilogue_restores__+0x12>

00002042 <Scale_C_with_vcc>:
  R_PORT = 0; 			// switch all resistor outputs to GND, no pull up
  return;
 } // end ReadCapacity()


void Scale_C_with_vcc(void) {
    2042:	cf 92       	push	r12
    2044:	df 92       	push	r13
    2046:	ef 92       	push	r14
    2048:	ff 92       	push	r15
    204a:	cf 93       	push	r28
    204c:	20 91 68 01 	lds	r18, 0x0168
    2050:	30 91 69 01 	lds	r19, 0x0169
    2054:	40 91 6a 01 	lds	r20, 0x016A
    2058:	50 91 6b 01 	lds	r21, 0x016B
    205c:	c0 91 7a 01 	lds	r28, 0x017A
   while (cap.cval > 100000) {
      cap.cval /= 10;
    2060:	8a e0       	ldi	r24, 0x0A	; 10
    2062:	c8 2e       	mov	r12, r24
    2064:	d1 2c       	mov	r13, r1
    2066:	e1 2c       	mov	r14, r1
    2068:	f1 2c       	mov	r15, r1
    206a:	8c 2f       	mov	r24, r28
    206c:	cf 5f       	subi	r28, 0xFF	; 255
  return;
 } // end ReadCapacity()


void Scale_C_with_vcc(void) {
   while (cap.cval > 100000) {
    206e:	21 3a       	cpi	r18, 0xA1	; 161
    2070:	96 e8       	ldi	r25, 0x86	; 134
    2072:	39 07       	cpc	r19, r25
    2074:	91 e0       	ldi	r25, 0x01	; 1
    2076:	49 07       	cpc	r20, r25
    2078:	51 05       	cpc	r21, r1
    207a:	38 f0       	brcs	.+14     	; 0x208a <Scale_C_with_vcc+0x48>
      cap.cval /= 10;
    207c:	ca 01       	movw	r24, r20
    207e:	b9 01       	movw	r22, r18
    2080:	a7 01       	movw	r20, r14
    2082:	96 01       	movw	r18, r12
    2084:	0e 94 7b 1e 	call	0x3cf6	; 0x3cf6 <__udivmodsi4>
    2088:	f0 cf       	rjmp	.-32     	; 0x206a <Scale_C_with_vcc+0x28>
    208a:	80 93 7a 01 	sts	0x017A, r24
      cap.cpre ++;			// prevent overflow
   }
   cap.cval *= ADCconfig.U_AVCC;	// scale with measured voltage
    208e:	a0 91 2b 01 	lds	r26, 0x012B
    2092:	b0 91 2c 01 	lds	r27, 0x012C
    2096:	0e 94 42 1e 	call	0x3c84	; 0x3c84 <__muluhisi3>
   cap.cval /= U_VCC;			// Factors are computed for U_VCC
    209a:	28 e8       	ldi	r18, 0x88	; 136
    209c:	33 e1       	ldi	r19, 0x13	; 19
    209e:	40 e0       	ldi	r20, 0x00	; 0
    20a0:	50 e0       	ldi	r21, 0x00	; 0
    20a2:	0e 94 7b 1e 	call	0x3cf6	; 0x3cf6 <__udivmodsi4>
    20a6:	20 93 68 01 	sts	0x0168, r18
    20aa:	30 93 69 01 	sts	0x0169, r19
    20ae:	40 93 6a 01 	sts	0x016A, r20
    20b2:	50 93 6b 01 	sts	0x016B, r21
}
    20b6:	cf 91       	pop	r28
    20b8:	ff 90       	pop	r15
    20ba:	ef 90       	pop	r14
    20bc:	df 90       	pop	r13
    20be:	cf 90       	pop	r12
    20c0:	08 95       	ret

000020c2 <ReadCapacity>:
#include <stdlib.h>
#include "Transistortester.h"


//=================================================================
void ReadCapacity(uint8_t HighPin, uint8_t LowPin) {
    20c2:	a0 e0       	ldi	r26, 0x00	; 0
    20c4:	b0 e0       	ldi	r27, 0x00	; 0
    20c6:	e7 e6       	ldi	r30, 0x67	; 103
    20c8:	f0 e1       	ldi	r31, 0x10	; 16
    20ca:	0c 94 bf 1e 	jmp	0x3d7e	; 0x3d7e <__prologue_saves__+0xc>
    20ce:	c8 2f       	mov	r28, r24
    20d0:	d6 2f       	mov	r29, r22
     residual_voltage = ReadADC(HighPin);		// voltage before any load 
  }
#endif

#ifdef AUTO_CAL
  pin_combination = ((HighPin - TP1) * 3) + LowPin - TP1 - 1;	// coded Pin combination for capacity zero offset
    20d2:	8f ef       	ldi	r24, 0xFF	; 255
    20d4:	86 0f       	add	r24, r22
    20d6:	9c 2f       	mov	r25, r28
    20d8:	99 0f       	add	r25, r25
    20da:	9c 0f       	add	r25, r28
    20dc:	89 0f       	add	r24, r25
    20de:	80 93 4c 01 	sts	0x014C, r24
#endif

  HiPinR_L = pgm_read_byte(&PinRLRHADCtab[HighPin - TP1]);	//R_L mask for HighPin R_L load
    20e2:	ec 2f       	mov	r30, r28
    20e4:	f0 e0       	ldi	r31, 0x00	; 0
    20e6:	e2 58       	subi	r30, 0x82	; 130
    20e8:	ff 4f       	sbci	r31, 0xFF	; 255
    20ea:	14 91       	lpm	r17, Z
  LoPinR_L = pgm_read_byte(&PinRLRHADCtab[LowPin - TP1]);	//R_L mask for LowPin R_L load
    20ec:	86 2f       	mov	r24, r22
    20ee:	90 e0       	ldi	r25, 0x00	; 0
    20f0:	fc 01       	movw	r30, r24
    20f2:	e2 58       	subi	r30, 0x82	; 130
    20f4:	ff 4f       	sbci	r31, 0xFF	; 255
    20f6:	f4 90       	lpm	r15, Z
#if (((PIN_RL1 + 1) != PIN_RH1) || ((PIN_RL2 + 1) != PIN_RH2) || ((PIN_RL3 + 1) != PIN_RH3))
  HiPinR_H = pgm_read_byte((&PinRLRHADCtab[3])+HighPin-TP1);	//R_H mask for HighPin R_H load
  LoADC = pgm_read_byte((&PinRLRHADCtab[6])+LowPin-TP1) | TXD_MSK;
#else
  HiPinR_H = HiPinR_L + HiPinR_L;	//double for HighPin R_H load
  LoADC = pgm_read_byte((&PinRLRHADCtab[3])+LowPin-TP1) | TXD_MSK;
    20f8:	fc 01       	movw	r30, r24
    20fa:	ef 57       	subi	r30, 0x7F	; 127
    20fc:	ff 4f       	sbci	r31, 0xFF	; 255
    20fe:	04 91       	lpm	r16, Z
  lcd_testpin(LowPin);
  lcd_data('C');
  lcd_testpin(HighPin);
  lcd_space();
#endif
  if(PartFound == PART_RESISTOR) {
    2100:	80 91 16 01 	lds	r24, 0x0116
    2104:	81 30       	cpi	r24, 0x01	; 1
    2106:	09 f4       	brne	.+2      	; 0x210a <ReadCapacity+0x48>
    2108:	4d c2       	rjmp	.+1178   	; 0x25a4 <ReadCapacity+0x4e2>
     lcd_data('R');
     wait_about2s();	/* debug delay */
#endif
     return;	//We have found a resistor already 
  }
  for (ii=0;ii<NumOfDiodes;ii++) {
    210a:	40 91 14 01 	lds	r20, 0x0114
    210e:	24 e8       	ldi	r18, 0x84	; 132
    2110:	31 e0       	ldi	r19, 0x01	; 1
    2112:	6a e8       	ldi	r22, 0x8A	; 138
    2114:	71 e0       	ldi	r23, 0x01	; 1
    2116:	d9 01       	movw	r26, r18
    2118:	8a 2f       	mov	r24, r26
    211a:	82 1b       	sub	r24, r18
    211c:	84 17       	cp	r24, r20
    211e:	98 f4       	brcc	.+38     	; 0x2146 <ReadCapacity+0x84>
     if ((diodes.Cathode[ii] == LowPin) && (diodes.Anode[ii] == HighPin) && (diodes.Voltage[ii] < 1500)) {
    2120:	8d 91       	ld	r24, X+
    2122:	8d 13       	cpse	r24, r29
    2124:	0d c0       	rjmp	.+26     	; 0x2140 <ReadCapacity+0x7e>
    2126:	cd 01       	movw	r24, r26
    2128:	07 97       	sbiw	r24, 0x07	; 7
    212a:	fc 01       	movw	r30, r24
    212c:	80 81       	ld	r24, Z
    212e:	8c 13       	cpse	r24, r28
    2130:	07 c0       	rjmp	.+14     	; 0x2140 <ReadCapacity+0x7e>
    2132:	fb 01       	movw	r30, r22
    2134:	80 81       	ld	r24, Z
    2136:	91 81       	ldd	r25, Z+1	; 0x01
    2138:	8c 3d       	cpi	r24, 0xDC	; 220
    213a:	95 40       	sbci	r25, 0x05	; 5
    213c:	08 f4       	brcc	.+2      	; 0x2140 <ReadCapacity+0x7e>
    213e:	32 c2       	rjmp	.+1124   	; 0x25a4 <ReadCapacity+0x4e2>
    2140:	6e 5f       	subi	r22, 0xFE	; 254
    2142:	7f 4f       	sbci	r23, 0xFF	; 255
    2144:	e9 cf       	rjmp	.-46     	; 0x2118 <ReadCapacity+0x56>
     }
  }
  
#if FLASHEND > 0x1fff
  unsigned int vloss;	// lost voltage after load pulse in 0.1% 
  cap.esr = 0;				// set ESR of capacitor to zero
    2146:	10 92 75 01 	sts	0x0175, r1
    214a:	10 92 74 01 	sts	0x0174, r1
  vloss = 0;				// set lost voltage to zero
#endif
  cap.cpre = -15;			// mark for no cap
    214e:	81 ef       	ldi	r24, 0xF1	; 241
    2150:	80 93 7a 01 	sts	0x017A, r24
  cap.cval = 0;				// set capacity value to zero
    2154:	10 92 68 01 	sts	0x0168, r1
    2158:	10 92 69 01 	sts	0x0169, r1
    215c:	10 92 6a 01 	sts	0x016A, r1
    2160:	10 92 6b 01 	sts	0x016B, r1
  EntladePins();			// discharge capacitor
    2164:	f1 de       	rcall	.-542    	; 0x1f48 <EntladePins>
    2166:	18 b8       	out	0x08, r1	; 8
  ADC_PORT = TXD_VAL;			// switch ADC-Port to GND
    2168:	07 b9       	out	0x07, r16	; 7
// The polarity of residual voltage of the capacitor depends on the measurement
// history. For the normal test cycle the residual voltage is negative
// at the HighPin. Because the ADC can not measure a negative Voltage,
// the LowPin voltage is shifted to 139mV with the R_L resistor.
// The voltage of the capacitor is build as difference between HighPin and LowPin voltage.
  ADC_DDR = LoADC;			// switch Low-Pin to output (GND)
    216a:	f4 b8       	out	0x04, r15	; 4
  R_DDR = LoPinR_L;			// switch R_L Port of LoPin to VCC
    216c:	f5 b8       	out	0x05, r15	; 5
  R_PORT = LoPinR_L;			// switch R_L Port of LoPin to VCC
    216e:	8c 2f       	mov	r24, r28
  residual_voltage = ReadADC(HighPin) - ReadADC(LowPin); // voltage at HighPin before any load 
    2170:	0e 94 78 03 	call	0x6f0	; 0x6f0 <ReadADC>
    2174:	4c 01       	movw	r8, r24
    2176:	8d 2f       	mov	r24, r29
    2178:	0e 94 78 03 	call	0x6f0	; 0x6f0 <ReadADC>
    217c:	88 1a       	sub	r8, r24
    217e:	99 0a       	sbc	r9, r25
    2180:	14 b8       	out	0x04, r1	; 4
  R_DDR = 0;				// switch all R_L ports to input
    2182:	e1 2c       	mov	r14, r1
  cap_voltage1 = 0;			// preset to prevent compiler warning
#define MAX_LOAD_TIME 500
#define MIN_VOLTAGE 300
  for (ovcnt16=0;ovcnt16<MAX_LOAD_TIME;ovcnt16++) {
    2184:	f1 2c       	mov	r15, r1
    2186:	15 b9       	out	0x05, r17	; 5
     R_PORT = HiPinR_L;			//R_L to 1 (VCC) 
    2188:	14 b9       	out	0x04, r17	; 4
     R_DDR = HiPinR_L;			//switch Pin to output, across R to GND or VCC
    218a:	0e 94 5e 03 	call	0x6bc	; 0x6bc <wait10ms>
     wait10ms();			// wait exactly 10ms, do not sleep
    218e:	14 b8       	out	0x04, r1	; 4
     R_DDR = 0;				// switch back to input
    2190:	15 b8       	out	0x05, r1	; 5
     R_PORT = 0;			// no Pull up
    2192:	0e 94 65 03 	call	0x6ca	; 0x6ca <wait500us>
     wait500us();			//wait a little time
    2196:	a8 95       	wdr
     wdt_reset();
    2198:	8c 2f       	mov	r24, r28
        // apparently very small capacitance, if it charges so quickly
        goto messe_mit_rh;
     }
     cap_voltage1 -= residual_voltage; // voltage across capacitor
#else
     cap_voltage1 = ReadADC(HighPin) - residual_voltage; // voltage of capacitor
    219a:	0e 94 78 03 	call	0x6f0	; 0x6f0 <ReadADC>
    219e:	5c 01       	movw	r10, r24
    21a0:	a8 18       	sub	r10, r8
    21a2:	b9 08       	sbc	r11, r9
    21a4:	5e e7       	ldi	r21, 0x7E	; 126
#endif
     if ((ovcnt16 > (MAX_LOAD_TIME/4)) && (cap_voltage1 < (MIN_VOLTAGE/4))) {
    21a6:	e5 16       	cp	r14, r21
    21a8:	f1 04       	cpc	r15, r1
    21aa:	28 f0       	brcs	.+10     	; 0x21b6 <ReadCapacity+0xf4>
    21ac:	8b e4       	ldi	r24, 0x4B	; 75
    21ae:	a8 16       	cp	r10, r24
    21b0:	b1 04       	cpc	r11, r1
    21b2:	0c f4       	brge	.+2      	; 0x21b6 <ReadCapacity+0xf4>
    21b4:	85 c1       	rjmp	.+778    	; 0x24c0 <ReadCapacity+0x3fe>
    21b6:	9d e2       	ldi	r25, 0x2D	; 45
        // 300mV can not be reached well-timed 
        break;		// don't try to load any more
     }
     // probably 100mF can be charged well-timed 
     if (cap_voltage1 > MIN_VOLTAGE) {
    21b8:	a9 16       	cp	r10, r25
    21ba:	91 e0       	ldi	r25, 0x01	; 1
    21bc:	b9 06       	cpc	r11, r25
    21be:	4c f4       	brge	.+18     	; 0x21d2 <ReadCapacity+0x110>
    21c0:	ef ef       	ldi	r30, 0xFF	; 255
  residual_voltage = ReadADC(HighPin) - ReadADC(LowPin); // voltage at HighPin before any load 
  R_DDR = 0;				// switch all R_L ports to input
  cap_voltage1 = 0;			// preset to prevent compiler warning
#define MAX_LOAD_TIME 500
#define MIN_VOLTAGE 300
  for (ovcnt16=0;ovcnt16<MAX_LOAD_TIME;ovcnt16++) {
    21c2:	ee 1a       	sub	r14, r30
    21c4:	fe 0a       	sbc	r15, r30
    21c6:	f4 ef       	ldi	r31, 0xF4	; 244
    21c8:	ef 16       	cp	r14, r31
    21ca:	f1 e0       	ldi	r31, 0x01	; 1
    21cc:	ff 06       	cpc	r15, r31
    21ce:	d9 f6       	brne	.-74     	; 0x2186 <ReadCapacity+0xc4>
    21d0:	77 c1       	rjmp	.+750    	; 0x24c0 <ReadCapacity+0x3fe>
    21d2:	67 01       	movw	r12, r14
    21d4:	e1 14       	cp	r14, r1
#endif
//     if (NumOfDiodes != 0) goto messe_mit_rh; /* ****************************** */
     goto keinC;		// was never charged enough, >100mF or shorted
  }
  //voltage is rised properly and keeps the voltage enough
  if ((ovcnt16 == 0 ) && (cap_voltage1 > 1300)) {
    21d6:	f1 04       	cpc	r15, r1
    21d8:	09 f0       	breq	.+2      	; 0x21dc <ReadCapacity+0x11a>
    21da:	77 c1       	rjmp	.+750    	; 0x24ca <ReadCapacity+0x408>
    21dc:	55 e1       	ldi	r21, 0x15	; 21
    21de:	a5 16       	cp	r10, r21
    21e0:	55 e0       	ldi	r21, 0x05	; 5
    21e2:	b5 06       	cpc	r11, r21
    21e4:	0c f4       	brge	.+2      	; 0x21e8 <ReadCapacity+0x126>
    21e6:	71 c1       	rjmp	.+738    	; 0x24ca <ReadCapacity+0x408>
    21e8:	af de       	rcall	.-674    	; 0x1f48 <EntladePins>

//==================================================================================
// Measurement of little capacity values
messe_mit_rh:
  //little capacity value, about  < 50 F
  EntladePins();			// discharge capacitor
    21ea:	15 b8       	out	0x05, r1	; 5
    21ec:	87 e0       	ldi	r24, 0x07	; 7
  //measure with the R_H (470kOhm) resistor 
  R_PORT = 0;		// R_DDR ist HiPinR_L
    21ee:	87 b9       	out	0x07, r24	; 7
  ADC_DDR = (1<<TP1) | (1<<TP2) | (1<<TP3) | TXD_MSK;	//switch all Pins to output
    21f0:	18 b8       	out	0x08, r1	; 8
    21f2:	f1 2e       	mov	r15, r17
  ADC_PORT = TXD_VAL;		//switch all ADC Pins to GND
    21f4:	ff 0c       	add	r15, r15
  R_DDR = HiPinR_H;   		// switch R_H resistor port for HighPin to output (GND)
    21f6:	f4 b8       	out	0x04, r15	; 4
    21f8:	80 e4       	ldi	r24, 0x40	; 64
    21fa:	80 93 7b 00 	sts	0x007B, r24
// setup Analog Comparator
  ADC_COMP_CONTROL = (1<<ACME);			//enable Analog Comparator Multiplexer
    21fe:	84 e5       	ldi	r24, 0x54	; 84
    2200:	80 bf       	out	0x30, r24	; 48
  ACSR =  (1<<ACBG) | (1<<ACI)  | (1<<ACIC);	// enable, 1.3V, no Interrupt, Connect to Timer1 
    2202:	8c 2f       	mov	r24, r28
    2204:	80 64       	ori	r24, 0x40	; 64
  ADMUX = (1<<REFS0) | HighPin;			// switch Mux to High-Pin
    2206:	80 93 7c 00 	sts	0x007C, r24
    220a:	86 e1       	ldi	r24, 0x16	; 22
    220c:	80 93 7a 00 	sts	0x007A, r24
  ADCSRA = (1<<ADIF) | AUTO_CLOCK_DIV; //disable ADC
    2210:	0e 94 68 03 	call	0x6d0	; 0x6d0 <wait200us>
  wait200us();			//wait for bandgap to start up
    2214:	10 92 80 00 	sts	0x0080, r1

// setup Counter1
  ovcnt16 = 0;
  TCCR1A = 0;			// set Counter1 to normal Mode
    2218:	10 92 85 00 	sts	0x0085, r1
  TCNT1 = 0;			//set Counter to 0
    221c:	10 92 84 00 	sts	0x0084, r1
    2220:	87 e2       	ldi	r24, 0x27	; 39
    2222:	86 bb       	out	0x16, r24	; 22
  TI1_INT_FLAGS = (1<<ICF1) | (1<<OCF1B) | (1<<OCF1A) | (1<<TOV1);	// clear interrupt flags
    2224:	f5 b8       	out	0x05, r15	; 5
    2226:	80 91 16 01 	lds	r24, 0x0116
#ifndef INHIBIT_SLEEP_MODE
  TIMSK1 = (1<<TOIE1) | (1<<ICIE1);	// enable Timer overflow interrupt and input capture interrupt
  unfinished = 1;
#endif
  R_PORT = HiPinR_H;           	// switch R_H resistor port for HighPin to VCC
  if(PartFound == PART_FET) {
    222a:	85 30       	cpi	r24, 0x05	; 5
    222c:	71 f4       	brne	.+28     	; 0x224a <ReadCapacity+0x188>
    222e:	81 e0       	ldi	r24, 0x01	; 1
    2230:	80 93 81 00 	sts	0x0081, r24
     // charge capacitor with R_H resistor
     TCCR1B = (0<<ICNC1) | (1<<CS10);	//Start counter 1MHz or 8MHz without Noise Canceler
    2234:	81 e0       	ldi	r24, 0x01	; 1
    2236:	90 e0       	ldi	r25, 0x00	; 0
     ADC_DDR = (((1<<TP1) | (1<<TP2) | (1<<TP3) | TXD_MSK) & ~(1<<HighPin));	// release only HighPin ADC port
    2238:	0c 2e       	mov	r0, r28
    223a:	01 c0       	rjmp	.+2      	; 0x223e <ReadCapacity+0x17c>
    223c:	88 0f       	add	r24, r24
    223e:	0a 94       	dec	r0
    2240:	ea f7       	brpl	.-6      	; 0x223c <ReadCapacity+0x17a>
    2242:	80 95       	com	r24
    2244:	87 70       	andi	r24, 0x07	; 7
    2246:	87 b9       	out	0x07, r24	; 7
    2248:	04 c0       	rjmp	.+8      	; 0x2252 <ReadCapacity+0x190>
    224a:	81 e0       	ldi	r24, 0x01	; 1
    224c:	80 93 81 00 	sts	0x0081, r24
  } else {
     TCCR1B =  (0<<ICNC1) | (1<<CS10);	//start counter 1MHz or 8MHz without Noise Canceler
    2250:	07 b9       	out	0x07, r16	; 7
    2252:	81 e0       	ldi	r24, 0x01	; 1
     ADC_DDR = LoADC;		// stay LoADC Pin switched to GND, charge capacitor with R_H slowly
    2254:	26 b3       	in	r18, 0x16	; 22
     ii = TI1_INT_FLAGS;	//read Timer flags
     if (ii & (1<<ICF1))  {
        break;
     }
     if((ii & (1<<TOV1))) {	// counter overflow, 65.536 ms @ 1MHz, 8.192ms @ 8MHz
        TI1_INT_FLAGS = (1<<TOV1);	// Reset OV Flag
    2256:	25 fd       	sbrc	r18, 5
  }
//******************************
#ifdef INHIBIT_SLEEP_MODE
  while(1) {
     // Wait, until  Input Capture is set
     ii = TI1_INT_FLAGS;	//read Timer flags
    2258:	0c c0       	rjmp	.+24     	; 0x2272 <ReadCapacity+0x1b0>
     if (ii & (1<<ICF1))  {
    225a:	20 ff       	sbrs	r18, 0
    225c:	fb cf       	rjmp	.-10     	; 0x2254 <ReadCapacity+0x192>
        break;
     }
     if((ii & (1<<TOV1))) {	// counter overflow, 65.536 ms @ 1MHz, 8.192ms @ 8MHz
    225e:	86 bb       	out	0x16, r24	; 22
    2260:	a8 95       	wdr
        TI1_INT_FLAGS = (1<<TOV1);	// Reset OV Flag
    2262:	9f ef       	ldi	r25, 0xFF	; 255
        wdt_reset();
    2264:	c9 1a       	sub	r12, r25
        ovcnt16++;
    2266:	d9 0a       	sbc	r13, r25
    2268:	e0 e4       	ldi	r30, 0x40	; 64
    226a:	ce 16       	cp	r12, r30
        if(ovcnt16 == (F_CPU/5000)) {
    226c:	e6 e0       	ldi	r30, 0x06	; 6
    226e:	de 06       	cpc	r13, r30
    2270:	89 f7       	brne	.-30     	; 0x2254 <ReadCapacity+0x192>
    2272:	10 92 81 00 	sts	0x0081, r1
           break; 		//Timeout for Charging, above 12 s
        }
     }
  }
  TCCR1B = (0<<ICNC1) | (0<<ICES1) | (0<<CS10);  // stop counter
    2276:	80 e2       	ldi	r24, 0x20	; 32
    2278:	86 bb       	out	0x16, r24	; 22
  TI1_INT_FLAGS = (1<<ICF1);		// Reset Input Capture
    227a:	e0 90 86 00 	lds	r14, 0x0086
  tmpint = ICR1;		// get previous Input Capture Counter flag
    227e:	f0 90 87 00 	lds	r15, 0x0087
    2282:	80 91 84 00 	lds	r24, 0x0084
// check actual counter, if an additional overflow must be added
  if((TCNT1 > tmpint) && (ii & (1<<TOV1))) {
    2286:	90 91 85 00 	lds	r25, 0x0085
    228a:	e8 16       	cp	r14, r24
    228c:	f9 06       	cpc	r15, r25
    228e:	38 f4       	brcc	.+14     	; 0x229e <ReadCapacity+0x1dc>
    2290:	20 ff       	sbrs	r18, 0
    2292:	05 c0       	rjmp	.+10     	; 0x229e <ReadCapacity+0x1dc>
    2294:	81 e0       	ldi	r24, 0x01	; 1
    2296:	86 bb       	out	0x16, r24	; 22
     // this OV was not counted, but was before the Input Capture
     TI1_INT_FLAGS = (1<<TOV1);		// Reset OV Flag
    2298:	ff ef       	ldi	r31, 0xFF	; 255
    229a:	cf 1a       	sub	r12, r31
     ovcnt16++;
    229c:	df 0a       	sbc	r13, r31
    229e:	86 e9       	ldi	r24, 0x96	; 150
    22a0:	80 93 7a 00 	sts	0x007A, r24
    u2lcd(tmpint);
  }
#endif

//############################################################
  ADCSRA = (1<<ADEN) | (1<<ADIF) | AUTO_CLOCK_DIV; //enable ADC
    22a4:	14 b8       	out	0x04, r1	; 4
    22a6:	15 b8       	out	0x05, r1	; 5
  R_DDR = 0;			// switch R_H resistor port for input
    22a8:	8c 2f       	mov	r24, r28
  R_PORT = 0;			// switch R_H resistor port pull up for HighPin off
    22aa:	0e 94 78 03 	call	0x6f0	; 0x6f0 <ReadADC>
  load_diff = ReadADC(HighPin) + REF_C_KORR - ref_mv;	// build difference of capacitor voltage to Reference Voltage
    22ae:	20 91 2f 01 	lds	r18, 0x012F
    22b2:	30 91 30 01 	lds	r19, 0x0130
    22b6:	82 1b       	sub	r24, r18
    22b8:	93 0b       	sbc	r25, r19
    22ba:	0c 96       	adiw	r24, 0x0c	; 12
    22bc:	90 93 7d 01 	sts	0x017D, r25
    22c0:	80 93 7c 01 	sts	0x017C, r24
    22c4:	50 e2       	ldi	r21, 0x20	; 32
    22c6:	c5 16       	cp	r12, r21
//############################################################
  if (ovcnt16 >= (F_CPU/10000)) {
    22c8:	53 e0       	ldi	r21, 0x03	; 3
    22ca:	d5 06       	cpc	r13, r21
    22cc:	08 f0       	brcs	.+2      	; 0x22d0 <ReadCapacity+0x20e>
    22ce:	f8 c0       	rjmp	.+496    	; 0x24c0 <ReadCapacity+0x3fe>
    22d0:	d0 92 73 01 	sts	0x0173, r13
     wait_about1s();	/* debug delay */
#endif
     goto keinC;	// no normal end
  }
//  cap.cval_uncorrected = CombineII2Long(ovcnt16, tmpint);
  cap.cval_uncorrected.w[1] = ovcnt16;
    22d4:	c0 92 72 01 	sts	0x0172, r12
    22d8:	f0 92 71 01 	sts	0x0171, r15
  cap.cval_uncorrected.w[0] = tmpint;
    22dc:	e0 92 70 01 	sts	0x0170, r14
    22e0:	84 ef       	ldi	r24, 0xF4	; 244
    22e2:	80 93 7a 01 	sts	0x017A, r24

  cap.cpre = -12;			// cap.cval unit is pF 
    22e6:	82 e4       	ldi	r24, 0x42	; 66
    22e8:	c8 16       	cp	r12, r24
  if (ovcnt16 > 65) {
    22ea:	d1 04       	cpc	r13, r1
    22ec:	c8 f0       	brcs	.+50     	; 0x2320 <ReadCapacity+0x25e>
    22ee:	60 91 70 01 	lds	r22, 0x0170
     cap.cval_uncorrected.dw /= 100;	// switch to next unit
    22f2:	70 91 71 01 	lds	r23, 0x0171
    22f6:	80 91 72 01 	lds	r24, 0x0172
    22fa:	90 91 73 01 	lds	r25, 0x0173
    22fe:	24 e6       	ldi	r18, 0x64	; 100
    2300:	30 e0       	ldi	r19, 0x00	; 0
    2302:	40 e0       	ldi	r20, 0x00	; 0
    2304:	50 e0       	ldi	r21, 0x00	; 0
    2306:	0e 94 7b 1e 	call	0x3cf6	; 0x3cf6 <__udivmodsi4>
    230a:	20 93 70 01 	sts	0x0170, r18
    230e:	30 93 71 01 	sts	0x0171, r19
    2312:	40 93 72 01 	sts	0x0172, r20
    2316:	50 93 73 01 	sts	0x0173, r21
    231a:	86 ef       	ldi	r24, 0xF6	; 246
    231c:	80 93 7a 01 	sts	0x017A, r24
     cap.cpre += 2;			// set unit, prevent overflow
    2320:	a0 91 66 01 	lds	r26, 0x0166
  }
  cap.cval_uncorrected.dw *= RHmultip;		// 708
    2324:	b0 91 67 01 	lds	r27, 0x0167
    2328:	20 91 70 01 	lds	r18, 0x0170
    232c:	30 91 71 01 	lds	r19, 0x0171
    2330:	40 91 72 01 	lds	r20, 0x0172
    2334:	50 91 73 01 	lds	r21, 0x0173
    2338:	0e 94 42 1e 	call	0x3c84	; 0x3c84 <__muluhisi3>
    233c:	20 e2       	ldi	r18, 0x20	; 32
    233e:	33 e0       	ldi	r19, 0x03	; 3
  cap.cval_uncorrected.dw /= (F_CPU / 10000);	// divide by 100 (@ 1MHz clock), 800 (@ 8MHz clock)
    2340:	40 e0       	ldi	r20, 0x00	; 0
    2342:	50 e0       	ldi	r21, 0x00	; 0
    2344:	0e 94 7b 1e 	call	0x3cf6	; 0x3cf6 <__udivmodsi4>
    2348:	20 93 70 01 	sts	0x0170, r18
    234c:	30 93 71 01 	sts	0x0171, r19
    2350:	40 93 72 01 	sts	0x0172, r20
    2354:	50 93 73 01 	sts	0x0173, r21
    2358:	20 93 68 01 	sts	0x0168, r18
  cap.cval = cap.cval_uncorrected.dw;		// set the corrected cap.cval
    235c:	30 93 69 01 	sts	0x0169, r19
    2360:	40 93 6a 01 	sts	0x016A, r20
    2364:	50 93 6b 01 	sts	0x016B, r21
    2368:	6c de       	rcall	.-808    	; 0x2042 <Scale_C_with_vcc>
    236a:	80 91 7a 01 	lds	r24, 0x017A
  Scale_C_with_vcc();
    236e:	84 3f       	cpi	r24, 0xF4	; 244
  if (cap.cpre == -12) {
    2370:	09 f0       	breq	.+2      	; 0x2374 <ReadCapacity+0x2b2>
    2372:	54 c0       	rjmp	.+168    	; 0x241c <ReadCapacity+0x35a>
    2374:	c0 90 68 01 	lds	r12, 0x0168
    2378:	d0 90 69 01 	lds	r13, 0x0169
#if COMP_SLEW1 > COMP_SLEW2
     if (cap.cval < COMP_SLEW1) {
    237c:	e0 90 6a 01 	lds	r14, 0x016A
    2380:	f0 90 6b 01 	lds	r15, 0x016B
    2384:	90 ea       	ldi	r25, 0xA0	; 160
    2386:	c9 16       	cp	r12, r25
    2388:	9f e0       	ldi	r25, 0x0F	; 15
    238a:	d9 06       	cpc	r13, r25
    238c:	e1 04       	cpc	r14, r1
    238e:	f1 04       	cpc	r15, r1
    2390:	c0 f4       	brcc	.+48     	; 0x23c2 <ReadCapacity+0x300>
    2392:	a7 01       	movw	r20, r14
    2394:	96 01       	movw	r18, r12
    2396:	24 52       	subi	r18, 0x24	; 36
        // add slew rate dependent offset
        cap.cval += (COMP_SLEW1 / (cap.cval+COMP_SLEW2 ));
    2398:	3f 4f       	sbci	r19, 0xFF	; 255
    239a:	4f 4f       	sbci	r20, 0xFF	; 255
    239c:	5f 4f       	sbci	r21, 0xFF	; 255
    239e:	60 ea       	ldi	r22, 0xA0	; 160
    23a0:	7f e0       	ldi	r23, 0x0F	; 15
    23a2:	80 e0       	ldi	r24, 0x00	; 0
    23a4:	90 e0       	ldi	r25, 0x00	; 0
    23a6:	0e 94 7b 1e 	call	0x3cf6	; 0x3cf6 <__udivmodsi4>
    23aa:	2c 0d       	add	r18, r12
    23ac:	3d 1d       	adc	r19, r13
    23ae:	4e 1d       	adc	r20, r14
    23b0:	5f 1d       	adc	r21, r15
    23b2:	20 93 68 01 	sts	0x0168, r18
    23b6:	30 93 69 01 	sts	0x0169, r19
    23ba:	40 93 6a 01 	sts	0x016A, r20
    23be:	50 93 6b 01 	sts	0x016B, r21
    23c2:	80 91 4c 01 	lds	r24, 0x014C
    23c6:	90 e0       	ldi	r25, 0x00	; 0
     if ( cap.cval < 65536) lc_cpartmp=cap.cval; /* prevent wrong value */
     else                   lc_cpartmp = 1;	/* set to 1pF, if too big */
#endif /* SamplingADC */
#ifdef AUTO_CAL
     // auto calibration mode, cap_null can be updated in selftest section
     tmpint = eeprom_read_byte(&c_zero_tab[pin_combination]);	// read zero offset
    23c8:	80 53       	subi	r24, 0x30	; 48
    23ca:	9e 4f       	sbci	r25, 0xFE	; 254
    23cc:	0e 94 04 1f 	call	0x3e08	; 0x3e08 <__eerd_byte_m168>
    23d0:	c0 90 68 01 	lds	r12, 0x0168
    23d4:	d0 90 69 01 	lds	r13, 0x0169
     if (cap.cval > tmpint) {
    23d8:	e0 90 6a 01 	lds	r14, 0x016A
    23dc:	f0 90 6b 01 	lds	r15, 0x016B
    23e0:	48 2f       	mov	r20, r24
    23e2:	50 e0       	ldi	r21, 0x00	; 0
    23e4:	60 e0       	ldi	r22, 0x00	; 0
    23e6:	70 e0       	ldi	r23, 0x00	; 0
    23e8:	4c 15       	cp	r20, r12
    23ea:	5d 05       	cpc	r21, r13
    23ec:	6e 05       	cpc	r22, r14
    23ee:	7f 05       	cpc	r23, r15
    23f0:	68 f4       	brcc	.+26     	; 0x240c <ReadCapacity+0x34a>
    23f2:	c4 1a       	sub	r12, r20
    23f4:	d5 0a       	sbc	r13, r21
    23f6:	e6 0a       	sbc	r14, r22
         cap.cval -= tmpint;		//subtract zero offset (pF)
    23f8:	f7 0a       	sbc	r15, r23
    23fa:	c0 92 68 01 	sts	0x0168, r12
    23fe:	d0 92 69 01 	sts	0x0169, r13
    2402:	e0 92 6a 01 	sts	0x016A, r14
    2406:	f0 92 6b 01 	sts	0x016B, r15
    240a:	08 c0       	rjmp	.+16     	; 0x241c <ReadCapacity+0x35a>
    240c:	10 92 68 01 	sts	0x0168, r1
    2410:	10 92 69 01 	sts	0x0169, r1
         lcd_testpin(HighPin);
         lcd_space();
  #endif
       }
 #endif
         cap.cval = 0;			//unsigned long may not reach negativ value
    2414:	10 92 6a 01 	sts	0x016A, r1
    2418:	10 92 6b 01 	sts	0x016B, r1
    241c:	14 b9       	out	0x04, r17	; 4
    241e:	80 91 68 01 	lds	r24, 0x0168
  lcd_testpin(HighPin);
  lcd_space();
  DisplayValue(cap.cval,cap.cpre,'F',4);
  wait_about3s();	/* debug delay */
#endif
  R_DDR = HiPinR_L; 		//switch R_L for High-Pin to GND
    2422:	90 91 69 01 	lds	r25, 0x0169
#if F_CPU < 2000001
   if(cap.cval < 50)
#else 
   if(cap.cval < 25)
    2426:	a0 91 6a 01 	lds	r26, 0x016A
    242a:	b0 91 6b 01 	lds	r27, 0x016B
    242e:	49 97       	sbiw	r24, 0x19	; 25
    2430:	a1 05       	cpc	r26, r1
    2432:	b1 05       	cpc	r27, r1
    2434:	08 f4       	brcc	.+2      	; 0x2438 <ReadCapacity+0x376>
    2436:	44 c0       	rjmp	.+136    	; 0x24c0 <ReadCapacity+0x3fe>
    2438:	c1 2c       	mov	r12, r1
    243a:	d1 2c       	mov	r13, r1
    243c:	80 91 14 01 	lds	r24, 0x0114
  }
  
#if FLASHEND > 0x1fff
  unsigned int vloss;	// lost voltage after load pulse in 0.1% 
  cap.esr = 0;				// set ESR of capacitor to zero
  vloss = 0;				// set lost voltage to zero
    2440:	88 23       	and	r24, r24
#endif
      goto keinC;	//capacity to low, < 50pF @1MHz (25pF @8MHz)
   }
   // end low capacity 
checkDiodes:
   if((NumOfDiodes > 0)  && (PartFound != PART_FET)) {
    2442:	21 f0       	breq	.+8      	; 0x244c <ReadCapacity+0x38a>
    2444:	80 91 16 01 	lds	r24, 0x0116
    2448:	85 30       	cpi	r24, 0x05	; 5
    244a:	d1 f5       	brne	.+116    	; 0x24c0 <ReadCapacity+0x3fe>
    244c:	88 e0       	ldi	r24, 0x08	; 8
    244e:	80 93 16 01 	sts	0x0116, r24
      wait_about1s();	/* debug delay */
#endif
      // nearly sure, that there is one or more diodes in reverse direction,
      // which would be wrongly detected as capacitor 
   } else {
      PartFound = PART_CAPACITOR;	//capacitor is found
    2452:	20 91 7a 01 	lds	r18, 0x017A
    2456:	80 91 7b 01 	lds	r24, 0x017B
      if ((cap.cpre > cap.cpre_max) || ((cap.cpre == cap.cpre_max) && (cap.cval > cap.cval_max))) {
    245a:	82 17       	cp	r24, r18
    245c:	bc f0       	brlt	.+46     	; 0x248c <ReadCapacity+0x3ca>
    245e:	28 13       	cpse	r18, r24
    2460:	2f c0       	rjmp	.+94     	; 0x24c0 <ReadCapacity+0x3fe>
    2462:	40 91 68 01 	lds	r20, 0x0168
    2466:	50 91 69 01 	lds	r21, 0x0169
    246a:	60 91 6a 01 	lds	r22, 0x016A
    246e:	70 91 6b 01 	lds	r23, 0x016B
    2472:	80 91 6c 01 	lds	r24, 0x016C
    2476:	90 91 6d 01 	lds	r25, 0x016D
    247a:	a0 91 6e 01 	lds	r26, 0x016E
    247e:	b0 91 6f 01 	lds	r27, 0x016F
    2482:	84 17       	cp	r24, r20
    2484:	95 07       	cpc	r25, r21
    2486:	a6 07       	cpc	r26, r22
    2488:	b7 07       	cpc	r27, r23
    248a:	d0 f4       	brcc	.+52     	; 0x24c0 <ReadCapacity+0x3fe>
    248c:	80 91 68 01 	lds	r24, 0x0168
    2490:	90 91 69 01 	lds	r25, 0x0169
         // we have found a greater one, overwrite the old values
         cap.cval_max = cap.cval;
    2494:	a0 91 6a 01 	lds	r26, 0x016A
    2498:	b0 91 6b 01 	lds	r27, 0x016B
    249c:	80 93 6c 01 	sts	0x016C, r24
    24a0:	90 93 6d 01 	sts	0x016D, r25
    24a4:	a0 93 6e 01 	sts	0x016E, r26
    24a8:	b0 93 6f 01 	sts	0x016F, r27
    24ac:	20 93 7b 01 	sts	0x017B, r18
    24b0:	d0 92 77 01 	sts	0x0177, r13
         cap.cpre_max = cap.cpre;
    24b4:	c0 92 76 01 	sts	0x0176, r12
#if FLASHEND > 0x1fff
         cap.v_loss = vloss;		// lost voltage in 0.01%
    24b8:	d0 93 78 01 	sts	0x0178, r29
    24bc:	c0 93 79 01 	sts	0x0179, r28
#endif
         cap.ca = LowPin;		// save LowPin
    24c0:	17 b8       	out	0x07, r1	; 7
         cap.cb = HighPin;		// save HighPin
    24c2:	18 b8       	out	0x08, r1	; 8
    24c4:	14 b8       	out	0x04, r1	; 4
keinC:
  // discharge capacitor again
//  EntladePins();		// discharge capacitors
  //ready
  // switch all ports to input
  ADC_DDR =  TXD_MSK;		// switch all ADC ports to input
    24c6:	15 b8       	out	0x05, r1	; 5
  ADC_PORT = TXD_VAL;		// switch all ADC outputs to GND, no pull up
    24c8:	6d c0       	rjmp	.+218    	; 0x25a4 <ReadCapacity+0x4e2>
  R_DDR = 0;			// switch all resistor ports to input
    24ca:	00 e0       	ldi	r16, 0x00	; 0
  R_PORT = 0; 			// switch all resistor outputs to GND, no pull up
    24cc:	10 e0       	ldi	r17, 0x00	; 0
  return;
    24ce:	0e 94 5f 03 	call	0x6be	; 0x6be <wait5ms>
    24d2:	8c 2f       	mov	r24, r28
  cap.cval_uncorrected.dw *= GetRLmultip(cap_voltage1);		// get factor to convert time to capacity from table
#else
  // wait the half the time which was required for loading
  cap_voltage2 = cap_voltage1;			// preset to prevent compiler warning
  for (tmpint=0;tmpint<=ovcnt16;tmpint++) {
     wait5ms();
    24d4:	0e 94 78 03 	call	0x6f0	; 0x6f0 <ReadADC>
     cap_voltage2 = ReadADC(HighPin) - residual_voltage;	// read voltage again, is discharged only a little bit ?
    24d8:	a8 95       	wdr
    24da:	0f 5f       	subi	r16, 0xFF	; 255
    24dc:	1f 4f       	sbci	r17, 0xFF	; 255
     wdt_reset();
    24de:	e0 16       	cp	r14, r16
  cap.cval_uncorrected.dw = ovcnt16 + 1;
  cap.cval_uncorrected.dw *= GetRLmultip(cap_voltage1);		// get factor to convert time to capacity from table
#else
  // wait the half the time which was required for loading
  cap_voltage2 = cap_voltage1;			// preset to prevent compiler warning
  for (tmpint=0;tmpint<=ovcnt16;tmpint++) {
    24e0:	f1 06       	cpc	r15, r17
    24e2:	a8 f7       	brcc	.-22     	; 0x24ce <ReadCapacity+0x40c>
    24e4:	88 19       	sub	r24, r8
    24e6:	99 09       	sbc	r25, r9
    24e8:	85 01       	movw	r16, r10
     wait5ms();
     cap_voltage2 = ReadADC(HighPin) - residual_voltage;	// read voltage again, is discharged only a little bit ?
    24ea:	08 1b       	sub	r16, r24
    24ec:	19 0b       	sbc	r17, r25
     wdt_reset();
  }
     cap_voltage2 = cap_voltage1 - cap_voltage2; 	// lost voltage during load time wait
    24ee:	10 16       	cp	r1, r16
    24f0:	11 06       	cpc	r1, r17
    24f2:	8c f4       	brge	.+34     	; 0x2516 <ReadCapacity+0x454>
#if FLASHEND > 0x1fff
  // compute equivalent parallel resistance from voltage drop
  if (cap_voltage2 > 0) {
    24f4:	09 3c       	cpi	r16, 0xC9	; 201
    24f6:	11 05       	cpc	r17, r1
    24f8:	1c f7       	brge	.-58     	; 0x24c0 <ReadCapacity+0x3fe>
     // there is any voltage drop !
     // cap_voltage1 is the loaded voltage.
     vloss = (unsigned long)(cap_voltage2 * 1000UL) / cap_voltage1;
  }
#endif
  if (cap_voltage2 > 200) {
    24fa:	28 ee       	ldi	r18, 0xE8	; 232
    24fc:	33 e0       	ldi	r19, 0x03	; 3
    24fe:	d8 01       	movw	r26, r16
#if FLASHEND > 0x1fff
  // compute equivalent parallel resistance from voltage drop
  if (cap_voltage2 > 0) {
     // there is any voltage drop !
     // cap_voltage1 is the loaded voltage.
     vloss = (unsigned long)(cap_voltage2 * 1000UL) / cap_voltage1;
    2500:	0e 94 3c 1e 	call	0x3c78	; 0x3c78 <__usmulhisi3>
    2504:	95 01       	movw	r18, r10
    2506:	44 27       	eor	r20, r20
    2508:	37 fd       	sbrc	r19, 7
    250a:	40 95       	com	r20
    250c:	54 2f       	mov	r21, r20
    250e:	0e 94 7b 1e 	call	0x3cf6	; 0x3cf6 <__udivmodsi4>
    2512:	69 01       	movw	r12, r18
    2514:	02 c0       	rjmp	.+4      	; 0x251a <ReadCapacity+0x458>
    2516:	c1 2c       	mov	r12, r1
    2518:	d1 2c       	mov	r13, r1
    251a:	8f ef       	ldi	r24, 0xFF	; 255
  }
  
#if FLASHEND > 0x1fff
  unsigned int vloss;	// lost voltage after load pulse in 0.1% 
  cap.esr = 0;				// set ESR of capacitor to zero
  vloss = 0;				// set lost voltage to zero
    251c:	e8 1a       	sub	r14, r24
    251e:	f8 0a       	sbc	r15, r24
//     if (ovcnt16 == 0 )  {
//        goto messe_mit_rh;		// Voltage of more than 300mV is reached in one pulse, but not hold
//     }
     goto keinC;			// capacitor does not keep the voltage about 5ms
  }
  cap.cval_uncorrected.dw = ovcnt16 + 1;
    2520:	c7 01       	movw	r24, r14
    2522:	a0 e0       	ldi	r26, 0x00	; 0
    2524:	b0 e0       	ldi	r27, 0x00	; 0
    2526:	80 93 70 01 	sts	0x0170, r24
    252a:	90 93 71 01 	sts	0x0171, r25
    252e:	a0 93 72 01 	sts	0x0172, r26
    2532:	b0 93 73 01 	sts	0x0173, r27
    2536:	c5 01       	movw	r24, r10
    2538:	80 0f       	add	r24, r16
    253a:	91 1f       	adc	r25, r17
  // compute factor with load voltage + lost voltage during the voltage load time
  cap.cval_uncorrected.dw *= GetRLmultip(cap_voltage1+cap_voltage2);	// get factor to convert time to capacity from table
    253c:	38 d0       	rcall	.+112    	; 0x25ae <GetRLmultip>
    253e:	9c 01       	movw	r18, r24
    2540:	d7 01       	movw	r26, r14
    2542:	0e 94 2d 1e 	call	0x3c5a	; 0x3c5a <__umulhisi3>
    2546:	60 93 70 01 	sts	0x0170, r22
    254a:	70 93 71 01 	sts	0x0171, r23
    254e:	80 93 72 01 	sts	0x0172, r24
    2552:	90 93 73 01 	sts	0x0173, r25
    2556:	60 93 68 01 	sts	0x0168, r22
    255a:	70 93 69 01 	sts	0x0169, r23
#endif
   cap.cval = cap.cval_uncorrected.dw;	// set result to uncorrected
    255e:	80 93 6a 01 	sts	0x016A, r24
    2562:	90 93 6b 01 	sts	0x016B, r25
    2566:	87 ef       	ldi	r24, 0xF7	; 247
    2568:	80 93 7a 01 	sts	0x017A, r24
    256c:	6a dd       	rcall	.-1324   	; 0x2042 <Scale_C_with_vcc>
   cap.cpre = -9;		// switch units to nF 
    256e:	20 91 68 01 	lds	r18, 0x0168
    2572:	30 91 69 01 	lds	r19, 0x0169
   Scale_C_with_vcc();		// value is below 100000 after this call, cpre is changed
    2576:	40 91 6a 01 	lds	r20, 0x016A
   // cap.cval for this type is at least 40000nF, so the last digit will be never shown
#if WITH_MENU
   cap.cval *= (1000 - (int8_t)eeprom_read_byte((uint8_t *)&big_cap_corr));	// correct with C_H_KORR with 0.1% resolution, but prevent overflow
#else
   cap.cval *= (1000 - C_H_KORR);	// correct with C_H_KORR with 0.1% resolution, but prevent overflow
    257a:	50 91 6b 01 	lds	r21, 0x016B
    257e:	a8 ee       	ldi	r26, 0xE8	; 232
    2580:	b3 e0       	ldi	r27, 0x03	; 3
    2582:	0e 94 42 1e 	call	0x3c84	; 0x3c84 <__muluhisi3>
    2586:	24 e6       	ldi	r18, 0x64	; 100
    2588:	30 e0       	ldi	r19, 0x00	; 0
    258a:	40 e0       	ldi	r20, 0x00	; 0
    258c:	50 e0       	ldi	r21, 0x00	; 0
    258e:	0e 94 7b 1e 	call	0x3cf6	; 0x3cf6 <__udivmodsi4>
#endif
   cap.cval /= 100;		// was multiplied with 1000, now divided by 100
    2592:	20 93 68 01 	sts	0x0168, r18
    2596:	30 93 69 01 	sts	0x0169, r19
    259a:	40 93 6a 01 	sts	0x016A, r20
    259e:	50 93 6b 01 	sts	0x016B, r21
    25a2:	4c cf       	rjmp	.-360    	; 0x243c <ReadCapacity+0x37a>
    25a4:	cd b7       	in	r28, 0x3d	; 61
    25a6:	de b7       	in	r29, 0x3e	; 62
    25a8:	ec e0       	ldi	r30, 0x0C	; 12
    25aa:	0c 94 db 1e 	jmp	0x3db6	; 0x3db6 <__epilogue_restores__+0xc>

000025ae <GetRLmultip>:

 .section .text

; unsigned int GetRLmultip(unsigned int cvolt) 
GetRLmultip:
	push    r0
    25ae:	0f 92       	push	r0
 	ldi	r18, hi8(RL_Tab_Beginn) 	; 1
    25b0:	21 e0       	ldi	r18, 0x01	; 1
 	cpi	r24, lo8(RL_Tab_Beginn)		; 44
    25b2:	8c 32       	cpi	r24, 0x2C	; 44
 	cpc	r25, r18
    25b4:	92 07       	cpc	r25, r18
 	brcc	is_bigger		;if (cvolt >= RL_Tab_Beginn) 
    25b6:	10 f4       	brcc	.+4      	; 0x25bc <is_bigger>
        ldi	r24, lo8(RL_Tab_Beginn)		; uvolt = 0 = RL_Tab_Begin - RL_Tab_Begin
    25b8:	8c e2       	ldi	r24, 0x2C	; 44
        ldi	r25, hi8(RL_Tab_Beginn)		; limit to begin of table
    25ba:	91 e0       	ldi	r25, 0x01	; 1

000025bc <is_bigger>:
is_bigger:
 	subi	r24, lo8(RL_Tab_Beginn)	;  uvolt = cvolt - RL_Tab_Beginn;
    25bc:	8c 52       	subi	r24, 0x2C	; 44
 	sbci	r25, hi8(RL_Tab_Beginn)	; 1
    25be:	91 40       	sbci	r25, 0x01	; 1

 	ldi	r22, lo8(RL_Tab_Abstand)	; 25
    25c0:	69 e1       	ldi	r22, 0x19	; 25
 	ldi	r23, hi8(RL_Tab_Abstand)	; 0
    25c2:	70 e0       	ldi	r23, 0x00	; 0
 	ACALL	__udivmodhi4 	;tabind = uvolt / RL_Tab_Abstand;
    25c4:	0e 94 67 1e 	call	0x3cce	; 0x3cce <__udivmodhi4>
;  r24:25 tabres = uvolt % RL_Tab_Abstand;  // r25 allways zero
;  tabres = RL_Tab_Abstand - tabres;
 	ldi	r25, RL_Tab_Abstand	; 25
    25c8:	99 e1       	ldi	r25, 0x19	; 25
 	cpi	r22, ((RL_Tab_Length/RL_Tab_Abstand)-1)	; if (tabind > ((RL_Tab_Length/RL_Tab_Abstand)-1)) 
    25ca:	6b 32       	cpi	r22, 0x2B	; 43
 	brcs	is_lower 
    25cc:	10 f0       	brcs	.+4      	; 0x25d2 <is_lower>
	mov	r25, r24		; tabres = 0 = (RL_Tab_Abstand==tabres) - tabres
    25ce:	98 2f       	mov	r25, r24
 	ldi	r22, (RL_Tab_Length/RL_Tab_Abstand)-1; tabind = (RL_Tab_Length/RL_Tab_Abstand)-1;// limit to end of table
    25d0:	6b e2       	ldi	r22, 0x2B	; 43

000025d2 <is_lower>:
is_lower:
 	sub	r25, r24		; tabres = RL_Tab_Abstand - tabres;
    25d2:	98 1b       	sub	r25, r24

	; r22 = tabind , r25 = tabres

	LDIZ	RLtab
    25d4:	e2 e7       	ldi	r30, 0x72	; 114
    25d6:	f1 e0       	ldi	r31, 0x01	; 1
	add	r30, r22		; + tabind
    25d8:	e6 0f       	add	r30, r22
	adc	r31, zero_reg
    25da:	f1 1d       	adc	r31, r1
	add	r30, r22		; + tabind (word access)
    25dc:	e6 0f       	add	r30, r22
	adc	r31, zero_reg
    25de:	f1 1d       	adc	r31, r1

#ifdef MEM_EEPROM
        push	r25			; save tabres
    25e0:	9f 93       	push	r25
	movw	r24,r30
    25e2:	cf 01       	movw	r24, r30
	ACALL	eeprom_read_byte	; y1 = MEM_read_word(&RLtab[tabind]);
    25e4:	0e 94 04 1f 	call	0x3e08	; 0x3e08 <__eerd_byte_m168>
	mov	r20, r24
    25e8:	48 2f       	mov	r20, r24
	adiw	r30, 1			; address of high order byte
    25ea:	31 96       	adiw	r30, 0x01	; 1
	movw	r24,r30
    25ec:	cf 01       	movw	r24, r30
	ACALL	eeprom_read_byte	; y1 = MEM_read_word(&RLtab[tabind]);
    25ee:	0e 94 04 1f 	call	0x3e08	; 0x3e08 <__eerd_byte_m168>
	mov	r21, r24
    25f2:	58 2f       	mov	r21, r24
	adiw	r30, 1			; tabind+1
    25f4:	31 96       	adiw	r30, 0x01	; 1
	movw	r24,r30
    25f6:	cf 01       	movw	r24, r30
	ACALL	eeprom_read_byte	; y2 = MEM_read_word(&RLtab[tabind+1]);
    25f8:	0e 94 04 1f 	call	0x3e08	; 0x3e08 <__eerd_byte_m168>
	mov	r18, r24
    25fc:	28 2f       	mov	r18, r24
	adiw	r30, 1			; address of high order byte
    25fe:	31 96       	adiw	r30, 0x01	; 1
	movw	r24,r30
    2600:	cf 01       	movw	r24, r30
	ACALL	eeprom_read_byte	; y2 = MEM_read_word(&RLtab[tabind+1]);
    2602:	0e 94 04 1f 	call	0x3e08	; 0x3e08 <__eerd_byte_m168>
	mov	r19, r24
    2606:	38 2f       	mov	r19, r24
        pop	r22			; restore tabres in r22
    2608:	6f 91       	pop	r22
 	lpm	r19, Z+
 	mov	r22, r25
#endif
;  return ( ((y1 - y2) * tabres + (RL_Tab_Abstand/2)) / RL_Tab_Abstand + y2); // interpolate table
;; 	ldi	r23, 0x00	; hi8(tabres) allways zero
 	sub	r20, r18	; y1 - y2
    260a:	42 1b       	sub	r20, r18
 	sbc	r21, r19 	; maximum of 3466 need two registers
    260c:	53 0b       	sbc	r21, r19

 	mul	r22, r20	;lo8(tabres) * lo8(y1-y2)
    260e:	64 9f       	mul	r22, r20
 	movw	r24, r0		; r24:25 = *
    2610:	c0 01       	movw	r24, r0
 	mul	r22, r21	;lo8(tabres) * hi8(y1-y2)
    2612:	65 9f       	mul	r22, r21
 	add	r25, r0		; r25 + lo8(*)
    2614:	90 0d       	add	r25, r0
;; 	mul	r23, r20	;hi8(tabres) * lo8(y1-y2) , allways zero
;; 	add	r25, r0		; r25 + lo8(*)
 	eor	r1, r1
    2616:	11 24       	eor	r1, r1
 	adiw	r24, (RL_Tab_Abstand/2)		; 12
    2618:	0c 96       	adiw	r24, 0x0c	; 12
 	ldi	r22, lo8(RL_Tab_Abstand)	; 25
    261a:	69 e1       	ldi	r22, 0x19	; 25
 	ldi	r23, hi8(RL_Tab_Abstand)	; 0
    261c:	70 e0       	ldi	r23, 0x00	; 0
 	ACALL	__udivmodhi4	; ((y1 - y2) * tabres + (RL_Tab_Abstand/2)) / RL_Tab_Abstand 
    261e:	0e 94 67 1e 	call	0x3cce	; 0x3cce <__udivmodhi4>
 	add	r22, r18			; + y2
    2622:	62 0f       	add	r22, r18
 	adc	r23, r19
    2624:	73 1f       	adc	r23, r19
 	movw	r24, r22
    2626:	cb 01       	movw	r24, r22
	pop	r0
    2628:	0f 90       	pop	r0
 	ret
    262a:	08 95       	ret

0000262c <Calibrate_UR>:
#include "Transistortester.h"
void Calibrate_UR(void) {
    262c:	a0 e0       	ldi	r26, 0x00	; 0
    262e:	b0 e0       	ldi	r27, 0x00	; 0
    2630:	ec e1       	ldi	r30, 0x1C	; 28
    2632:	f3 e1       	ldi	r31, 0x13	; 19
    2634:	0c 94 bf 1e 	jmp	0x3d7e	; 0x3d7e <__prologue_saves__+0xc>
  uint16_t sum_rp;	// sum of 3 Pin voltages with 680 Ohm load
  uint16_t u680;	// 3 * (Voltage at 680 Ohm)
#endif


  adc_vcc_reference = U_VCC;     // set initial VCC Voltage to 5000mV
    2638:	88 e8       	ldi	r24, 0x88	; 136
    263a:	93 e1       	ldi	r25, 0x13	; 19
    263c:	90 93 1b 01 	sts	0x011B, r25
    2640:	80 93 1a 01 	sts	0x011A, r24
  ADCconfig.U_AVCC = adc_vcc_reference;	// set ADC to normal VCC value
    2644:	90 93 2c 01 	sts	0x012C, r25
    2648:	80 93 2b 01 	sts	0x012B, r24
  ADCconfig.Samples = R_ANZ_MESS;	// set number of ADC reads near to maximum
    264c:	8e eb       	ldi	r24, 0xBE	; 190
    264e:	80 93 27 01 	sts	0x0127, r24
                                        //############################################
#if FLASHEND > 0x1fff
  uint16_t mv2500;
  ADC_PORT = TXD_VAL;                   // switch to 0V
    2652:	18 b8       	out	0x08, r1	; 8
  ADC_DDR = (1<<TPRELAY) | TXD_MSK;       // switch pin with 2.5V reference to GND
    2654:	80 e1       	ldi	r24, 0x10	; 16
    2656:	87 b9       	out	0x07, r24	; 7
  wait20us();			// switch only short time, so that the relais do not really switch
    2658:	0e 94 6d 03 	call	0x6da	; 0x6da <wait20us>
  ADC_DDR =  TXD_MSK;		// switch pin with reference back to input
    265c:	17 b8       	out	0x07, r1	; 7
  mv2500 = W5msReadADC(TPREF); // read voltage of 2.5V precision reference
    265e:	84 e0       	ldi	r24, 0x04	; 4
    2660:	0e 94 77 03 	call	0x6ee	; 0x6ee <W5msReadADC>
    2664:	ac 01       	movw	r20, r24
  if ((mv2500 > 2250) && (mv2500 < 2750)) {
    2666:	8b 5c       	subi	r24, 0xCB	; 203
    2668:	98 40       	sbci	r25, 0x08	; 8
    266a:	83 3f       	cpi	r24, 0xF3	; 243
    266c:	91 40       	sbci	r25, 0x01	; 1
    266e:	a0 f4       	brcc	.+40     	; 0x2698 <Calibrate_UR+0x6c>
     // precision voltage reference connected, update U_AVCC
     WithReference = 1;
    2670:	81 e0       	ldi	r24, 0x01	; 1
    2672:	80 93 36 01 	sts	0x0136, r24
     adc_vcc_reference = (unsigned long)((unsigned long)ADCconfig.U_AVCC * 2495) / mv2500;
    2676:	20 91 2b 01 	lds	r18, 0x012B
    267a:	30 91 2c 01 	lds	r19, 0x012C
    267e:	af eb       	ldi	r26, 0xBF	; 191
    2680:	b9 e0       	ldi	r27, 0x09	; 9
    2682:	0e 94 2d 1e 	call	0x3c5a	; 0x3c5a <__umulhisi3>
    2686:	9a 01       	movw	r18, r20
    2688:	40 e0       	ldi	r20, 0x00	; 0
    268a:	50 e0       	ldi	r21, 0x00	; 0
    268c:	0e 94 7b 1e 	call	0x3cf6	; 0x3cf6 <__udivmodsi4>
    2690:	30 93 1b 01 	sts	0x011B, r19
    2694:	20 93 1a 01 	sts	0x011A, r18
  }
  ADCconfig.U_AVCC = adc_vcc_reference;	// set ADC to normal VCC value
    2698:	80 91 1a 01 	lds	r24, 0x011A
    269c:	90 91 1b 01 	lds	r25, 0x011B
    26a0:	90 93 2c 01 	sts	0x012C, r25
    26a4:	80 93 2b 01 	sts	0x012B, r24
#endif
#ifdef WITH_AUTO_REF
  (void) ReadADC(MUX_INT_REF);	// read reference voltage 
    26a8:	8e e0       	ldi	r24, 0x0E	; 14
    26aa:	0e 94 78 03 	call	0x6f0	; 0x6f0 <ReadADC>
  ref_mv = W5msReadADC(MUX_INT_REF);	// read reference voltage 
    26ae:	8e e0       	ldi	r24, 0x0E	; 14
    26b0:	0e 94 77 03 	call	0x6ee	; 0x6ee <W5msReadADC>
    26b4:	90 93 30 01 	sts	0x0130, r25
    26b8:	80 93 2f 01 	sts	0x012F, r24
#else
  ref_mv = DEFAULT_BAND_GAP;    // set to default Reference Voltage
#endif
  (void) RefVoltage();			//compute RHmultip = f(reference voltage)
    26bc:	0e 94 2c 04 	call	0x858	; 0x858 <RefVoltage>
                                        // ref_mv_offs, ADCconfig.U_Bandgap
                                        //############################################

  EntladePins();	// make sure, that no voltage is left from capacitors
    26c0:	43 dc       	rcall	.-1914   	; 0x1f48 <EntladePins>
    26c2:	18 b8       	out	0x08, r1	; 8
#ifdef AUTO_CAL
  // measurement of internal resistance of the ADC port outputs switched to GND
  ADC_PORT =  TXD_VAL;	//ADC-Ports to GND
    26c4:	c1 e0       	ldi	r28, 0x01	; 1
  ADC_DDR = 1<<TP1 | TXD_MSK;	//ADC-Pin  1 to output 0V
    26c6:	c7 b9       	out	0x07, r28	; 7
    26c8:	85 e1       	ldi	r24, 0x15	; 21
 #ifdef PULLUP_DISABLE
  R_PORT = (1<<PIN_RL1) | (1<<PIN_RL2) | (1<<PIN_RL3);		//R_L-PORTs to VCC
    26ca:	85 b9       	out	0x05, r24	; 5
    26cc:	c4 b9       	out	0x04, r28	; 4
 #else
  R_PORT = 1<<PIN_RL1;		//R_L-PORT 1 to VCC
 #endif
  R_DDR = 1<<PIN_RL1;		//Pin 1 to output and over R_L to VCC
    26ce:	80 e0       	ldi	r24, 0x00	; 0
  sum_rm = W5msReadADC(TP1);
    26d0:	0e 94 77 03 	call	0x6ee	; 0x6ee <W5msReadADC>
    26d4:	7c 01       	movw	r14, r24
    26d6:	12 e0       	ldi	r17, 0x02	; 2
// - - - - - - - 
  ADC_DDR = 1<<TP2 | TXD_MSK;	//ADC-Pin 2 to output 0V
    26d8:	17 b9       	out	0x07, r17	; 7
    26da:	84 e0       	ldi	r24, 0x04	; 4
 #ifndef PULLUP_DISABLE
  R_PORT =  1<<PIN_RL2;		//R_L-PORT 2 to VCC
 #endif
  R_DDR = 1<<PIN_RL2;		//Pin 2 to output and over R_L to VCC
    26dc:	98 2e       	mov	r9, r24
    26de:	94 b8       	out	0x04, r9	; 4
    26e0:	81 e0       	ldi	r24, 0x01	; 1
  sum_rm += W5msReadADC(TP2);
    26e2:	0e 94 77 03 	call	0x6ee	; 0x6ee <W5msReadADC>
    26e6:	e8 0e       	add	r14, r24
    26e8:	f9 1e       	adc	r15, r25
    26ea:	97 b8       	out	0x07, r9	; 7
// - - - - - - - 
  ADC_DDR = 1<<TP3 | TXD_MSK;	//ADC-Pin 3 to output 0V
    26ec:	90 e1       	ldi	r25, 0x10	; 16
 #ifndef PULLUP_DISABLE
  R_PORT =  1<<PIN_RL3;		//R_L-PORT 3 to VCC
 #endif
  R_DDR = 1<<PIN_RL3;		//Pin 3 to output and over R_L to VCC
    26ee:	89 2e       	mov	r8, r25
    26f0:	84 b8       	out	0x04, r8	; 4
    26f2:	82 e0       	ldi	r24, 0x02	; 2
  sum_rm += W5msReadADC(TP3);	//add all three values
    26f4:	0e 94 77 03 	call	0x6ee	; 0x6ee <W5msReadADC>
    26f8:	e8 0e       	add	r14, r24
    26fa:	f9 1e       	adc	r15, r25
    26fc:	15 b8       	out	0x05, r1	; 5
// - - - - - - - 

  // measurement of internal resistance of the ADC port output switched to VCC
  R_PORT = 0;			// R-Ports to GND
    26fe:	c8 b9       	out	0x08, r28	; 8
  ADC_PORT = 1<<TP1 | TXD_VAL;	//ADC-Port 1 to VCC
    2700:	c7 b9       	out	0x07, r28	; 7
  ADC_DDR = 1<<TP1 | TXD_MSK;	//ADC-Pin  1 to output 0V
    2702:	c4 b9       	out	0x04, r28	; 4
  R_DDR = 1<<PIN_RL1;		//Pin 1 to output and over R_L to GND
    2704:	c0 91 2b 01 	lds	r28, 0x012B
  sum_rp = ADCconfig.U_AVCC - W5msReadADC(TP1);
    2708:	d0 91 2c 01 	lds	r29, 0x012C
    270c:	80 e0       	ldi	r24, 0x00	; 0
    270e:	0e 94 77 03 	call	0x6ee	; 0x6ee <W5msReadADC>
    2712:	5c 01       	movw	r10, r24
    2714:	18 b9       	out	0x08, r17	; 8
// - - - - - - - 
      
  ADC_PORT = 1<<TP2 | TXD_VAL;	//ADC-Port 2 to VCC
    2716:	17 b9       	out	0x07, r17	; 7
  ADC_DDR = 1<<TP2 | TXD_MSK;	//ADC-Pin  2 to output 0V
    2718:	94 b8       	out	0x04, r9	; 4
  R_DDR = 1<<PIN_RL2;		//Pin 2 to output and over R_L to GND
    271a:	00 91 2b 01 	lds	r16, 0x012B
  sum_rp += ADCconfig.U_AVCC - W5msReadADC(TP2);
    271e:	10 91 2c 01 	lds	r17, 0x012C
    2722:	81 e0       	ldi	r24, 0x01	; 1
    2724:	0e 94 77 03 	call	0x6ee	; 0x6ee <W5msReadADC>
    2728:	6c 01       	movw	r12, r24
    272a:	98 b8       	out	0x08, r9	; 8
// - - - - - - - 

  ADC_PORT = 1<<TP3 | TXD_VAL;	//ADC-Port 3 to VCC
    272c:	97 b8       	out	0x07, r9	; 7
  ADC_DDR = 1<<TP3 | TXD_MSK;	//ADC-Pin  3 to output 0V
    272e:	84 b8       	out	0x04, r8	; 4
  R_DDR = 1<<PIN_RL3;		//Pin 3 to output and over R_L to GND
    2730:	80 90 2b 01 	lds	r8, 0x012B
  sum_rp += ADCconfig.U_AVCC - W5msReadADC(TP3);
    2734:	90 90 2c 01 	lds	r9, 0x012C
    2738:	82 e0       	ldi	r24, 0x02	; 2
    273a:	0e 94 77 03 	call	0x6ee	; 0x6ee <W5msReadADC>
    273e:	c0 0f       	add	r28, r16
  // measurement of internal resistance of the ADC port output switched to VCC
  R_PORT = 0;			// R-Ports to GND
  ADC_PORT = 1<<TP1 | TXD_VAL;	//ADC-Port 1 to VCC
  ADC_DDR = 1<<TP1 | TXD_MSK;	//ADC-Pin  1 to output 0V
  R_DDR = 1<<PIN_RL1;		//Pin 1 to output and over R_L to GND
  sum_rp = ADCconfig.U_AVCC - W5msReadADC(TP1);
    2740:	d1 1f       	adc	r29, r17
    2742:	c8 0d       	add	r28, r8
// - - - - - - - 
      
  ADC_PORT = 1<<TP2 | TXD_VAL;	//ADC-Port 2 to VCC
  ADC_DDR = 1<<TP2 | TXD_MSK;	//ADC-Pin  2 to output 0V
  R_DDR = 1<<PIN_RL2;		//Pin 2 to output and over R_L to GND
  sum_rp += ADCconfig.U_AVCC - W5msReadADC(TP2);
    2744:	d9 1d       	adc	r29, r9
    2746:	ca 19       	sub	r28, r10
    2748:	db 09       	sbc	r29, r11
    274a:	cc 19       	sub	r28, r12
// - - - - - - - 

  ADC_PORT = 1<<TP3 | TXD_VAL;	//ADC-Port 3 to VCC
  ADC_DDR = 1<<TP3 | TXD_MSK;	//ADC-Pin  3 to output 0V
  R_DDR = 1<<PIN_RL3;		//Pin 3 to output and over R_L to GND
  sum_rp += ADCconfig.U_AVCC - W5msReadADC(TP3);
    274c:	dd 09       	sbc	r29, r13
    274e:	c8 1b       	sub	r28, r24
    2750:	d9 0b       	sbc	r29, r25
    2752:	17 b8       	out	0x07, r1	; 7
// - - - - - - - 
  ADC_DDR =  TXD_MSK;	//ADC-Pins to input
    2754:	18 b8       	out	0x08, r1	; 8
  ADC_PORT =  TXD_VAL;	//ADC-Ports to GND
    2756:	14 b8       	out	0x04, r1	; 4
  R_DDR   = 0;
    2758:	80 91 2b 01 	lds	r24, 0x012B

  u680 = ((ADCconfig.U_AVCC * 3) - sum_rm - sum_rp);	//three times the voltage at the 680 Ohm
    275c:	90 91 2c 01 	lds	r25, 0x012C
    2760:	4c 01       	movw	r8, r24
    2762:	88 0c       	add	r8, r8
    2764:	99 1c       	adc	r9, r9
    2766:	88 0e       	add	r8, r24
    2768:	99 1e       	adc	r9, r25
    276a:	8e 18       	sub	r8, r14
    276c:	9f 08       	sbc	r9, r15
    276e:	8c 1a       	sub	r8, r28
    2770:	9d 0a       	sbc	r9, r29
    2772:	a1 2c       	mov	r10, r1
  pin_rmi = (unsigned long)((unsigned long)sum_rm * (unsigned long)R_L_VAL) / (unsigned long)u680;
    2774:	b1 2c       	mov	r11, r1
    2776:	97 01       	movw	r18, r14
    2778:	a0 e9       	ldi	r26, 0x90	; 144
    277a:	ba e1       	ldi	r27, 0x1A	; 26
    277c:	0e 94 2d 1e 	call	0x3c5a	; 0x3c5a <__umulhisi3>
    2780:	a5 01       	movw	r20, r10
    2782:	94 01       	movw	r18, r8
    2784:	0e 94 7b 1e 	call	0x3cf6	; 0x3cf6 <__udivmodsi4>
    2788:	69 01       	movw	r12, r18
    278a:	7a 01       	movw	r14, r20
    278c:	30 93 35 01 	sts	0x0135, r19
    2790:	20 93 34 01 	sts	0x0134, r18
    2794:	9e 01       	movw	r18, r28
//  adcmv[2] = pin_rm;	// for last output in row 2
  pin_rpl = (unsigned long)((unsigned long)sum_rp * (unsigned long)R_L_VAL) / (unsigned long)u680;
    2796:	a0 e9       	ldi	r26, 0x90	; 144
    2798:	ba e1       	ldi	r27, 0x1A	; 26
    279a:	0e 94 2d 1e 	call	0x3c5a	; 0x3c5a <__umulhisi3>
    279e:	a5 01       	movw	r20, r10
    27a0:	94 01       	movw	r18, r8
    27a2:	0e 94 7b 1e 	call	0x3cf6	; 0x3cf6 <__udivmodsi4>
    27a6:	30 93 2e 01 	sts	0x012E, r19
    27aa:	20 93 2d 01 	sts	0x012D, r18
    27ae:	20 57       	subi	r18, 0x70	; 112
  resis680pl = pin_rpl + R_L_VAL;
    27b0:	35 4e       	sbci	r19, 0xE5	; 229
    27b2:	30 93 18 01 	sts	0x0118, r19
    27b6:	20 93 17 01 	sts	0x0117, r18
    27ba:	80 e7       	ldi	r24, 0x70	; 112
  resis680mi = pin_rmi + R_L_VAL;
    27bc:	c8 1a       	sub	r12, r24
    27be:	85 ee       	ldi	r24, 0xE5	; 229
    27c0:	d8 0a       	sbc	r13, r24
    27c2:	d0 92 11 01 	sts	0x0111, r13
    27c6:	c0 92 10 01 	sts	0x0110, r12
    27ca:	89 e1       	ldi	r24, 0x19	; 25
#endif

  ADCconfig.Samples = ANZ_MESS;	// set to configured number of ADC samples
    27cc:	80 93 27 01 	sts	0x0127, r24
    27d0:	cd b7       	in	r28, 0x3d	; 61
 } 
    27d2:	de b7       	in	r29, 0x3e	; 62
    27d4:	ec e0       	ldi	r30, 0x0C	; 12
    27d6:	0c 94 db 1e 	jmp	0x3db6	; 0x3db6 <__epilogue_restores__+0xc>

000027da <show_resis>:
void show_resis(byte pin1, byte pin2, byte how)
// can be invoked both from main() and from show_Resis13()
// pin1 and pin2 are resistor's pin numbers, but ResistorList[0] should also be correctly filled
// assumes resistance has already been measured, but will do inductance measurements as appropriate
// "how" flag tells how to show the results: if set [R] or [RL] will be shown in top right corner
{
    27da:	0f 93       	push	r16
    27dc:	cf 93       	push	r28
    27de:	c6 2f       	mov	r28, r22
 #ifdef RMETER_WITH_L
           lcd_testpin(pin1);
    27e0:	0e 94 d5 00 	call	0x1aa	; 0x1aa <lcd_testpin>
           lcd_MEM_string(Resistor_str);	// -[==]-
    27e4:	80 e6       	ldi	r24, 0x60	; 96
    27e6:	90 e0       	ldi	r25, 0x00	; 0
    27e8:	0e 94 3a 01 	call	0x274	; 0x274 <lcd_fix_string>
           lcd_refresh();
	   ReadInductance();	// measure inductance, possible only with R<2.1k
    27ec:	c0 d0       	rcall	.+384    	; 0x296e <ReadInductance>
    27ee:	80 91 01 01 	lds	r24, 0x0101

           // draw first line: the pin numbers, RR and possibly LL symbol, and possibly [R] or [RL]
           byte lclx0=(lc_lx==0);
           if (inductor_lpre < 0 || !lclx0) 
  #else 
           if (inductor_lpre < 0)
    27f2:	87 ff       	sbrs	r24, 7
    27f4:	04 c0       	rjmp	.+8      	; 0x27fe <show_resis+0x24>
    27f6:	8c e5       	ldi	r24, 0x5C	; 92
  #endif

           {
              lcd_MEM_string(Inductor_str+1);            // "LL-"
    27f8:	90 e0       	ldi	r25, 0x00	; 0
    27fa:	0e 94 3a 01 	call	0x274	; 0x274 <lcd_fix_string>
    27fe:	8c 2f       	mov	r24, r28
           }
           lcd_testpin(pin2);
    2800:	0e 94 d5 00 	call	0x1aa	; 0x1aa <lcd_testpin>
    2804:	0e 94 8e 01 	call	0x31c	; 0x31c <lcd_clear_line>
              if (_lcd_column<=LCD_LINE_LENGTH-4) {
                 lcd_MEM_string(RL_METER_str+(_lcd_column-6));	// " [R]" or "[RL]"
              }
           }
  #else
           lcd_clear_line();
    2808:	80 e0       	ldi	r24, 0x00	; 0
  #endif
//           lcd_line2();
           lcd_next_line_wait(0);
    280a:	0e 94 b3 01 	call	0x366	; 0x366 <lcd_next_line_wait>
    280e:	80 91 50 01 	lds	r24, 0x0150
   #endif
           } else 
  #endif
           {
//              lcd_next_line_wait(0);
              RvalOut(ResistorList[0]);		// show Resistance, probably ESR
    2812:	0e 94 1b 02 	call	0x436	; 0x436 <RvalOut>
    2816:	80 91 01 01 	lds	r24, 0x0101

              if (inductor_lpre < -2) {
    281a:	8e 3f       	cpi	r24, 0xFE	; 254
    281c:	94 f4       	brge	.+36     	; 0x2842 <show_resis+0x68>
    281e:	88 e7       	ldi	r24, 0x78	; 120
                 // resistor has also inductance
                 lcd_MEM_string(Lis_str);		// "L="
    2820:	90 e0       	ldi	r25, 0x00	; 0
    2822:	0e 94 3a 01 	call	0x274	; 0x274 <lcd_fix_string>
    2826:	60 91 09 01 	lds	r22, 0x0109
                 DisplayValue(inductor_lx,inductor_lpre,'H',3);        // output classic inductance
    282a:	70 91 0a 01 	lds	r23, 0x010A
    282e:	80 91 0b 01 	lds	r24, 0x010B
    2832:	90 91 0c 01 	lds	r25, 0x010C
    2836:	03 e0       	ldi	r16, 0x03	; 3
    2838:	28 e4       	ldi	r18, 0x48	; 72
    283a:	40 91 01 01 	lds	r20, 0x0101
    283e:	0e 94 88 02 	call	0x510	; 0x510 <DisplayValue>
    2842:	cf 91       	pop	r28
 #else		/* without Inductance measurement, only show resistance */
           lcd_line2();
           inductor_lpre = -1;		// prevent ESR measurement because Inductance is not tested
           RvalOut(ResistorList[0]);	// show Resistance, no ESR
 #endif
}
    2844:	0f 91       	pop	r16
    2846:	08 95       	ret

00002848 <show_cap_simple>:
    2848:	0f 93       	push	r16
#if FLASHEND > 0x3fff
void show_cap(uint8_t how)
#else
void show_cap_simple(void)
#endif
{
    284a:	cf 93       	push	r28
    284c:	df 93       	push	r29
    284e:	0e 94 f0 00 	call	0x1e0	; 0x1e0 <lcd_line1>
//     lcd_MEM_string(Capacitor);
  lcd_line1();
    2852:	80 91 78 01 	lds	r24, 0x0178
  lcd_testpin(cap.ca);               //Pin number 1
    2856:	0e 94 d5 00 	call	0x1aa	; 0x1aa <lcd_testpin>
    285a:	84 e9       	ldi	r24, 0x94	; 148
  lcd_MEM_string(CapZeich);          // capacitor sign
    285c:	90 e0       	ldi	r25, 0x00	; 0
    285e:	0e 94 3a 01 	call	0x274	; 0x274 <lcd_fix_string>
    2862:	57 d4       	rcall	.+2222   	; 0x3112 <GetVloss>
#if FLASHEND > 0x1fff
  uint8_t present_res;	// true, if resistor symbol is shown in Row 1
  uint8_t present_esr;
  uint8_t present_vloss;
  GetVloss();              
    2864:	60 91 78 01 	lds	r22, 0x0178
  cap.esr = GetESR(cap.cb, cap.ca);          // get ESR of capacitor
    2868:	80 91 79 01 	lds	r24, 0x0179
    286c:	ab d2       	rcall	.+1366   	; 0x2dc4 <GetESR>
    286e:	90 93 75 01 	sts	0x0175, r25
    2872:	80 93 74 01 	sts	0x0174, r24
    2876:	d1 e0       	ldi	r29, 0x01	; 1
    2878:	8a 3f       	cpi	r24, 0xFA	; 250
    287a:	9f 4f       	sbci	r25, 0xFF	; 255

  present_esr = (cap.esr < 65530);
    287c:	08 f0       	brcs	.+2      	; 0x2880 <show_cap_simple+0x38>
    287e:	d0 e0       	ldi	r29, 0x00	; 0
    2880:	c1 e0       	ldi	r28, 0x01	; 1
    2882:	80 91 76 01 	lds	r24, 0x0176
  present_vloss = (cap.v_loss != 0);
    2886:	90 91 77 01 	lds	r25, 0x0177
    288a:	89 2b       	or	r24, r25
    288c:	09 f4       	brne	.+2      	; 0x2890 <show_cap_simple+0x48>
    288e:	c0 e0       	ldi	r28, 0x00	; 0
    2890:	dd 23       	and	r29, r29
    2892:	31 f0       	breq	.+12     	; 0x28a0 <show_cap_simple+0x58>
    2894:	c1 11       	cpse	r28, r1
  present_res = present_esr; // show every time a well ESR value is detected, Vloss extra line
 #else
  #if FLASHEND > 0x3fff
  present_res = (present_esr  && (!present_vloss || how));
  #else
  present_res = (present_esr  && (!present_vloss));
    2896:	04 c0       	rjmp	.+8      	; 0x28a0 <show_cap_simple+0x58>
    2898:	81 e6       	ldi	r24, 0x61	; 97
  #endif
  // show Vloss additionally in line 2 , or no Vloss
 #endif
  if (present_res)
    289a:	90 e0       	ldi	r25, 0x00	; 0
    289c:	0e 94 3a 01 	call	0x274	; 0x274 <lcd_fix_string>
  {
     lcd_MEM_string(Resistor_str+1);   // [=]-
    28a0:	80 91 79 01 	lds	r24, 0x0179
    28a4:	0e 94 d5 00 	call	0x1aa	; 0x1aa <lcd_testpin>
  }
#endif   /* FLASHEND > 0x1fff */
  lcd_testpin(cap.cb);               //Pin number 2
    28a8:	80 91 76 01 	lds	r24, 0x0176
    28ac:	90 91 77 01 	lds	r25, 0x0177
     lcd_MEM2_string(CMETER_13_str);       // "[C]" at the end of line 1
  } else {
 #endif  /* FLASHENF > 0x3fff */

 #if (LCD_LINES <= 2) /* Vloss in line 1 */
     if (cap.v_loss != 0) {
    28b0:	89 2b       	or	r24, r25
    28b2:	69 f0       	breq	.+26     	; 0x28ce <show_cap_simple+0x86>
    28b4:	8b e7       	ldi	r24, 0x7B	; 123
    28b6:	90 e0       	ldi	r25, 0x00	; 0
    28b8:	0e 94 3a 01 	call	0x274	; 0x274 <lcd_fix_string>
        lcd_MEM_string(VLOSS_str);      // " Vloss=" 
    28bc:	22 e0       	ldi	r18, 0x02	; 2
    28be:	45 e2       	ldi	r20, 0x25	; 37
    28c0:	6f ef       	ldi	r22, 0xFF	; 255
        DisplayValue16(cap.v_loss,-1,'%',2);
    28c2:	80 91 76 01 	lds	r24, 0x0176
    28c6:	90 91 77 01 	lds	r25, 0x0177
    28ca:	0e 94 3a 03 	call	0x674	; 0x674 <DisplayValue16>
    28ce:	0e 94 8e 01 	call	0x31c	; 0x31c <lcd_clear_line>
    28d2:	0e 94 f7 00 	call	0x1ee	; 0x1ee <lcd_line2>
     }
 #endif
     lcd_clear_line();		// clear to end of line
    28d6:	60 91 6c 01 	lds	r22, 0x016C
#else
  lcd_clear_line();		// clear to end of line
#endif  /* FLASHEND > 0x1fff */

// - - - - - - - - - - - - - - - - - - - - - -
  lcd_line2();                       //2. row 
    28da:	70 91 6d 01 	lds	r23, 0x016D
  DisplayValue(cap.cval_max,cap.cpre_max,'F',4);
    28de:	80 91 6e 01 	lds	r24, 0x016E
    28e2:	90 91 6f 01 	lds	r25, 0x016F
    28e6:	04 e0       	ldi	r16, 0x04	; 4
    28e8:	26 e4       	ldi	r18, 0x46	; 70
    28ea:	40 91 7b 01 	lds	r20, 0x017B
    28ee:	0e 94 88 02 	call	0x510	; 0x510 <DisplayValue>
    28f2:	dd 23       	and	r29, r29
    28f4:	69 f0       	breq	.+26     	; 0x2910 <show_cap_simple+0xc8>
    28f6:	83 e8       	ldi	r24, 0x83	; 131

#if FLASHEND > 0x1fff
  if (present_esr) {
    28f8:	90 e0       	ldi	r25, 0x00	; 0
    28fa:	0e 94 3a 01 	call	0x274	; 0x274 <lcd_fix_string>
     lcd_MEM_string(ESR_str);        // " ESR="
    28fe:	22 e0       	ldi	r18, 0x02	; 2
    2900:	44 ef       	ldi	r20, 0xF4	; 244
    2902:	6e ef       	ldi	r22, 0xFE	; 254
     DisplayValue16(cap.esr,-2,LCD_CHAR_OMEGA,2);
    2904:	80 91 74 01 	lds	r24, 0x0174
    2908:	90 91 75 01 	lds	r25, 0x0175
    290c:	0e 94 3a 03 	call	0x674	; 0x674 <DisplayValue16>
    2910:	0e 94 8e 01 	call	0x31c	; 0x31c <lcd_clear_line>
    2914:	cc 23       	and	r28, r28
  }
  lcd_clear_line();
    2916:	91 f0       	breq	.+36     	; 0x293c <show_cap_simple+0xf4>
    2918:	80 e0       	ldi	r24, 0x00	; 0
     lcd_clear_line();
 #else  /* only two lines */
  #if FLASHEND > 0x3fff
  if (how && present_vloss)
  #else
  if (present_vloss)
    291a:	0e 94 b3 01 	call	0x366	; 0x366 <lcd_next_line_wait>
  #endif
  {
     lcd_next_line_wait(0);		// show vloss after waiting
    291e:	8c e7       	ldi	r24, 0x7C	; 124
    2920:	90 e0       	ldi	r25, 0x00	; 0
    2922:	0e 94 3a 01 	call	0x274	; 0x274 <lcd_fix_string>
     lcd_MEM_string(&VLOSS_str[1]);      // "Vloss=" 
    2926:	22 e0       	ldi	r18, 0x02	; 2
    2928:	45 e2       	ldi	r20, 0x25	; 37
    292a:	6f ef       	ldi	r22, 0xFF	; 255
     DisplayValue16(cap.v_loss,-1,'%',2);
    292c:	80 91 76 01 	lds	r24, 0x0176
    2930:	90 91 77 01 	lds	r25, 0x0177
    2934:	0e 94 3a 03 	call	0x674	; 0x674 <DisplayValue16>
    2938:	0e 94 8e 01 	call	0x31c	; 0x31c <lcd_clear_line>
    293c:	df 91       	pop	r29
     lcd_clear_line();		// clear to end of line
    293e:	cf 91       	pop	r28
    2940:	0f 91       	pop	r16
  }
 #endif
#else
  lcd_clear_line();
#endif  /* FLASHEND > 0x1fff */
} /* end show_cap or show_cap_simple */
    2942:	08 95       	ret

00002944 <Bat_update>:
    2944:	8f 70       	andi	r24, 0x0F	; 15
    2946:	41 f4       	brne	.+16     	; 0x2958 <Bat_update+0x14>
    2948:	0e 94 54 03 	call	0x6a8	; 0x6a8 <wait1000ms>
#endif  /* FLASHEND > 0x3fff */

#if defined(POWER_OFF) && defined(BAT_CHECK)
// monitor Battery in line 4 or line2, if a two line display 
void Bat_update(uint8_t tt) {
  if((tt % 16) == 0) {
    294c:	0e 94 f7 00 	call	0x1ee	; 0x1ee <lcd_line2>
 #if (LCD_LINES > 3)
     lcd_line4();
     Battery_check();
 #else
     wait_about1s();	/* time delay before overwiting line2 with Bat= message */
    2950:	0e 94 a9 07 	call	0xf52	; 0xf52 <Battery_check>
  #if (LCD_LINES == 3)
     lcd_line3();	// use the last line for Bat=
  #else
     lcd_line2();	// use the last line for Bat=
    2954:	0c 94 53 03 	jmp	0x6a6	; 0x6a6 <wait2s>
  #endif
     Battery_check();
    2958:	08 95       	ret

0000295a <Pwr_mode_check>:
     wait_about2s();	/* time delay for reading the Bat= message */
    295a:	8f 30       	cpi	r24, 0x0F	; 15
    295c:	21 f4       	brne	.+8      	; 0x2966 <Pwr_mode_check+0xc>
    295e:	90 91 31 01 	lds	r25, 0x0131
};	/* end Bat_update() */
#endif
#if defined(POWER_OFF)
uint8_t Pwr_mode_check(uint8_t tt) {
 #if FLASHEND > 0x1fff
 if ((tt == 15) && (DC_Pwr_mode == 1)) return(0);  // when DC_Mode, next cycle start with 0
    2962:	91 30       	cpi	r25, 0x01	; 1
    2964:	11 f0       	breq	.+4      	; 0x296a <Pwr_mode_check+0x10>
    2966:	8f 5f       	subi	r24, 0xFF	; 255
    2968:	08 95       	ret
    296a:	80 e0       	ldi	r24, 0x00	; 0
 #else
 if (tt == 15)  return(0);  // when DC_Mode, next cycle start with 0
 #endif
 return(tt + 1);	// otherwise increase
    296c:	08 95       	ret

0000296e <ReadInductance>:
#include <stdlib.h>
#include "Transistortester.h"


//=================================================================
void ReadInductance(void) {
    296e:	a3 e1       	ldi	r26, 0x13	; 19
    2970:	b0 e0       	ldi	r27, 0x00	; 0
    2972:	ed eb       	ldi	r30, 0xBD	; 189
    2974:	f4 e1       	ldi	r31, 0x14	; 20
    2976:	0c 94 b9 1e 	jmp	0x3d72	; 0x3d72 <__prologue_saves__>
  uint16_t pw;		// return value from Rnum2pins()
  uint8_t pb[2];	// the pin numbers LowPin and HighPin
  } rpins;	// resistor pin structure to prevent two return parameters


  inductor_lpre = 2;	// H units, mark inductor as 1, if resistor is too big
    297a:	82 e0       	ldi	r24, 0x02	; 2
    297c:	80 93 01 01 	sts	0x0101, r24
  if(PartFound != PART_RESISTOR) {
    2980:	80 91 16 01 	lds	r24, 0x0116
    2984:	81 30       	cpi	r24, 0x01	; 1
    2986:	09 f0       	breq	.+2      	; 0x298a <ReadInductance+0x1c>
    2988:	1a c2       	rjmp	.+1076   	; 0x2dbe <ReadInductance+0x450>
     return;	//We have found no resistor  
  }
  if (ResistorsFound != 1) {
    298a:	80 91 65 01 	lds	r24, 0x0165
    298e:	81 30       	cpi	r24, 0x01	; 1
    2990:	09 f0       	breq	.+2      	; 0x2994 <ReadInductance+0x26>
    2992:	15 c2       	rjmp	.+1066   	; 0x2dbe <ReadInductance+0x450>
     return;	// do not search for inductance, more than 1 resistor
  }
     res_num = ResistorList[0];
    2994:	20 90 50 01 	lds	r2, 0x0150
     if (ResistorVal[res_num] > 21000) return;
    2998:	24 e0       	ldi	r18, 0x04	; 4
    299a:	22 9e       	mul	r2, r18
    299c:	f0 01       	movw	r30, r0
    299e:	11 24       	eor	r1, r1
    29a0:	e9 56       	subi	r30, 0x69	; 105
    29a2:	fe 4f       	sbci	r31, 0xFE	; 254
    29a4:	80 81       	ld	r24, Z
    29a6:	91 81       	ldd	r25, Z+1	; 0x01
    29a8:	a2 81       	ldd	r26, Z+2	; 0x02
    29aa:	b3 81       	ldd	r27, Z+3	; 0x03
    29ac:	89 30       	cpi	r24, 0x09	; 9
    29ae:	32 e5       	ldi	r19, 0x52	; 82
    29b0:	93 07       	cpc	r25, r19
    29b2:	a1 05       	cpc	r26, r1
    29b4:	b1 05       	cpc	r27, r1
    29b6:	08 f0       	brcs	.+2      	; 0x29ba <ReadInductance+0x4c>
    29b8:	02 c2       	rjmp	.+1028   	; 0x2dbe <ReadInductance+0x450>
     resistor = ResistorVal[res_num];
    29ba:	9b 8b       	std	Y+19, r25	; 0x13
    29bc:	8a 8b       	std	Y+18, r24	; 0x12

     // we can check for Inductance, if resistance is below 2100 Ohm
     for (count=0;count<4;count++) {
    29be:	31 2c       	mov	r3, r1
        // Try four times (different direction and with delayed counter start)
        if (count < 2) {
    29c0:	61 e0       	ldi	r22, 0x01	; 1
           // first and second pass, direction 1
           rpins.pw = Rnum2pins(res_num);	// compute the two pinnumbers for resistor res_num
    29c2:	82 2d       	mov	r24, r2
     resistor = ResistorVal[res_num];

     // we can check for Inductance, if resistance is below 2100 Ohm
     for (count=0;count<4;count++) {
        // Try four times (different direction and with delayed counter start)
        if (count < 2) {
    29c4:	63 15       	cp	r22, r3
    29c6:	28 f0       	brcs	.+10     	; 0x29d2 <ReadInductance+0x64>
           // first and second pass, direction 1
           rpins.pw = Rnum2pins(res_num);	// compute the two pinnumbers for resistor res_num
    29c8:	0e 94 11 02 	call	0x422	; 0x422 <Rnum2pins>
    29cc:	b8 2e       	mov	r11, r24
    29ce:	a9 2e       	mov	r10, r25
    29d0:	03 c0       	rjmp	.+6      	; 0x29d8 <ReadInductance+0x6a>
        } else {
           // third and fourth pass, direction 2
           rpins.pw = Rnum2pins(res_num);	// compute the two pinnumbers for resistor res_num
    29d2:	0e 94 11 02 	call	0x422	; 0x422 <Rnum2pins>
           ii = rpins.pb[0];
           rpins.pb[0] = rpins.pb[1];		// swap the pins LowPin and HighPin
           rpins.pb[1] = ii;
    29d6:	5c 01       	movw	r10, r24
        }
#if (((PIN_RL1 + 1) != PIN_RH1) || ((PIN_RL2 + 1) != PIN_RH2) || ((PIN_RL3 + 1) != PIN_RH3))
        HiADC = pgm_read_byte((&PinRLRHADCtab[6])+rpins.pb[1]-TP1);	// Table of ADC Pins including | TXD_VAL
#else
        HiADC = pgm_read_byte((&PinRLRHADCtab[3])+rpins.pb[1]-TP1);	// Table of ADC Pins including | TXD_VAL
    29d8:	ea 2d       	mov	r30, r10
    29da:	f0 e0       	ldi	r31, 0x00	; 0
    29dc:	ef 57       	subi	r30, 0x7F	; 127
    29de:	ff 4f       	sbci	r31, 0xFF	; 255
    29e0:	74 90       	lpm	r7, Z
#endif
        LoPinR_L = pgm_read_byte(&PinRLRHADCtab[rpins.pb[0]]-TP1);	//R_L mask for HighPin R_L load
    29e2:	8b 2d       	mov	r24, r11
    29e4:	90 e0       	ldi	r25, 0x00	; 0
    29e6:	fc 01       	movw	r30, r24
    29e8:	e2 58       	subi	r30, 0x82	; 130
    29ea:	ff 4f       	sbci	r31, 0xFF	; 255
    29ec:	e4 91       	lpm	r30, Z
        //==================================================================================
        // Measurement of Inductance values
        R_PORT = 0;		// switch R port to GND
    29ee:	15 b8       	out	0x05, r1	; 5
        ADC_PORT =   TXD_VAL;		// switch ADC-Port to GND
    29f0:	18 b8       	out	0x08, r1	; 8
        if ((resistor < 240) && ((count & 0x01) == 0)) {
    29f2:	2a 89       	ldd	r18, Y+18	; 0x12
    29f4:	3b 89       	ldd	r19, Y+19	; 0x13
    29f6:	20 3f       	cpi	r18, 0xF0	; 240
    29f8:	31 05       	cpc	r19, r1
    29fa:	a0 f4       	brcc	.+40     	; 0x2a24 <ReadInductance+0xb6>
    29fc:	30 fc       	sbrc	r3, 0
    29fe:	12 c0       	rjmp	.+36     	; 0x2a24 <ReadInductance+0xb6>
           // we can use PinR_L for measurement
           mess_r = RR680MI - R_L_VAL;			// use only pin output resistance
    2a00:	00 91 10 01 	lds	r16, 0x0110
    2a04:	10 91 11 01 	lds	r17, 0x0111
    2a08:	00 59       	subi	r16, 0x90	; 144
    2a0a:	1a 41       	sbci	r17, 0x1A	; 26
           ADC_DDR = HiADC | (1<<rpins.pb[0]) | TXD_MSK;	// switch HiADC and Low Pin to GND, 
    2a0c:	21 e0       	ldi	r18, 0x01	; 1
    2a0e:	30 e0       	ldi	r19, 0x00	; 0
    2a10:	0b 2c       	mov	r0, r11
    2a12:	02 c0       	rjmp	.+4      	; 0x2a18 <ReadInductance+0xaa>
    2a14:	22 0f       	add	r18, r18
    2a16:	33 1f       	adc	r19, r19
    2a18:	0a 94       	dec	r0
    2a1a:	e2 f7       	brpl	.-8      	; 0x2a14 <ReadInductance+0xa6>
    2a1c:	c9 01       	movw	r24, r18
    2a1e:	87 29       	or	r24, r7
    2a20:	87 b9       	out	0x07, r24	; 7
    2a22:	06 c0       	rjmp	.+12     	; 0x2a30 <ReadInductance+0xc2>
        } else {
           R_DDR = LoPinR_L;   		// switch R_L resistor port for LowPin to output (GND)
    2a24:	e4 b9       	out	0x04, r30	; 4
           ADC_DDR = HiADC | TXD_MSK;	// switch HiADC Pin to GND 
    2a26:	77 b8       	out	0x07, r7	; 7
           mess_r = RR680MI;			// use 680 Ohm and PinR_L for current measurement
    2a28:	00 91 10 01 	lds	r16, 0x0110
    2a2c:	10 91 11 01 	lds	r17, 0x0111
     res_num = ResistorList[0];
     if (ResistorVal[res_num] > 21000) return;
     resistor = ResistorVal[res_num];

     // we can check for Inductance, if resistance is below 2100 Ohm
     for (count=0;count<4;count++) {
    2a30:	44 e1       	ldi	r20, 0x14	; 20
    2a32:	64 2e       	mov	r6, r20
           mess_r = RR680MI;			// use 680 Ohm and PinR_L for current measurement
        }
        // Look, if we can detect any current
        for (ii=0;ii<20;ii++) {
            // wait for current is near zero
            umax = W10msReadADC(rpins.pb[0]);
    2a34:	8b 2d       	mov	r24, r11
    2a36:	0e 94 76 03 	call	0x6ec	; 0x6ec <W10msReadADC>
    2a3a:	4c 01       	movw	r8, r24
            total_r =  ReadADC(rpins.pb[1]);
    2a3c:	8a 2d       	mov	r24, r10
    2a3e:	0e 94 78 03 	call	0x6f0	; 0x6f0 <ReadADC>
            if ((umax < CAP_EMPTY_LEVEL) && (total_r < CAP_EMPTY_LEVEL)) break;	// low current detected
    2a42:	34 e0       	ldi	r19, 0x04	; 4
    2a44:	83 16       	cp	r8, r19
    2a46:	91 04       	cpc	r9, r1
    2a48:	10 f4       	brcc	.+4      	; 0x2a4e <ReadInductance+0xe0>
    2a4a:	04 97       	sbiw	r24, 0x04	; 4
    2a4c:	10 f0       	brcs	.+4      	; 0x2a52 <ReadInductance+0xe4>
    2a4e:	6a 94       	dec	r6
           R_DDR = LoPinR_L;   		// switch R_L resistor port for LowPin to output (GND)
           ADC_DDR = HiADC | TXD_MSK;	// switch HiADC Pin to GND 
           mess_r = RR680MI;			// use 680 Ohm and PinR_L for current measurement
        }
        // Look, if we can detect any current
        for (ii=0;ii<20;ii++) {
    2a50:	89 f7       	brne	.-30     	; 0x2a34 <ReadInductance+0xc6>
            umax = W10msReadADC(rpins.pb[0]);
            total_r =  ReadADC(rpins.pb[1]);
            if ((umax < CAP_EMPTY_LEVEL) && (total_r < CAP_EMPTY_LEVEL)) break;	// low current detected
        }
        // setup Analog Comparator
        ADC_COMP_CONTROL = (1<<ACME);			//enable Analog Comparator Multiplexer
    2a52:	60 e4       	ldi	r22, 0x40	; 64
    2a54:	60 93 7b 00 	sts	0x007B, r22
        ACSR =  (1<<ACBG) | (1<<ACI)  | (1<<ACIC);	// enable, 1.3V, no Interrupt, Connect to Timer1 
    2a58:	84 e5       	ldi	r24, 0x54	; 84
    2a5a:	80 bf       	out	0x30, r24	; 48
        ADMUX = (1<<REFS0) | rpins.pb[0];			// switch Mux to Low-Pin
    2a5c:	8b 2d       	mov	r24, r11
    2a5e:	80 64       	ori	r24, 0x40	; 64
    2a60:	80 93 7c 00 	sts	0x007C, r24
        ADCSRA = (1<<ADIF) | AUTO_CLOCK_DIV; //disable ADC
    2a64:	96 e1       	ldi	r25, 0x16	; 22
    2a66:	90 93 7a 00 	sts	0x007A, r25
   
      // setup Counter1
        timeconstant.w[1] = 0;		// set ov counter to 0
    2a6a:	e1 2c       	mov	r14, r1
    2a6c:	f1 2c       	mov	r15, r1
        TCCR1A = 0;			// set Counter1 to normal Mode
    2a6e:	10 92 80 00 	sts	0x0080, r1
        TCNT1 = 0;			//set Counter to 0
    2a72:	10 92 85 00 	sts	0x0085, r1
    2a76:	10 92 84 00 	sts	0x0084, r1
        TI1_INT_FLAGS = (1<<ICF1) | (1<<OCF1B) | (1<<OCF1A) | (1<<TOV1);	// reset TIFR or TIFR1
    2a7a:	87 e2       	ldi	r24, 0x27	; 39
    2a7c:	86 bb       	out	0x16, r24	; 22
//        HiADC |= TXD_VAL;
        wait200us();			// wait for bandgap to start up
    2a7e:	0e 94 68 03 	call	0x6d0	; 0x6d0 <wait200us>
        if ((count & 0x01) == 0 ) {
    2a82:	23 2d       	mov	r18, r3
    2a84:	21 70       	andi	r18, 0x01	; 1
    2a86:	29 8b       	std	Y+17, r18	; 0x11
    2a88:	30 fc       	sbrc	r3, 0
    2a8a:	05 c0       	rjmp	.+10     	; 0x2a96 <ReadInductance+0x128>
           //first start counter, then start current
           TCCR1B =  (1<<ICNC1) | (0<<ICES1) | (1<<CS10);	//start counter 1MHz or 8MHz
    2a8c:	81 e8       	ldi	r24, 0x81	; 129
    2a8e:	80 93 81 00 	sts	0x0081, r24
           ADC_PORT = HiADC;		// switch ADC-Port to VCC
    2a92:	78 b8       	out	0x08, r7	; 8
    2a94:	08 c0       	rjmp	.+16     	; 0x2aa6 <ReadInductance+0x138>
        } else {
           //first start current, then start counter with delay
           //parasitic capacity of coil can cause high current at the beginning
           ADC_PORT = HiADC;		// switch ADC-Port to VCC
    2a96:	78 b8       	out	0x08, r7	; 8
      #if F_CPU >= 8000000UL
           wait3us();		// ignore current peak from capacity
    2a98:	0e 94 71 03 	call	0x6e2	; 0x6e2 <wait3us>
      #else
           wdt_reset();			// delay
           wdt_reset();			// delay
      #endif
           TI1_INT_FLAGS = (1<<ICF1);	// Reset Input Capture
    2a9c:	80 e2       	ldi	r24, 0x20	; 32
    2a9e:	86 bb       	out	0x16, r24	; 22
           TCCR1B =  (1<<ICNC1) | (0<<ICES1) | (1<<CS10);	//start counter 1MHz or 8MHz
    2aa0:	81 e8       	ldi	r24, 0x81	; 129
    2aa2:	80 93 81 00 	sts	0x0081, r24
        }
      
      //******************************
        while(1) {
           // Wait, until  Input Capture is set
           ii = TI1_INT_FLAGS;		//read Timer flags
    2aa6:	46 b3       	in	r20, 0x16	; 22
           if (ii & (1<<ICF1))  {
    2aa8:	45 ff       	sbrs	r20, 5
    2aaa:	12 c0       	rjmp	.+36     	; 0x2ad0 <ReadInductance+0x162>
              if(timeconstant.w[1] == (F_CPU/100000UL)) {
                 break; 	//Timeout for Charging, above 0.65 s
              }
           }
        }
        ADC_PORT = TXD_VAL;		// switch ADC-Port to GND
    2aac:	18 b8       	out	0x08, r1	; 8
        TCCR1B = (0<<ICNC1) | (0<<ICES1) | (0<<CS10);  // stop counter
    2aae:	10 92 81 00 	sts	0x0081, r1
        TI1_INT_FLAGS = (1<<ICF1);			// Reset Input Capture
    2ab2:	80 e2       	ldi	r24, 0x20	; 32
    2ab4:	86 bb       	out	0x16, r24	; 22
        timeconstant.w[0] = ICR1;		// get previous Input Capture Counter flag
    2ab6:	80 91 86 00 	lds	r24, 0x0086
    2aba:	90 91 87 00 	lds	r25, 0x0087
    2abe:	6c 01       	movw	r12, r24
      // check actual counter, if an additional overflow must be added
        if((TCNT1 > timeconstant.w[0]) && (ii & (1<<TOV1))) {
    2ac0:	20 91 84 00 	lds	r18, 0x0084
    2ac4:	30 91 85 00 	lds	r19, 0x0085
    2ac8:	82 17       	cp	r24, r18
    2aca:	93 07       	cpc	r25, r19
    2acc:	68 f0       	brcs	.+26     	; 0x2ae8 <ReadInductance+0x17a>
    2ace:	13 c0       	rjmp	.+38     	; 0x2af6 <ReadInductance+0x188>
           // Wait, until  Input Capture is set
           ii = TI1_INT_FLAGS;		//read Timer flags
           if (ii & (1<<ICF1))  {
              break;
           }
           if((ii & (1<<TOV1))) {		// counter overflow, 65.536 ms @ 1MHz, 8.192ms @ 8MHz
    2ad0:	40 ff       	sbrs	r20, 0
    2ad2:	e9 cf       	rjmp	.-46     	; 0x2aa6 <ReadInductance+0x138>
              TI1_INT_FLAGS = (1<<TOV1);	// Reset OV Flag
    2ad4:	31 e0       	ldi	r19, 0x01	; 1
    2ad6:	36 bb       	out	0x16, r19	; 22
              wdt_reset();
    2ad8:	a8 95       	wdr
              timeconstant.w[1]++;		// count one OV
    2ada:	c7 01       	movw	r24, r14
    2adc:	01 96       	adiw	r24, 0x01	; 1
    2ade:	7c 01       	movw	r14, r24
              if(timeconstant.w[1] == (F_CPU/100000UL)) {
    2ae0:	80 35       	cpi	r24, 0x50	; 80
    2ae2:	91 05       	cpc	r25, r1
    2ae4:	01 f7       	brne	.-64     	; 0x2aa6 <ReadInductance+0x138>
    2ae6:	e2 cf       	rjmp	.-60     	; 0x2aac <ReadInductance+0x13e>
        ADC_PORT = TXD_VAL;		// switch ADC-Port to GND
        TCCR1B = (0<<ICNC1) | (0<<ICES1) | (0<<CS10);  // stop counter
        TI1_INT_FLAGS = (1<<ICF1);			// Reset Input Capture
        timeconstant.w[0] = ICR1;		// get previous Input Capture Counter flag
      // check actual counter, if an additional overflow must be added
        if((TCNT1 > timeconstant.w[0]) && (ii & (1<<TOV1))) {
    2ae8:	40 ff       	sbrs	r20, 0
    2aea:	05 c0       	rjmp	.+10     	; 0x2af6 <ReadInductance+0x188>
           // this OV was not counted, but was before the Input Capture
           TI1_INT_FLAGS = (1<<TOV1);		// Reset OV Flag
    2aec:	61 e0       	ldi	r22, 0x01	; 1
    2aee:	66 bb       	out	0x16, r22	; 22
           timeconstant.w[1]++;			// count one additional OV
    2af0:	8f ef       	ldi	r24, 0xFF	; 255
    2af2:	e8 1a       	sub	r14, r24
    2af4:	f8 0a       	sbc	r15, r24
        }

//        ADC_PORT = TXD_VAL;		// switch ADC-Port to GND
        ADCSRA = (1<<ADEN) | (1<<ADIF) | AUTO_CLOCK_DIV; //enable ADC
    2af6:	86 e9       	ldi	r24, 0x96	; 150
    2af8:	80 93 7a 00 	sts	0x007A, r24
    2afc:	34 e1       	ldi	r19, 0x14	; 20
    2afe:	73 2e       	mov	r7, r19
        for (ii=0;ii<20;ii++) {
            // wait for current is near zero
            umax = W10msReadADC(rpins.pb[0]);
    2b00:	8b 2d       	mov	r24, r11
    2b02:	0e 94 76 03 	call	0x6ec	; 0x6ec <W10msReadADC>
    2b06:	4c 01       	movw	r8, r24
            total_r =  ReadADC(rpins.pb[1]);
    2b08:	8a 2d       	mov	r24, r10
    2b0a:	0e 94 78 03 	call	0x6f0	; 0x6f0 <ReadADC>
            if ((umax < CAP_EMPTY_LEVEL) && (total_r < CAP_EMPTY_LEVEL)) break;	// low current detected
    2b0e:	24 e0       	ldi	r18, 0x04	; 4
    2b10:	82 16       	cp	r8, r18
    2b12:	91 04       	cpc	r9, r1
    2b14:	10 f4       	brcc	.+4      	; 0x2b1a <ReadInductance+0x1ac>
    2b16:	04 97       	sbiw	r24, 0x04	; 4
    2b18:	10 f0       	brcs	.+4      	; 0x2b1e <ReadInductance+0x1b0>
    2b1a:	7a 94       	dec	r7
           timeconstant.w[1]++;			// count one additional OV
        }

//        ADC_PORT = TXD_VAL;		// switch ADC-Port to GND
        ADCSRA = (1<<ADEN) | (1<<ADIF) | AUTO_CLOCK_DIV; //enable ADC
        for (ii=0;ii<20;ii++) {
    2b1c:	89 f7       	brne	.-30     	; 0x2b00 <ReadInductance+0x192>
//  #undef CNT_ZERO_42
//  #undef CNT_ZERO_720
//  #define CNT_ZERO_42 7
//  #define CNT_ZERO_720 10
//#endif
        total_r = (mess_r + resistor + RRpinMI);
    2b1e:	80 90 34 01 	lds	r8, 0x0134
    2b22:	90 90 35 01 	lds	r9, 0x0135
    2b26:	8a 89       	ldd	r24, Y+18	; 0x12
    2b28:	9b 89       	ldd	r25, Y+19	; 0x13
    2b2a:	88 0e       	add	r8, r24
    2b2c:	99 1e       	adc	r9, r25
    2b2e:	80 0e       	add	r8, r16
    2b30:	91 1e       	adc	r9, r17
//        cnt_diff = 0;
//        if (total_r > 7000) cnt_diff = 1;
//        if (total_r > 14000) cnt_diff = 2;
        cnt_diff = total_r / ((14000UL * 8) / (F_CPU/1000000UL));
        tmpint = ref_mv_offs;		// corrected reference voltage (for C)
    2b32:	20 91 12 01 	lds	r18, 0x0112
    2b36:	30 91 13 01 	lds	r19, 0x0113
        if (mess_r < R_L_VAL) {
    2b3a:	00 39       	cpi	r16, 0x90	; 144
    2b3c:	9a e1       	ldi	r25, 0x1A	; 26
    2b3e:	19 07       	cpc	r17, r25
    2b40:	b0 f4       	brcc	.+44     	; 0x2b6e <ReadInductance+0x200>
           // measurement without 680 Ohm
           cnt_diff = CNT_ZERO_42;
           if (timeconstant.dw < 225) {
    2b42:	61 ee       	ldi	r22, 0xE1	; 225
    2b44:	c6 16       	cp	r12, r22
    2b46:	d1 04       	cpc	r13, r1
    2b48:	e1 04       	cpc	r14, r1
    2b4a:	f1 04       	cpc	r15, r1
    2b4c:	38 f4       	brcc	.+14     	; 0x2b5c <ReadInductance+0x1ee>
              ukorr = (timeconstant.w[0] / 5) - 20;
    2b4e:	c6 01       	movw	r24, r12
    2b50:	65 e0       	ldi	r22, 0x05	; 5
    2b52:	70 e0       	ldi	r23, 0x00	; 0
    2b54:	0e 94 67 1e 	call	0x3cce	; 0x3cce <__udivmodhi4>
    2b58:	64 51       	subi	r22, 0x14	; 20
    2b5a:	01 c0       	rjmp	.+2      	; 0x2b5e <ReadInductance+0x1f0>
           } else {
              ukorr = 25;
    2b5c:	69 e1       	ldi	r22, 0x19	; 25
           }
           tmpint -= (((REF_L_KORR * 10) / 10) + ukorr);
    2b5e:	28 52       	subi	r18, 0x28	; 40
    2b60:	31 09       	sbc	r19, r1
    2b62:	26 1b       	sub	r18, r22
    2b64:	31 09       	sbc	r19, r1
    2b66:	67 fd       	sbrc	r22, 7
    2b68:	33 95       	inc	r19
//        if (total_r > 14000) cnt_diff = 2;
        cnt_diff = total_r / ((14000UL * 8) / (F_CPU/1000000UL));
        tmpint = ref_mv_offs;		// corrected reference voltage (for C)
        if (mess_r < R_L_VAL) {
           // measurement without 680 Ohm
           cnt_diff = CNT_ZERO_42;
    2b6a:	86 e0       	ldi	r24, 0x06	; 6
    2b6c:	09 c0       	rjmp	.+18     	; 0x2b80 <ReadInductance+0x212>
//#endif
        total_r = (mess_r + resistor + RRpinMI);
//        cnt_diff = 0;
//        if (total_r > 7000) cnt_diff = 1;
//        if (total_r > 14000) cnt_diff = 2;
        cnt_diff = total_r / ((14000UL * 8) / (F_CPU/1000000UL));
    2b6e:	c4 01       	movw	r24, r8
    2b70:	60 eb       	ldi	r22, 0xB0	; 176
    2b72:	76 e3       	ldi	r23, 0x36	; 54
    2b74:	0e 94 67 1e 	call	0x3cce	; 0x3cce <__udivmodhi4>
           }
           tmpint -= (((REF_L_KORR * 10) / 10) + ukorr);
        } else {
           // measurement with 680 Ohm resistor
           // if 680 Ohm resistor is used, use REF_L_KORR for correction
           cnt_diff += CNT_ZERO_720;
    2b78:	87 e0       	ldi	r24, 0x07	; 7
    2b7a:	86 0f       	add	r24, r22
           tmpint += REF_L_KORR;
    2b7c:	28 5d       	subi	r18, 0xD8	; 216
    2b7e:	3f 4f       	sbci	r19, 0xFF	; 255
        }
        if (timeconstant.dw > cnt_diff) timeconstant.dw -= cnt_diff;
    2b80:	90 e0       	ldi	r25, 0x00	; 0
    2b82:	a0 e0       	ldi	r26, 0x00	; 0
    2b84:	b0 e0       	ldi	r27, 0x00	; 0
    2b86:	8c 15       	cp	r24, r12
    2b88:	9d 05       	cpc	r25, r13
    2b8a:	ae 05       	cpc	r26, r14
    2b8c:	bf 05       	cpc	r27, r15
    2b8e:	28 f4       	brcc	.+10     	; 0x2b9a <ReadInductance+0x22c>
    2b90:	c8 1a       	sub	r12, r24
    2b92:	d9 0a       	sbc	r13, r25
    2b94:	ea 0a       	sbc	r14, r26
    2b96:	fb 0a       	sbc	r15, r27
    2b98:	03 c0       	rjmp	.+6      	; 0x2ba0 <ReadInductance+0x232>
        else          timeconstant.dw = 0;
    2b9a:	c1 2c       	mov	r12, r1
    2b9c:	d1 2c       	mov	r13, r1
    2b9e:	76 01       	movw	r14, r12
       
        if ((count&0x01) == 1) {
    2ba0:	89 89       	ldd	r24, Y+17	; 0x11
    2ba2:	88 23       	and	r24, r24
    2ba4:	29 f0       	breq	.+10     	; 0x2bb0 <ReadInductance+0x242>
           // second pass with delayed counter start
           timeconstant.dw += (3 * (F_CPU/1000000UL))+10;
    2ba6:	92 e2       	ldi	r25, 0x22	; 34
    2ba8:	c9 0e       	add	r12, r25
    2baa:	d1 1c       	adc	r13, r1
    2bac:	e1 1c       	adc	r14, r1
    2bae:	f1 1c       	adc	r15, r1
        }
        if (timeconstant.w[1] >= (F_CPU/100000UL)) timeconstant.dw = 0; // no transition found
    2bb0:	60 e5       	ldi	r22, 0x50	; 80
    2bb2:	e6 16       	cp	r14, r22
    2bb4:	f1 04       	cpc	r15, r1
    2bb6:	18 f0       	brcs	.+6      	; 0x2bbe <ReadInductance+0x250>
    2bb8:	c1 2c       	mov	r12, r1
    2bba:	d1 2c       	mov	r13, r1
    2bbc:	76 01       	movw	r14, r12
        if (timeconstant.dw > 10) {
    2bbe:	8b e0       	ldi	r24, 0x0B	; 11
    2bc0:	c8 16       	cp	r12, r24
    2bc2:	d1 04       	cpc	r13, r1
    2bc4:	e1 04       	cpc	r14, r1
    2bc6:	f1 04       	cpc	r15, r1
    2bc8:	28 f0       	brcs	.+10     	; 0x2bd4 <ReadInductance+0x266>
           timeconstant.dw -= 1;
    2bca:	91 e0       	ldi	r25, 0x01	; 1
    2bcc:	c9 1a       	sub	r12, r25
    2bce:	d1 08       	sbc	r13, r1
    2bd0:	e1 08       	sbc	r14, r1
    2bd2:	f1 08       	sbc	r15, r1
        }
        // compute the maximum Voltage umax with the Resistor of the coil
        umax = ((unsigned long)mess_r * (unsigned long)ADCconfig.U_AVCC) / total_r;
    2bd4:	40 91 2b 01 	lds	r20, 0x012B
    2bd8:	50 91 2c 01 	lds	r21, 0x012C
    2bdc:	a1 2c       	mov	r10, r1
    2bde:	b1 2c       	mov	r11, r1
        per_ref1 = ((unsigned long)tmpint * 1000) / umax;
    2be0:	a8 ee       	ldi	r26, 0xE8	; 232
    2be2:	b3 e0       	ldi	r27, 0x03	; 3
    2be4:	0e 94 2d 1e 	call	0x3c5a	; 0x3c5a <__umulhisi3>
    2be8:	2b 01       	movw	r4, r22
    2bea:	3c 01       	movw	r6, r24
        if (timeconstant.w[1] >= (F_CPU/100000UL)) timeconstant.dw = 0; // no transition found
        if (timeconstant.dw > 10) {
           timeconstant.dw -= 1;
        }
        // compute the maximum Voltage umax with the Resistor of the coil
        umax = ((unsigned long)mess_r * (unsigned long)ADCconfig.U_AVCC) / total_r;
    2bec:	98 01       	movw	r18, r16
    2bee:	da 01       	movw	r26, r20
    2bf0:	0e 94 2d 1e 	call	0x3c5a	; 0x3c5a <__umulhisi3>
    2bf4:	a5 01       	movw	r20, r10
    2bf6:	94 01       	movw	r18, r8
    2bf8:	0e 94 7b 1e 	call	0x3cf6	; 0x3cf6 <__udivmodsi4>
        per_ref1 = ((unsigned long)tmpint * 1000) / umax;
    2bfc:	44 27       	eor	r20, r20
    2bfe:	55 27       	eor	r21, r21
    2c00:	c3 01       	movw	r24, r6
    2c02:	b2 01       	movw	r22, r4
    2c04:	0e 94 7b 1e 	call	0x3cf6	; 0x3cf6 <__udivmodsi4>
//        per_ref2 = (uint8_t)MEM2_read_byte(&LogTab[per_ref1]);	// -log(1 - per_ref1/100)
        per_ref2 = get_log(per_ref1);		// -1000*log(1 - per_ref1/1000)
    2c08:	c9 01       	movw	r24, r18
    2c0a:	0e 94 84 04 	call	0x908	; 0x908 <get_log>
    2c0e:	fc 01       	movw	r30, r24
          }
#endif
/* ********************************************************* */
        // inductor_lx in 0.01mH units,  L = Tau * R
        per_ref1 = ((per_ref2 * (F_CPU/1000000UL)) + 5) / 10;
        inductance[count] = (timeconstant.dw * total_r ) / per_ref1;
    2c10:	a5 01       	movw	r20, r10
    2c12:	94 01       	movw	r18, r8
    2c14:	c7 01       	movw	r24, r14
    2c16:	b6 01       	movw	r22, r12
    2c18:	0e 94 4c 1e 	call	0x3c98	; 0x3c98 <__mulsi3>
    2c1c:	4b 01       	movw	r8, r22
    2c1e:	5c 01       	movw	r10, r24
             wait_about2s();	// debug delay
          }
#endif
/* ********************************************************* */
        // inductor_lx in 0.01mH units,  L = Tau * R
        per_ref1 = ((per_ref2 * (F_CPU/1000000UL)) + 5) / 10;
    2c20:	bf 01       	movw	r22, r30
    2c22:	80 e0       	ldi	r24, 0x00	; 0
    2c24:	90 e0       	ldi	r25, 0x00	; 0
    2c26:	23 e0       	ldi	r18, 0x03	; 3
    2c28:	66 0f       	add	r22, r22
    2c2a:	77 1f       	adc	r23, r23
    2c2c:	88 1f       	adc	r24, r24
    2c2e:	99 1f       	adc	r25, r25
    2c30:	2a 95       	dec	r18
    2c32:	d1 f7       	brne	.-12     	; 0x2c28 <ReadInductance+0x2ba>
    2c34:	6b 5f       	subi	r22, 0xFB	; 251
    2c36:	7f 4f       	sbci	r23, 0xFF	; 255
    2c38:	8f 4f       	sbci	r24, 0xFF	; 255
    2c3a:	9f 4f       	sbci	r25, 0xFF	; 255
    2c3c:	2a e0       	ldi	r18, 0x0A	; 10
    2c3e:	30 e0       	ldi	r19, 0x00	; 0
    2c40:	40 e0       	ldi	r20, 0x00	; 0
    2c42:	50 e0       	ldi	r21, 0x00	; 0
    2c44:	0e 94 7b 1e 	call	0x3cf6	; 0x3cf6 <__udivmodsi4>
        inductance[count] = (timeconstant.dw * total_r ) / per_ref1;
    2c48:	c5 01       	movw	r24, r10
    2c4a:	b4 01       	movw	r22, r8
    2c4c:	0e 94 7b 1e 	call	0x3cf6	; 0x3cf6 <__udivmodsi4>
    2c50:	83 2d       	mov	r24, r3
    2c52:	90 e0       	ldi	r25, 0x00	; 0
    2c54:	e1 e0       	ldi	r30, 0x01	; 1
    2c56:	f0 e0       	ldi	r31, 0x00	; 0
    2c58:	ec 0f       	add	r30, r28
    2c5a:	fd 1f       	adc	r31, r29
    2c5c:	64 e0       	ldi	r22, 0x04	; 4
    2c5e:	36 9e       	mul	r3, r22
    2c60:	e0 0d       	add	r30, r0
    2c62:	f1 1d       	adc	r31, r1
    2c64:	11 24       	eor	r1, r1
    2c66:	20 83       	st	Z, r18
    2c68:	31 83       	std	Z+1, r19	; 0x01
    2c6a:	42 83       	std	Z+2, r20	; 0x02
    2c6c:	53 83       	std	Z+3, r21	; 0x03
        if (((count&0x01) == 0) && (timeconstant.dw > ((F_CPU/1000000UL)+3))) {
    2c6e:	69 89       	ldd	r22, Y+17	; 0x11
    2c70:	61 11       	cpse	r22, r1
    2c72:	17 c0       	rjmp	.+46     	; 0x2ca2 <ReadInductance+0x334>
    2c74:	6c e0       	ldi	r22, 0x0C	; 12
    2c76:	c6 16       	cp	r12, r22
    2c78:	d1 04       	cpc	r13, r1
    2c7a:	e1 04       	cpc	r14, r1
    2c7c:	f1 04       	cpc	r15, r1
    2c7e:	88 f0       	brcs	.+34     	; 0x2ca2 <ReadInductance+0x334>
           // transition is found, measurement with delayed counter start is not necessary
           inductance[count+1] = inductance[count];	// set delayed measurement to same value
    2c80:	fc 01       	movw	r30, r24
    2c82:	31 96       	adiw	r30, 0x01	; 1
    2c84:	ee 0f       	add	r30, r30
    2c86:	ff 1f       	adc	r31, r31
    2c88:	ee 0f       	add	r30, r30
    2c8a:	ff 1f       	adc	r31, r31
    2c8c:	81 e0       	ldi	r24, 0x01	; 1
    2c8e:	90 e0       	ldi	r25, 0x00	; 0
    2c90:	8c 0f       	add	r24, r28
    2c92:	9d 1f       	adc	r25, r29
    2c94:	e8 0f       	add	r30, r24
    2c96:	f9 1f       	adc	r31, r25
    2c98:	20 83       	st	Z, r18
    2c9a:	31 83       	std	Z+1, r19	; 0x01
    2c9c:	42 83       	std	Z+2, r20	; 0x02
    2c9e:	53 83       	std	Z+3, r21	; 0x03
           count++;		// skip the delayed measurement
    2ca0:	33 94       	inc	r3
        }
        wdt_reset();
    2ca2:	a8 95       	wdr
     res_num = ResistorList[0];
     if (ResistorVal[res_num] > 21000) return;
     resistor = ResistorVal[res_num];

     // we can check for Inductance, if resistance is below 2100 Ohm
     for (count=0;count<4;count++) {
    2ca4:	33 94       	inc	r3
    2ca6:	93 e0       	ldi	r25, 0x03	; 3
    2ca8:	93 15       	cp	r25, r3
    2caa:	08 f0       	brcs	.+2      	; 0x2cae <ReadInductance+0x340>
    2cac:	89 ce       	rjmp	.-750    	; 0x29c0 <ReadInductance+0x52>
           inductance[count+1] = inductance[count];	// set delayed measurement to same value
           count++;		// skip the delayed measurement
        }
        wdt_reset();
     }  //end for count
     ADC_PORT = TXD_VAL;		// switch ADC Port to GND
    2cae:	18 b8       	out	0x08, r1	; 8
     wait_about20ms();
    2cb0:	0e 94 5d 03 	call	0x6ba	; 0x6ba <wait20ms>
     nr_pol1 = 0;
     if (inductance[1] > inductance[0]) { nr_pol1 = 1; } 
    2cb4:	21 e0       	ldi	r18, 0x01	; 1
    2cb6:	4d 81       	ldd	r20, Y+5	; 0x05
    2cb8:	5e 81       	ldd	r21, Y+6	; 0x06
    2cba:	6f 81       	ldd	r22, Y+7	; 0x07
    2cbc:	78 85       	ldd	r23, Y+8	; 0x08
    2cbe:	89 81       	ldd	r24, Y+1	; 0x01
    2cc0:	9a 81       	ldd	r25, Y+2	; 0x02
    2cc2:	ab 81       	ldd	r26, Y+3	; 0x03
    2cc4:	bc 81       	ldd	r27, Y+4	; 0x04
    2cc6:	84 17       	cp	r24, r20
    2cc8:	95 07       	cpc	r25, r21
    2cca:	a6 07       	cpc	r26, r22
    2ccc:	b7 07       	cpc	r27, r23
    2cce:	08 f0       	brcs	.+2      	; 0x2cd2 <ReadInductance+0x364>
    2cd0:	20 e0       	ldi	r18, 0x00	; 0
     nr_pol2 = 2;
     if (inductance[3] > inductance[2]) { nr_pol2 = 3; } 
    2cd2:	4d 85       	ldd	r20, Y+13	; 0x0d
    2cd4:	5e 85       	ldd	r21, Y+14	; 0x0e
    2cd6:	6f 85       	ldd	r22, Y+15	; 0x0f
    2cd8:	78 89       	ldd	r23, Y+16	; 0x10
    2cda:	89 85       	ldd	r24, Y+9	; 0x09
    2cdc:	9a 85       	ldd	r25, Y+10	; 0x0a
    2cde:	ab 85       	ldd	r26, Y+11	; 0x0b
    2ce0:	bc 85       	ldd	r27, Y+12	; 0x0c
    2ce2:	84 17       	cp	r24, r20
    2ce4:	95 07       	cpc	r25, r21
    2ce6:	a6 07       	cpc	r26, r22
    2ce8:	b7 07       	cpc	r27, r23
    2cea:	10 f0       	brcs	.+4      	; 0x2cf0 <ReadInductance+0x382>
     }  //end for count
     ADC_PORT = TXD_VAL;		// switch ADC Port to GND
     wait_about20ms();
     nr_pol1 = 0;
     if (inductance[1] > inductance[0]) { nr_pol1 = 1; } 
     nr_pol2 = 2;
    2cec:	32 e0       	ldi	r19, 0x02	; 2
    2cee:	01 c0       	rjmp	.+2      	; 0x2cf2 <ReadInductance+0x384>
     if (inductance[3] > inductance[2]) { nr_pol2 = 3; } 
    2cf0:	33 e0       	ldi	r19, 0x03	; 3
     if (inductance[nr_pol2] < inductance[nr_pol1]) nr_pol1 = nr_pol2;
    2cf2:	e2 2f       	mov	r30, r18
    2cf4:	f0 e0       	ldi	r31, 0x00	; 0
    2cf6:	ee 0f       	add	r30, r30
    2cf8:	ff 1f       	adc	r31, r31
    2cfa:	ee 0f       	add	r30, r30
    2cfc:	ff 1f       	adc	r31, r31
    2cfe:	81 e0       	ldi	r24, 0x01	; 1
    2d00:	90 e0       	ldi	r25, 0x00	; 0
    2d02:	8c 0f       	add	r24, r28
    2d04:	9d 1f       	adc	r25, r29
    2d06:	e8 0f       	add	r30, r24
    2d08:	f9 1f       	adc	r31, r25
    2d0a:	dc 01       	movw	r26, r24
    2d0c:	94 e0       	ldi	r25, 0x04	; 4
    2d0e:	39 9f       	mul	r19, r25
    2d10:	a0 0d       	add	r26, r0
    2d12:	b1 1d       	adc	r27, r1
    2d14:	11 24       	eor	r1, r1
    2d16:	4d 91       	ld	r20, X+
    2d18:	5d 91       	ld	r21, X+
    2d1a:	6d 91       	ld	r22, X+
    2d1c:	7c 91       	ld	r23, X
    2d1e:	80 81       	ld	r24, Z
    2d20:	91 81       	ldd	r25, Z+1	; 0x01
    2d22:	a2 81       	ldd	r26, Z+2	; 0x02
    2d24:	b3 81       	ldd	r27, Z+3	; 0x03
    2d26:	48 17       	cp	r20, r24
    2d28:	59 07       	cpc	r21, r25
    2d2a:	6a 07       	cpc	r22, r26
    2d2c:	7b 07       	cpc	r23, r27
    2d2e:	08 f0       	brcs	.+2      	; 0x2d32 <ReadInductance+0x3c4>
        }
        wdt_reset();
     }  //end for count
     ADC_PORT = TXD_VAL;		// switch ADC Port to GND
     wait_about20ms();
     nr_pol1 = 0;
    2d30:	32 2f       	mov	r19, r18
     if (inductance[1] > inductance[0]) { nr_pol1 = 1; } 
     nr_pol2 = 2;
     if (inductance[3] > inductance[2]) { nr_pol2 = 3; } 
     if (inductance[nr_pol2] < inductance[nr_pol1]) nr_pol1 = nr_pol2;
     inductor_lx = inductance[nr_pol1];
    2d32:	e1 e0       	ldi	r30, 0x01	; 1
    2d34:	f0 e0       	ldi	r31, 0x00	; 0
    2d36:	ec 0f       	add	r30, r28
    2d38:	fd 1f       	adc	r31, r29
    2d3a:	24 e0       	ldi	r18, 0x04	; 4
    2d3c:	32 9f       	mul	r19, r18
    2d3e:	e0 0d       	add	r30, r0
    2d40:	f1 1d       	adc	r31, r1
    2d42:	11 24       	eor	r1, r1
    2d44:	80 81       	ld	r24, Z
    2d46:	91 81       	ldd	r25, Z+1	; 0x01
    2d48:	a2 81       	ldd	r26, Z+2	; 0x02
    2d4a:	b3 81       	ldd	r27, Z+3	; 0x03
    2d4c:	80 93 09 01 	sts	0x0109, r24
    2d50:	90 93 0a 01 	sts	0x010A, r25
    2d54:	a0 93 0b 01 	sts	0x010B, r26
    2d58:	b0 93 0c 01 	sts	0x010C, r27
     inductor_lpre = -5;	// 10 uH units
     if (((nr_pol1 & 1) == 1) || (resistor >= 240)) {
    2d5c:	30 fd       	sbrc	r19, 0
    2d5e:	09 c0       	rjmp	.+18     	; 0x2d72 <ReadInductance+0x404>
    2d60:	2a 89       	ldd	r18, Y+18	; 0x12
    2d62:	3b 89       	ldd	r19, Y+19	; 0x13
    2d64:	20 3f       	cpi	r18, 0xF0	; 240
    2d66:	31 05       	cpc	r19, r1
    2d68:	20 f4       	brcc	.+8      	; 0x2d72 <ReadInductance+0x404>
     if (inductance[1] > inductance[0]) { nr_pol1 = 1; } 
     nr_pol2 = 2;
     if (inductance[3] > inductance[2]) { nr_pol2 = 3; } 
     if (inductance[nr_pol2] < inductance[nr_pol1]) nr_pol1 = nr_pol2;
     inductor_lx = inductance[nr_pol1];
     inductor_lpre = -5;	// 10 uH units
    2d6a:	8b ef       	ldi	r24, 0xFB	; 251
    2d6c:	80 93 01 01 	sts	0x0101, r24
    2d70:	16 c0       	rjmp	.+44     	; 0x2d9e <ReadInductance+0x430>
     if (((nr_pol1 & 1) == 1) || (resistor >= 240)) {
        // with 680 Ohm resistor total_r is more than 7460
        inductor_lpre = -4;	// 100 uH units
    2d72:	2c ef       	ldi	r18, 0xFC	; 252
    2d74:	20 93 01 01 	sts	0x0101, r18
        inductor_lx = (inductor_lx + 5) / 10;
    2d78:	bc 01       	movw	r22, r24
    2d7a:	cd 01       	movw	r24, r26
    2d7c:	6b 5f       	subi	r22, 0xFB	; 251
    2d7e:	7f 4f       	sbci	r23, 0xFF	; 255
    2d80:	8f 4f       	sbci	r24, 0xFF	; 255
    2d82:	9f 4f       	sbci	r25, 0xFF	; 255
    2d84:	2a e0       	ldi	r18, 0x0A	; 10
    2d86:	30 e0       	ldi	r19, 0x00	; 0
    2d88:	40 e0       	ldi	r20, 0x00	; 0
    2d8a:	50 e0       	ldi	r21, 0x00	; 0
    2d8c:	b4 d7       	rcall	.+3944   	; 0x3cf6 <__udivmodsi4>
    2d8e:	20 93 09 01 	sts	0x0109, r18
    2d92:	30 93 0a 01 	sts	0x010A, r19
    2d96:	40 93 0b 01 	sts	0x010B, r20
    2d9a:	50 93 0c 01 	sts	0x010C, r21
    2d9e:	80 91 09 01 	lds	r24, 0x0109
     } 
     if (inductor_lx == 0) inductor_lpre = 0;	//mark as zero
    2da2:	90 91 0a 01 	lds	r25, 0x010A
    2da6:	a0 91 0b 01 	lds	r26, 0x010B
    2daa:	b0 91 0c 01 	lds	r27, 0x010C
    2dae:	89 2b       	or	r24, r25
    2db0:	8a 2b       	or	r24, r26
    2db2:	8b 2b       	or	r24, r27
    2db4:	11 f4       	brne	.+4      	; 0x2dba <ReadInductance+0x44c>
    2db6:	10 92 01 01 	sts	0x0101, r1
    2dba:	17 b8       	out	0x07, r1	; 7

  // switch all ports to input
  ADC_DDR =  TXD_MSK;		// switch all ADC ports to input
    2dbc:	14 b8       	out	0x04, r1	; 4
  R_DDR = 0;			// switch all resistor ports to input
    2dbe:	63 96       	adiw	r28, 0x13	; 19
#endif
  return;
 } // end ReadInductance()
    2dc0:	e2 e1       	ldi	r30, 0x12	; 18
    2dc2:	f3 c7       	rjmp	.+4070   	; 0x3daa <__epilogue_restores__>

00002dc4 <GetESR>:
       	out	_SFR_IO_ADDR(SREG), r0;
	out	_SFR_IO_ADDR(SPL), r28;
#else
 .extern __prologue_saves__
 .extern __epilogue_restores__
	ldi	r26, 30			;
    2dc4:	ae e1       	ldi	r26, 0x1E	; 30
	ldi	r27, 0			;
    2dc6:	b0 e0       	ldi	r27, 0x00	; 0
	ldi	r30, lo8(gs(Retur2))	;
    2dc8:	e7 ee       	ldi	r30, 0xE7	; 231
	ldi	r31, hi8(gs(Retur2))	;
    2dca:	f6 e1       	ldi	r31, 0x16	; 22
	jmp	__prologue_saves__ 	;
    2dcc:	d2 c7       	rjmp	.+4004   	; 0x3d72 <__prologue_saves__>

00002dce <Retur2>:
    2dce:	66 2e       	mov	r6, r22
Retur2:
#endif


	mov	SelectLowPin, r22;
    2dd0:	b8 2e       	mov	r11, r24
	mov	SelectHighPin, r24;
    2dd2:	86 0f       	add	r24, r22
        add	r24, r22;
    2dd4:	89 83       	std	Y+1, r24	; 0x01
	std	Y+1, r24;
    2dd6:	20 91 16 01 	lds	r18, 0x0116

	lds	r18, PartFound;		/* if (PartFound == PART_CAPACITOR) { */
    2dda:	28 30       	cpi	r18, 0x08	; 8
	cpi	r18, PART_CAPACITOR;	
    2ddc:	51 f5       	brne	.+84     	; 0x2e32 <load_max>
; 	brne	ad_35e4;
	brne	load_max;
    2dde:	20 91 6c 01 	lds	r18, 0x016C
	lds	r18, cap+cval_max;      /* cap_val_nF = cap.cval_max; */
    2de2:	30 91 6d 01 	lds	r19, 0x016D
	lds	r19, cap+cval_max+1;
    2de6:	40 91 6e 01 	lds	r20, 0x016E
	lds	r20, cap+cval_max+2;
    2dea:	50 91 6f 01 	lds	r21, 0x016F
	lds	r21, cap+cval_max+3;
    2dee:	57 fd       	sbrc	r21, 7
        sbrc	r21, 7;			/* negativ bit is set */
    2df0:	14 c0       	rjmp	.+40     	; 0x2e1a <set_high>
	rjmp	set_high
    2df2:	10 91 7b 01 	lds	r17, 0x017B
	lds	r17, cap+cpre_max;      /* prefix = cap.cpre_max; */
    2df6:	08 c0       	rjmp	.+16     	; 0x2e08 <ad_35ba>

00002df8 <ad_35ac>:
	rjmp	ad_35ba;
    2df8:	ca 01       	movw	r24, r20

ad_35ac:
	movw	r24, r20;               /* cval /= 10;          // reduce value by factor ten */
    2dfa:	b9 01       	movw	r22, r18
	movw	r22, r18
    2dfc:	2a e0       	ldi	r18, 0x0A	; 10
	ldi	r18, 0x0A; 10
    2dfe:	31 2d       	mov	r19, r1
	mov	r19, zero_reg
    2e00:	41 2d       	mov	r20, r1
	mov	r20, zero_reg
    2e02:	51 2d       	mov	r21, r1
	mov	r21, zero_reg
    2e04:	78 d7       	rcall	.+3824   	; 0x3cf6 <__udivmodsi4>
	call	__udivmodsi4;           /* r18:21 = r22:25  / r18:21 */
    2e06:	1f 5f       	subi	r17, 0xFF	; 255

00002e08 <ad_35ba>:
    2e08:	17 3f       	cpi	r17, 0xF7	; 247
	subi	r17, 0xFF;              /* prefix++;            // take next decimal prefix */
    2e0a:	b4 f3       	brlt	.-20     	; 0x2df8 <ad_35ac>

ad_35ba:
	cpi	r17, -9;                /* while (prefix < -9) { // set cval to nF unit */
    2e0c:	91 f4       	brne	.+36     	; 0x2e32 <load_max>
	brlt	ad_35ac;                /*  } */
    2e0e:	2a 35       	cpi	r18, 0x5A	; 90
        brne    load_max;		/* load max value for correction */
    2e10:	60 e0       	ldi	r22, 0x00	; 0

#ifdef ESR_LONG_PULSE
	cpi	r18, lo8(1800/10);       /* if (cap_val_nF < (1800/10)) return(0xffff);   //capacity lower than 0.18 uF */
	ldi	r22, hi8(1800/10)
#else
	cpi	r18, lo8(900/10);       /* if (cap_val_nF < (900/10)) return(0xffff);   //capacity lower than 90 nF */
    2e12:	36 07       	cpc	r19, r22
	ldi	r22, hi8(900/10)
    2e14:	41 05       	cpc	r20, r1
#endif
	cpc	r19, r22
    2e16:	51 05       	cpc	r21, r1
	cpc	r20, zero_reg
    2e18:	18 f4       	brcc	.+6      	; 0x2e20 <ad_35e4>

00002e1a <set_high>:
	cpc	r21, zero_reg
    2e1a:	8f ef       	ldi	r24, 0xFF	; 255
	brcc	ad_35e4
    2e1c:	9f ef       	ldi	r25, 0xFF	; 255
set_high:
	ldi	r24, 0xff;
    2e1e:	76 c1       	rjmp	.+748    	; 0x310c <ad_exit>

00002e20 <ad_35e4>:
	ldi	r25, 0xff;
    2e20:	17 3f       	cpi	r17, 0xF7	; 247
	rjmp	ad_exit; 
    2e22:	39 f4       	brne	.+14     	; 0x2e32 <load_max>
ad_35e4:				/* } */
	cpi	r17, -9;		/* if ((pp > -9) || (cap_val_nF > 32000)) { */
    2e24:	80 e0       	ldi	r24, 0x00	; 0
	brne	load_max;
    2e26:	28 17       	cp	r18, r24
	ldi	r24, lo8(32000);
    2e28:	8d e7       	ldi	r24, 0x7D	; 125
	cp	r18, r24
    2e2a:	38 07       	cpc	r19, r24
        ldi	r24, hi8(32000);
    2e2c:	41 05       	cpc	r20, r1
	cpc	r19, r24;
    2e2e:	41 05       	cpc	r20, r1
;	ldi	r24, hlo8(32000);
;	cpc	r20, r24;
	cpc	r20, r1;
    2e30:	10 f0       	brcs	.+4      	; 0x2e36 <store_cvn>

00002e32 <load_max>:
;	ldi	r24, hhi8(32000);
;	cpc	r21, r24;
	cpc	r20, r1;
    2e32:	20 e0       	ldi	r18, 0x00	; 0
	brcs	store_cvn;
    2e34:	3d e7       	ldi	r19, 0x7D	; 125

00002e36 <store_cvn>:
load_max:
	ldi	r18, lo8(32000);		/* cap_val_nF = 65000 */
    2e36:	2c 8b       	std	Y+20, r18	; 0x14
	ldi	r19, hi8(32000);
    2e38:	3d 8b       	std	Y+21, r19	; 0x15
;	ldi	r20, hlo8(32000);		/* upper word is allways zero */
;	ldi	r21, hhi8(32000);		/* upper word is allways zero */
store_cvn:
	std	Y+cap_val_nF, r18
    2e3a:	26 ed       	ldi	r18, 0xD6	; 214
	std	Y+cap_val_nF+1, r19
    2e3c:	a2 2e       	mov	r10, r18
     /* normal ADC-speed, ADC-Clock 8us */
	ldi	r25, (1<<ADEN) | (1<<ADIF) | (1<<ADIE) | AUTO_CLOCK_DIV; /* enable ADC and Interrupt */
	mov	StartADCmsk, r25;
	sts	ADCSRA, StartADCmsk; 	/*  ADCSRA = StartADCmsk;	// enable ADC and Interrupt */
#else
	ldi	r18, (1<<ADSC) | (1<<ADEN) | (1<<ADIF) | AUTO_CLOCK_DIV; /* enable and start ADC */
    2e3e:	e1 e8       	ldi	r30, 0x81	; 129
	mov	StartADCmsk, r18;
    2e40:	f0 e0       	ldi	r31, 0x00	; 0
#endif

#if (((PIN_RL1 + 1) != PIN_RH1) || ((PIN_RL2 + 1) != PIN_RH2) || ((PIN_RL3 + 1) != PIN_RH3))
	LDIZ	PinRLRHADCtab+6; 	/* LoADC = pgm_read_byte((&PinRLRHADCtab[6])+cap.ca) | TXD_MSK; */
#else
	LDIZ	PinRLRHADCtab+3; 	/* LoADC = pgm_read_byte((&PinRLRHADCtab[3])+cap.ca) | TXD_MSK; */
    2e42:	e6 0d       	add	r30, r6
    2e44:	f1 1d       	adc	r31, r1
#endif
#if TP1 == 0
	add	r30, SelectLowPin;
    2e46:	85 91       	lpm	r24, Z+
#else
	ldi	r24, -TP1;
	add	r24, SelectLowPin;
	add	r30, r24;	
#endif
	adc	r31, zero_reg;
    2e48:	80 60       	ori	r24, 0x00	; 0
	lpm	r24, Z+;
    2e4a:	8e 87       	std	Y+14, r24	; 0x0e
	ori	r24, TXD_MSK;
    2e4c:	e1 e8       	ldi	r30, 0x81	; 129
	std	Y+LoADC, r24;
    2e4e:	f0 e0       	ldi	r31, 0x00	; 0

#if (((PIN_RL1 + 1) != PIN_RH1) || ((PIN_RL2 + 1) != PIN_RH2) || ((PIN_RL3 + 1) != PIN_RH3))
	LDIZ	PinRLRHADCtab+6; 	/* HiADC = pgm_read_byte((&PinRLRHADCtab[6])+cap.cb) | TXD_MSK; */
#else
	LDIZ	PinRLRHADCtab+3; 	/* HiADC = pgm_read_byte((&PinRLRHADCtab[3])+cap.cb) | TXD_MSK; */
    2e50:	eb 0d       	add	r30, r11
    2e52:	f1 1d       	adc	r31, r1
#endif
#if TP1 == 0
	add	r30, SelectHighPin;
    2e54:	85 91       	lpm	r24, Z+
#else
	ldi	r24, -TP1;
	add	r24, SelectHighPin;
	add	r30, r24;	
#endif
	adc	r31, zero_reg;
    2e56:	80 60       	ori	r24, 0x00	; 0
	lpm	r24, Z+;
    2e58:	8f 87       	std	Y+15, r24	; 0x0f
	ori	r24, TXD_MSK;
    2e5a:	ee e7       	ldi	r30, 0x7E	; 126
	std	Y+HiADC, r24;
    2e5c:	f0 e0       	ldi	r31, 0x00	; 0

	LDIZ	PinRLRHADCtab;	/* LoPinR_L = pgm_read_byte(&PinRLRHADCtab[cap.ca]);  //R_L mask for LowPin R_L load */
    2e5e:	e6 0d       	add	r30, r6
    2e60:	f1 1d       	adc	r31, r1
	add	r30, SelectLowPin;
    2e62:	75 90       	lpm	r7, Z+
	adc	r31, zero_reg;
    2e64:	ee e7       	ldi	r30, 0x7E	; 126
	lpm	LoPinR_L, Z+;
    2e66:	f0 e0       	ldi	r31, 0x00	; 0

	LDIZ	PinRLRHADCtab;	/* HiPinR_L = pgm_read_byte(&PinRLRHADCtab[cap.cb]);	//R_L mask for HighPin R_L load */
    2e68:	eb 0d       	add	r30, r11
    2e6a:	f1 1d       	adc	r31, r1
	add	r30, SelectHighPin;
    2e6c:	c5 90       	lpm	r12, Z+
	adc	r31, zero_reg;
    2e6e:	90 ec       	ldi	r25, 0xC0	; 192
	lpm	HiPinR_L, Z+;
    2e70:	69 2a       	or	r6, r25
	or	SelectLowPin, r25;
	//  SelectHighPin = (cap.cb | (1<<REFS1) | (0<<REFS0));	// switch ADC to HighPin, Internal Ref. 
	or	SelectHighPin, r25;
#else
	//  SelectLowPin = (cap.ca | (1<<REFS1) | (1<<REFS0));	// switch ADC to LowPin, Internal Ref. 
	ldi	r25, (1<<REFS1)|(1<<REFS0);	0xC0
    2e72:	b9 2a       	or	r11, r25
	or	SelectLowPin, r25;
    2e74:	81 e0       	ldi	r24, 0x01	; 1
	//  SelectHighPin = (cap.cb | (1<<REFS1) | (1<<REFS0));	// switch ADC to HighPin, Internal Ref. 
	or	SelectHighPin, r25;
    2e76:	e8 2e       	mov	r14, r24
#endif


	// Measurement of ESR of capacitors AC Mode
	ldi	r24, 0x01; 	/* sumvolt0 = 1;	// set sum of LowPin voltage to 1 to prevent divide by zero */
    2e78:	f1 2c       	mov	r15, r1
	mov	r14, r24;
    2e7a:	01 2d       	mov	r16, r1
	mov	r15, zero_reg;
    2e7c:	11 2d       	mov	r17, r1
	mov	r16, zero_reg;
    2e7e:	8e 83       	std	Y+6, r24	; 0x06
	mov	r17, zero_reg;
    2e80:	1f 82       	std	Y+7, r1	; 0x07
	std	Y+sumvolt1, r24;	/* sumvolt1 = 1;	// clear sum of HighPin voltage with current */
    2e82:	18 86       	std	Y+8, r1	; 0x08
	//                                // offset is about (x*10*200)/34000 in 0.01 Ohm units
	std	Y+sumvolt1+1, zero_reg;
    2e84:	19 86       	std	Y+9, r1	; 0x09
	std	Y+sumvolt1+2, zero_reg;
    2e86:	1a 86       	std	Y+10, r1	; 0x0a
	std	Y+sumvolt1+3, zero_reg;
    2e88:	1b 86       	std	Y+11, r1	; 0x0b
	std	Y+sumvolt2, zero_reg;	/* sumvolt2 = 0;	// clear sum of HighPin voltage without current */
    2e8a:	1c 86       	std	Y+12, r1	; 0x0c
	std	Y+sumvolt2+1, zero_reg;
    2e8c:	1d 86       	std	Y+13, r1	; 0x0d
	std	Y+sumvolt2+2, zero_reg;
    2e8e:	18 8e       	std	Y+24, r1	; 0x18
	std	Y+sumvolt2+3, zero_reg;
    2e90:	19 8e       	std	Y+25, r1	; 0x19
	std	Y+LowUpCount, zero_reg;
    2e92:	1b 8e       	std	Y+27, r1	; 0x1b
	std	Y+HighUpCount, zero_reg;
    2e94:	1a 8e       	std	Y+26, r1	; 0x1a
	std	Y+HighTooHigh, zero_reg;
    2e96:	58 d8       	rcall	.-3920   	; 0x1f48 <EntladePins>
	std	Y+LowTooHigh, zero_reg;
    2e98:	80 e0       	ldi	r24, 0x00	; 0
	call	EntladePins;	/* EntladePins();	// discharge capacitor */
    2e9a:	88 b9       	out	0x08, r24	; 8
    2e9c:	60 92 7c 00 	sts	0x007C, r6
	ldi	r24, TXD_VAL;
	AOUT	ADC_PORT, r24; /* ADC_PORT = TXD_VAL;	// switch ADC-Port to GND */
    2ea0:	0e 94 69 03 	call	0x6d2	; 0x6d2 <wait100us>
	sts	ADMUX, SelectLowPin;	/* ADMUX = SelectLowPin;	// set Mux input and Voltage Reference to internal 1.1V */
    2ea4:	3f 85       	ldd	r19, Y+15	; 0x0f
#ifdef NO_AREF_CAP
	call	wait100us;			/* time for voltage stabilization */
    2ea6:	37 b9       	out	0x07, r19	; 7
    2ea8:	75 b8       	out	0x05, r7	; 5
#else
	call	wait10ms;    		/* time for voltage stabilization with 100nF */
#endif
	/* start voltage should be negativ */
	ldd	r19, Y+HiADC;		/* ADC_DDR = HiADC;	// switch High Pin to GND */
    2eaa:	74 b8       	out	0x04, r7	; 4
	AOUT	ADC_DDR, r19;		/* switch High Pin to GND */
    2eac:	0e 94 70 03 	call	0x6e0	; 0x6e0 <wait4us>
	AOUT	R_PORT, LoPinR_L
	AOUT	R_DDR, LoPinR_L
    2eb0:	14 b8       	out	0x04, r1	; 4
  #endif
 #else
	call	wait2us;
 #endif
#else
	call	wait4us;	/* Delay about half the current puls-length of measurement loop */
    2eb2:	15 b8       	out	0x05, r1	; 5
    2eb4:	dd 24       	eor	r13, r13
#endif
	AOUT	R_DDR, zero_reg;	/* R_DDR = 0 */
    2eb6:	a6 ed       	ldi	r26, 0xD6	; 214
	AOUT	R_PORT, zero_reg;	/* R_PORT = 0 */
    2eb8:	8a 2e       	mov	r8, r26

00002eba <esr_loop>:

	   // Measurement frequency is given by sum of ADC-Reads < 1116 Hz for normal ADC speed.
	   // ADC Sample and Hold (SH) is done 1.5 ADC clock number after real start of conversion.
	   // Real ADC-conversion is started with the next ADC-Clock (125kHz) after setting the ADSC bit.
	eor	r13, r13;			/* for(ii=0;ii<MAX_CNT;ii++) { */
    2eba:	3e 85       	ldd	r19, Y+14	; 0x0e
						// when time is too short, voltage is down before SH of ADC
						// when time is too long, capacitor will be overloaded.
						// That will cause too high voltage without current.
	//         adcv[0] = ADCW;		// Voltage LowPin with current
	//         ADMUX = SelectHighPin;
	ldi	r26, (1<<ADSC) | (1<<ADEN) | (1<<ADIF) | AUTO_CLOCK_DIV;	/* enable ADC and start with ADSC */
    2ebc:	37 b9       	out	0x07, r19	; 7
	mov	r8, r26
    2ebe:	75 b8       	out	0x05, r7	; 5
	      /* ********* Forward direction, connect Low side with GND *********** */
esr_loop:
	ldd	r19, Y+LoADC;
    2ec0:	74 b8       	out	0x04, r7	; 4
	AOUT	ADC_DDR, r19;		/* ADC_DDR = LoADC;	// switch Low-Pin to output (GND) */
    2ec2:	60 92 7c 00 	sts	0x007C, r6
	AOUT	R_PORT, LoPinR_L;	/* R_PORT = LoPinR_L */
	AOUT	R_DDR, LoPinR_L;	/* R_DDR = LoPinR_L */
    2ec6:	a8 95       	wdr
	sts	ADMUX, SelectLowPin;		/* ADMUX = SelectLowPin; */
    2ec8:	a0 92 7a 00 	sts	0x007A, r10

	wdr	;				/* wdt_reset(); */
    2ecc:	80 91 7a 00 	lds	r24, 0x007A
	StartADCwait			/* start ADC and wait */
    2ed0:	86 fd       	sbrc	r24, 6
    2ed2:	fc cf       	rjmp	.-8      	; 0x2ecc <esr_loop+0x12>
    2ed4:	a0 92 7a 00 	sts	0x007A, r10
    2ed8:	80 91 7a 00 	lds	r24, 0x007A
	StartADCwait			/* start ADC and wait */
    2edc:	86 fd       	sbrc	r24, 6
    2ede:	fc cf       	rjmp	.-8      	; 0x2ed8 <esr_loop+0x1e>
    2ee0:	20 90 78 00 	lds	r2, 0x0078
    2ee4:	30 90 79 00 	lds	r3, 0x0079
	lds	adcv0L, ADCW;			/* adcv[0] = ADCW;	// Voltage LowPin reference */
    2ee8:	b0 92 7c 00 	sts	0x007C, r11
	lds	adcv0H, ADCW+1;
    2eec:	a0 92 7a 00 	sts	0x007A, r10
	sts	ADMUX, SelectHighPin;		/* ADMUX = SelectHighPin; */
    2ef0:	80 91 7a 00 	lds	r24, 0x007A

	StartADCwait			/* start ADC and wait */
    2ef4:	86 fd       	sbrc	r24, 6
    2ef6:	fc cf       	rjmp	.-8      	; 0x2ef0 <esr_loop+0x36>
    2ef8:	80 92 7a 00 	sts	0x007A, r8
    2efc:	0e 94 6e 03 	call	0x6dc	; 0x6dc <wait10us>
			// Start Conversion, real start is next rising edge of ADC clock
	sts	ADCSRA, r8;		/* ADCSRA = (1<<ADSC) | (1<<ADEN) | (1<<ADIF) | AUTO_CLOCK_DIV; // enable ADC and start */
    2f00:	0e 94 70 03 	call	0x6e0	; 0x6e0 <wait4us>
#ifdef ESR_LONG_PULSE
	call	wait5us;		/* wait normal to start the longer current pulse */
#else
	call	wait10us;		/* wait longer to start the short current pulse */
    2f04:	c5 b8       	out	0x05, r12	; 5
	call	EXTRA_DELAY2PULSE;
    2f06:	c4 b8       	out	0x04, r12	; 4
    2f08:	0e 94 6f 03 	call	0x6de	; 0x6de <wait5us>
#endif
	AOUT	R_PORT, HiPinR_L;	/* R_PORT = HiPinR_L;	// switch R-Port to VCC */
	AOUT	R_DDR, HiPinR_L;	/* R_DDR = HiPinR_L;	// switch R_L port for HighPin to output (VCC) */
    2f0c:	0e 94 71 03 	call	0x6e2	; 0x6e2 <wait3us>
	wdr	;		/* 27.0   us */
	wdr	;		/* 27.125 us */
  #else /* no ESR_LONG_PULSE, 8MHz, polling mode */
   #define EXTRA_DELAY2PULSE wait4us
        /* current begin after last ADCready:  0.875us (loop) + 14us + 6tics = 15.625us  */
	/* half puls length = (20us - 15.625us) = 4.375us  (PL=8.75us) */
    2f10:	a8 95       	wdr
    2f12:	a8 95       	wdr
    2f14:	a8 95       	wdr
    2f16:	a8 95       	wdr
    2f18:	14 b8       	out	0x04, r1	; 4
    2f1a:	15 b8       	out	0x05, r1	; 5

00002f1c <ad_370c>:
    2f1c:	80 91 7a 00 	lds	r24, 0x007A
#endif
	AOUT	R_PORT, HiPinR_L;	/* R_PORT = HiPinR_L;	// switch R-Port to VCC */
	AOUT	R_DDR, HiPinR_L;	/* R_DDR = HiPinR_L;	// switch R_L port for HighPin to output (VCC) */
	DelayBigCap;			/* wait the time defined by macro */
	AOUT	R_DDR, zero_reg;	/* R_DDR = 0; // switch current off,  SH is 1.5 ADC clock behind real start */
	AOUT	R_PORT, zero_reg;	/* R_PORT = 0; */
    2f20:	86 fd       	sbrc	r24, 6
ad_370c:
	lds	r24, ADCSRA;		/* while (ADCSRA&(1<<ADSC));	// wait for conversion finished */
    2f22:	fc cf       	rjmp	.-8      	; 0x2f1c <ad_370c>
    2f24:	20 91 78 00 	lds	r18, 0x0078
	sbrc	r24, ADSC;
	rjmp	ad_370c ;
    2f28:	30 91 79 00 	lds	r19, 0x0079

	lds	r18, ADCW;		/* adcv[1] = ADCW;	// Voltage HighPin with current */
    2f2c:	28 8b       	std	Y+16, r18	; 0x10
	lds	r19, ADCW+1;
    2f2e:	39 8b       	std	Y+17, r19	; 0x11
    2f30:	3f 85       	ldd	r19, Y+15	; 0x0f

	//      sumvolt0 += adcv[0];	// add sum of both LowPin voltages with current
	//      adcv0 = r2/r3
	//      sumvolt1 += adcv[1];	// add  HighPin voltages with current
	//      adcv1 = r18/r19
	std	Y+adcvv1, r18;
    2f32:	37 b9       	out	0x07, r19	; 7
	std	Y+adcvv1+1, r19;
    2f34:	c5 b8       	out	0x05, r12	; 5

	      /* ********* Reverse direction, connect High side with GND *********** */
	ldd	r19, Y+HiADC;		/* ADC_DDR = HiADC;	// switch High Pin to GND */
    2f36:	c4 b8       	out	0x04, r12	; 4
	AOUT	ADC_DDR, r19;		/* ADC_DDR = HiADC;	// switch High-Pin to output (GND) */
    2f38:	a8 95       	wdr
	AOUT	R_PORT, HiPinR_L;	/* R_PORT = HiPinR_L;	// switch R-Port to VCC */
    2f3a:	b0 92 7c 00 	sts	0x007C, r11
	AOUT	R_DDR, HiPinR_L;	/* R_DDR = HiPinR_L;	// switch R_L port for HighPin to output (VCC) */

	wdr	;			/* wdt_reset(); */
    2f3e:	a0 92 7a 00 	sts	0x007A, r10
	sts	ADMUX, SelectHighPin;	/* ADMUX = SelectHighPin; */
    2f42:	80 91 7a 00 	lds	r24, 0x007A

	StartADCwait		/* start ADC and wait */
    2f46:	86 fd       	sbrc	r24, 6
    2f48:	fc cf       	rjmp	.-8      	; 0x2f42 <ad_370c+0x26>
    2f4a:	a0 92 7a 00 	sts	0x007A, r10
    2f4e:	80 91 7a 00 	lds	r24, 0x007A
	StartADCwait		/* start ADC and wait */
    2f52:	86 fd       	sbrc	r24, 6
    2f54:	fc cf       	rjmp	.-8      	; 0x2f4e <ad_370c+0x32>
    2f56:	60 91 78 00 	lds	r22, 0x0078
    2f5a:	70 91 79 00 	lds	r23, 0x0079

	lds	r22, ADCW;         	/* adcv[2] = ADCW;	// Reverse Reference Voltage HighPin  */
    2f5e:	60 92 7c 00 	sts	0x007C, r6
	lds	r23, ADCW+1;
    2f62:	a0 92 7a 00 	sts	0x007A, r10
	sts	ADMUX, SelectLowPin;	/*  ADMUX = SelectLowPin; */
    2f66:	80 91 7a 00 	lds	r24, 0x007A
	// ****** Polling mode big cap
	StartADCwait		/* start ADC and wait */
    2f6a:	86 fd       	sbrc	r24, 6
    2f6c:	fc cf       	rjmp	.-8      	; 0x2f66 <ad_370c+0x4a>
    2f6e:	80 92 7a 00 	sts	0x007A, r8
    2f72:	0e 94 6e 03 	call	0x6dc	; 0x6dc <wait10us>
	sts	ADCSRA, r8;	/* ADCSRA = (1<<ADSC) | (1<<ADEN) | (1<<ADIF) | AUTO_CLOCK_DIV; // enable ADC and start with ADSC */
    2f76:	0e 94 70 03 	call	0x6e0	; 0x6e0 <wait4us>
#ifdef ESR_LONG_PULSE
	call	wait5us;		/* wait normal to start the longer current pulse */
#else
	call	wait10us;		/* wait longer to start the short current pulse */
    2f7a:	75 b8       	out	0x05, r7	; 5
	call	EXTRA_DELAY2PULSE;
    2f7c:	74 b8       	out	0x04, r7	; 4
    2f7e:	0e 94 6f 03 	call	0x6de	; 0x6de <wait5us>
#endif
	AOUT	R_PORT, LoPinR_L;	/* R_PORT = LoPinR_L; */
	AOUT	R_DDR, LoPinR_L;	/* R_DDR = LoPinR_L;	// switch LowPin with 680 Ohm to VCC */
    2f82:	0e 94 71 03 	call	0x6e2	; 0x6e2 <wait3us>
	wdr	;		/* 27.0   us */
	wdr	;		/* 27.125 us */
  #else /* no ESR_LONG_PULSE, 8MHz, polling mode */
   #define EXTRA_DELAY2PULSE wait4us
        /* current begin after last ADCready:  0.875us (loop) + 14us + 6tics = 15.625us  */
	/* half puls length = (20us - 15.625us) = 4.375us  (PL=8.75us) */
    2f86:	a8 95       	wdr
    2f88:	a8 95       	wdr
    2f8a:	a8 95       	wdr
    2f8c:	a8 95       	wdr
    2f8e:	14 b8       	out	0x04, r1	; 4
    2f90:	15 b8       	out	0x05, r1	; 5

00002f92 <ad_37f4>:
    2f92:	80 91 7a 00 	lds	r24, 0x007A
	AOUT	R_DDR, LoPinR_L;	/* R_DDR = LoPinR_L;	// switch LowPin with 680 Ohm to VCC */

	DelayBigCap;			/* wait the time defined by macro */
					/*  }  */
	AOUT	R_DDR, zero_reg; 	// switch current off, SH is 1.5 ADC clock ticks behind real start
	AOUT	R_PORT, zero_reg; 
    2f96:	86 fd       	sbrc	r24, 6
ad_37f4:
	lds	r24, ADCSRA;		/* while (ADCSRA&(1<<ADSC));	// wait for conversion finished */
    2f98:	fc cf       	rjmp	.-8      	; 0x2f92 <ad_37f4>
    2f9a:	40 91 78 00 	lds	r20, 0x0078
	sbrc	r24, ADSC;
	rjmp	ad_37f4 ;
    2f9e:	50 91 79 00 	lds	r21, 0x0079

	lds	r20, ADCW;		/* adcv[3] = ADCW;	//  Voltage LowPin with current */
    2fa2:	14 b8       	out	0x04, r1	; 4
	lds	r21, ADCW+1;
    2fa4:	cb 01       	movw	r24, r22
    2fa6:	82 0d       	add	r24, r2
#ifdef ADC_Sleep_Mode
	sts	ADCSRA, StartADCmsk; 	/*  ADCSRA = StartADCmsk;	// enable ADC and Interrupt */
#endif

	AOUT	R_DDR, zero_reg; 	/* R_DDR = 0; // switch current off */
    2fa8:	93 1d       	adc	r25, r3

	movw	r24, r22;		/*  adcv[2] */
    2faa:	e8 0e       	add	r14, r24
	add	r24, adcv0L;		/* adcv[0] + adcv[2] // add sum of both LowPin voltages with current */
    2fac:	f9 1e       	adc	r15, r25
	adc	r25, adcv0H;
    2fae:	01 1d       	adc	r16, r1

	add	r14, r24;		/* r14:17 = sumvolt0 += (adcv[0] + adcv[2]); */
    2fb0:	11 1d       	adc	r17, r1
	adc	r15, r25;
    2fb2:	ea 82       	std	Y+2, r14	; 0x02
	adc	r16, zero_reg;
    2fb4:	fb 82       	std	Y+3, r15	; 0x03
	adc	r17, zero_reg;
    2fb6:	0c 83       	std	Y+4, r16	; 0x04
	std	Y+sumvolt0, r14;
    2fb8:	1d 83       	std	Y+5, r17	; 0x05
	std	Y+sumvolt0+1, r15;
    2fba:	88 89       	ldd	r24, Y+16	; 0x10
	std	Y+sumvolt0+2, r16;
    2fbc:	99 89       	ldd	r25, Y+17	; 0x11
	std	Y+sumvolt0+3, r17;
    2fbe:	84 0f       	add	r24, r20
	ldd	r24, Y+adcvv1;		/* add HighPin voltages with current */
    2fc0:	95 1f       	adc	r25, r21
	ldd	r25, Y+adcvv1+1; 
    2fc2:	2e 81       	ldd	r18, Y+6	; 0x06
	add	r24, r20;		/* adcv[1] + adcv[3] */
    2fc4:	3f 81       	ldd	r19, Y+7	; 0x07
	adc	r25, r21;
    2fc6:	68 85       	ldd	r22, Y+8	; 0x08
	ldd	r18, Y+sumvolt1;	/* sumvolt1 += (adcv[1] + adcv[3]); */
    2fc8:	79 85       	ldd	r23, Y+9	; 0x09
	ldd	r19, Y+sumvolt1+1;
    2fca:	28 0f       	add	r18, r24
	ldd	r22, Y+sumvolt1+2;
    2fcc:	39 1f       	adc	r19, r25
	ldd	r23, Y+sumvolt1+3;
    2fce:	61 1d       	adc	r22, r1
	add	r18, r24;
    2fd0:	71 1d       	adc	r23, r1
	adc	r19, r25;
    2fd2:	2e 83       	std	Y+6, r18	; 0x06
	adc	r22, zero_reg;
    2fd4:	3f 83       	std	Y+7, r19	; 0x07
	adc	r23, zero_reg;
    2fd6:	68 87       	std	Y+8, r22	; 0x08
	std	Y+sumvolt1, r18;
    2fd8:	79 87       	std	Y+9, r23	; 0x09
	std	Y+sumvolt1+1, r19;
    2fda:	22 e3       	ldi	r18, 0x32	; 50
	std	Y+sumvolt1+2, r22;
    2fdc:	24 17       	cp	r18, r20
	std	Y+sumvolt1+3, r23;
    2fde:	15 06       	cpc	r1, r21

  	/* Y+adcvv1 is still the voltage of forward direction, r20:21 the voltage of reverse direction */
	ldi	r18, lo8(50);
    2fe0:	50 f0       	brcs	.+20     	; 0x2ff6 <is_ok1>
	cp	r18, r20;
    2fe2:	75 b8       	out	0x05, r7	; 5
	cpc	zero_reg, r21;
    2fe4:	74 b8       	out	0x04, r7	; 4
	brcs	is_ok1;		/* r20:21 >= 50 */
    2fe6:	0e 94 73 03 	call	0x6e6	; 0x6e6 <wait1us>
	AOUT	R_PORT, LoPinR_L;	/* R_PORT = LoPinR_L; */
	AOUT	R_DDR, LoPinR_L;	/* R_DDR = LoPinR_L;	// switch LowPin with 680 Ohm to VCC */
    2fea:	14 b8       	out	0x04, r1	; 4
	call	wait1us;			/* additional charge the capacitor */
    2fec:	15 b8       	out	0x05, r1	; 5
    2fee:	88 8d       	ldd	r24, Y+24	; 0x18
	AOUT	R_DDR, zero_reg; 	// switch current off
    2ff0:	83 95       	inc	r24
	AOUT	R_PORT, zero_reg; 
    2ff2:	88 8f       	std	Y+24, r24	; 0x18
	ldd	r24, Y+LowUpCount; 	/* count additional load pulses at Low side */
    2ff4:	07 c0       	rjmp	.+14     	; 0x3004 <is_ok1b>

00002ff6 <is_ok1>:
	inc	r24;
    2ff6:	48 3e       	cpi	r20, 0xE8	; 232
	std	Y+LowUpCount, r24;
    2ff8:	73 e0       	ldi	r23, 0x03	; 3
	rjmp	is_ok1b;
    2ffa:	57 07       	cpc	r21, r23
is_ok1:
	cpi	r20, lo8(1000);
    2ffc:	18 f0       	brcs	.+6      	; 0x3004 <is_ok1b>
        ldi	r23, hi8(1000);
    2ffe:	8a 8d       	ldd	r24, Y+26	; 0x1a
	cpc	r21, r23;
    3000:	83 95       	inc	r24
        brcs	is_ok1b;			/* voltage reverse direction < 1000 */
    3002:	8a 8f       	std	Y+26, r24	; 0x1a

00003004 <is_ok1b>:
	ldd	r24, Y+LowTooHigh; 	/* count  pulses with too high voltage at Low side */
    3004:	88 89       	ldd	r24, Y+16	; 0x10
	inc	r24;
    3006:	99 89       	ldd	r25, Y+17	; 0x11
	std	Y+LowTooHigh, r24;
    3008:	28 17       	cp	r18, r24
is_ok1b:
	ldd	r24, Y+adcvv1;
    300a:	19 06       	cpc	r1, r25
	ldd	r25, Y+adcvv1+1;
    300c:	60 f0       	brcs	.+24     	; 0x3026 <is_ok2>
	cp	r18, r24;
    300e:	3e 85       	ldd	r19, Y+14	; 0x0e
	cpc	zero_reg, r25;	/* adcvv1 >= 50 */
    3010:	37 b9       	out	0x07, r19	; 7
	brcs	is_ok2;
    3012:	c5 b8       	out	0x05, r12	; 5
	ldd	r19, Y+LoADC;
    3014:	c4 b8       	out	0x04, r12	; 4
	AOUT	ADC_DDR, r19;		/* ADC_DDR = LoADC;	// switch Low-Pin to output (GND) */
    3016:	0e 94 73 03 	call	0x6e6	; 0x6e6 <wait1us>
	AOUT	R_PORT, HiPinR_L;	/* R_PORT = HiPinR_L;	// switch R-Port to VCC */
	AOUT	R_DDR, HiPinR_L;	/* R_DDR = HiPinR_L;	// switch R_L port for HighPin to output (VCC) */
    301a:	14 b8       	out	0x04, r1	; 4
	call	wait1us;			/* additional charge the capacitor */
    301c:	15 b8       	out	0x05, r1	; 5
    301e:	89 8d       	ldd	r24, Y+25	; 0x19
;##	DelayBigCap;			/* wait the time defined by macro */
	AOUT	R_DDR, zero_reg;	/* R_DDR = 0; // switch current off,  SH is 1.5 ADC clock behind real start */
    3020:	83 95       	inc	r24
	AOUT	R_PORT, zero_reg;	/* R_PORT = 0; */
    3022:	89 8f       	std	Y+25, r24	; 0x19
	ldd	r24, Y+HighUpCount;	/* count additional load pulses at High side */
    3024:	07 c0       	rjmp	.+14     	; 0x3034 <is_ok2b>

00003026 <is_ok2>:
	inc	r24;
    3026:	88 3e       	cpi	r24, 0xE8	; 232
	std	Y+HighUpCount, r24;
    3028:	73 e0       	ldi	r23, 0x03	; 3
	rjmp	is_ok2b;
    302a:	97 07       	cpc	r25, r23
is_ok2:
	cpi	r24, lo8(1000);
    302c:	18 f0       	brcs	.+6      	; 0x3034 <is_ok2b>
        ldi	r23, hi8(1000);
    302e:	8b 8d       	ldd	r24, Y+27	; 0x1b
	cpc	r25, r23;
    3030:	83 95       	inc	r24
        brcs	is_ok2b;			/* voltage forward direction < 1000 */
    3032:	8b 8f       	std	Y+27, r24	; 0x1b

00003034 <is_ok2b>:
	ldd	r24, Y+HighTooHigh; 	/* count  pulses with too high voltage at High side */
    3034:	d3 94       	inc	r13
	inc	r24;
    3036:	5d 2d       	mov	r21, r13
	std	Y+HighTooHigh, r24;
    3038:	5f 3f       	cpi	r21, 0xFF	; 255
is_ok2b:
	inc	r13;			/* for(    ;ii<MAX_CNT;ii++)  */
    303a:	09 f0       	breq	.+2      	; 0x303e <ad_38ac>
	mov	r21, r13;
    303c:	3e cf       	rjmp	.-388    	; 0x2eba <esr_loop>

0000303e <ad_38ac>:
	cpi	r21, MAX_CNT;
    303e:	40 90 34 01 	lds	r4, 0x0134
	breq	ad_38ac;
	rjmp	esr_loop;		/* } // end for */
    3042:	50 90 35 01 	lds	r5, 0x0135

#if RRpinMI == PIN_RM
	ldi	r18, lo8(PIN_RM*10);
	ldi	r19, hi8(PIN_RM*10);
#else
	lds	r4, RRpinMI;		/*  pin_rmi */
    3046:	44 0c       	add	r4, r4
	lds	r5, RRpinMI+1;
    3048:	55 1c       	adc	r5, r5
    304a:	92 01       	movw	r18, r4
	add	r4, r4;		RRpinMI*2
    304c:	e4 e0       	ldi	r30, 0x04	; 4

0000304e <ad_2r>:
	adc	r5, r5;
    304e:	24 0d       	add	r18, r4
	movw	r18, r4;
    3050:	35 1d       	adc	r19, r5
	ldi	r30, 4;
    3052:	ea 95       	dec	r30
ad_2r:
	add	r18, r4;		+ 4*(2*RRpinMI)
    3054:	e1 f7       	brne	.-8      	; 0x304e <ad_2r>
	adc	r19, r5;
    3056:	29 01       	movw	r4, r18
	dec	r30;
    3058:	57 01       	movw	r10, r14
	brne	ad_2r;			add next (2*RRpinMI)
    305a:	68 01       	movw	r12, r16
#endif
	movw	r4, r18;		/* r4:5 = 10 * RRpinMI */
    305c:	6e 80       	ldd	r6, Y+6	; 0x06
	movw	r10, r14;		/* r10:13 = r14:17 = sumvolt0 */
    305e:	7f 80       	ldd	r7, Y+7	; 0x07
	movw	r12, r16;
    3060:	88 84       	ldd	r8, Y+8	; 0x08

	ldd	r6, Y+sumvolt1;
    3062:	99 84       	ldd	r9, Y+9	; 0x09
	ldd	r7, Y+sumvolt1+1;
    3064:	20 91 16 01 	lds	r18, 0x0116
	ldd	r8, Y+sumvolt1+2;
	ldd	r9, Y+sumvolt1+3;
    3068:	28 30       	cpi	r18, 0x08	; 8
/* ############################################################ */
	lds	r18, PartFound;		/* if (PartFound == PART_CAPACITOR) { */
    306a:	b1 f4       	brne	.+44     	; 0x3098 <no_sub>
    306c:	6c 89       	ldd	r22, Y+20	; 0x14
	cpi	r18, PART_CAPACITOR;	
    306e:	7d 89       	ldd	r23, Y+21	; 0x15
 	brne	no_sub;			/* it is not a capacitor */
    3070:	81 2d       	mov	r24, r1
/* Aproximation of 5000*(1 - exp(13.5e-6/(cap_val_nF*1.e-9*(0.1*(PIN_RM+PIN_RP+R_L_VAL)))) - 2500*(1 - exp(-27e-6/(cap_val_nF*1.e-9*(0.1*(PIN_RM+PIN_RP+R_L_VAL))))) */
/*  is done by ((6744116/(PIN_RM+PIN_RP+R_L_VAL))*(6744116/(PIN_RM+PIN_RP+R_L_VAL))) / (cap_val_nF * (cap_val_nF + (137180/(PIN_RM+PIN_RP+R_L_VAL)))) */
/*  is done by 872520 / (cap_val_nF * (cap_val_nF + 19)) */
; #define FAKTOR_ESR (9537620/(PIN_RM+PIN_RP+R_L_VAL))

	ldd	r22, Y+cap_val_nF;	/* sumvolt1 -= (1745098UL*MAX_CNT) / (cap_val_nF * (cap_val_nF + 19)); */
    3072:	91 2d       	mov	r25, r1
	ldd	r23, Y+cap_val_nF+1;
    3074:	6c 53       	subi	r22, 0x3C	; 60
;	ldd	r24, Y+cap_val_nF+2;
	mov	r24, r1			/* upper bits of cap_val_nF are allway zero */
    3076:	70 40       	sbci	r23, 0x00	; 0
;	ldd	r25, Y+cap_val_nF+3;
	mov	r25, r1			/* upper bits of cap_val_nF are allway zero */
    3078:	80 40       	sbci	r24, 0x00	; 0
#define CAP_OFFSET (410400/(PIN_RM+PIN_RP+R_L_VAL))	/* 57 nF */
 #else
#define FAKTOR_ESR (920000/(PIN_RM+PIN_RP+R_L_VAL))	/* 127 */
#define CAP_OFFSET (433200/(PIN_RM+PIN_RP+R_L_VAL))	/* 60 nF */
 #endif
      	subi	r22, lo8(CAP_OFFSET); 0xED; 237
    307a:	90 40       	sbci	r25, 0x00	; 0
      	sbci	r23, hi8(CAP_OFFSET); 0xFF; 255
    307c:	9b 01       	movw	r18, r22
      	sbci	r24, hlo8(CAP_OFFSET); 0xFF; 255
    307e:	ac 01       	movw	r20, r24
      	sbci	r25, hhi8(CAP_OFFSET); 0xFF; 255
    3080:	0b d6       	rcall	.+3094   	; 0x3c98 <__mulsi3>
	movw	r18, r22;		/* r18:21 = r22:25 = (cap_val_nF-60); */
    3082:	9b 01       	movw	r18, r22
	movw	r20, r24;
    3084:	ac 01       	movw	r20, r24
	call	__mulsi3;		/* (cap_val_nF - 60) * (cap_val_nF - 60) */
    3086:	6f ef       	ldi	r22, 0xFF	; 255
    3088:	71 ec       	ldi	r23, 0xC1	; 193
#endif
       	movw	r18, r22;
    308a:	8e e3       	ldi	r24, 0x3E	; 62
       	movw	r20, r24;
    308c:	90 e0       	ldi	r25, 0x00	; 0
       	ldi	r22, lo8(FAKTOR_ESR*FAKTOR_ESR*MAX_CNT); 0x36; 54
    308e:	33 d6       	rcall	.+3174   	; 0x3cf6 <__udivmodsi4>
       	ldi	r23, hi8(FAKTOR_ESR*FAKTOR_ESR*MAX_CNT); 0x29; 41
    3090:	62 1a       	sub	r6, r18
       	ldi	r24, hlo8(FAKTOR_ESR*FAKTOR_ESR*MAX_CNT); 0x86; 134
    3092:	73 0a       	sbc	r7, r19
       	ldi	r25, hhi8(FAKTOR_ESR*FAKTOR_ESR*MAX_CNT); 0x1A; 26
    3094:	84 0a       	sbc	r8, r20
	call	__udivmodsi4;
    3096:	95 0a       	sbc	r9, r21

00003098 <no_sub>:
    3098:	a6 14       	cp	r10, r6
	sub	r6, r18
    309a:	b7 04       	cpc	r11, r7
	sbc	r7, r19
    309c:	c8 04       	cpc	r12, r8
	sbc	r8, r20
    309e:	d9 04       	cpc	r13, r9
	sbc	r9, r21
    30a0:	28 f4       	brcc	.+10     	; 0x30ac <ad_396c>
no_sub:				/* } */
/* ############################################################ */

	cp	r10, r6;		/* if (sumvolt1 > sumvolt0) {  */
    30a2:	6a 18       	sub	r6, r10
	cpc	r11, r7;
    30a4:	7b 08       	sbc	r7, r11
	cpc	r12, r8;
    30a6:	8c 08       	sbc	r8, r12
	cpc	r13, r9;
    30a8:	9d 08       	sbc	r9, r13
	brcc	ad_396c;
    30aa:	03 c0       	rjmp	.+6      	; 0x30b2 <ad_3972>

000030ac <ad_396c>:
	sub	r6, r10;		/* sumvolt1 -= sumvolt0;	// difference HighPin - LowPin Voltage with current */
    30ac:	66 24       	eor	r6, r6
	sbc	r7, r11;
    30ae:	77 24       	eor	r7, r7
	sbc	r8, r12;
    30b0:	43 01       	movw	r8, r6

000030b2 <ad_3972>:
	sbc	r9, r13;
    30b2:	b2 01       	movw	r22, r4
	rjmp	ad_3972;		/* } else { */
    30b4:	80 e0       	ldi	r24, 0x00	; 0
ad_396c:
	eor	r6, r6;			/* sumvolt1 = 0; */
    30b6:	90 e0       	ldi	r25, 0x00	; 0
	eor	r7, r7
    30b8:	93 01       	movw	r18, r6
	movw	r8, r6
    30ba:	a4 01       	movw	r20, r8
	ldi	r22, 0;
	ldi	r20, '#';
	ldi	r18, 4	;
	call	DisplayValue16;
#endif
	movw	r22, r4
    30bc:	ed d5       	rcall	.+3034   	; 0x3c98 <__mulsi3>
	ldi	r24, 0x00;
    30be:	95 01       	movw	r18, r10
	ldi	r25, 0x00;	/*  r22:25 = 10 * (unsigned long)RRpinMI)  */
    30c0:	a6 01       	movw	r20, r12
	      // mean voltage at the capacitor is higher with current
	      // sumvolt0 is the sum of voltages at LowPin, caused by output resistance of Port
	      // RRpinMI is the port output resistance in 0.1 Ohm units.
	      // we scale up the difference voltage with 10 to get 0.01 Ohm units of ESR
		/* esrvalue = (sumvolt1 * 10 * (unsigned long)RRpinMI) / sumvolt0; */
	movw	r18, r6;		/* r18:21 = r6:9 = sumvolt1 */
    30c2:	19 d6       	rcall	.+3122   	; 0x3cf6 <__udivmodsi4>
	movw	r20, r8;
    30c4:	8c ec       	ldi	r24, 0xCC	; 204
	call	__mulsi3;		/* r22:25 = r22:25 * r18:21 */
    30c6:	91 e0       	ldi	r25, 0x01	; 1
    30c8:	79 81       	ldd	r23, Y+1	; 0x01
	movw	r18, r10;	/* r18:21 = r10:13 = sumvolt0 */
    30ca:	87 0f       	add	r24, r23
	movw	r20, r12;
    30cc:	91 1d       	adc	r25, r1
	call	__udivmodsi4;		/* r18:21 = r22:25  / r18:21 */
    30ce:	9c d6       	rcall	.+3384   	; 0x3e08 <__eerd_byte_m168>
    30d0:	90 e0       	ldi	r25, 0x00	; 0
	ldi	r24, lo8(EE_ESR_ZEROtab);	/* esr0 = (int8_t)eeprom_read_byte(&EE_ESR_ZEROtab[lopin+hipin]); */
    30d2:	68 2e       	mov	r6, r24
	ldi	r25, hi8(EE_ESR_ZEROtab);
    30d4:	c9 01       	movw	r24, r18
        ldd	r23, Y+1;
    30d6:	60 e1       	ldi	r22, 0x10	; 16
        add	r24, r23;
    30d8:	70 e0       	ldi	r23, 0x00	; 0
	adc	r25, zero_reg;
    30da:	f9 d5       	rcall	.+3058   	; 0x3cce <__udivmodhi4>
	call	eeprom_read_byte;
    30dc:	26 0f       	add	r18, r22
    30de:	37 1f       	adc	r19, r23
        ldi	r25, 0;		/* upper bits allways zero */
    30e0:	c9 01       	movw	r24, r18
	mov	r6, r24;
    30e2:	68 16       	cp	r6, r24
	movw	r24,r18;	/* r24:25 = r18:19 = esrvalue */
    30e4:	19 06       	cpc	r1, r25
	ldi	r22, 16;
    30e6:	18 f4       	brcc	.+6      	; 0x30ee <esr_too_less>
	ldi	r23, 0;
    30e8:	86 19       	sub	r24, r6
	call	__udivmodhi4	/* r22:23 = r24:25 / r22:23 */
    30ea:	91 09       	sbc	r25, r1
    30ec:	0f c0       	rjmp	.+30     	; 0x310c <ad_exit>

000030ee <esr_too_less>:
	add	r18, r22;	/* esrvalue += esrvalue / 16; */
    30ee:	8c 5e       	subi	r24, 0xEC	; 236
	adc	r19, r23;
    30f0:	9f 4f       	sbci	r25, 0xFF	; 255
	movw	r24,r18;	/* esrvalue */
    30f2:	86 15       	cp	r24, r6
	cp	r6, r24;		/* if (esrvalue > esr0) esrvalue -= esr0; */
    30f4:	91 05       	cpc	r25, r1
	cpc	zero_reg, r25;
    30f6:	40 f4       	brcc	.+16     	; 0x3108 <esr_too_less2>
	brcc	esr_too_less;
    30f8:	8c 89       	ldd	r24, Y+20	; 0x14
	sub	r24, r6;		/* - esr0 */ 
    30fa:	9d 89       	ldd	r25, Y+21	; 0x15
	sbc	r25, zero_reg;
    30fc:	84 39       	cpi	r24, 0x94	; 148
	rjmp	ad_exit;
    30fe:	81 e1       	ldi	r24, 0x11	; 17
esr_too_less:
#ifdef AUTO_CAL
        subi	r24, lo8(-R_LIMIT_TO_UNCALIBRATED);		/* + 0.20 Ohm */
    3100:	98 07       	cpc	r25, r24
        sbci	r25, hi8(-R_LIMIT_TO_UNCALIBRATED);		/* esrvalue + 20 */
    3102:	10 f0       	brcs	.+4      	; 0x3108 <esr_too_less2>
	cp	r24, r6;		/* if ((esrvalue+20) < esr0) ; */
    3104:	0e 94 4c 07 	call	0xe98	; 0xe98 <mark_as_uncalibrated>

00003108 <esr_too_less2>:
	cpc	r25, zero_reg;
	brcc	esr_too_less2;
    3108:	81 2d       	mov	r24, r1
	ldd	r24, Y+cap_val_nF;	/* mark only, if cap_val_nF > 4500 */
    310a:	91 2d       	mov	r25, r1

0000310c <ad_exit>:
	ldd     r25, Y+cap_val_nF+1;
    310c:	6e 96       	adiw	r28, 0x1e	; 30
;	ldd	r26, Y+cap_val_nF+2;	/* the upper bits (cap_val_nF+2|3) are always zero */ 
	cpi	r24, lo8(4500);
    310e:	e2 e1       	ldi	r30, 0x12	; 18
	ldi	r24, hi8(4500);
    3110:	4c c6       	rjmp	.+3224   	; 0x3daa <__epilogue_restores__>

00003112 <GetVloss>:
#include <stdlib.h>
#include "Transistortester.h"


//=================================================================
void GetVloss() {
    3112:	a4 e0       	ldi	r26, 0x04	; 4
    3114:	b0 e0       	ldi	r27, 0x00	; 0
    3116:	ee e8       	ldi	r30, 0x8E	; 142
    3118:	f8 e1       	ldi	r31, 0x18	; 24
    311a:	33 c6       	rjmp	.+3174   	; 0x3d82 <__prologue_saves__+0x10>
    311c:	80 91 76 01 	lds	r24, 0x0176
  } lval;
  uint8_t ii;
  uint8_t HiPinR_L;
  uint8_t LoADC;

  if (cap.v_loss > 0) {
    3120:	90 91 77 01 	lds	r25, 0x0177
    3124:	89 2b       	or	r24, r25
    3126:	09 f0       	breq	.+2      	; 0x312a <GetVloss+0x18>
    3128:	af c0       	rjmp	.+350    	; 0x3288 <GetVloss+0x176>
    312a:	e0 91 78 01 	lds	r30, 0x0178
     return;		// Voltage loss is already known (big Capacitor)
  }
#if (((PIN_RL1 + 1) != PIN_RH1) || ((PIN_RL2 + 1) != PIN_RH2) || ((PIN_RL3 + 1) != PIN_RH3))
  LoADC = pgm_read_byte((&PinRLRHADCtab[6])+cap.ca-TP1) | TXD_MSK;
#else
  LoADC = pgm_read_byte((&PinRLRHADCtab[3])+cap.ca-TP1) | TXD_MSK;
    312e:	f0 e0       	ldi	r31, 0x00	; 0
    3130:	ef 57       	subi	r30, 0x7F	; 127
    3132:	ff 4f       	sbci	r31, 0xFF	; 255
    3134:	04 91       	lpm	r16, Z
    3136:	e0 91 79 01 	lds	r30, 0x0179
#endif
  HiPinR_L = pgm_read_byte(&PinRLRHADCtab[cap.cb-TP1]);	//R_L mask for HighPin R_L load
    313a:	f0 e0       	ldi	r31, 0x00	; 0
    313c:	e2 58       	subi	r30, 0x82	; 130
    313e:	ff 4f       	sbci	r31, 0xFF	; 255
    3140:	14 91       	lpm	r17, Z
    3142:	0e 94 a4 0f 	call	0x1f48	; 0x1f48 <EntladePins>

  EntladePins();			// discharge capacitor
    3146:	18 b8       	out	0x08, r1	; 8
  ADC_PORT = TXD_VAL;			// switch ADC-Port to GND
    3148:	15 b8       	out	0x05, r1	; 5
  R_PORT = 0;				// switch R-Port to GND
    314a:	07 b9       	out	0x07, r16	; 7
  ADC_DDR = LoADC;			// switch Low-Pin to output (GND)
    314c:	14 b9       	out	0x04, r17	; 4
  R_DDR = HiPinR_L;			// switch R_L port for HighPin to output (GND)
    314e:	80 91 79 01 	lds	r24, 0x0179
  adcv[0] = ReadADC(cap.cb);		// voltage before any load 
    3152:	0e 94 78 03 	call	0x6f0	; 0x6f0 <ReadADC>
    3156:	5c 01       	movw	r10, r24
    3158:	00 91 7b 01 	lds	r16, 0x017B
// ******** should adcv[0] be measured without current???
  if ((cap.cpre_max > -9) || (cap.cpre_max < -12)) return;	// too much or too less capacity
    315c:	8c e0       	ldi	r24, 0x0C	; 12
    315e:	80 0f       	add	r24, r16
    3160:	84 30       	cpi	r24, 0x04	; 4
    3162:	08 f0       	brcs	.+2      	; 0x3166 <GetVloss+0x54>
    3164:	91 c0       	rjmp	.+290    	; 0x3288 <GetVloss+0x176>
    3166:	01 5f       	subi	r16, 0xF1	; 241
  lval.dw = cap.cval_max;
  for (ii=cap.cpre_max+15;ii<7;ii++) {
    3168:	80 91 6c 01 	lds	r24, 0x016C
    316c:	90 91 6d 01 	lds	r25, 0x016D
    3170:	a0 91 6e 01 	lds	r26, 0x016E
    3174:	b0 91 6f 01 	lds	r27, 0x016F
    3178:	2a e0       	ldi	r18, 0x0A	; 10
     lval.dw = (lval.dw + 5) / 10;
    317a:	c2 2e       	mov	r12, r18
    317c:	d1 2c       	mov	r13, r1
    317e:	e1 2c       	mov	r14, r1
    3180:	f1 2c       	mov	r15, r1
    3182:	bc 01       	movw	r22, r24
    3184:	cd 01       	movw	r24, r26
    3186:	6b 5f       	subi	r22, 0xFB	; 251
    3188:	7f 4f       	sbci	r23, 0xFF	; 255
    318a:	8f 4f       	sbci	r24, 0xFF	; 255
    318c:	9f 4f       	sbci	r25, 0xFF	; 255
    318e:	a7 01       	movw	r20, r14
    3190:	96 01       	movw	r18, r12
    3192:	b1 d5       	rcall	.+2914   	; 0x3cf6 <__udivmodsi4>
    3194:	0f 5f       	subi	r16, 0xFF	; 255
    3196:	07 30       	cpi	r16, 0x07	; 7
  R_DDR = HiPinR_L;			// switch R_L port for HighPin to output (GND)
  adcv[0] = ReadADC(cap.cb);		// voltage before any load 
// ******** should adcv[0] be measured without current???
  if ((cap.cpre_max > -9) || (cap.cpre_max < -12)) return;	// too much or too less capacity
  lval.dw = cap.cval_max;
  for (ii=cap.cpre_max+15;ii<7;ii++) {
    3198:	19 f0       	breq	.+6      	; 0x31a0 <GetVloss+0x8e>
    319a:	da 01       	movw	r26, r20
    319c:	c9 01       	movw	r24, r18
     lval.dw = (lval.dw + 5) / 10;
    319e:	f1 cf       	rjmp	.-30     	; 0x3182 <GetVloss+0x70>
    31a0:	29 38       	cpi	r18, 0x89	; 137
    31a2:	83 e1       	ldi	r24, 0x13	; 19
  }
  if (lval.dw > 5000) {
    31a4:	38 07       	cpc	r19, r24
    31a6:	41 05       	cpc	r20, r1
    31a8:	51 05       	cpc	r21, r1
    31aa:	08 f0       	brcs	.+2      	; 0x31ae <GetVloss+0x9c>
    31ac:	6d c0       	rjmp	.+218    	; 0x3288 <GetVloss+0x176>
    31ae:	25 30       	cpi	r18, 0x05	; 5
    31b0:	31 05       	cpc	r19, r1
     /* capacity more than 50uF, Voltage loss is already measured  */
     return;
  }
  if (lval.w[0] < 5) return;		// Capacity below 5nF
    31b2:	08 f4       	brcc	.+2      	; 0x31b6 <GetVloss+0xa4>
    31b4:	69 c0       	rjmp	.+210    	; 0x3288 <GetVloss+0x176>
    31b6:	15 b9       	out	0x05, r17	; 5
    31b8:	14 b9       	out	0x04, r17	; 4
  R_PORT = HiPinR_L;			//R_L to 1 (VCC) 
    31ba:	00 e0       	ldi	r16, 0x00	; 0
  R_DDR = HiPinR_L;			//switch Pin to output, across R to GND or VCC
    31bc:	10 e0       	ldi	r17, 0x00	; 0
  for (tmpint=0;tmpint<lval.w[0];tmpint+=2) {
    31be:	02 17       	cp	r16, r18
    31c0:	13 07       	cpc	r17, r19
    31c2:	68 f4       	brcc	.+26     	; 0x31de <GetVloss+0xcc>
    31c4:	29 83       	std	Y+1, r18	; 0x01
    31c6:	3a 83       	std	Y+2, r19	; 0x02
//     wait50us();			// wait exactly 50us
     wait5us();			// wait exactly 5us
    31c8:	4b 83       	std	Y+3, r20	; 0x03
    31ca:	5c 83       	std	Y+4, r21	; 0x04
    31cc:	0e 94 6f 03 	call	0x6de	; 0x6de <wait5us>
    31d0:	0e 5f       	subi	r16, 0xFE	; 254
    31d2:	1f 4f       	sbci	r17, 0xFF	; 255
     return;
  }
  if (lval.w[0] < 5) return;		// Capacity below 5nF
  R_PORT = HiPinR_L;			//R_L to 1 (VCC) 
  R_DDR = HiPinR_L;			//switch Pin to output, across R to GND or VCC
  for (tmpint=0;tmpint<lval.w[0];tmpint+=2) {
    31d4:	5c 81       	ldd	r21, Y+4	; 0x04
    31d6:	4b 81       	ldd	r20, Y+3	; 0x03
    31d8:	3a 81       	ldd	r19, Y+2	; 0x02
    31da:	29 81       	ldd	r18, Y+1	; 0x01
    31dc:	f0 cf       	rjmp	.-32     	; 0x31be <GetVloss+0xac>
    31de:	14 b8       	out	0x04, r1	; 4
    31e0:	15 b8       	out	0x05, r1	; 5
//     wait50us();			// wait exactly 50us
     wait5us();			// wait exactly 5us
  }
  R_DDR = 0;				// switch back to input
    31e2:	a8 95       	wdr
  R_PORT = 0;			// no Pull up
    31e4:	85 e0       	ldi	r24, 0x05	; 5
 // wait10us();			//wait a little time
  wdt_reset();
    31e6:	80 93 27 01 	sts	0x0127, r24
  // read voltage without current
  ADCconfig.Samples = 5;		// set ADC to only 5 samples
    31ea:	80 91 79 01 	lds	r24, 0x0179
  adcv[2] = ReadADC(cap.cb);
    31ee:	29 83       	std	Y+1, r18	; 0x01
    31f0:	3a 83       	std	Y+2, r19	; 0x02
    31f2:	4b 83       	std	Y+3, r20	; 0x03
    31f4:	5c 83       	std	Y+4, r21	; 0x04
    31f6:	0e 94 78 03 	call	0x6f0	; 0x6f0 <ReadADC>
    31fa:	29 81       	ldd	r18, Y+1	; 0x01
    31fc:	3a 81       	ldd	r19, Y+2	; 0x02
  if (adcv[2] > adcv[0]) {
    31fe:	4b 81       	ldd	r20, Y+3	; 0x03
    3200:	5c 81       	ldd	r21, Y+4	; 0x04
    3202:	a8 16       	cp	r10, r24
    3204:	b9 06       	cpc	r11, r25
    3206:	20 f4       	brcc	.+8      	; 0x3210 <GetVloss+0xfe>
    3208:	7c 01       	movw	r14, r24
    320a:	ea 18       	sub	r14, r10
     adcv[2] -= adcv[0];		//difference to beginning voltage
    320c:	fb 08       	sbc	r15, r11
    320e:	02 c0       	rjmp	.+4      	; 0x3214 <GetVloss+0x102>
    3210:	e1 2c       	mov	r14, r1
    3212:	f1 2c       	mov	r15, r1
  } else {
     adcv[2] = 0;			// voltage is lower or same as beginning voltage
    3214:	00 e0       	ldi	r16, 0x00	; 0
    3216:	10 e0       	ldi	r17, 0x00	; 0
  }
  // wait 2x the time which was required for loading
  for (tmpint=0;tmpint<lval.w[0];tmpint++) {
    3218:	02 17       	cp	r16, r18
    321a:	13 07       	cpc	r17, r19
    321c:	68 f4       	brcc	.+26     	; 0x3238 <GetVloss+0x126>
    321e:	29 83       	std	Y+1, r18	; 0x01
    3220:	3a 83       	std	Y+2, r19	; 0x02
//     wait50us();
     wait5us();
    3222:	4b 83       	std	Y+3, r20	; 0x03
    3224:	5c 83       	std	Y+4, r21	; 0x04
    3226:	0e 94 6f 03 	call	0x6de	; 0x6de <wait5us>
    322a:	0f 5f       	subi	r16, 0xFF	; 255
    322c:	1f 4f       	sbci	r17, 0xFF	; 255
     adcv[2] -= adcv[0];		//difference to beginning voltage
  } else {
     adcv[2] = 0;			// voltage is lower or same as beginning voltage
  }
  // wait 2x the time which was required for loading
  for (tmpint=0;tmpint<lval.w[0];tmpint++) {
    322e:	5c 81       	ldd	r21, Y+4	; 0x04
    3230:	4b 81       	ldd	r20, Y+3	; 0x03
    3232:	3a 81       	ldd	r19, Y+2	; 0x02
    3234:	29 81       	ldd	r18, Y+1	; 0x01
    3236:	f0 cf       	rjmp	.-32     	; 0x3218 <GetVloss+0x106>
    3238:	80 91 79 01 	lds	r24, 0x0179
//     wait50us();
     wait5us();
  }
  adcv[3] = ReadADC(cap.cb);	// read voltage again, is discharged only a little bit ?
    323c:	0e 94 78 03 	call	0x6f0	; 0x6f0 <ReadADC>
    3240:	29 e1       	ldi	r18, 0x19	; 25
    3242:	20 93 27 01 	sts	0x0127, r18
  ADCconfig.Samples = ANZ_MESS;		// set ADC back to configured No. of samples
    3246:	a8 95       	wdr
    3248:	a8 16       	cp	r10, r24
  wdt_reset();
    324a:	b9 06       	cpc	r11, r25
  if (adcv[3] > adcv[0]) {
    324c:	18 f4       	brcc	.+6      	; 0x3254 <GetVloss+0x142>
    324e:	8a 19       	sub	r24, r10
    3250:	9b 09       	sbc	r25, r11
     adcv[3] -= adcv[0];		// difference to beginning voltage
    3252:	02 c0       	rjmp	.+4      	; 0x3258 <GetVloss+0x146>
    3254:	80 e0       	ldi	r24, 0x00	; 0
    3256:	90 e0       	ldi	r25, 0x00	; 0
  } else {
     adcv[3] = 0;			// voltage is lower or same as beginning voltage
    3258:	8e 15       	cp	r24, r14
    325a:	9f 05       	cpc	r25, r15
  }
  if (adcv[2] > adcv[3]) {
    325c:	78 f4       	brcc	.+30     	; 0x327c <GetVloss+0x16a>
    325e:	97 01       	movw	r18, r14
    3260:	28 1b       	sub	r18, r24
     // build difference to load voltage
     adcv[1] = adcv[2] - adcv[3];	// lost voltage during load time wait
    3262:	39 0b       	sbc	r19, r25
    3264:	59 f0       	breq	.+22     	; 0x327c <GetVloss+0x16a>
    3266:	a4 ef       	ldi	r26, 0xF4	; 244
  } else {
     adcv[1] = 0;			// no lost voltage
  }
  // compute voltage drop as part from loaded voltage
  if (adcv[1] > 0) {
    3268:	b1 e0       	ldi	r27, 0x01	; 1
     // there is any voltage drop (adcv[1]) !
     // adcv[2] is the loaded voltage.
     cap.v_loss = (unsigned long)(adcv[1] * 500UL) / adcv[2];
    326a:	f7 d4       	rcall	.+2542   	; 0x3c5a <__umulhisi3>
    326c:	97 01       	movw	r18, r14
    326e:	40 e0       	ldi	r20, 0x00	; 0
    3270:	50 e0       	ldi	r21, 0x00	; 0
    3272:	41 d5       	rcall	.+2690   	; 0x3cf6 <__udivmodsi4>
    3274:	30 93 77 01 	sts	0x0177, r19
    3278:	20 93 76 01 	sts	0x0176, r18
    327c:	0e 94 a4 0f 	call	0x1f48	; 0x1f48 <EntladePins>
    3280:	17 b8       	out	0x07, r1	; 7
    3282:	18 b8       	out	0x08, r1	; 8
  lcd_line4();
  DisplayValue16(lval.w[0],0,'x',4);
#endif

  // discharge capacitor again
  EntladePins();		// discharge capacitors
    3284:	14 b8       	out	0x04, r1	; 4
    3286:	15 b8       	out	0x05, r1	; 5
  //ready
  // switch all ports to input
  ADC_DDR =  TXD_MSK;		// switch all ADC ports to input
    3288:	24 96       	adiw	r28, 0x04	; 4
  ADC_PORT = TXD_VAL;		// switch all ADC outputs to GND, no pull up
    328a:	ea e0       	ldi	r30, 0x0A	; 10
  R_DDR = 0;			// switch all resistor ports to input
    328c:	96 c5       	rjmp	.+2860   	; 0x3dba <__epilogue_restores__+0x10>

0000328e <EE_check_init>:
#include <avr/eeprom.h>
#include <stdlib.h>
#include "Transistortester.h"

// check some EEprom values for correct values 
void EE_check_init(void) {
    328e:	08 95       	ret

00003290 <main>:
  R_PORT = 0; 			// switch all resistor outputs to GND, no pull up
#endif
  return;
 } // end GetVloss()
    3290:	a1 e0       	ldi	r26, 0x01	; 1
    3292:	b0 e0       	ldi	r27, 0x00	; 0
    3294:	ed e4       	ldi	r30, 0x4D	; 77
    3296:	f9 e1       	ldi	r31, 0x19	; 25
	  // ADC_vect is always required by samplingADC()
	  EMPTY_INTERRUPT(ADC_vect);
        #endif

	//begin of transistortester program
	int main(void) {
    3298:	6c c5       	rjmp	.+2776   	; 0x3d72 <__prologue_saves__>
    329a:	80 e4       	ldi	r24, 0x40	; 64
        uint16_t pw;
        uint8_t pb[2];
        } rpins;
        uint8_t x, y, z;
	  //switch on
	  ON_DDR = (1<<ON_PIN);			// switch to output
    329c:	8a b9       	out	0x0a, r24	; 10
    329e:	8b b9       	out	0x0b, r24	; 11
	  ON_PORT = (1<<ON_PIN); 		// switch power on 
    32a0:	86 e8       	ldi	r24, 0x86	; 134
	#ifndef PULLUP_DISABLE
	  RST_PORT |= (1<<RST_PIN); 	// enable internal Pullup for Start-Pin
	#endif
	  uint8_t tmp;
	  //ADC-Init
	  ADCSRA = (1<<ADEN) | AUTO_CLOCK_DIV;	//prescaler=8 or 64 (if 8Mhz clock)
    32a2:	80 93 7a 00 	sts	0x007A, r24
    32a6:	0e 94 55 03 	call	0x6aa	; 0x6aa <wait500ms>
	 #if FLASHEND > 0x3fff
	  // probably was a bootloader active, disable the UART
	  UCSR0B = 0;		// disable UART, if started with bootloader
	 #endif
	#endif
          wait500ms();
    32aa:	14 b7       	in	r17, 0x34	; 52
	  SERIAL_PORT |= (1<<SERIAL_BIT);
         #endif
          SERIAL_DDR |= (1<<SERIAL_BIT);
	#endif

	  tmp = (WDRF_HOME & ((1<<WDRF)));	// save Watch Dog Flag
    32ac:	84 b7       	in	r24, 0x34	; 52
	  WDRF_HOME &= ~(1<<WDRF);	 	//reset Watch Dog flag
    32ae:	87 7f       	andi	r24, 0xF7	; 247
    32b0:	84 bf       	out	0x34, r24	; 52
    32b2:	88 e1       	ldi	r24, 0x18	; 24
	  wdt_disable();			// disable Watch Dog
    32b4:	0f b6       	in	r0, 0x3f	; 63
    32b6:	f8 94       	cli
    32b8:	80 93 60 00 	sts	0x0060, r24
    32bc:	10 92 60 00 	sts	0x0060, r1
    32c0:	0f be       	out	0x3f, r0	; 63
    32c2:	78 94       	sei
//	disable digital inputs of Analog pins, but TP1-3 digital inputs must be left enabled for VGS measurement
	  DIDR0 = ((1<<ADC5D) | (1<<ADC4D) | (1<<ADC3D) | (1<<ADC2D) | (1<<ADC1D) | (1<<ADC0D)) & ~((1<<TP3) | (1<<TP2) | (1<<TP1));	
	  TCCR2A = (0<<WGM21) | (0<<WGM20);		// Counter 2 normal mode
	  TCCR2B = CNTR2_PRESCALER;	//prescaler set in autoconf
	#endif		/* INHIBIT_SLEEP_MODE */
	  sei();				// enable interrupts
    32c4:	0e 94 5f 01 	call	0x2be	; 0x2be <lcd_init>
	  lcd_init();				//initialize LCD
    32c8:	13 fd       	sbrc	r17, 3
		
	//  ADC_PORT = TXD_VAL;
	//  ADC_DDR = TXD_MSK;
	  if(tmp) { 
    32ca:	b9 c4       	rjmp	.+2418   	; 0x3c3e <main+0x9ae>
    32cc:	80 e1       	ldi	r24, 0x10	; 16

	#ifdef PULLUP_DISABLE
	 #ifdef __AVR_ATmega8__
	  SFIOR = (1<<PUD);		// disable Pull-Up Resistors mega8
	 #else
	  MCUCR = (1<<PUD);		// disable Pull-Up Resistors mega168 family
    32ce:	85 bf       	out	0x35, r24	; 53
    32d0:	10 e0       	ldi	r17, 0x00	; 0
#ifdef WITH_HARDWARE_SERIAL
//	ii = 60;
	ii = 30;
#else
	#if 1
	  for (ii=0; ii<60; ii++) {
    32d2:	4f 99       	sbic	0x09, 7	; 9
		if (RST_PIN_REG & (1 << RST_PIN))
    32d4:	05 c0       	rjmp	.+10     	; 0x32e0 <main+0x50>
    32d6:	0e 94 5e 03 	call	0x6bc	; 0x6bc <wait10ms>
			break;	// button is released
	     wait_about10ms();
    32da:	1f 5f       	subi	r17, 0xFF	; 255
#ifdef WITH_HARDWARE_SERIAL
//	ii = 60;
	ii = 30;
#else
	#if 1
	  for (ii=0; ii<60; ii++) {
    32dc:	1c 33       	cpi	r17, 0x3C	; 60
    32de:	c9 f7       	brne	.-14     	; 0x32d2 <main+0x42>
    32e0:	8f e5       	ldi	r24, 0x5F	; 95
	  if (!(RST_PIN_REG & (1<<RST_PIN))) {
	     // key is still pressed
	     ii = wait_for_key_ms(700);	
	  }
	#endif
	  display_time = OFF_WAIT_TIME;		// LONG_WAIT_TIME for single mode, else SHORT_WAIT_TIME
    32e2:	9d e6       	ldi	r25, 0x6D	; 109
    32e4:	90 93 0f 01 	sts	0x010F, r25
    32e8:	80 93 0e 01 	sts	0x010E, r24
    32ec:	1f 31       	cpi	r17, 0x1F	; 31
	  if (ii > 30) {
    32ee:	30 f0       	brcs	.+12     	; 0x32fc <main+0x6c>
    32f0:	80 e6       	ldi	r24, 0x60	; 96
	     display_time = LONG_WAIT_TIME;	// ... set long time display anyway
    32f2:	9d e6       	ldi	r25, 0x6D	; 109
    32f4:	90 93 0f 01 	sts	0x010F, r25
    32f8:	80 93 0e 01 	sts	0x010E, r24
    32fc:	10 92 28 01 	sts	0x0128, r1
#endif // WITH_HARDWARE_SERIAL
	#if POWER_OFF+0 > 1
	  empty_count = 0;
	  mess_count = 0;
	#endif
	  ADCconfig.RefFlag = 0;
    3300:	95 d9       	rcall	.-3286   	; 0x262c <Calibrate_UR>
	  Calibrate_UR();		// get Ref Voltages and Pin resistance
    3302:	2f e0       	ldi	r18, 0x0F	; 15
    3304:	88 e1       	ldi	r24, 0x18	; 24
	#ifdef WDT_enabled
	  wdt_enable(WDTO_2S);		//Watchdog on
    3306:	90 e0       	ldi	r25, 0x00	; 0
    3308:	0f b6       	in	r0, 0x3f	; 63
    330a:	f8 94       	cli
    330c:	a8 95       	wdr
    330e:	80 93 60 00 	sts	0x0060, r24
    3312:	0f be       	out	0x3f, r0	; 63
    3314:	20 93 60 00 	sts	0x0060, r18
    3318:	8e e7       	ldi	r24, 0x7E	; 126
    331a:	e8 2e       	mov	r14, r24
    331c:	81 e0       	ldi	r24, 0x01	; 1
    331e:	f8 2e       	mov	r15, r24
    3320:	90 e1       	ldi	r25, 0x10	; 16
    3322:	a9 2e       	mov	r10, r25

end3:
  // the diode  is already shown on the LCD
	if (ResistorsFound == 0)
		goto tt_end;
  ADC_DDR = (1<<TPRELAY) | TXD_MSK; 	// switch pin with reference to GND, release relay
    3324:	2b e3       	ldi	r18, 0x3B	; 59
    3326:	c2 2e       	mov	r12, r18
	  lcd_clear_line1();
	#else
	  lcd_clear();				// clear total display
	#endif

	  _trans = &ntrans;			// default transistor structure to show
    3328:	21 e0       	ldi	r18, 0x01	; 1
    332a:	d2 2e       	mov	r13, r18
    332c:	3d e0       	ldi	r19, 0x0D	; 13
    332e:	63 2e       	mov	r6, r19
       n_cpre  = cap.cpre;			// and dimension
       ReadCapacity(ptrans.b, ptrans.e);	// read capacity of PNP base-emitter
			if (((n_cpre == cap.cpre) && (cap.cval > n_cval))
					|| (cap.cpre > n_cpre)) {
          // the capacity value or dimension of the PNP B-E is greater than the NPN B-E
          PartMode = PART_MODE_PNP;
    3330:	b1 e2       	ldi	r27, 0x21	; 33
    3332:	9b 2e       	mov	r9, r27
          }
			if (diodes.Cathode[1] == diodes.Anode[2]) {
           diode_sequence = 0x12;	// 1 2
          }
			if (diodes.Anode[1] == diodes.Cathode[2]) {
           diode_sequence = 0x21;	// 2 1
    3334:	12 e1       	ldi	r17, 0x12	; 18
    3336:	81 2e       	mov	r8, r17
          }
			if (diodes.Anode[0] == diodes.Cathode[2]) {
           diode_sequence = 0x20;	// 2 0
          }
			if (diodes.Cathode[1] == diodes.Anode[2]) {
           diode_sequence = 0x12;	// 1 2
    3338:	00 e2       	ldi	r16, 0x20	; 32
    333a:	70 2e       	mov	r7, r16
          }
			if (diodes.Cathode[0] == diodes.Anode[2]) {
           diode_sequence = 0x02;	// 0 2
          }
			if (diodes.Anode[0] == diodes.Cathode[2]) {
           diode_sequence = 0x20;	// 2 0
    333c:	0e 94 1d 01 	call	0x23a	; 0x23a <lcd_clear>
	loop_start:
	#if ((LCD_ST_TYPE == 7565) || (LCD_ST_TYPE == 1306))
	  lcd_command(CMD_DISPLAY_ON);
	  lcd_command(CMD_SET_ALLPTS_NORMAL);		// 0xa4
	#endif
	  lcd_clear();			// clear the LCD
    3340:	17 b8       	out	0x07, r1	; 7
    3342:	0e 94 a3 04 	call	0x946	; 0x946 <init_parts>
	  ADC_DDR = TXD_MSK;		// activate Software-UART 
          init_parts();			// reset parts info to nothing found
    3346:	72 d9       	rcall	.-3356   	; 0x262c <Calibrate_UR>
    3348:	0e 94 f0 00 	call	0x1e0	; 0x1e0 <lcd_line1>
	  Calibrate_UR();		// get Ref Voltages and Pin resistance
    334c:	0e 94 a9 07 	call	0xf52	; 0xf52 <Battery_check>
	  lcd_line1();			// Cursor to 1. row, column 1
    3350:	80 91 36 01 	lds	r24, 0x0136
	  
	#ifdef BAT_CHECK
	  // Battery check is selected
        Battery_check();
    3354:	88 23       	and	r24, r24
	  lcd_MEM_string(VERSION_str);		// if no Battery check, Version .. in row 1
	#endif	/* BAT_CHECK */

	  // begin tests
	#if FLASHEND > 0x1fff
	  if (WithReference) {
    3356:	79 f0       	breq	.+30     	; 0x3376 <main+0xe6>
    3358:	0e 94 f7 00 	call	0x1ee	; 0x1ee <lcd_line2>
    335c:	89 e8       	ldi	r24, 0x89	; 137
	 #if POWER_OFF+0 > 1
	     if ((mess_count == 0) && (empty_count == 0))
	 #endif
	     {
		 /* display VCC= only first time */
		 lcd_line2();
    335e:	90 e0       	ldi	r25, 0x00	; 0
    3360:	0e 94 3a 01 	call	0x274	; 0x274 <lcd_fix_string>
		 lcd_MEM_string(VCC_str);		// VCC=
    3364:	63 e0       	ldi	r22, 0x03	; 3
    3366:	80 91 2b 01 	lds	r24, 0x012B
		 Display_mV(ADCconfig.U_AVCC,3);	// Display 3 Digits of this mV units
    336a:	90 91 2c 01 	lds	r25, 0x012C
    336e:	0e 94 45 03 	call	0x68a	; 0x68a <Display_mV>
    3372:	0e 94 54 03 	call	0x6a8	; 0x6a8 <wait1000ms>
    3376:	0e 94 f7 00 	call	0x1ee	; 0x1ee <lcd_line2>
		 lcd_refresh();			// write the pixels to display, ST7920 only
		 wait_about1s();		// time to read the VCC= message
    337a:	0e 94 a4 0f 	call	0x1f48	; 0x1f48 <EntladePins>
	     wait_about300ms();		// delay to read the Vext= message
	  }
	#endif /* WITH_VEXT */

	#ifndef DebugOut
	  lcd_line2();			//LCD position row 2, column 1
    337e:	80 91 16 01 	lds	r24, 0x0116
	#endif
	  EntladePins();		// discharge all capacitors!
    3382:	89 30       	cpi	r24, 0x09	; 9
	  if(PartFound == PART_CELL) {
    3384:	61 f4       	brne	.+24     	; 0x339e <main+0x10e>
    3386:	0e 94 1d 01 	call	0x23a	; 0x23a <lcd_clear>
    338a:	8e e8       	ldi	r24, 0x8E	; 142
	    lcd_clear();
    338c:	90 e0       	ldi	r25, 0x00	; 0
    338e:	0e 94 3a 01 	call	0x274	; 0x274 <lcd_fix_string>
	    lcd_MEM_string(Cell_str);	// display "Cell!"
    3392:	0e 94 53 03 	call	0x6a6	; 0x6a6 <wait2s>
    3396:	81 e1       	ldi	r24, 0x11	; 17
	    lcd_space();
	    Display_mV(cell_mv[2],3);
	#endif
	#ifdef WITH_SELFTEST
	    lcd_refresh();			// write the pixels to display, ST7920 only
	    wait_about2s();
    3398:	0e 94 1f 05 	call	0xa3e	; 0xa3e <AutoCheck>
	    AutoCheck(0x11);		// full Selftest with "Short probes" message
    339c:	3f c4       	rjmp	.+2174   	; 0x3c1c <main+0x98c>
    339e:	8c e0       	ldi	r24, 0x0C	; 12
    33a0:	0e 94 ec 00 	call	0x1d8	; 0x1d8 <lcd_command>
	    goto tt_end;
	  }

	#ifdef WITH_SELFTEST
	 #ifdef AUTO_CAL
	  lcd_cursor_off();
    33a4:	83 ed       	ldi	r24, 0xD3	; 211
    33a6:	91 e0       	ldi	r25, 0x01	; 1
    33a8:	2f d5       	rcall	.+2654   	; 0x3e08 <__eerd_byte_m168>
	  UnCalibrated = (eeprom_read_byte(&c_zero_tab[3]) - eeprom_read_byte(&c_zero_tab[0]));
    33aa:	18 2f       	mov	r17, r24
    33ac:	80 ed       	ldi	r24, 0xD0	; 208
    33ae:	91 e0       	ldi	r25, 0x01	; 1
    33b0:	2b d5       	rcall	.+2646   	; 0x3e08 <__eerd_byte_m168>
    33b2:	18 1b       	sub	r17, r24
    33b4:	10 93 33 01 	sts	0x0133, r17
    33b8:	11 23       	and	r17, r17
    33ba:	19 f0       	breq	.+6      	; 0x33c2 <main+0x132>
    33bc:	8e e0       	ldi	r24, 0x0E	; 14
    33be:	0e 94 ec 00 	call	0x1d8	; 0x1d8 <lcd_command>
	  if (UnCalibrated != 0) {
    33c2:	81 e0       	ldi	r24, 0x01	; 1
    33c4:	0e 94 1f 05 	call	0xa3e	; 0xa3e <AutoCheck>
	     // if calibrated, both c_zero_tab values are identical! c_zero_tab[3] is not used otherwise
	     lcd_cursor_on();
    33c8:	0e 94 f7 00 	call	0x1ee	; 0x1ee <lcd_line2>
	  }
	 #endif
	 #ifdef WITH_MENU
	  AutoCheck(0x00);			//check, if selftest should be done, only calibration
	 #else
	  AutoCheck(0x01);			//check, if selftest should be done, full selftest without MENU
    33cc:	87 e6       	ldi	r24, 0x67	; 103
    33ce:	91 e0       	ldi	r25, 0x01	; 1
    33d0:	0e 94 3a 01 	call	0x274	; 0x274 <lcd_fix_string>
	 #endif
	#endif
	  lcd_line2();			//LCD position row2, column 1
    33d4:	42 e0       	ldi	r20, 0x02	; 2
	  lcd_MEM_string(TestRunning);		//String: testing...
    33d6:	61 e0       	ldi	r22, 0x01	; 1
    33d8:	80 e0       	ldi	r24, 0x00	; 0
    33da:	0e 94 e9 07 	call	0xfd2	; 0xfd2 <CheckPins>
	     uart_putc(0x03);		// ETX, start of new measurement
	 #endif
//
	  // check all 6 combinations for the 3 pins 
	//         High  Low  Tri
	  CheckPins(TP1, TP2, TP3);
    33de:	42 e0       	ldi	r20, 0x02	; 2
    33e0:	60 e0       	ldi	r22, 0x00	; 0
    33e2:	81 e0       	ldi	r24, 0x01	; 1
    33e4:	0e 94 e9 07 	call	0xfd2	; 0xfd2 <CheckPins>
	  CheckPins(TP2, TP1, TP3);
    33e8:	41 e0       	ldi	r20, 0x01	; 1
    33ea:	62 e0       	ldi	r22, 0x02	; 2
    33ec:	80 e0       	ldi	r24, 0x00	; 0
    33ee:	0e 94 e9 07 	call	0xfd2	; 0xfd2 <CheckPins>

	  CheckPins(TP1, TP3, TP2);
    33f2:	41 e0       	ldi	r20, 0x01	; 1
    33f4:	60 e0       	ldi	r22, 0x00	; 0
    33f6:	82 e0       	ldi	r24, 0x02	; 2
    33f8:	0e 94 e9 07 	call	0xfd2	; 0xfd2 <CheckPins>
	  CheckPins(TP3, TP1, TP2);
    33fc:	40 e0       	ldi	r20, 0x00	; 0
    33fe:	62 e0       	ldi	r22, 0x02	; 2
    3400:	81 e0       	ldi	r24, 0x01	; 1
    3402:	0e 94 e9 07 	call	0xfd2	; 0xfd2 <CheckPins>

	  CheckPins(TP2, TP3, TP1);
    3406:	40 e0       	ldi	r20, 0x00	; 0
    3408:	61 e0       	ldi	r22, 0x01	; 1
    340a:	82 e0       	ldi	r24, 0x02	; 2
    340c:	0e 94 e9 07 	call	0xfd2	; 0xfd2 <CheckPins>
	  CheckPins(TP3, TP2, TP1);
    3410:	80 91 16 01 	lds	r24, 0x0116
    3414:	81 11       	cpse	r24, r1
    3416:	11 c0       	rjmp	.+34     	; 0x343a <main+0x1aa>
    3418:	83 e4       	ldi	r24, 0x43	; 67

	  // Capacity measurement is only possible correctly with two Pins connected.
	  // A third connected pin will increase the capacity value!
	//  if(((PartFound == PART_NONE) || (PartFound == PART_RESISTOR) || (PartFound == PART_DIODE)) ) {
	  if(PartFound == PART_NONE) {
    341a:	0e 94 cc 00 	call	0x198	; 0x198 <lcd_data>
    341e:	0e 94 a4 0f 	call	0x1f48	; 0x1f48 <EntladePins>
	     // If no part is found yet, check separate if is is a capacitor
	     lcd_data('C');
    3422:	60 e0       	ldi	r22, 0x00	; 0
    3424:	82 e0       	ldi	r24, 0x02	; 2
    3426:	0e 94 61 10 	call	0x20c2	; 0x20c2 <ReadCapacity>
	     EntladePins();		// discharge capacities
    342a:	61 e0       	ldi	r22, 0x01	; 1
	     //measurement of capacities in all 3 combinations
	     ReadCapacity(TP3, TP1);
    342c:	82 e0       	ldi	r24, 0x02	; 2
    342e:	0e 94 61 10 	call	0x20c2	; 0x20c2 <ReadCapacity>
    3432:	60 e0       	ldi	r22, 0x00	; 0
	#if DebugOut != 10
	     ReadCapacity(TP3, TP2);
    3434:	81 e0       	ldi	r24, 0x01	; 1
    3436:	0e 94 61 10 	call	0x20c2	; 0x20c2 <ReadCapacity>
    343a:	0e 94 1d 01 	call	0x23a	; 0x23a <lcd_clear>
	     ReadCapacity(TP2, TP1);
    343e:	d0 92 39 01 	sts	0x0139, r13
    3442:	c0 92 38 01 	sts	0x0138, r12
	#ifdef DebugOut 
	  // only clear two lines of LCD

	  lcd_clear_line1();
	#else
	  lcd_clear();				// clear total display
    3446:	80 91 16 01 	lds	r24, 0x0116
	#endif

	  _trans = &ntrans;			// default transistor structure to show
    344a:	86 30       	cpi	r24, 0x06	; 6
    344c:	41 f4       	brne	.+16     	; 0x345e <main+0x1ce>
    344e:	8e e3       	ldi	r24, 0x3E	; 62
	  if (PartFound == PART_THYRISTOR) {
    3450:	91 e0       	ldi	r25, 0x01	; 1
    3452:	0e 94 3a 01 	call	0x274	; 0x274 <lcd_fix_string>
    3456:	41 e4       	ldi	r20, 0x41	; 65
            lcd_big_icon(THYRISTOR|LCD_UPPER_LEFT);
            lcd_draw_trans_pins(-8, 16);
            lcd_set_cursor(0,TEXT_RIGHT_TO_ICON);		// position behind the icon, Line 1
	    lcd_MEM_string(Thyristor);		//"Thyristor"
#else
	    lcd_MEM_string(Thyristor);		//"Thyristor"
    3458:	67 e4       	ldi	r22, 0x47	; 71
    345a:	83 e4       	ldi	r24, 0x43	; 67
    345c:	09 c0       	rjmp	.+18     	; 0x3470 <main+0x1e0>
    345e:	87 30       	cpi	r24, 0x07	; 7
            PinLayout(Cathode_char,'G','A'); 	// CGA= or 123=...
    3460:	b9 f4       	brne	.+46     	; 0x3490 <main+0x200>
    3462:	87 e4       	ldi	r24, 0x47	; 71
    3464:	91 e0       	ldi	r25, 0x01	; 1
    3466:	0e 94 3a 01 	call	0x274	; 0x274 <lcd_fix_string>
#endif
            goto TyUfAusgabe;
          }

  if (PartFound == PART_TRIAC) {
    346a:	42 e3       	ldi	r20, 0x32	; 50
    lcd_big_icon(TRIAC|LCD_UPPER_LEFT);
    lcd_draw_trans_pins(-8, 16);
    lcd_set_cursor(0,TEXT_RIGHT_TO_ICON);		// position behind the icon, Line 1
    lcd_MEM_string(Triac);		//"Triac"
#else
    lcd_MEM_string(Triac);		//"Triac"
    346c:	67 e4       	ldi	r22, 0x47	; 71
    346e:	81 e3       	ldi	r24, 0x31	; 49
    3470:	0e 94 ea 01 	call	0x3d4	; 0x3d4 <PinLayout>
    PinLayout('1','G','2'); 	// CGA= or 123=...
    3474:	0e 94 f7 00 	call	0x1ee	; 0x1ee <lcd_line2>
    3478:	82 ea       	ldi	r24, 0xA2	; 162
    347a:	90 e0       	ldi	r25, 0x00	; 0
    347c:	0e 94 3a 01 	call	0x274	; 0x274 <lcd_fix_string>
TyUfAusgabe:
#ifdef WITH_THYRISTOR_GATE_V
 #ifdef WITH_GRAPHICS
  lcd_set_cursor(1*PAGES_PER_LINE,TEXT_RIGHT_TO_ICON);		// position behind the icon,line 2
 #else
  lcd_line2(); //2. row 
    3480:	62 e0       	ldi	r22, 0x02	; 2
 #endif
  lcd_MEM_string(Uf_str);		// "Uf="
    3482:	80 91 3f 01 	lds	r24, 0x013F
    3486:	90 91 40 01 	lds	r25, 0x0140
 #ifdef WITH_PUT
  Display_mV(_trans->uBE,2);    // needed instead of ntrans for PUT, but costs 4 bytes more flash...
 #else
  Display_mV(ntrans.uBE,2);
    348a:	0e 94 45 03 	call	0x68a	; 0x68a <Display_mV>
    348e:	c6 c3       	rjmp	.+1932   	; 0x3c1c <main+0x98c>
    3490:	88 30       	cpi	r24, 0x08	; 8
    3492:	11 f4       	brne	.+4      	; 0x3498 <main+0x208>
    3494:	d9 d9       	rcall	.-3150   	; 0x2848 <show_cap_simple>
    3496:	c2 c3       	rjmp	.+1924   	; 0x3c1c <main+0x98c>
    3498:	83 30       	cpi	r24, 0x03	; 3
 #endif	 /* SamplingADC */
      goto tt_end;
   }
#endif /* WITH_UJT */

  if (PartFound == PART_CAPACITOR) {
    349a:	09 f0       	breq	.+2      	; 0x349e <main+0x20e>
    349c:	df c0       	rjmp	.+446    	; 0x365c <main+0x3cc>
        show_Cap13();		// repeated capacity measurement
        goto shut_off;		// key was pressed or timeout
     }
     show_cap(0);		// show capacity in normal way and measure additional parameters
#else
     show_cap_simple();		// show capacity in normal way and measure additional parameters
    349e:	80 91 14 01 	lds	r24, 0x0114
#endif
     goto tt_end;
    34a2:	81 30       	cpi	r24, 0x01	; 1
      goto tt_end;
  }
#endif

  // ========================================
  if(PartFound == PART_DIODE) {
    34a4:	09 f0       	breq	.+2      	; 0x34a8 <main+0x218>
    34a6:	41 c0       	rjmp	.+130    	; 0x352a <main+0x29a>
    34a8:	90 91 7e 01 	lds	r25, 0x017E
  // ========================================
     if(NumOfDiodes == 1) {		//single Diode
    34ac:	80 91 84 01 	lds	r24, 0x0184
    34b0:	98 17       	cp	r25, r24
    34b2:	50 f4       	brcc	.+20     	; 0x34c8 <main+0x238>
           lcd_MEM_string(KatAn_str);	//"-|<-"
           lcd_testpin(diodes.Anode[0]);
        }
 #else
        // the higher test pin number is right side
        if (diodes.Anode[0] < diodes.Cathode[0]) {
    34b4:	89 2f       	mov	r24, r25
    34b6:	0e 94 d5 00 	call	0x1aa	; 0x1aa <lcd_testpin>
    34ba:	8e e6       	ldi	r24, 0x6E	; 110
    34bc:	90 e0       	ldi	r25, 0x00	; 0
    34be:	0e 94 3a 01 	call	0x274	; 0x274 <lcd_fix_string>
           lcd_testpin(diodes.Anode[0]);
    34c2:	80 91 84 01 	lds	r24, 0x0184
           lcd_MEM_string(AnKat_str);	//"->|-"
    34c6:	08 c0       	rjmp	.+16     	; 0x34d8 <main+0x248>
    34c8:	0e 94 d5 00 	call	0x1aa	; 0x1aa <lcd_testpin>
    34cc:	8a e6       	ldi	r24, 0x6A	; 106
           lcd_testpin(diodes.Cathode[0]);
    34ce:	90 e0       	ldi	r25, 0x00	; 0
    34d0:	0e 94 3a 01 	call	0x274	; 0x274 <lcd_fix_string>
        } else {
           lcd_testpin(diodes.Cathode[0]);
    34d4:	80 91 7e 01 	lds	r24, 0x017E
           lcd_MEM_string(KatAn_str);	//"-|<-"
    34d8:	0e 94 d5 00 	call	0x1aa	; 0x1aa <lcd_testpin>
    34dc:	60 91 7e 01 	lds	r22, 0x017E
           lcd_testpin(diodes.Anode[0]);
    34e0:	80 91 84 01 	lds	r24, 0x0184
    34e4:	0e 94 5e 07 	call	0xebc	; 0xebc <GetIr>
        }
 #endif
	GetIr(diodes.Cathode[0],diodes.Anode[0]);	// measure and output Ir=x.xuA
    34e8:	80 e7       	ldi	r24, 0x70	; 112
    34ea:	0e 94 4f 02 	call	0x49e	; 0x49e <UfAusgabe>
    34ee:	60 91 7e 01 	lds	r22, 0x017E
    34f2:	80 91 84 01 	lds	r24, 0x0184
        // too less memory to sort the pins
        lcd_testpin(diodes.Anode[0]);
        lcd_MEM_string(AnKat_str);		//"->|-"
        lcd_testpin(diodes.Cathode[0]);
#endif
        UfAusgabe(0x70);		// mark for additional resistor and output Uf= in line 2
    34f6:	0e 94 61 10 	call	0x20c2	; 0x20c2 <ReadCapacity>
#ifndef SamplingADC
        /* load current of capacity is (5V-1.1V)/(470000 Ohm) = 8298nA */
        ReadCapacity(diodes.Cathode[0],diodes.Anode[0]);	// Capacity opposite flow direction
    34fa:	80 91 7a 01 	lds	r24, 0x017A
    34fe:	8d 3f       	cpi	r24, 0xFD	; 253
    3500:	0c f0       	brlt	.+2      	; 0x3504 <main+0x274>
    3502:	e8 c2       	rjmp	.+1488   	; 0x3ad4 <main+0x844>
    3504:	89 eb       	ldi	r24, 0xB9	; 185
        if (cap.cpre < -3) {	/* capacity is measured */
    3506:	90 e0       	ldi	r25, 0x00	; 0
    3508:	0e 94 3a 01 	call	0x274	; 0x274 <lcd_fix_string>
    350c:	60 91 68 01 	lds	r22, 0x0168
 #if (LCD_LINES > 2)
           lcd_line3();		// output Capacity in line 3
 #endif
           lcd_MEM_string(Cap_str);	//"C="
    3510:	70 91 69 01 	lds	r23, 0x0169
    3514:	80 91 6a 01 	lds	r24, 0x016A
 #if LCD_LINE_LENGTH > 16
           DisplayValue(cap.cval,cap.cpre,'F',3);
 #else
           DisplayValue(cap.cval,cap.cpre,'F',2);
    3518:	90 91 6b 01 	lds	r25, 0x016B
    351c:	02 e0       	ldi	r16, 0x02	; 2
    351e:	26 e4       	ldi	r18, 0x46	; 70
    3520:	40 91 7a 01 	lds	r20, 0x017A
    3524:	0e 94 88 02 	call	0x510	; 0x510 <DisplayValue>
    3528:	d5 c2       	rjmp	.+1450   	; 0x3ad4 <main+0x844>
    352a:	82 30       	cpi	r24, 0x02	; 2
    352c:	09 f0       	breq	.+2      	; 0x3530 <main+0x2a0>
    352e:	47 c0       	rjmp	.+142    	; 0x35be <main+0x32e>
    3530:	82 e3       	ldi	r24, 0x32	; 50
    3532:	0e 94 cc 00 	call	0x198	; 0x198 <lcd_data>
 #else
  #warning Capacity measurement from high to low not possible for diodes without PULLUP_DISABLE option!
 #endif  /* PULLUP_DISABLE */
#endif
        goto end3;
     } else if(NumOfDiodes == 2) { // double diode
    3536:	85 e6       	ldi	r24, 0x65	; 101
    3538:	90 e0       	ldi	r25, 0x00	; 0
    353a:	0e 94 3a 01 	call	0x274	; 0x274 <lcd_fix_string>
        lcd_data('2');
    353e:	80 91 7e 01 	lds	r24, 0x017E
        lcd_MEM_string(Dioden);		//"diodes "
    3542:	20 91 7f 01 	lds	r18, 0x017F
    3546:	82 13       	cpse	r24, r18
    3548:	13 c0       	rjmp	.+38     	; 0x3570 <main+0x2e0>
        if(diodes.Anode[0] == diodes.Anode[1]) { //Common Anode
    354a:	80 91 84 01 	lds	r24, 0x0184
    354e:	0e 94 d5 00 	call	0x1aa	; 0x1aa <lcd_testpin>
    3552:	8a e6       	ldi	r24, 0x6A	; 106
    3554:	90 e0       	ldi	r25, 0x00	; 0
           lcd_testpin(diodes.Cathode[0]);
    3556:	0e 94 3a 01 	call	0x274	; 0x274 <lcd_fix_string>
    355a:	80 91 7e 01 	lds	r24, 0x017E
           lcd_MEM_string(KatAn_str);	//"-|<-"
    355e:	0e 94 d5 00 	call	0x1aa	; 0x1aa <lcd_testpin>
    3562:	8e e6       	ldi	r24, 0x6E	; 110
    3564:	90 e0       	ldi	r25, 0x00	; 0
           lcd_testpin(diodes.Anode[0]);
    3566:	0e 94 3a 01 	call	0x274	; 0x274 <lcd_fix_string>
    356a:	80 91 85 01 	lds	r24, 0x0185
           lcd_MEM_string(AnKat_str);	//"->|-"
    356e:	16 c0       	rjmp	.+44     	; 0x359c <main+0x30c>
    3570:	30 91 84 01 	lds	r19, 0x0184
    3574:	90 91 85 01 	lds	r25, 0x0185
           lcd_testpin(diodes.Cathode[1]);
    3578:	39 13       	cpse	r19, r25
    357a:	16 c0       	rjmp	.+44     	; 0x35a8 <main+0x318>
           goto showdiodecap;   // double diodes are often varicap; measure capacitance of one of them
#else
           goto end3;
#endif
        } 
        if(diodes.Cathode[0] == diodes.Cathode[1]) { //Common Cathode
    357c:	0e 94 d5 00 	call	0x1aa	; 0x1aa <lcd_testpin>
    3580:	8e e6       	ldi	r24, 0x6E	; 110
    3582:	90 e0       	ldi	r25, 0x00	; 0
    3584:	0e 94 3a 01 	call	0x274	; 0x274 <lcd_fix_string>
           lcd_testpin(diodes.Anode[0]);
    3588:	80 91 84 01 	lds	r24, 0x0184
           lcd_MEM_string(AnKat_str);	//"->|-"
    358c:	0e 94 d5 00 	call	0x1aa	; 0x1aa <lcd_testpin>
    3590:	8a e6       	ldi	r24, 0x6A	; 106
    3592:	90 e0       	ldi	r25, 0x00	; 0
	   lcd_testpin(diodes.Cathode[0]);
    3594:	0e 94 3a 01 	call	0x274	; 0x274 <lcd_fix_string>
    3598:	80 91 7f 01 	lds	r24, 0x017F
           lcd_MEM_string(KatAn_str);	//"-|<-"
    359c:	0e 94 d5 00 	call	0x1aa	; 0x1aa <lcd_testpin>
    35a0:	81 e0       	ldi	r24, 0x01	; 1
    35a2:	0e 94 4f 02 	call	0x49e	; 0x49e <UfAusgabe>
           lcd_testpin(diodes.Anode[1]);
    35a6:	96 c2       	rjmp	.+1324   	; 0x3ad4 <main+0x844>
    35a8:	32 13       	cpse	r19, r18
    35aa:	04 c0       	rjmp	.+8      	; 0x35b4 <main+0x324>
           UfAusgabe(0x01);
    35ac:	81 e0       	ldi	r24, 0x01	; 1
    35ae:	80 93 0d 01 	sts	0x010D, r24
#ifdef SamplingADC
           goto showdiodecap;   // double diodes are often varicap; measure capacitance of one of them
#else
           goto end3;
    35b2:	3b c0       	rjmp	.+118    	; 0x362a <main+0x39a>
#endif
//        else if ((diodes.Cathode[0] == diodes.Anode[1]) && (diodes.Cathode[1] == diodes.Anode[0])) 
        } 
        if (diodes.Cathode[0] == diodes.Anode[1]) {
    35b4:	98 13       	cpse	r25, r24
    35b6:	3c c0       	rjmp	.+120    	; 0x3630 <main+0x3a0>
           // normaly two serial diodes are detected as three diodes, but if the threshold is high
           // for both diodes, the third diode is not detected.
           // can also be Antiparallel
           diode_sequence = 0x01;	// 0 1
    35b8:	a0 92 0d 01 	sts	0x010D, r10
    35bc:	36 c0       	rjmp	.+108    	; 0x362a <main+0x39a>
    35be:	83 30       	cpi	r24, 0x03	; 3
           SerienDiodenAusgabe();
           goto end3;
        } 
        if (diodes.Cathode[1] == diodes.Anode[0]) {
    35c0:	b9 f5       	brne	.+110    	; 0x3630 <main+0x3a0>
    35c2:	23 e3       	ldi	r18, 0x33	; 51
           diode_sequence = 0x10;	// 1 0
    35c4:	20 93 0d 01 	sts	0x010D, r18
    35c8:	80 91 84 01 	lds	r24, 0x0184
           SerienDiodenAusgabe();
           goto end3;
        }
     } else if(NumOfDiodes == 3) {
    35cc:	90 91 7f 01 	lds	r25, 0x017F
        //Serial of 2 Diodes; was detected as 3 Diodes 
        diode_sequence = 0x33;	// 3 3
    35d0:	89 13       	cpse	r24, r25
    35d2:	03 c0       	rjmp	.+6      	; 0x35da <main+0x34a>
        /* Check for any constellation of 2 serial diodes:
          Only once the pin No of anyone Cathode is identical of another anode.
          two diodes in series is additionally detected as third big diode.
        */
			if (diodes.Cathode[0] == diodes.Anode[1]) {
    35d4:	21 e0       	ldi	r18, 0x01	; 1
    35d6:	20 93 0d 01 	sts	0x010D, r18
    35da:	40 91 7e 01 	lds	r20, 0x017E
    35de:	30 91 85 01 	lds	r19, 0x0185
           diode_sequence = 0x01;	// 0 1
    35e2:	43 13       	cpse	r20, r19
    35e4:	02 c0       	rjmp	.+4      	; 0x35ea <main+0x35a>
          }
			if (diodes.Anode[0] == diodes.Cathode[1]) {
    35e6:	a0 92 0d 01 	sts	0x010D, r10
    35ea:	20 91 80 01 	lds	r18, 0x0180
    35ee:	82 13       	cpse	r24, r18
    35f0:	03 c0       	rjmp	.+6      	; 0x35f8 <main+0x368>
           diode_sequence = 0x10;	// 1 0
    35f2:	82 e0       	ldi	r24, 0x02	; 2
    35f4:	80 93 0d 01 	sts	0x010D, r24
          }
			if (diodes.Cathode[0] == diodes.Anode[2]) {
    35f8:	80 91 86 01 	lds	r24, 0x0186
    35fc:	48 13       	cpse	r20, r24
           diode_sequence = 0x02;	// 0 2
    35fe:	02 c0       	rjmp	.+4      	; 0x3604 <main+0x374>
    3600:	70 92 0d 01 	sts	0x010D, r7
          }
			if (diodes.Anode[0] == diodes.Cathode[2]) {
    3604:	32 13       	cpse	r19, r18
    3606:	02 c0       	rjmp	.+4      	; 0x360c <main+0x37c>
    3608:	80 92 0d 01 	sts	0x010D, r8
           diode_sequence = 0x20;	// 2 0
    360c:	98 13       	cpse	r25, r24
    360e:	02 c0       	rjmp	.+4      	; 0x3614 <main+0x384>
          }
			if (diodes.Cathode[1] == diodes.Anode[2]) {
    3610:	90 92 0d 01 	sts	0x010D, r9
           diode_sequence = 0x12;	// 1 2
    3614:	80 91 0d 01 	lds	r24, 0x010D
          }
			if (diodes.Anode[1] == diodes.Cathode[2]) {
    3618:	82 32       	cpi	r24, 0x22	; 34
    361a:	50 f4       	brcc	.+20     	; 0x3630 <main+0x3a0>
           diode_sequence = 0x21;	// 2 1
    361c:	83 e3       	ldi	r24, 0x33	; 51
    361e:	0e 94 cc 00 	call	0x198	; 0x198 <lcd_data>
          }
//        if((ptrans.b<3) && (ptrans.c<3)) 
        if(diode_sequence < 0x22) {
    3622:	85 e6       	ldi	r24, 0x65	; 101
    3624:	90 e0       	ldi	r25, 0x00	; 0
    3626:	0e 94 3a 01 	call	0x274	; 0x274 <lcd_fix_string>
           lcd_data('3');
    362a:	0e 94 65 02 	call	0x4ca	; 0x4ca <SerienDiodenAusgabe>
           lcd_MEM_string(Dioden);	//"Diodes "
    362e:	52 c2       	rjmp	.+1188   	; 0x3ad4 <main+0x844>
    3630:	8d e4       	ldi	r24, 0x4D	; 77
    3632:	91 e0       	ldi	r25, 0x01	; 1
    3634:	0e 94 3a 01 	call	0x274	; 0x274 <lcd_fix_string>
           SerienDiodenAusgabe();
    3638:	85 e3       	ldi	r24, 0x35	; 53
           goto end3;
    363a:	91 e0       	ldi	r25, 0x01	; 1
        }
     }  // end (NumOfDiodes == 3)
     lcd_MEM_string(Bauteil);		//"Bauteil"
    363c:	0e 94 3a 01 	call	0x274	; 0x274 <lcd_fix_string>
    3640:	0e 94 f7 00 	call	0x1ee	; 0x1ee <lcd_line2>
     lcd_MEM_string(Unknown); 		//" unbek."
    3644:	89 e1       	ldi	r24, 0x19	; 25
    3646:	91 e0       	ldi	r25, 0x01	; 1
    3648:	0e 94 3a 01 	call	0x274	; 0x274 <lcd_fix_string>
     lcd_line2(); //2. row 
    364c:	80 91 14 01 	lds	r24, 0x0114
     lcd_MEM_string(OrBroken); 		//"oder defekt "
    3650:	80 5d       	subi	r24, 0xD0	; 208
    3652:	0e 94 cc 00 	call	0x198	; 0x198 <lcd_data>
    3656:	8e e6       	ldi	r24, 0x6E	; 110
     lcd_data(NumOfDiodes + '0');
    3658:	90 e0       	ldi	r25, 0x00	; 0
    365a:	db c2       	rjmp	.+1462   	; 0x3c12 <main+0x982>
    365c:	84 30       	cpi	r24, 0x04	; 4
    365e:	09 f0       	breq	.+2      	; 0x3662 <main+0x3d2>
    3660:	5e c1       	rjmp	.+700    	; 0x391e <main+0x68e>
     lcd_MEM_string(AnKat_str);		//"->|-"
    3662:	80 91 62 01 	lds	r24, 0x0162
    3666:	88 23       	and	r24, r24
     goto not_known;
     // end (PartFound == PART_DIODE)
  // ========================================
  } else if (PartFound == PART_TRANSISTOR) {
    3668:	a1 f1       	breq	.+104    	; 0x36d2 <main+0x442>
    366a:	80 91 4a 01 	lds	r24, 0x014A
  // ========================================
#ifdef SEARCH_PARASITIC
    if ((ptrans.count != 0) && (ntrans.count !=0)) {
    366e:	88 23       	and	r24, r24
    3670:	81 f1       	breq	.+96     	; 0x36d2 <main+0x442>
    3672:	60 91 47 01 	lds	r22, 0x0147
    3676:	80 91 49 01 	lds	r24, 0x0149
    367a:	0e 94 61 10 	call	0x20c2	; 0x20c2 <ReadCapacity>
       // Special Handling of NPNp and PNPn Transistor.
       // If a protection diode is built on the same structur as the NPN-Transistor,
       // a parasitic PNP-Transistor will be detected. 
       ReadCapacity(ntrans.e, ntrans.b);	// read capacity of NPN base-emitter
    367e:	20 90 68 01 	lds	r2, 0x0168
    3682:	30 90 69 01 	lds	r3, 0x0169
    3686:	40 90 6a 01 	lds	r4, 0x016A
       n_cval = cap.cval;			// save the found capacity value
    368a:	50 90 6b 01 	lds	r5, 0x016B
    368e:	10 91 7a 01 	lds	r17, 0x017A
    3692:	60 91 61 01 	lds	r22, 0x0161
    3696:	80 91 5f 01 	lds	r24, 0x015F
       n_cpre  = cap.cpre;			// and dimension
    369a:	0e 94 61 10 	call	0x20c2	; 0x20c2 <ReadCapacity>
       ReadCapacity(ptrans.b, ptrans.e);	// read capacity of PNP base-emitter
    369e:	80 91 7a 01 	lds	r24, 0x017A
    36a2:	18 13       	cpse	r17, r24
    36a4:	0e c0       	rjmp	.+28     	; 0x36c2 <main+0x432>
    36a6:	80 91 68 01 	lds	r24, 0x0168
			if (((n_cpre == cap.cpre) && (cap.cval > n_cval))
    36aa:	90 91 69 01 	lds	r25, 0x0169
    36ae:	a0 91 6a 01 	lds	r26, 0x016A
    36b2:	b0 91 6b 01 	lds	r27, 0x016B
    36b6:	28 16       	cp	r2, r24
    36b8:	39 06       	cpc	r3, r25
    36ba:	4a 06       	cpc	r4, r26
    36bc:	5b 06       	cpc	r5, r27
    36be:	18 f0       	brcs	.+6      	; 0x36c6 <main+0x436>
    36c0:	05 c0       	rjmp	.+10     	; 0x36cc <main+0x43c>
    36c2:	18 17       	cp	r17, r24
    36c4:	1c f4       	brge	.+6      	; 0x36cc <main+0x43c>
    36c6:	60 92 15 01 	sts	0x0115, r6
    36ca:	03 c0       	rjmp	.+6      	; 0x36d2 <main+0x442>
    36cc:	8c e0       	ldi	r24, 0x0C	; 12
					|| (cap.cpre > n_cpre)) {
    36ce:	80 93 15 01 	sts	0x0115, r24
          // the capacity value or dimension of the PNP B-E is greater than the NPN B-E
          PartMode = PART_MODE_PNP;
    36d2:	80 91 62 01 	lds	r24, 0x0162
    36d6:	88 23       	and	r24, r24
       } else {
          PartMode = PART_MODE_NPN;
    36d8:	61 f0       	breq	.+24     	; 0x36f2 <main+0x462>
    36da:	80 91 4a 01 	lds	r24, 0x014A
       }
    }  /* end ((ptrans.count != 0) && (ntrans.count !=0)) */
#endif
    // not possible for mega8, change Pin sequence instead.
		if ((ptrans.count != 0) && (ntrans.count != 0)
    36de:	88 23       	and	r24, r24
    36e0:	41 f0       	breq	.+16     	; 0x36f2 <main+0x462>
    36e2:	4f 99       	sbic	0x09, 7	; 9
    36e4:	06 c0       	rjmp	.+12     	; 0x36f2 <main+0x462>
    36e6:	80 91 15 01 	lds	r24, 0x0115
    36ea:	91 e0       	ldi	r25, 0x01	; 1
    36ec:	89 27       	eor	r24, r25
				&& (!(RST_PIN_REG & (1 << RST_PIN)))) {
    36ee:	80 93 15 01 	sts	0x0115, r24
          PartMode = PART_MODE_PNP;	// switch to parasitic transistor
       } else {
          PartMode = PART_MODE_NPN;	// switch to parasitic transistor
       }
#else
       PartMode ^= (PART_MODE_PNP - PART_MODE_NPN);
    36f2:	80 91 15 01 	lds	r24, 0x0115
    36f6:	8c 30       	cpi	r24, 0x0C	; 12
    36f8:	51 f4       	brne	.+20     	; 0x370e <main+0x47e>
    36fa:	85 eb       	ldi	r24, 0xB5	; 181
    36fc:	90 e0       	ldi	r25, 0x00	; 0
       if (ntrans.count != 0) {
          lcd_data('n');		// mark for parasitic NPn
       }
    }
#else 	/* only character display */
    if(PartMode == PART_MODE_NPN) {
    36fe:	0e 94 3a 01 	call	0x274	; 0x274 <lcd_fix_string>
    3702:	80 91 62 01 	lds	r24, 0x0162
//       _trans = &ntrans;  is allready selected a default
       lcd_MEM_string(NPN_str);		//"NPN "
    3706:	88 23       	and	r24, r24
    3708:	99 f0       	breq	.+38     	; 0x3730 <main+0x4a0>
    370a:	80 e7       	ldi	r24, 0x70	; 112
    370c:	0f c0       	rjmp	.+30     	; 0x372c <main+0x49c>
       if (ptrans.count != 0) {
    370e:	83 e5       	ldi	r24, 0x53	; 83
    3710:	91 e0       	ldi	r25, 0x01	; 1
    3712:	90 93 39 01 	sts	0x0139, r25
          lcd_data('p');		// mark for parasitic PNp
    3716:	80 93 38 01 	sts	0x0138, r24
       }
    } else {
       _trans = &ptrans;		// change transistor structure
    371a:	81 eb       	ldi	r24, 0xB1	; 177
    371c:	90 e0       	ldi	r25, 0x00	; 0
    371e:	0e 94 3a 01 	call	0x274	; 0x274 <lcd_fix_string>
    3722:	80 91 4a 01 	lds	r24, 0x014A
       lcd_MEM_string(PNP_str);		//"PNP "
    3726:	88 23       	and	r24, r24
    3728:	19 f0       	breq	.+6      	; 0x3730 <main+0x4a0>
    372a:	8e e6       	ldi	r24, 0x6E	; 110
    372c:	0e 94 cc 00 	call	0x198	; 0x198 <lcd_data>
       if (ntrans.count != 0) {
    3730:	0e 94 d7 00 	call	0x1ae	; 0x1ae <lcd_space>
    3734:	30 91 14 01 	lds	r19, 0x0114
          lcd_data('n');		// mark for parasitic NPn
    3738:	80 91 38 01 	lds	r24, 0x0138
       }
    }
    lcd_space();
    373c:	90 91 39 01 	lds	r25, 0x0139
    // show the protection diode of the BJT
#ifdef SHOW_VAKDIODE
    vak_diode_nr = 20;
#endif
    an_cat = 0;
    for (ii=0; ii<NumOfDiodes; ii++) {
    3740:	a4 e8       	ldi	r26, 0x84	; 132
    3742:	b1 e0       	ldi	r27, 0x01	; 1
			if ((diodes.Anode[ii] == _trans->b)
    3744:	6e e7       	ldi	r22, 0x7E	; 126
    3746:	71 e0       	ldi	r23, 0x01	; 1
    3748:	b6 2e       	mov	r11, r22
    374a:	be 18       	sub	r11, r14
    374c:	b3 16       	cp	r11, r19
    374e:	60 f5       	brcc	.+88     	; 0x37a8 <main+0x518>
    // show the protection diode of the BJT
#ifdef SHOW_VAKDIODE
    vak_diode_nr = 20;
#endif
    an_cat = 0;
    for (ii=0; ii<NumOfDiodes; ii++) {
    3750:	fb 01       	movw	r30, r22
    3752:	41 91       	ld	r20, Z+
    3754:	bf 01       	movw	r22, r30
    3756:	fc 01       	movw	r30, r24
    3758:	24 85       	ldd	r18, Z+12	; 0x0c
    375a:	42 17       	cp	r20, r18
			if ((diodes.Anode[ii] == _trans->b)
    375c:	19 f0       	breq	.+6      	; 0x3764 <main+0x4d4>
    375e:	4c 91       	ld	r20, X
    3760:	42 13       	cpse	r20, r18
    3762:	02 c0       	rjmp	.+4      	; 0x3768 <main+0x4d8>
    3764:	11 96       	adiw	r26, 0x01	; 1
    3766:	f0 cf       	rjmp	.-32     	; 0x3748 <main+0x4b8>
    3768:	80 91 15 01 	lds	r24, 0x0115
					|| (diodes.Cathode[ii] == _trans->b))
    376c:	8c 30       	cpi	r24, 0x0C	; 12
    376e:	41 f4       	brne	.+16     	; 0x3780 <main+0x4f0>
    3770:	90 91 48 01 	lds	r25, 0x0148
       an_cat = (PartMode == PART_MODE_NPN);
  #endif
 #else
       // Layout with 123= style
			an_cat = (((PartMode == PART_MODE_NPN) && (ntrans.c > ntrans.e))
					|| ((PartMode != PART_MODE_NPN) && (ptrans.c < ptrans.e)));
    3774:	80 91 49 01 	lds	r24, 0x0149
    3778:	89 17       	cp	r24, r25
    377a:	40 f0       	brcs	.+16     	; 0x378c <main+0x4fc>
       // Layout with EBC= style
       an_cat = (PartMode == PART_MODE_NPN);
  #endif
 #else
       // Layout with 123= style
			an_cat = (((PartMode == PART_MODE_NPN) && (ntrans.c > ntrans.e))
    377c:	10 e0       	ldi	r17, 0x00	; 0
    377e:	07 c0       	rjmp	.+14     	; 0x378e <main+0x4fe>
    3780:	90 91 60 01 	lds	r25, 0x0160
    3784:	80 91 61 01 	lds	r24, 0x0161
					|| ((PartMode != PART_MODE_NPN) && (ptrans.c < ptrans.e)));
    3788:	98 17       	cp	r25, r24
    378a:	c0 f7       	brcc	.-16     	; 0x377c <main+0x4ec>
    378c:	11 e0       	ldi	r17, 0x01	; 1
    378e:	11 23       	and	r17, r17
    3790:	31 f0       	breq	.+12     	; 0x379e <main+0x50e>
    3792:	8e e6       	ldi	r24, 0x6E	; 110
    3794:	90 e0       	ldi	r25, 0x00	; 0
    3796:	0e 94 3a 01 	call	0x274	; 0x274 <lcd_fix_string>
 #endif
       if (an_cat) {
    379a:	11 e0       	ldi	r17, 0x01	; 1
    379c:	08 c0       	rjmp	.+16     	; 0x37ae <main+0x51e>
          lcd_MEM_string(AnKat_str);	//"->|-"
    379e:	8a e6       	ldi	r24, 0x6A	; 106
    37a0:	90 e0       	ldi	r25, 0x00	; 0
    37a2:	0e 94 3a 01 	call	0x274	; 0x274 <lcd_fix_string>
    37a6:	03 c0       	rjmp	.+6      	; 0x37ae <main+0x51e>
    37a8:	a4 e1       	ldi	r26, 0x14	; 20
       } else {
          lcd_MEM_string(KatAn_str);	//"-|<-"
    37aa:	ba 2e       	mov	r11, r26
    37ac:	10 e0       	ldi	r17, 0x00	; 0
    37ae:	43 e4       	ldi	r20, 0x43	; 67
    37b0:	62 e4       	ldi	r22, 0x42	; 66
    37b2:	85 e4       	ldi	r24, 0x45	; 69
    lcd_space();
#endif

    // show the protection diode of the BJT
#ifdef SHOW_VAKDIODE
    vak_diode_nr = 20;
    37b4:	0e 94 ea 01 	call	0x3d4	; 0x3d4 <PinLayout>
#endif
    an_cat = 0;
    37b8:	0e 94 f7 00 	call	0x1ee	; 0x1ee <lcd_line2>
       lcd_MEM2_string(ICEs_str);		// "ICEs="
       DisplayValue16(_trans->ices,-6,'A',2);	// display ICEs
    }
 #endif
#else		/* character display */
    PinLayout('E','B','C'); 		//  EBC= or 123=...
    37bc:	8f eb       	ldi	r24, 0xBF	; 191
    37be:	90 e0       	ldi	r25, 0x00	; 0
    37c0:	0e 94 3a 01 	call	0x274	; 0x274 <lcd_fix_string>
    lcd_line2(); //2. row 
    37c4:	e0 91 38 01 	lds	r30, 0x0138
    lcd_MEM_string(hfe_str);		//"B="  (hFE)
    37c8:	f0 91 39 01 	lds	r31, 0x0139
    37cc:	60 81       	ld	r22, Z
    37ce:	71 81       	ldd	r23, Z+1	; 0x01
    DisplayValue(_trans->hfe,-2,0,3);
    37d0:	82 81       	ldd	r24, Z+2	; 0x02
    37d2:	93 81       	ldd	r25, Z+3	; 0x03
    37d4:	03 e0       	ldi	r16, 0x03	; 3
    37d6:	20 e0       	ldi	r18, 0x00	; 0
    37d8:	4e ef       	ldi	r20, 0xFE	; 254
    37da:	0e 94 88 02 	call	0x510	; 0x510 <DisplayValue>
    37de:	0e 94 d7 00 	call	0x1ae	; 0x1ae <lcd_space>
    37e2:	89 e4       	ldi	r24, 0x49	; 73
    37e4:	0e 94 cc 00 	call	0x198	; 0x198 <lcd_data>
    37e8:	e0 91 38 01 	lds	r30, 0x0138
 #if FLASHEND > 0x1fff
    lcd_space();
    37ec:	f0 91 39 01 	lds	r31, 0x0139

    lcd_data('I');
    37f0:	86 81       	ldd	r24, Z+6	; 0x06
    37f2:	97 81       	ldd	r25, Z+7	; 0x07
    if (_trans->current >= 10000) {
    37f4:	80 31       	cpi	r24, 0x10	; 16
    37f6:	97 42       	sbci	r25, 0x27	; 39
    37f8:	70 f0       	brcs	.+28     	; 0x3816 <main+0x586>
    37fa:	85 e6       	ldi	r24, 0x65	; 101
    37fc:	0e 94 cc 00 	call	0x198	; 0x198 <lcd_data>
    3800:	e0 91 38 01 	lds	r30, 0x0138
    3804:	f0 91 39 01 	lds	r31, 0x0139
       lcd_data('e');				// emitter current has 10mA offset
    3808:	86 81       	ldd	r24, Z+6	; 0x06
    380a:	97 81       	ldd	r25, Z+7	; 0x07
       _trans->current -= 10000;
    380c:	80 51       	subi	r24, 0x10	; 16
    380e:	97 42       	sbci	r25, 0x27	; 39
    3810:	97 83       	std	Z+7, r25	; 0x07
    3812:	86 83       	std	Z+6, r24	; 0x06
    3814:	03 c0       	rjmp	.+6      	; 0x381c <main+0x58c>
    3816:	83 e6       	ldi	r24, 0x63	; 99
    3818:	0e 94 cc 00 	call	0x198	; 0x198 <lcd_data>
    381c:	0e 94 ea 00 	call	0x1d4	; 0x1d4 <lcd_equal>
    3820:	e0 91 38 01 	lds	r30, 0x0138
    } else {
       lcd_data('c');
    3824:	f0 91 39 01 	lds	r31, 0x0139
    }
    lcd_equal();			// lcd_data('=');
    3828:	22 e0       	ldi	r18, 0x02	; 2
    382a:	41 e4       	ldi	r20, 0x41	; 65
    DisplayValue16(_trans->current,-6,'A',2);	// display Ic or Ie current
    382c:	6a ef       	ldi	r22, 0xFA	; 250
    382e:	86 81       	ldd	r24, Z+6	; 0x06
    3830:	97 81       	ldd	r25, Z+7	; 0x07
    3832:	0e 94 3a 03 	call	0x674	; 0x674 <DisplayValue16>
    3836:	80 e0       	ldi	r24, 0x00	; 0
    3838:	0e 94 b3 01 	call	0x366	; 0x366 <lcd_next_line_wait>
    383c:	86 ea       	ldi	r24, 0xA6	; 166
    383e:	90 e0       	ldi	r25, 0x00	; 0
    3840:	0e 94 3a 01 	call	0x274	; 0x274 <lcd_fix_string>
 #endif

 #if defined(SHOW_ICE)
    lcd_next_line_wait(0);		// next line, wait 5s and clear line 2
    3844:	e0 91 38 01 	lds	r30, 0x0138
    lcd_MEM_string(Ube_str);		//"Ube=" 
    3848:	f0 91 39 01 	lds	r31, 0x0139
    384c:	63 e0       	ldi	r22, 0x03	; 3
    384e:	84 81       	ldd	r24, Z+4	; 0x04
    Display_mV(_trans->uBE,3);
    3850:	95 81       	ldd	r25, Z+5	; 0x05
    3852:	0e 94 45 03 	call	0x68a	; 0x68a <Display_mV>
    3856:	e0 91 38 01 	lds	r30, 0x0138
    385a:	f0 91 39 01 	lds	r31, 0x0139
    385e:	80 85       	ldd	r24, Z+8	; 0x08
    3860:	91 85       	ldd	r25, Z+9	; 0x09

    if (_trans->ice0 > 0) {
    3862:	89 2b       	or	r24, r25
    3864:	91 f0       	breq	.+36     	; 0x388a <main+0x5fa>
    3866:	80 e0       	ldi	r24, 0x00	; 0
    3868:	0e 94 b3 01 	call	0x366	; 0x366 <lcd_next_line_wait>
    386c:	8e e8       	ldi	r24, 0x8E	; 142
    386e:	90 e0       	ldi	r25, 0x00	; 0
    3870:	0e 94 2c 01 	call	0x258	; 0x258 <lcd_pgm_string>
       lcd_next_line_wait(0);		// next line, wait 5s and clear line 2
    3874:	e0 91 38 01 	lds	r30, 0x0138
       lcd_MEM2_string(ICE0_str);		// "ICE0="
    3878:	f0 91 39 01 	lds	r31, 0x0139
    387c:	23 e0       	ldi	r18, 0x03	; 3
    387e:	41 e4       	ldi	r20, 0x41	; 65
       DisplayValue16(_trans->ice0,-6,'A',3);
    3880:	6a ef       	ldi	r22, 0xFA	; 250
    3882:	80 85       	ldd	r24, Z+8	; 0x08
    3884:	91 85       	ldd	r25, Z+9	; 0x09
    3886:	0e 94 3a 03 	call	0x674	; 0x674 <DisplayValue16>
    388a:	e0 91 38 01 	lds	r30, 0x0138
    388e:	f0 91 39 01 	lds	r31, 0x0139
    3892:	82 85       	ldd	r24, Z+10	; 0x0a
    3894:	93 85       	ldd	r25, Z+11	; 0x0b
    }
    if (_trans->ices > 0) {
    3896:	89 2b       	or	r24, r25
    3898:	91 f0       	breq	.+36     	; 0x38be <main+0x62e>
    389a:	80 e0       	ldi	r24, 0x00	; 0
    389c:	0e 94 b3 01 	call	0x366	; 0x366 <lcd_next_line_wait>
    38a0:	88 e8       	ldi	r24, 0x88	; 136
    38a2:	90 e0       	ldi	r25, 0x00	; 0
    38a4:	0e 94 2c 01 	call	0x258	; 0x258 <lcd_pgm_string>
       lcd_next_line_wait(0);		// next line, wait 5s and clear line 2
    38a8:	e0 91 38 01 	lds	r30, 0x0138
       lcd_MEM2_string(ICEs_str);		// "ICEs="
    38ac:	f0 91 39 01 	lds	r31, 0x0139
    38b0:	23 e0       	ldi	r18, 0x03	; 3
    38b2:	41 e4       	ldi	r20, 0x41	; 65
       DisplayValue16(_trans->ices,-6,'A',3);
    38b4:	6a ef       	ldi	r22, 0xFA	; 250
    38b6:	82 85       	ldd	r24, Z+10	; 0x0a
    38b8:	93 85       	ldd	r25, Z+11	; 0x0b
    38ba:	0e 94 3a 03 	call	0x674	; 0x674 <DisplayValue16>
    38be:	24 e0       	ldi	r18, 0x04	; 4
    38c0:	2b 15       	cp	r18, r11
    38c2:	08 f4       	brcc	.+2      	; 0x38c6 <main+0x636>
    38c4:	ab c1       	rjmp	.+854    	; 0x3c1c <main+0x98c>
    38c6:	80 e0       	ldi	r24, 0x00	; 0
    38c8:	0e 94 b3 01 	call	0x366	; 0x366 <lcd_next_line_wait>
    }
 #endif
#endif  /* WITH_GRAPHICS */
#ifdef SHOW_VAKDIODE
    if (vak_diode_nr < 5) {
    38cc:	8b 2d       	mov	r24, r11
    38ce:	90 e0       	ldi	r25, 0x00	; 0
    38d0:	11 23       	and	r17, r17
       lcd_next_line_wait(0); 		// next line, wait 5s and clear line 2/4
    38d2:	71 f0       	breq	.+28     	; 0x38f0 <main+0x660>
    38d4:	8c 01       	movw	r16, r24
    38d6:	02 58       	subi	r16, 0x82	; 130
    38d8:	1e 4f       	sbci	r17, 0xFE	; 254
    38da:	f8 01       	movw	r30, r16
       if (an_cat) {
    38dc:	80 81       	ld	r24, Z
    38de:	0e 94 d5 00 	call	0x1aa	; 0x1aa <lcd_testpin>
          lcd_testpin(diodes.Anode[vak_diode_nr]);
    38e2:	8e e6       	ldi	r24, 0x6E	; 110
    38e4:	90 e0       	ldi	r25, 0x00	; 0
    38e6:	0e 94 3a 01 	call	0x274	; 0x274 <lcd_fix_string>
    38ea:	f8 01       	movw	r30, r16
    38ec:	86 81       	ldd	r24, Z+6	; 0x06
          lcd_MEM_string(AnKat_str);	//"->|-"
    38ee:	0d c0       	rjmp	.+26     	; 0x390a <main+0x67a>
    38f0:	8c 01       	movw	r16, r24
    38f2:	02 58       	subi	r16, 0x82	; 130
    38f4:	1e 4f       	sbci	r17, 0xFE	; 254
          lcd_testpin(diodes.Cathode[vak_diode_nr]);
    38f6:	f8 01       	movw	r30, r16
    38f8:	86 81       	ldd	r24, Z+6	; 0x06
    38fa:	0e 94 d5 00 	call	0x1aa	; 0x1aa <lcd_testpin>
       } else {
          lcd_testpin(diodes.Cathode[vak_diode_nr]);
    38fe:	8a e6       	ldi	r24, 0x6A	; 106
    3900:	90 e0       	ldi	r25, 0x00	; 0
    3902:	0e 94 3a 01 	call	0x274	; 0x274 <lcd_fix_string>
    3906:	f8 01       	movw	r30, r16
    3908:	80 81       	ld	r24, Z
          lcd_MEM_string(KatAn_str);	//"-|<-"
    390a:	0e 94 d5 00 	call	0x1aa	; 0x1aa <lcd_testpin>
    390e:	0e 94 d7 00 	call	0x1ae	; 0x1ae <lcd_space>
          lcd_testpin(diodes.Anode[vak_diode_nr]);
    3912:	82 ea       	ldi	r24, 0xA2	; 162
    3914:	90 e0       	ldi	r25, 0x00	; 0
    3916:	0e 94 3a 01 	call	0x274	; 0x274 <lcd_fix_string>
       }
       lcd_space();
    391a:	8b 2d       	mov	r24, r11
    391c:	d8 c0       	rjmp	.+432    	; 0x3ace <main+0x83e>
       lcd_MEM_string(Uf_str);			//"Uf="
    391e:	85 30       	cpi	r24, 0x05	; 5
    3920:	09 f0       	breq	.+2      	; 0x3924 <main+0x694>
    3922:	f0 c0       	rjmp	.+480    	; 0x3b04 <main+0x874>
    3924:	80 91 15 01 	lds	r24, 0x0115
       mVAusgabe(vak_diode_nr);
    3928:	84 ff       	sbrs	r24, 4
#endif
    goto tt_end;
    // end (PartFound == PART_TRANSISTOR)

  // ========================================
  } else if (PartFound == PART_FET) {	/* JFET or MOSFET */
    392a:	0a c0       	rjmp	.+20     	; 0x3940 <main+0x6b0>
    392c:	80 e5       	ldi	r24, 0x50	; 80
    392e:	0e 94 cc 00 	call	0x198	; 0x198 <lcd_data>
  // ========================================
    unsigned char fetidx = 0;
#ifdef WITH_GRAPHICS
    lcd_set_cursor(0,TEXT_RIGHT_TO_ICON);	// position behind the icon, Line 1
#endif
    if((PartMode&P_CHANNEL) == P_CHANNEL) {
    3932:	83 e5       	ldi	r24, 0x53	; 83
    3934:	91 e0       	ldi	r25, 0x01	; 1
    3936:	90 93 39 01 	sts	0x0139, r25
       lcd_data('P');			//P-channel
    393a:	80 93 38 01 	sts	0x0138, r24
       _trans = &ptrans;
    393e:	03 c0       	rjmp	.+6      	; 0x3946 <main+0x6b6>
    3940:	8e e4       	ldi	r24, 0x4E	; 78
    3942:	0e 94 cc 00 	call	0x198	; 0x198 <lcd_data>
    3946:	8d e2       	ldi	r24, 0x2D	; 45
    3948:	0e 94 cc 00 	call	0x198	; 0x198 <lcd_data>
       fetidx += 1;
    } else {
       lcd_data('N');			//N-channel
    394c:	80 91 15 01 	lds	r24, 0x0115
    3950:	18 2f       	mov	r17, r24
//       _trans = &ntrans;	is allready selected as default
    }
    lcd_data('-');		// minus is used for JFET, D-MOS, E-MOS ...
    3952:	1f 70       	andi	r17, 0x0F	; 15
    3954:	14 30       	cpi	r17, 0x04	; 4
    3956:	19 f4       	brne	.+6      	; 0x395e <main+0x6ce>

    tmp = PartMode&0x0f;
    3958:	88 ec       	ldi	r24, 0xC8	; 200
    395a:	90 e0       	ldi	r25, 0x00	; 0
    395c:	13 c0       	rjmp	.+38     	; 0x3984 <main+0x6f4>
    395e:	85 ff       	sbrs	r24, 5
          if (fetidx == 2)  lcd_update_icon(bmp_n_d_mos);
          if (fetidx == 3)  lcd_update_icon(bmp_p_d_mos);
       }
    } /* end PART_MODE_JFET */
#else	/* normal character display */
    if (tmp == PART_MODE_JFET) {
    3960:	02 c0       	rjmp	.+4      	; 0x3966 <main+0x6d6>
    3962:	84 e4       	ldi	r24, 0x44	; 68
       lcd_MEM_string(jfet_str);	//"-JFET"
    3964:	01 c0       	rjmp	.+2      	; 0x3968 <main+0x6d8>
    3966:	85 e4       	ldi	r24, 0x45	; 69
    3968:	0e 94 cc 00 	call	0x198	; 0x198 <lcd_data>
    } else {		// no JFET
       if ((PartMode&D_MODE) == D_MODE) {
    396c:	13 30       	cpi	r17, 0x03	; 3
          lcd_data('D');			// N-D or P-D
    396e:	41 f4       	brne	.+16     	; 0x3980 <main+0x6f0>
    3970:	82 ec       	ldi	r24, 0xC2	; 194
          fetidx += 2;
       } else {
          lcd_data('E');			// N-E or P-E
    3972:	90 e0       	ldi	r25, 0x00	; 0
    3974:	0e 94 3a 01 	call	0x274	; 0x274 <lcd_fix_string>
       }
       if (tmp == (PART_MODE_IGBT)) {
    3978:	43 e4       	ldi	r20, 0x43	; 67
    397a:	67 e4       	ldi	r22, 0x47	; 71
          lcd_MEM_string(igbt_str);	//"-IGBT"
    397c:	85 e4       	ldi	r24, 0x45	; 69
    397e:	07 c0       	rjmp	.+14     	; 0x398e <main+0x6fe>
    3980:	8d ec       	ldi	r24, 0xCD	; 205
    3982:	90 e0       	ldi	r25, 0x00	; 0
          lcd_MEM_string(mosfet_str);	//"-MOS "
       }
    } /* end PART_MODE_JFET */

    if (tmp == PART_MODE_IGBT) {
       PinLayout('E','G','C'); 		//  SGD= or 123=...
    3984:	0e 94 3a 01 	call	0x274	; 0x274 <lcd_fix_string>
    3988:	44 e4       	ldi	r20, 0x44	; 68
    398a:	67 e4       	ldi	r22, 0x47	; 71
          lcd_data('E');			// N-E or P-E
       }
       if (tmp == (PART_MODE_IGBT)) {
          lcd_MEM_string(igbt_str);	//"-IGBT"
       } else {
          lcd_MEM_string(mosfet_str);	//"-MOS "
    398c:	83 e5       	ldi	r24, 0x53	; 83
    398e:	0e 94 ea 01 	call	0x3d4	; 0x3d4 <PinLayout>
    3992:	90 91 14 01 	lds	r25, 0x0114
    } /* end PART_MODE_JFET */

    if (tmp == PART_MODE_IGBT) {
       PinLayout('E','G','C'); 		//  SGD= or 123=...
    } else {
       PinLayout('S','G','D'); 		//  SGD= or 123=...
    3996:	80 91 15 01 	lds	r24, 0x0115
    399a:	91 30       	cpi	r25, 0x01	; 1
    399c:	89 f4       	brne	.+34     	; 0x39c0 <main+0x730>
    }
#endif  /* WITH_GRAPHICS */

    an_cat = 0;
    if(NumOfDiodes == 1) {
    399e:	84 ff       	sbrs	r24, 4
    39a0:	07 c0       	rjmp	.+14     	; 0x39b0 <main+0x720>
    39a2:	20 91 60 01 	lds	r18, 0x0160
    39a6:	90 91 61 01 	lds	r25, 0x0161
       an_cat = (PartMode&P_CHANNEL);	/* N or P MOS */
 #endif
#else /* EBC_STYLE not defined */
       // layout with 123= style
			an_cat = (((PartMode & P_CHANNEL) && (ptrans.c < ptrans.e))
					|| ((!(PartMode & P_CHANNEL)) && (ntrans.c > ntrans.e)));
    39aa:	29 17       	cp	r18, r25
    39ac:	38 f0       	brcs	.+14     	; 0x39bc <main+0x72c>
       // Layout with SGD= style
       an_cat = (PartMode&P_CHANNEL);	/* N or P MOS */
 #endif
#else /* EBC_STYLE not defined */
       // layout with 123= style
			an_cat = (((PartMode & P_CHANNEL) && (ptrans.c < ptrans.e))
    39ae:	08 c0       	rjmp	.+16     	; 0x39c0 <main+0x730>
    39b0:	20 91 48 01 	lds	r18, 0x0148
    39b4:	90 91 49 01 	lds	r25, 0x0149
    39b8:	92 17       	cp	r25, r18
    39ba:	10 f4       	brcc	.+4      	; 0x39c0 <main+0x730>
					|| ((!(PartMode & P_CHANNEL)) && (ntrans.c > ntrans.e)));
    39bc:	11 e0       	ldi	r17, 0x01	; 1
    39be:	01 c0       	rjmp	.+2      	; 0x39c2 <main+0x732>
    39c0:	10 e0       	ldi	r17, 0x00	; 0
    39c2:	85 fd       	sbrc	r24, 5
    39c4:	2c c0       	rjmp	.+88     	; 0x3a1e <main+0x78e>
    39c6:	0e 94 f7 00 	call	0x1ee	; 0x1ee <lcd_line2>
    39ca:	e0 91 38 01 	lds	r30, 0x0138
       DisplayValue16(_trans->current,-6,'A',2);
       lcd_MEM_string(Vgs_str);		// "@Vg="
       Display_mV(_trans->gthvoltage,2);	//Gate-threshold voltage
    }	/* end of enhancement or depletion mode WITH_GRAPHICS */
#else	/* character display */
    if((PartMode&D_MODE) != D_MODE) {	//enhancement-MOSFET
    39ce:	f0 91 39 01 	lds	r31, 0x0139
	//Gate capacity
       lcd_line2();		// line 2
    39d2:	66 85       	ldd	r22, Z+14	; 0x0e
    39d4:	84 85       	ldd	r24, Z+12	; 0x0c
       ReadCapacity(_trans->b,_trans->e);	//measure capacity
    39d6:	0e 94 61 10 	call	0x20c2	; 0x20c2 <ReadCapacity>
    39da:	0e 94 bc 01 	call	0x378	; 0x378 <lcd_show_Cg>
    39de:	8d e9       	ldi	r24, 0x9D	; 157
    39e0:	90 e0       	ldi	r25, 0x00	; 0
    39e2:	0e 94 3a 01 	call	0x274	; 0x274 <lcd_fix_string>
       lcd_show_Cg();	// show Cg=xxxpF
    39e6:	e0 91 38 01 	lds	r30, 0x0138
       lcd_MEM_string(vt_str);		// " Vt="
    39ea:	f0 91 39 01 	lds	r31, 0x0139
    39ee:	62 e0       	ldi	r22, 0x02	; 2
    39f0:	82 85       	ldd	r24, Z+10	; 0x0a
       Display_mV(_trans->gthvoltage,2);	//Gate-threshold voltage
    39f2:	93 85       	ldd	r25, Z+11	; 0x0b
    39f4:	0e 94 45 03 	call	0x68a	; 0x68a <Display_mV>
    39f8:	80 e0       	ldi	r24, 0x00	; 0
    39fa:	0e 94 b3 01 	call	0x366	; 0x366 <lcd_next_line_wait>
    39fe:	80 e3       	ldi	r24, 0x30	; 48
    3a00:	90 e0       	ldi	r25, 0x00	; 0
    3a02:	0e 94 3a 01 	call	0x274	; 0x274 <lcd_fix_string>
  #ifdef SHOW_R_DS
       lcd_next_line_wait(0);		// line 3, if possible & wait 5s and clear last line 
    3a06:	e0 91 38 01 	lds	r30, 0x0138
       lcd_MEM_string(RDS_str);		// "RDS=
    3a0a:	f0 91 39 01 	lds	r31, 0x0139
    3a0e:	22 e0       	ldi	r18, 0x02	; 2
    3a10:	44 ef       	ldi	r20, 0xF4	; 244
       DisplayValue16(_trans->uBE,-1,LCD_CHAR_OMEGA,2);	// Drain-Source resistance
    3a12:	6f ef       	ldi	r22, 0xFF	; 255
    3a14:	84 81       	ldd	r24, Z+4	; 0x04
    3a16:	95 81       	ldd	r25, Z+5	; 0x05
    3a18:	0e 94 3a 03 	call	0x674	; 0x674 <DisplayValue16>
    3a1c:	30 c0       	rjmp	.+96     	; 0x3a7e <main+0x7ee>
    3a1e:	8f 70       	andi	r24, 0x0F	; 15
    3a20:	84 30       	cpi	r24, 0x04	; 4
    3a22:	69 f0       	breq	.+26     	; 0x3a3e <main+0x7ae>
    3a24:	80 e0       	ldi	r24, 0x00	; 0
    3a26:	0e 94 93 01 	call	0x326	; 0x326 <lcd_next_line>
  #endif
    } else {
 #if FLASHEND > 0x1fff
       if ((PartMode&0x0f)  != PART_MODE_JFET) {     /* kein JFET */
    3a2a:	e0 91 38 01 	lds	r30, 0x0138
    3a2e:	f0 91 39 01 	lds	r31, 0x0139
          lcd_next_line(0);		// line 2
    3a32:	66 85       	ldd	r22, Z+14	; 0x0e
    3a34:	84 85       	ldd	r24, Z+12	; 0x0c
          ReadCapacity(_trans->b,_trans->e);	//measure capacity
    3a36:	0e 94 61 10 	call	0x20c2	; 0x20c2 <ReadCapacity>
    3a3a:	0e 94 bc 01 	call	0x378	; 0x378 <lcd_show_Cg>
    3a3e:	80 e0       	ldi	r24, 0x00	; 0
    3a40:	0e 94 b3 01 	call	0x366	; 0x366 <lcd_next_line_wait>
    3a44:	89 e4       	ldi	r24, 0x49	; 73
          lcd_show_Cg();	// show Cg=xxxpF
    3a46:	0e 94 cc 00 	call	0x198	; 0x198 <lcd_data>
       }
       lcd_next_line_wait(0);		// line 2 or 3, if possible & wait and clear last line
    3a4a:	0e 94 ea 00 	call	0x1d4	; 0x1d4 <lcd_equal>
    3a4e:	e0 91 38 01 	lds	r30, 0x0138
 #endif
       lcd_data('I');			// show I=xmA@Vg=y.yV at line 2 or 3
    3a52:	f0 91 39 01 	lds	r31, 0x0139
 #if (LCD_LINE_LENGTH > 17)
       lcd_data('d');
 #endif
       lcd_equal();			// lcd_data('=');
    3a56:	22 e0       	ldi	r18, 0x02	; 2
    3a58:	41 e4       	ldi	r20, 0x41	; 65
       DisplayValue16(_trans->current,-6,'A',2);
    3a5a:	6a ef       	ldi	r22, 0xFA	; 250
    3a5c:	86 81       	ldd	r24, Z+6	; 0x06
    3a5e:	97 81       	ldd	r25, Z+7	; 0x07
    3a60:	0e 94 3a 03 	call	0x674	; 0x674 <DisplayValue16>
    3a64:	88 e9       	ldi	r24, 0x98	; 152
    3a66:	90 e0       	ldi	r25, 0x00	; 0
    3a68:	0e 94 3a 01 	call	0x274	; 0x274 <lcd_fix_string>
    3a6c:	e0 91 38 01 	lds	r30, 0x0138
       lcd_MEM_string(Vgs_str);		// "@Vg="
    3a70:	f0 91 39 01 	lds	r31, 0x0139
    3a74:	62 e0       	ldi	r22, 0x02	; 2
    3a76:	82 85       	ldd	r24, Z+10	; 0x0a
       Display_mV(_trans->gthvoltage,2);	//Gate-threshold voltage
    3a78:	93 85       	ldd	r25, Z+11	; 0x0b
    3a7a:	0e 94 45 03 	call	0x68a	; 0x68a <Display_mV>
    3a7e:	80 91 14 01 	lds	r24, 0x0114
    3a82:	81 30       	cpi	r24, 0x01	; 1
    3a84:	09 f0       	breq	.+2      	; 0x3a88 <main+0x7f8>
    3a86:	ca c0       	rjmp	.+404    	; 0x3c1c <main+0x98c>
    3a88:	80 e0       	ldi	r24, 0x00	; 0
    }
#endif  /* WITH_GRAPHICS or without */

#if FLASHEND > 0x1fff
    if(NumOfDiodes == 1) {
    3a8a:	0e 94 b3 01 	call	0x366	; 0x366 <lcd_next_line_wait>
    3a8e:	11 23       	and	r17, r17
    3a90:	59 f0       	breq	.+22     	; 0x3aa8 <main+0x818>
    3a92:	80 91 7e 01 	lds	r24, 0x017E
       // there is enough space for long form of presenting protection diode
 #if LCD_LINES > 6
       lcd_next_line(0);		// line 5 , if possible
 #endif
       lcd_next_line_wait(0);		// line 4, if possible & wait 5s and clear last line 
    3a96:	0e 94 d5 00 	call	0x1aa	; 0x1aa <lcd_testpin>
       if (an_cat) {
    3a9a:	8e e6       	ldi	r24, 0x6E	; 110
    3a9c:	90 e0       	ldi	r25, 0x00	; 0
          lcd_testpin(diodes.Anode[0]);
    3a9e:	0e 94 3a 01 	call	0x274	; 0x274 <lcd_fix_string>
    3aa2:	80 91 84 01 	lds	r24, 0x0184
          lcd_MEM_string(AnKat_str);	//"->|-"
    3aa6:	0a c0       	rjmp	.+20     	; 0x3abc <main+0x82c>
    3aa8:	80 91 84 01 	lds	r24, 0x0184
    3aac:	0e 94 d5 00 	call	0x1aa	; 0x1aa <lcd_testpin>
          lcd_testpin(diodes.Cathode[0]);
    3ab0:	8a e6       	ldi	r24, 0x6A	; 106
    3ab2:	90 e0       	ldi	r25, 0x00	; 0
       } else {
          lcd_testpin(diodes.Cathode[0]);
    3ab4:	0e 94 3a 01 	call	0x274	; 0x274 <lcd_fix_string>
    3ab8:	80 91 7e 01 	lds	r24, 0x017E
          lcd_MEM_string(KatAn_str);	//"-|<-"
    3abc:	0e 94 d5 00 	call	0x1aa	; 0x1aa <lcd_testpin>
    3ac0:	0e 94 d7 00 	call	0x1ae	; 0x1ae <lcd_space>
          lcd_testpin(diodes.Anode[0]);
    3ac4:	82 ea       	ldi	r24, 0xA2	; 162
    3ac6:	90 e0       	ldi	r25, 0x00	; 0
    3ac8:	0e 94 3a 01 	call	0x274	; 0x274 <lcd_fix_string>
       }
       lcd_space();
    3acc:	80 e0       	ldi	r24, 0x00	; 0
    3ace:	0e 94 41 02 	call	0x482	; 0x482 <mVAusgabe>
       lcd_MEM_string(Uf_str);			//"Uf="
    3ad2:	a4 c0       	rjmp	.+328    	; 0x3c1c <main+0x98c>
    3ad4:	80 91 65 01 	lds	r24, 0x0165
       mVAusgabe(0);
    3ad8:	88 23       	and	r24, r24
    3ada:	09 f4       	brne	.+2      	; 0x3ade <main+0x84e>
    3adc:	9f c0       	rjmp	.+318    	; 0x3c1c <main+0x98c>
    3ade:	a7 b8       	out	0x07, r10	; 7
	// POWER_OFF not selected, repeat measurement
//  return 0;

end3:
  // the diode  is already shown on the LCD
	if (ResistorsFound == 0)
    3ae0:	80 91 0e 01 	lds	r24, 0x010E
    3ae4:	90 91 0f 01 	lds	r25, 0x010F
    3ae8:	0e 94 d4 03 	call	0x7a8	; 0x7a8 <wait_for_key_ms>
#if (LCD_LINES > 3)
  ADC_DDR =  TXD_MSK; 	// switch pin with reference to input, activate relay
//  lcd_line3();
  lcd_next_line_wait(0);
#else
  wait_for_key_ms(display_time);
    3aec:	17 b8       	out	0x07, r1	; 7
    3aee:	0e 94 1d 01 	call	0x23a	; 0x23a <lcd_clear>
    3af2:	80 91 14 01 	lds	r24, 0x0114
    3af6:	80 5d       	subi	r24, 0xD0	; 208
  ADC_DDR =  TXD_MSK; 	// switch pin with reference to input, activate relay
    3af8:	0e 94 cc 00 	call	0x198	; 0x198 <lcd_data>
  lcd_clear();
    3afc:	85 e6       	ldi	r24, 0x65	; 101
//#if FLASHEND > 0x1fff
  lcd_data('0'+NumOfDiodes);
    3afe:	90 e0       	ldi	r25, 0x00	; 0
    3b00:	0e 94 3a 01 	call	0x274	; 0x274 <lcd_fix_string>
    3b04:	00 91 65 01 	lds	r16, 0x0165
  lcd_MEM_string(Dioden);	//"Diodes "
    3b08:	00 23       	and	r16, r16
    3b0a:	09 f4       	brne	.+2      	; 0x3b0e <main+0x87e>
    3b0c:	76 c0       	rjmp	.+236    	; 0x3bfa <main+0x96a>
    3b0e:	01 30       	cpi	r16, 0x01	; 1
#endif
    goto tt_end;
  }  /* end (PartFound == PART_FET) */

//   if(PartFound == PART_RESISTOR) 
	resistor_out: if (ResistorsFound != 0) {
    3b10:	49 f4       	brne	.+18     	; 0x3b24 <main+0x894>
    3b12:	80 91 50 01 	lds	r24, 0x0150
    3b16:	0e 94 11 02 	call	0x422	; 0x422 <Rnum2pins>
    if (ResistorsFound == 1) { // single resistor
    3b1a:	40 e0       	ldi	r20, 0x00	; 0
    3b1c:	69 2f       	mov	r22, r25

       rpins.pw = Rnum2pins(ResistorList[0]);	// get pin numbers for resistor 1
    3b1e:	0e 94 ed 13 	call	0x27da	; 0x27da <show_resis>
    3b22:	7c c0       	rjmp	.+248    	; 0x3c1c <main+0x98c>
    3b24:	30 91 50 01 	lds	r19, 0x0150
          // is the TP1:TP3 resistor and no additional diode
          show_Resis13();		// call of the special resistor measurement
          goto shut_off;		// key is pressed or timeout
       }
 #endif
       show_resis(rpins.pb[0],rpins.pb[1],0);
    3b28:	10 91 51 01 	lds	r17, 0x0151
    3b2c:	94 e0       	ldi	r25, 0x04	; 4
    3b2e:	19 9f       	mul	r17, r25
#endif

    } else { // multiple resistors found, R-Max suchen

       ii = ResistorList[0];	// first resistor in the list with number 0,1,2
    3b30:	d0 01       	movw	r26, r0
    3b32:	11 24       	eor	r1, r1
       if (ResistorVal[ResistorList[1]] > ResistorVal[ii])
    3b34:	a9 56       	subi	r26, 0x69	; 105
    3b36:	be 4f       	sbci	r27, 0xFE	; 254
    3b38:	24 e0       	ldi	r18, 0x04	; 4
    3b3a:	32 9f       	mul	r19, r18
    3b3c:	f0 01       	movw	r30, r0
    3b3e:	11 24       	eor	r1, r1
    3b40:	e9 56       	subi	r30, 0x69	; 105
    3b42:	fe 4f       	sbci	r31, 0xFE	; 254
    3b44:	4d 91       	ld	r20, X+
    3b46:	5d 91       	ld	r21, X+
    3b48:	6d 91       	ld	r22, X+
    3b4a:	7c 91       	ld	r23, X
    3b4c:	80 81       	ld	r24, Z
    3b4e:	91 81       	ldd	r25, Z+1	; 0x01
    3b50:	a2 81       	ldd	r26, Z+2	; 0x02
    3b52:	b3 81       	ldd	r27, Z+3	; 0x03
    3b54:	84 17       	cp	r24, r20
    3b56:	95 07       	cpc	r25, r21
    3b58:	a6 07       	cpc	r26, r22
    3b5a:	b7 07       	cpc	r27, r23
    3b5c:	10 f0       	brcs	.+4      	; 0x3b62 <main+0x8d2>
    3b5e:	23 2f       	mov	r18, r19
    3b60:	01 c0       	rjmp	.+2      	; 0x3b64 <main+0x8d4>
    3b62:	21 2f       	mov	r18, r17
    3b64:	02 30       	cpi	r16, 0x02	; 2
    3b66:	21 f4       	brne	.+8      	; 0x3b70 <main+0x8e0>
    3b68:	31 0f       	add	r19, r17
       show_resis(rpins.pb[0],rpins.pb[1],0);
#endif

    } else { // multiple resistors found, R-Max suchen

       ii = ResistorList[0];	// first resistor in the list with number 0,1,2
    3b6a:	13 e0       	ldi	r17, 0x03	; 3
    3b6c:	13 1b       	sub	r17, r19
       if (ResistorVal[ResistorList[1]] > ResistorVal[ii])
          ii = ResistorList[1]; // second resistor in the list with number 0,1,2
    3b6e:	1c c0       	rjmp	.+56     	; 0x3ba8 <main+0x918>
       if (ResistorsFound == 2) {
    3b70:	10 91 52 01 	lds	r17, 0x0152
    3b74:	84 e0       	ldi	r24, 0x04	; 4
          ii = (3 - ResistorList[0] - ResistorList[1]);
    3b76:	18 9f       	mul	r17, r24
    3b78:	d0 01       	movw	r26, r0
    3b7a:	11 24       	eor	r1, r1
       } else {
          if (ResistorVal[ResistorList[2]] > ResistorVal[ii]) {
    3b7c:	a9 56       	subi	r26, 0x69	; 105
    3b7e:	be 4f       	sbci	r27, 0xFE	; 254
    3b80:	94 e0       	ldi	r25, 0x04	; 4
    3b82:	29 9f       	mul	r18, r25
    3b84:	f0 01       	movw	r30, r0
    3b86:	11 24       	eor	r1, r1
    3b88:	e9 56       	subi	r30, 0x69	; 105
    3b8a:	fe 4f       	sbci	r31, 0xFE	; 254
    3b8c:	4d 91       	ld	r20, X+
    3b8e:	5d 91       	ld	r21, X+
    3b90:	6d 91       	ld	r22, X+
    3b92:	7c 91       	ld	r23, X
    3b94:	80 81       	ld	r24, Z
    3b96:	91 81       	ldd	r25, Z+1	; 0x01
    3b98:	a2 81       	ldd	r26, Z+2	; 0x02
    3b9a:	b3 81       	ldd	r27, Z+3	; 0x03
    3b9c:	84 17       	cp	r24, r20
    3b9e:	95 07       	cpc	r25, r21
    3ba0:	a6 07       	cpc	r26, r22
    3ba2:	b7 07       	cpc	r27, r23
    3ba4:	08 f0       	brcs	.+2      	; 0x3ba8 <main+0x918>
    3ba6:	12 2f       	mov	r17, r18
    3ba8:	b1 2e       	mov	r11, r17
    3baa:	b6 94       	lsr	r11
    3bac:	02 e0       	ldi	r16, 0x02	; 2
    3bae:	01 1b       	sub	r16, r17
    3bb0:	11 23       	and	r17, r17
    3bb2:	11 f0       	breq	.+4      	; 0x3bb8 <main+0x928>
    //   }
    // the following does the same as the above, but more cryptically (and in fewer instructions)
       #if (TP2!=TP1+1 || TP3!=TP2+1)
       #error code assumes TP1,2,3 are consecutive integers
       #endif
       x = TP1+(ii>>1);
    3bb4:	22 e0       	ldi	r18, 0x02	; 2
    3bb6:	01 c0       	rjmp	.+2      	; 0x3bba <main+0x92a>
       y = TP3-ii;
    3bb8:	21 e0       	ldi	r18, 0x01	; 1
    3bba:	8b 2d       	mov	r24, r11
       z = TP2+(ii>0);
    3bbc:	29 83       	std	Y+1, r18	; 0x01
    3bbe:	0e 94 d5 00 	call	0x1aa	; 0x1aa <lcd_testpin>
    3bc2:	80 e6       	ldi	r24, 0x60	; 96
    3bc4:	90 e0       	ldi	r25, 0x00	; 0
       lcd_testpin(x);  	//Pin-number 1
    3bc6:	0e 94 3a 01 	call	0x274	; 0x274 <lcd_fix_string>
    3bca:	80 2f       	mov	r24, r16
    3bcc:	0e 94 d5 00 	call	0x1aa	; 0x1aa <lcd_testpin>
       lcd_MEM_string(Resistor_str);    // -[=]-
    3bd0:	80 e6       	ldi	r24, 0x60	; 96
    3bd2:	90 e0       	ldi	r25, 0x00	; 0
    3bd4:	0e 94 3a 01 	call	0x274	; 0x274 <lcd_fix_string>
       lcd_testpin(y);		//Pin-number 2
    3bd8:	29 81       	ldd	r18, Y+1	; 0x01
    3bda:	82 2f       	mov	r24, r18
       lcd_MEM_string(Resistor_str);    // -[=]-
    3bdc:	0e 94 d5 00 	call	0x1aa	; 0x1aa <lcd_testpin>
    3be0:	80 e0       	ldi	r24, 0x00	; 0
    3be2:	0e 94 93 01 	call	0x326	; 0x326 <lcd_next_line>
       lcd_testpin(z);		//Pin-number 3
    3be6:	81 e0       	ldi	r24, 0x01	; 1
    3be8:	11 11       	cpse	r17, r1
    3bea:	80 e0       	ldi	r24, 0x00	; 0

       lcd_next_line(0);
    3bec:	0e 94 1b 02 	call	0x436	; 0x436 <RvalOut>
    3bf0:	82 e0       	ldi	r24, 0x02	; 2
    //  if (ii == 2) { /* resistor 2 has maximum */
    //     RvalOut(0);
    //     RvalOut(1);
    //  }
    // again a shorter but cryptical equivalent:
       RvalOut(ii==0);
    3bf2:	8b 19       	sub	r24, r11
    3bf4:	0e 94 1b 02 	call	0x436	; 0x436 <RvalOut>
    3bf8:	11 c0       	rjmp	.+34     	; 0x3c1c <main+0x98c>
    3bfa:	85 e2       	ldi	r24, 0x25	; 37
       RvalOut(2-(ii>>1));
    3bfc:	91 e0       	ldi	r25, 0x01	; 1
    3bfe:	0e 94 3a 01 	call	0x274	; 0x274 <lcd_fix_string>
    3c02:	0e 94 f7 00 	call	0x1ee	; 0x1ee <lcd_line2>
    }  // end ResistorsFound==1
    goto tt_end;

  } // end (PartFound == PART_RESISTOR)

  lcd_MEM_string(TestFailed1); 	//"Kein,unbek. oder"
    3c06:	82 e5       	ldi	r24, 0x52	; 82
    3c08:	91 e0       	ldi	r25, 0x01	; 1
    3c0a:	0e 94 3a 01 	call	0x274	; 0x274 <lcd_fix_string>
  lcd_line2(); //2. row 
    3c0e:	8d e4       	ldi	r24, 0x4D	; 77
    3c10:	91 e0       	ldi	r25, 0x01	; 1
#if defined(LANG_ITALIAN)               //italiano
  lcd_MEM_string(Bauteil);		//"campione"
  lcd_space();
  lcd_MEM_string(TestFailed2); 		//"guasto "
#else
  lcd_MEM_string(TestFailed2); 		//"defektes "
    3c12:	0e 94 3a 01 	call	0x274	; 0x274 <lcd_fix_string>
    3c16:	80 e4       	ldi	r24, 0x40	; 64
    3c18:	9f e1       	ldi	r25, 0x1F	; 31
  lcd_MEM_string(Bauteil);		//"Bauteil"
    3c1a:	04 c0       	rjmp	.+8      	; 0x3c24 <main+0x994>
    3c1c:	80 91 0e 01 	lds	r24, 0x010E
    3c20:	90 91 0f 01 	lds	r25, 0x010F
#endif
#if POWER_OFF+0 > 1
  empty_count++;
  mess_count = 0;
#endif
  max_time = SHORT_WAIT_TIME;		// use allways the short wait time
    3c24:	a7 b8       	out	0x07, r10	; 7
    3c26:	4f 9b       	sbis	0x09, 7	; 9
 tt_end:
#if POWER_OFF+0 > 1
  empty_count = 0;		// reset counter, if part is found
  mess_count++;			// count measurements
#endif
  max_time = display_time;	// full specified wait time
    3c28:	fe cf       	rjmp	.-4      	; 0x3c26 <main+0x996>
    3c2a:	0e 94 d4 03 	call	0x7a8	; 0x7a8 <wait_for_key_ms>
    3c2e:	81 11       	cpse	r24, r1

 end2:
  ADC_DDR = (1<<TPRELAY) | TXD_MSK; 	// switch pin with reference to GND, release relay
    3c30:	85 cb       	rjmp	.-2294   	; 0x333c <main+0xac>
  lcd_refresh();			// write the pixels to display, ST7920 only
	while (!(RST_PIN_REG & (1 << RST_PIN)))
    3c32:	5e 98       	cbi	0x0b, 6	; 11
    3c34:	80 e0       	ldi	r24, 0x00	; 0
		;	//wait ,until button is released
#ifdef WITH_ROTARY_SWITCH
wait_again:
#endif
  ii = wait_for_key_ms(max_time);
    3c36:	90 e0       	ldi	r25, 0x00	; 0
    3c38:	0e 94 d4 03 	call	0x7a8	; 0x7a8 <wait_for_key_ms>
     // menu selected by long key press or rotary switch
		while(function_menu());// start the function menu
     goto loop_start;
  }
#endif
	if (ii != 0)
    3c3c:	79 cb       	rjmp	.-2318   	; 0x3330 <main+0xa0>
 #endif
//  MCUSR = 0;
 #if ((LCD_ST_TYPE == 7565) || (LCD_ST_TYPE == 1306))
  lcd_powersave();			// set graphical display to power save mode
 #endif
  ON_PORT &= ~(1<<ON_PIN);		//switch off power
    3c3e:	0e 94 f0 00 	call	0x1e0	; 0x1e0 <lcd_line1>
  wait_for_key_ms(0); //never ending loop 
    3c42:	80 e1       	ldi	r24, 0x10	; 16
    3c44:	91 e0       	ldi	r25, 0x01	; 1
    3c46:	0e 94 3a 01 	call	0x274	; 0x274 <lcd_fix_string>
	//  ADC_DDR = TXD_MSK;
	  if(tmp) { 
	     // check if  Watchdog-Event 
	     // this happens, if the Watchdog is not reset for 2s
	     // can happen, if any loop in the Program doen't finish.
	     lcd_line1();
    3c4a:	0e 94 52 03 	call	0x6a4	; 0x6a4 <wait3s>
             lcd_MEM_string(TestTimedOut);	//Output Timeout
    3c4e:	5e 98       	cbi	0x0b, 6	; 11
    3c50:	80 e0       	ldi	r24, 0x00	; 0
    3c52:	90 e0       	ldi	r25, 0x00	; 0
    3c54:	21 96       	adiw	r28, 0x01	; 1
	     wait_about3s();			// time to read the Timeout message
    3c56:	e2 e1       	ldi	r30, 0x12	; 18
    3c58:	a8 c0       	rjmp	.+336    	; 0x3daa <__epilogue_restores__>

00003c5a <__umulhisi3>:
	#if ((LCD_ST_TYPE == 7565) || (LCD_ST_TYPE == 1306))
	     lcd_powersave();			// set graphical display to power save mode
	#endif
	     ON_PORT &= ~(1<<ON_PIN);			//shut off!
    3c5a:	a2 9f       	mul	r26, r18
  lcd_MEM_string(Dioden);	//"Diodes "
//#endif
#endif
  goto resistor_out;

}   // end main
    3c5c:	b0 01       	movw	r22, r0
    3c5e:	b3 9f       	mul	r27, r19
    3c60:	c0 01       	movw	r24, r0
    3c62:	a3 9f       	mul	r26, r19
    3c64:	70 0d       	add	r23, r0
    3c66:	81 1d       	adc	r24, r1
    3c68:	11 24       	eor	r1, r1
    3c6a:	91 1d       	adc	r25, r1
    3c6c:	b2 9f       	mul	r27, r18
    3c6e:	70 0d       	add	r23, r0
    3c70:	81 1d       	adc	r24, r1
    3c72:	11 24       	eor	r1, r1
    3c74:	91 1d       	adc	r25, r1
    3c76:	08 95       	ret

00003c78 <__usmulhisi3>:
    3c78:	f0 df       	rcall	.-32     	; 0x3c5a <__umulhisi3>

00003c7a <__usmulhisi3_tail>:
    3c7a:	b7 ff       	sbrs	r27, 7
    3c7c:	08 95       	ret
    3c7e:	82 1b       	sub	r24, r18
    3c80:	93 0b       	sbc	r25, r19
    3c82:	08 95       	ret

00003c84 <__muluhisi3>:
    3c84:	ea df       	rcall	.-44     	; 0x3c5a <__umulhisi3>
    3c86:	a5 9f       	mul	r26, r21
    3c88:	90 0d       	add	r25, r0
    3c8a:	b4 9f       	mul	r27, r20
    3c8c:	90 0d       	add	r25, r0
    3c8e:	a4 9f       	mul	r26, r20
    3c90:	80 0d       	add	r24, r0
    3c92:	91 1d       	adc	r25, r1
    3c94:	11 24       	eor	r1, r1
    3c96:	08 95       	ret

00003c98 <__mulsi3>:
    3c98:	db 01       	movw	r26, r22
    3c9a:	8f 93       	push	r24
    3c9c:	9f 93       	push	r25
    3c9e:	f2 df       	rcall	.-28     	; 0x3c84 <__muluhisi3>
    3ca0:	bf 91       	pop	r27
    3ca2:	af 91       	pop	r26
    3ca4:	a2 9f       	mul	r26, r18
    3ca6:	80 0d       	add	r24, r0
    3ca8:	91 1d       	adc	r25, r1
    3caa:	a3 9f       	mul	r26, r19
    3cac:	90 0d       	add	r25, r0
    3cae:	b2 9f       	mul	r27, r18
    3cb0:	90 0d       	add	r25, r0
    3cb2:	11 24       	eor	r1, r1
    3cb4:	08 95       	ret

00003cb6 <__udivmodqi4>:
    3cb6:	99 1b       	sub	r25, r25
    3cb8:	79 e0       	ldi	r23, 0x09	; 9
    3cba:	04 c0       	rjmp	.+8      	; 0x3cc4 <__udivmodqi4_ep>

00003cbc <__udivmodqi4_loop>:
    3cbc:	99 1f       	adc	r25, r25
    3cbe:	96 17       	cp	r25, r22
    3cc0:	08 f0       	brcs	.+2      	; 0x3cc4 <__udivmodqi4_ep>
    3cc2:	96 1b       	sub	r25, r22

00003cc4 <__udivmodqi4_ep>:
    3cc4:	88 1f       	adc	r24, r24
    3cc6:	7a 95       	dec	r23
    3cc8:	c9 f7       	brne	.-14     	; 0x3cbc <__udivmodqi4_loop>
    3cca:	80 95       	com	r24
    3ccc:	08 95       	ret

00003cce <__udivmodhi4>:
    3cce:	aa 1b       	sub	r26, r26
    3cd0:	bb 1b       	sub	r27, r27
    3cd2:	51 e1       	ldi	r21, 0x11	; 17
    3cd4:	07 c0       	rjmp	.+14     	; 0x3ce4 <__udivmodhi4_ep>

00003cd6 <__udivmodhi4_loop>:
    3cd6:	aa 1f       	adc	r26, r26
    3cd8:	bb 1f       	adc	r27, r27
    3cda:	a6 17       	cp	r26, r22
    3cdc:	b7 07       	cpc	r27, r23
    3cde:	10 f0       	brcs	.+4      	; 0x3ce4 <__udivmodhi4_ep>
    3ce0:	a6 1b       	sub	r26, r22
    3ce2:	b7 0b       	sbc	r27, r23

00003ce4 <__udivmodhi4_ep>:
    3ce4:	88 1f       	adc	r24, r24
    3ce6:	99 1f       	adc	r25, r25
    3ce8:	5a 95       	dec	r21
    3cea:	a9 f7       	brne	.-22     	; 0x3cd6 <__udivmodhi4_loop>
    3cec:	80 95       	com	r24
    3cee:	90 95       	com	r25
    3cf0:	bc 01       	movw	r22, r24
    3cf2:	cd 01       	movw	r24, r26
    3cf4:	08 95       	ret

00003cf6 <__udivmodsi4>:
    3cf6:	a1 e2       	ldi	r26, 0x21	; 33
    3cf8:	1a 2e       	mov	r1, r26
    3cfa:	aa 1b       	sub	r26, r26
    3cfc:	bb 1b       	sub	r27, r27
    3cfe:	fd 01       	movw	r30, r26
    3d00:	0d c0       	rjmp	.+26     	; 0x3d1c <__udivmodsi4_ep>

00003d02 <__udivmodsi4_loop>:
    3d02:	aa 1f       	adc	r26, r26
    3d04:	bb 1f       	adc	r27, r27
    3d06:	ee 1f       	adc	r30, r30
    3d08:	ff 1f       	adc	r31, r31
    3d0a:	a2 17       	cp	r26, r18
    3d0c:	b3 07       	cpc	r27, r19
    3d0e:	e4 07       	cpc	r30, r20
    3d10:	f5 07       	cpc	r31, r21
    3d12:	20 f0       	brcs	.+8      	; 0x3d1c <__udivmodsi4_ep>
    3d14:	a2 1b       	sub	r26, r18
    3d16:	b3 0b       	sbc	r27, r19
    3d18:	e4 0b       	sbc	r30, r20
    3d1a:	f5 0b       	sbc	r31, r21

00003d1c <__udivmodsi4_ep>:
    3d1c:	66 1f       	adc	r22, r22
    3d1e:	77 1f       	adc	r23, r23
    3d20:	88 1f       	adc	r24, r24
    3d22:	99 1f       	adc	r25, r25
    3d24:	1a 94       	dec	r1
    3d26:	69 f7       	brne	.-38     	; 0x3d02 <__udivmodsi4_loop>
    3d28:	60 95       	com	r22
    3d2a:	70 95       	com	r23
    3d2c:	80 95       	com	r24
    3d2e:	90 95       	com	r25
    3d30:	9b 01       	movw	r18, r22
    3d32:	ac 01       	movw	r20, r24
    3d34:	bd 01       	movw	r22, r26
    3d36:	cf 01       	movw	r24, r30
    3d38:	08 95       	ret

00003d3a <__divmodsi4>:
    3d3a:	05 2e       	mov	r0, r21
    3d3c:	97 fb       	bst	r25, 7
    3d3e:	16 f4       	brtc	.+4      	; 0x3d44 <__divmodsi4+0xa>
    3d40:	00 94       	com	r0
    3d42:	0f d0       	rcall	.+30     	; 0x3d62 <__negsi2>
    3d44:	57 fd       	sbrc	r21, 7
    3d46:	05 d0       	rcall	.+10     	; 0x3d52 <__divmodsi4_neg2>
    3d48:	d6 df       	rcall	.-84     	; 0x3cf6 <__udivmodsi4>
    3d4a:	07 fc       	sbrc	r0, 7
    3d4c:	02 d0       	rcall	.+4      	; 0x3d52 <__divmodsi4_neg2>
    3d4e:	46 f4       	brtc	.+16     	; 0x3d60 <__divmodsi4_exit>
    3d50:	08 c0       	rjmp	.+16     	; 0x3d62 <__negsi2>

00003d52 <__divmodsi4_neg2>:
    3d52:	50 95       	com	r21
    3d54:	40 95       	com	r20
    3d56:	30 95       	com	r19
    3d58:	21 95       	neg	r18
    3d5a:	3f 4f       	sbci	r19, 0xFF	; 255
    3d5c:	4f 4f       	sbci	r20, 0xFF	; 255
    3d5e:	5f 4f       	sbci	r21, 0xFF	; 255

00003d60 <__divmodsi4_exit>:
    3d60:	08 95       	ret

00003d62 <__negsi2>:
    3d62:	90 95       	com	r25
    3d64:	80 95       	com	r24
    3d66:	70 95       	com	r23
    3d68:	61 95       	neg	r22
    3d6a:	7f 4f       	sbci	r23, 0xFF	; 255
    3d6c:	8f 4f       	sbci	r24, 0xFF	; 255
    3d6e:	9f 4f       	sbci	r25, 0xFF	; 255
    3d70:	08 95       	ret

00003d72 <__prologue_saves__>:
    3d72:	2f 92       	push	r2
    3d74:	3f 92       	push	r3
    3d76:	4f 92       	push	r4
    3d78:	5f 92       	push	r5
    3d7a:	6f 92       	push	r6
    3d7c:	7f 92       	push	r7
    3d7e:	8f 92       	push	r8
    3d80:	9f 92       	push	r9
    3d82:	af 92       	push	r10
    3d84:	bf 92       	push	r11
    3d86:	cf 92       	push	r12
    3d88:	df 92       	push	r13
    3d8a:	ef 92       	push	r14
    3d8c:	ff 92       	push	r15
    3d8e:	0f 93       	push	r16
    3d90:	1f 93       	push	r17
    3d92:	cf 93       	push	r28
    3d94:	df 93       	push	r29
    3d96:	cd b7       	in	r28, 0x3d	; 61
    3d98:	de b7       	in	r29, 0x3e	; 62
    3d9a:	ca 1b       	sub	r28, r26
    3d9c:	db 0b       	sbc	r29, r27
    3d9e:	0f b6       	in	r0, 0x3f	; 63
    3da0:	f8 94       	cli
    3da2:	de bf       	out	0x3e, r29	; 62
    3da4:	0f be       	out	0x3f, r0	; 63
    3da6:	cd bf       	out	0x3d, r28	; 61
    3da8:	09 94       	ijmp

00003daa <__epilogue_restores__>:
    3daa:	2a 88       	ldd	r2, Y+18	; 0x12
    3dac:	39 88       	ldd	r3, Y+17	; 0x11
    3dae:	48 88       	ldd	r4, Y+16	; 0x10
    3db0:	5f 84       	ldd	r5, Y+15	; 0x0f
    3db2:	6e 84       	ldd	r6, Y+14	; 0x0e
    3db4:	7d 84       	ldd	r7, Y+13	; 0x0d
    3db6:	8c 84       	ldd	r8, Y+12	; 0x0c
    3db8:	9b 84       	ldd	r9, Y+11	; 0x0b
    3dba:	aa 84       	ldd	r10, Y+10	; 0x0a
    3dbc:	b9 84       	ldd	r11, Y+9	; 0x09
    3dbe:	c8 84       	ldd	r12, Y+8	; 0x08
    3dc0:	df 80       	ldd	r13, Y+7	; 0x07
    3dc2:	ee 80       	ldd	r14, Y+6	; 0x06
    3dc4:	fd 80       	ldd	r15, Y+5	; 0x05
    3dc6:	0c 81       	ldd	r16, Y+4	; 0x04
    3dc8:	1b 81       	ldd	r17, Y+3	; 0x03
    3dca:	aa 81       	ldd	r26, Y+2	; 0x02
    3dcc:	b9 81       	ldd	r27, Y+1	; 0x01
    3dce:	ce 0f       	add	r28, r30
    3dd0:	d1 1d       	adc	r29, r1
    3dd2:	0f b6       	in	r0, 0x3f	; 63
    3dd4:	f8 94       	cli
    3dd6:	de bf       	out	0x3e, r29	; 62
    3dd8:	0f be       	out	0x3f, r0	; 63
    3dda:	cd bf       	out	0x3d, r28	; 61
    3ddc:	ed 01       	movw	r28, r26
    3dde:	08 95       	ret

00003de0 <utoa>:
    3de0:	fb 01       	movw	r30, r22
    3de2:	9f 01       	movw	r18, r30
    3de4:	42 30       	cpi	r20, 0x02	; 2
    3de6:	6c f0       	brlt	.+26     	; 0x3e02 <utoa+0x22>
    3de8:	45 32       	cpi	r20, 0x25	; 37
    3dea:	5c f4       	brge	.+22     	; 0x3e02 <utoa+0x22>
    3dec:	64 2f       	mov	r22, r20
    3dee:	77 27       	eor	r23, r23
    3df0:	6e df       	rcall	.-292    	; 0x3cce <__udivmodhi4>
    3df2:	80 5d       	subi	r24, 0xD0	; 208
    3df4:	8a 33       	cpi	r24, 0x3A	; 58
    3df6:	0c f0       	brlt	.+2      	; 0x3dfa <utoa+0x1a>
    3df8:	89 5d       	subi	r24, 0xD9	; 217
    3dfa:	81 93       	st	Z+, r24
    3dfc:	cb 01       	movw	r24, r22
    3dfe:	00 97       	sbiw	r24, 0x00	; 0
    3e00:	a9 f7       	brne	.-22     	; 0x3dec <utoa+0xc>
    3e02:	10 82       	st	Z, r1
    3e04:	c9 01       	movw	r24, r18
    3e06:	19 c0       	rjmp	.+50     	; 0x3e3a <strrev>

00003e08 <__eerd_byte_m168>:
    3e08:	f9 99       	sbic	0x1f, 1	; 31
    3e0a:	fe cf       	rjmp	.-4      	; 0x3e08 <__eerd_byte_m168>
    3e0c:	92 bd       	out	0x22, r25	; 34
    3e0e:	81 bd       	out	0x21, r24	; 33
    3e10:	f8 9a       	sbi	0x1f, 0	; 31
    3e12:	99 27       	eor	r25, r25
    3e14:	80 b5       	in	r24, 0x20	; 32
    3e16:	08 95       	ret

00003e18 <__eewr_byte_m168>:
    3e18:	26 2f       	mov	r18, r22

00003e1a <__eewr_r18_m168>:
    3e1a:	f9 99       	sbic	0x1f, 1	; 31
    3e1c:	fe cf       	rjmp	.-4      	; 0x3e1a <__eewr_r18_m168>
    3e1e:	1f ba       	out	0x1f, r1	; 31
    3e20:	92 bd       	out	0x22, r25	; 34
    3e22:	81 bd       	out	0x21, r24	; 33
    3e24:	20 bd       	out	0x20, r18	; 32
    3e26:	0f b6       	in	r0, 0x3f	; 63
    3e28:	f8 94       	cli
    3e2a:	fa 9a       	sbi	0x1f, 2	; 31
    3e2c:	f9 9a       	sbi	0x1f, 1	; 31
    3e2e:	0f be       	out	0x3f, r0	; 63
    3e30:	01 96       	adiw	r24, 0x01	; 1
    3e32:	08 95       	ret

00003e34 <__eewr_word_m168>:
    3e34:	f1 df       	rcall	.-30     	; 0x3e18 <__eewr_byte_m168>
    3e36:	27 2f       	mov	r18, r23
    3e38:	f0 cf       	rjmp	.-32     	; 0x3e1a <__eewr_r18_m168>

00003e3a <strrev>:
    3e3a:	dc 01       	movw	r26, r24
    3e3c:	fc 01       	movw	r30, r24
    3e3e:	67 2f       	mov	r22, r23
    3e40:	71 91       	ld	r23, Z+
    3e42:	77 23       	and	r23, r23
    3e44:	e1 f7       	brne	.-8      	; 0x3e3e <strrev+0x4>
    3e46:	32 97       	sbiw	r30, 0x02	; 2
    3e48:	04 c0       	rjmp	.+8      	; 0x3e52 <strrev+0x18>
    3e4a:	7c 91       	ld	r23, X
    3e4c:	6d 93       	st	X+, r22
    3e4e:	70 83       	st	Z, r23
    3e50:	62 91       	ld	r22, -Z
    3e52:	ae 17       	cp	r26, r30
    3e54:	bf 07       	cpc	r27, r31
    3e56:	c8 f3       	brcs	.-14     	; 0x3e4a <strrev+0x10>
    3e58:	08 95       	ret

00003e5a <_exit>:
    3e5a:	f8 94       	cli

00003e5c <__stop_program>:
    3e5c:	ff cf       	rjmp	.-2      	; 0x3e5c <__stop_program>
